

Microchip MPLAB XC8 Assembler V2.31 build 20201012212115 
                                                                                               Mon Sep 06 01:46:01 2021

Microchip MPLAB XC8 C Compiler v2.31 (Free license) build 20201012212115 Og1 
     1                           	processor	16F887
     2                           	pagewidth 120
     3                           	opt	flic
     4                           	psect	strings,global,class=STRING,delta=2,noexec
     5                           	psect	cinit,global,class=CODE,merge=1,delta=2
     6                           	psect	bssBANK1,global,class=BANK1,space=1,delta=1,noexec
     7                           	psect	bssBANK3,global,class=BANK3,space=1,delta=1,noexec
     8                           	psect	clrtext,global,class=CODE,delta=2
     9                           	psect	cstackBANK1,global,class=BANK1,space=1,delta=1,noexec
    10                           	psect	cstackCOMMON,global,class=COMMON,space=1,delta=1,noexec
    11                           	psect	cstackBANK0,global,class=BANK0,space=1,delta=1,noexec
    12                           	psect	maintext,global,class=CODE,split=1,delta=2
    13                           	psect	text1,local,class=CODE,merge=1,delta=2
    14                           	psect	text2,local,class=CODE,merge=1,delta=2
    15                           	psect	text3,local,class=CODE,merge=1,delta=2,group=1
    16                           	psect	text4,local,class=CODE,merge=1,delta=2
    17                           	psect	text5,local,class=CODE,merge=1,delta=2,group=1
    18                           	psect	text6,local,class=CODE,merge=1,delta=2,group=1
    19                           	psect	text7,local,class=CODE,merge=1,delta=2,group=1
    20                           	psect	text8,local,class=CODE,merge=1,delta=2,group=1
    21                           	psect	text9,local,class=CODE,merge=1,delta=2,group=1
    22                           	psect	text10,local,class=CODE,merge=1,delta=2,group=1
    23                           	psect	text11,local,class=CODE,merge=1,delta=2,group=1
    24                           	psect	text12,local,class=CODE,merge=1,delta=2,group=1
    25                           	psect	text13,local,class=CODE,merge=1,delta=2,group=1
    26                           	psect	text14,local,class=CODE,merge=1,delta=2,group=1
    27                           	psect	text15,local,class=CODE,merge=1,delta=2
    28                           	psect	text16,local,class=CODE,merge=1,delta=2
    29                           	psect	text17,local,class=CODE,merge=1,delta=2
    30                           	psect	text18,local,class=CODE,merge=1,delta=2
    31                           	psect	text19,local,class=CODE,merge=1,delta=2
    32                           	psect	text20,local,class=CODE,merge=1,delta=2
    33                           	psect	text21,local,class=CODE,merge=1,delta=2
    34                           	psect	text22,local,class=CODE,merge=1,delta=2
    35                           	psect	text23,local,class=CODE,merge=1,delta=2
    36                           	psect	text24,local,class=CODE,merge=1,delta=2
    37                           	psect	text25,local,class=CODE,merge=1,delta=2
    38                           	psect	text26,local,class=CODE,merge=1,delta=2
    39                           	psect	config,global,abs,ovrld,class=CONFIG,space=4,delta=2,noexec
    40                           	dabs	1,0x7E,2
    41  0000                     
    42                           ; Version 2.20
    43                           ; Generated 12/02/2020 GMT
    44                           ; 
    45                           ; Copyright © 2020, Microchip Technology Inc. and its subsidiaries ("Microchip")
    46                           ; All rights reserved.
    47                           ; 
    48                           ; This software is developed by Microchip Technology Inc. and its subsidiaries ("Microch
      +                          ip").
    49                           ; 
    50                           ; Redistribution and use in source and binary forms, with or without modification, are
    51                           ; permitted provided that the following conditions are met:
    52                           ; 
    53                           ;     1. Redistributions of source code must retain the above copyright notice, this lis
      +                          t of
    54                           ;        conditions and the following disclaimer.
    55                           ; 
    56                           ;     2. Redistributions in binary form must reproduce the above copyright notice, this 
      +                          list
    57                           ;        of conditions and the following disclaimer in the documentation and/or other
    58                           ;        materials provided with the distribution.
    59                           ; 
    60                           ;     3. Microchip's name may not be used to endorse or promote products derived from th
      +                          is
    61                           ;        software without specific prior written permission.
    62                           ; 
    63                           ; THIS SOFTWARE IS PROVIDED BY MICROCHIP "AS IS" AND ANY EXPRESS OR IMPLIED WARRANTIES,
    64                           ; INCLUDING, BUT NOT LIMITED TO, THE IMPLIED WARRANTIES OF MERCHANTABILITY AND FITNESS F
      +                          OR
    65                           ; PURPOSE ARE DISCLAIMED.  IN NO EVENT SHALL MICROCHIP BE LIABLE FOR ANY DIRECT, INDIREC
      +                          T,
    66                           ; INCIDENTAL, SPECIAL, EXEMPLARY, OR CONSEQUENTIAL DAMAGES (INCLUDING BUT NOT LIMITED TO
    67                           ; PROCUREMENT OF SUBSTITUTE GOODS OR SERVICES; LOSS OF USE, DATA OR PROFITS; OR BUSINESS
    68                           ; INTERRUPTION) HOWSOEVER CAUSED AND ON ANY THEORY OF LIABILITY, WHETHER IN CONTRACT, ST
      +                          RICT
    69                           ; LIABILITY, OR TORT (INCLUDING NEGLIGENCE OR OTHERWISE) ARISING IN ANY WAY OUT OF THE U
      +                          SE OF
    70                           ; THIS SOFTWARE, EVEN IF ADVISED OF THE POSSIBILITY OF SUCH DAMAGE.
    71                           ; 
    72                           ; 
    73                           ; Code-generator required, PIC16F887 Definitions
    74                           ; 
    75                           ; SFR Addresses
    76  0000                     	;# 
    77  0001                     	;# 
    78  0002                     	;# 
    79  0003                     	;# 
    80  0004                     	;# 
    81  0005                     	;# 
    82  0006                     	;# 
    83  0007                     	;# 
    84  0008                     	;# 
    85  0009                     	;# 
    86  000A                     	;# 
    87  000B                     	;# 
    88  000C                     	;# 
    89  000D                     	;# 
    90  000E                     	;# 
    91  000E                     	;# 
    92  000F                     	;# 
    93  0010                     	;# 
    94  0011                     	;# 
    95  0012                     	;# 
    96  0013                     	;# 
    97  0014                     	;# 
    98  0015                     	;# 
    99  0015                     	;# 
   100  0016                     	;# 
   101  0017                     	;# 
   102  0018                     	;# 
   103  0019                     	;# 
   104  001A                     	;# 
   105  001B                     	;# 
   106  001B                     	;# 
   107  001C                     	;# 
   108  001D                     	;# 
   109  001E                     	;# 
   110  001F                     	;# 
   111  0081                     	;# 
   112  0085                     	;# 
   113  0086                     	;# 
   114  0087                     	;# 
   115  0088                     	;# 
   116  0089                     	;# 
   117  008C                     	;# 
   118  008D                     	;# 
   119  008E                     	;# 
   120  008F                     	;# 
   121  0090                     	;# 
   122  0091                     	;# 
   123  0092                     	;# 
   124  0093                     	;# 
   125  0093                     	;# 
   126  0093                     	;# 
   127  0094                     	;# 
   128  0095                     	;# 
   129  0096                     	;# 
   130  0097                     	;# 
   131  0098                     	;# 
   132  0099                     	;# 
   133  009A                     	;# 
   134  009B                     	;# 
   135  009C                     	;# 
   136  009D                     	;# 
   137  009E                     	;# 
   138  009F                     	;# 
   139  0105                     	;# 
   140  0107                     	;# 
   141  0108                     	;# 
   142  0109                     	;# 
   143  010C                     	;# 
   144  010C                     	;# 
   145  010D                     	;# 
   146  010E                     	;# 
   147  010F                     	;# 
   148  0185                     	;# 
   149  0187                     	;# 
   150  0188                     	;# 
   151  0189                     	;# 
   152  018C                     	;# 
   153  018D                     	;# 
   154  0000                     	;# 
   155  0001                     	;# 
   156  0002                     	;# 
   157  0003                     	;# 
   158  0004                     	;# 
   159  0005                     	;# 
   160  0006                     	;# 
   161  0007                     	;# 
   162  0008                     	;# 
   163  0009                     	;# 
   164  000A                     	;# 
   165  000B                     	;# 
   166  000C                     	;# 
   167  000D                     	;# 
   168  000E                     	;# 
   169  000E                     	;# 
   170  000F                     	;# 
   171  0010                     	;# 
   172  0011                     	;# 
   173  0012                     	;# 
   174  0013                     	;# 
   175  0014                     	;# 
   176  0015                     	;# 
   177  0015                     	;# 
   178  0016                     	;# 
   179  0017                     	;# 
   180  0018                     	;# 
   181  0019                     	;# 
   182  001A                     	;# 
   183  001B                     	;# 
   184  001B                     	;# 
   185  001C                     	;# 
   186  001D                     	;# 
   187  001E                     	;# 
   188  001F                     	;# 
   189  0081                     	;# 
   190  0085                     	;# 
   191  0086                     	;# 
   192  0087                     	;# 
   193  0088                     	;# 
   194  0089                     	;# 
   195  008C                     	;# 
   196  008D                     	;# 
   197  008E                     	;# 
   198  008F                     	;# 
   199  0090                     	;# 
   200  0091                     	;# 
   201  0092                     	;# 
   202  0093                     	;# 
   203  0093                     	;# 
   204  0093                     	;# 
   205  0094                     	;# 
   206  0095                     	;# 
   207  0096                     	;# 
   208  0097                     	;# 
   209  0098                     	;# 
   210  0099                     	;# 
   211  009A                     	;# 
   212  009B                     	;# 
   213  009C                     	;# 
   214  009D                     	;# 
   215  009E                     	;# 
   216  009F                     	;# 
   217  0105                     	;# 
   218  0107                     	;# 
   219  0108                     	;# 
   220  0109                     	;# 
   221  010C                     	;# 
   222  010C                     	;# 
   223  010D                     	;# 
   224  010E                     	;# 
   225  010F                     	;# 
   226  0185                     	;# 
   227  0187                     	;# 
   228  0188                     	;# 
   229  0189                     	;# 
   230  018C                     	;# 
   231  018D                     	;# 
   232  0000                     	;# 
   233  0001                     	;# 
   234  0002                     	;# 
   235  0003                     	;# 
   236  0004                     	;# 
   237  0005                     	;# 
   238  0006                     	;# 
   239  0007                     	;# 
   240  0008                     	;# 
   241  0009                     	;# 
   242  000A                     	;# 
   243  000B                     	;# 
   244  000C                     	;# 
   245  000D                     	;# 
   246  000E                     	;# 
   247  000E                     	;# 
   248  000F                     	;# 
   249  0010                     	;# 
   250  0011                     	;# 
   251  0012                     	;# 
   252  0013                     	;# 
   253  0014                     	;# 
   254  0015                     	;# 
   255  0015                     	;# 
   256  0016                     	;# 
   257  0017                     	;# 
   258  0018                     	;# 
   259  0019                     	;# 
   260  001A                     	;# 
   261  001B                     	;# 
   262  001B                     	;# 
   263  001C                     	;# 
   264  001D                     	;# 
   265  001E                     	;# 
   266  001F                     	;# 
   267  0081                     	;# 
   268  0085                     	;# 
   269  0086                     	;# 
   270  0087                     	;# 
   271  0088                     	;# 
   272  0089                     	;# 
   273  008C                     	;# 
   274  008D                     	;# 
   275  008E                     	;# 
   276  008F                     	;# 
   277  0090                     	;# 
   278  0091                     	;# 
   279  0092                     	;# 
   280  0093                     	;# 
   281  0093                     	;# 
   282  0093                     	;# 
   283  0094                     	;# 
   284  0095                     	;# 
   285  0096                     	;# 
   286  0097                     	;# 
   287  0098                     	;# 
   288  0099                     	;# 
   289  009A                     	;# 
   290  009B                     	;# 
   291  009C                     	;# 
   292  009D                     	;# 
   293  009E                     	;# 
   294  009F                     	;# 
   295  0105                     	;# 
   296  0107                     	;# 
   297  0108                     	;# 
   298  0109                     	;# 
   299  010C                     	;# 
   300  010C                     	;# 
   301  010D                     	;# 
   302  010E                     	;# 
   303  010F                     	;# 
   304  0185                     	;# 
   305  0187                     	;# 
   306  0188                     	;# 
   307  0189                     	;# 
   308  018C                     	;# 
   309  018D                     	;# 
   310  000C                     _PIR1bits	set	12
   311  000B                     _INTCONbits	set	11
   312  001F                     _ADCON0bits	set	31
   313  0009                     _PORTEbits	set	9
   314  0013                     _SSPBUF	set	19
   315  0014                     _SSPCON	set	20
   316  0008                     _PORTD	set	8
   317  0006                     _PORTB	set	6
   318  0009                     _PORTE	set	9
   319  0063                     _SSPIF	set	99
   320  005E                     _PEIE	set	94
   321  005F                     _GIE	set	95
   322  009F                     _ADCON1bits	set	159
   323  008C                     _PIE1bits	set	140
   324  0091                     _SSPCON2bits	set	145
   325  0094                     _SSPSTAT	set	148
   326  0093                     _SSPADD	set	147
   327  0091                     _SSPCON2	set	145
   328  008F                     _OSCCONbits	set	143
   329  0089                     _TRISE	set	137
   330  0088                     _TRISD	set	136
   331  0086                     _TRISB	set	134
   332  0087                     _TRISCbits	set	135
   333  0463                     _SSPIE	set	1123
   334  043C                     _TRISC4	set	1084
   335  043B                     _TRISC3	set	1083
   336  0189                     _ANSELHbits	set	393
   337  0188                     _ANSELbits	set	392
   338  0189                     _ANSELH	set	393
   339  0188                     _ANSEL	set	392
   340                           
   341                           	psect	strings
   342  1000                     __pstrings:
   343  1000                     stringtab:
   344  1000                     __stringtab:
   345                           
   346                           ;	String table - string pointers are 1 byte each
   347  1000  1BFF               	btfsc	btemp+1,7
   348  1001  280A               	ljmp	stringcode
   349  1002  1383               	bcf	3,7
   350  1003  187F               	btfsc	btemp+1,0
   351  1004  1783               	bsf	3,7
   352  1005  0800               	movf	0,w
   353  1006  0A84               	incf	4,f
   354  1007  1903               	skipnz
   355  1008  0AFF               	incf	btemp+1,f
   356  1009  0008               	return
   357  100A                     stringcode:
   358  100A                     stringdir:
   359  100A  3010               	movlw	high stringdir
   360  100B  008A               	movwf	10
   361  100C  0804               	movf	4,w
   362  100D  0A84               	incf	4,f
   363  100E  0782               	addwf	2,f
   364  100F                     __stringbase:
   365  100F  3400               	retlw	0
   366  1010                     __end_of__stringtab:
   367  1010                     STR_1:
   368  1010  3454               	retlw	84	;'T'
   369  1011  3445               	retlw	69	;'E'
   370  1012  344D               	retlw	77	;'M'
   371  1013  3450               	retlw	80	;'P'
   372  1014  3400               	retlw	0
   373  1015                     STR_2:
   374  1015  3448               	retlw	72	;'H'
   375  1016  3455               	retlw	85	;'U'
   376  1017  344D               	retlw	77	;'M'
   377  1018  3400               	retlw	0
   378  1019                     STR_3:
   379  1019  3443               	retlw	67	;'C'
   380  101A  344F               	retlw	79	;'O'
   381  101B  344E               	retlw	78	;'N'
   382  101C  3400               	retlw	0
   383  101D                     STR_4:
   384  101D  3443               	retlw	67	;'C'
   385  101E  3400               	retlw	0
   386  101D                     
   387                           	psect	cinit
   388  07EA                     start_initialization:	
   389                           ; #config settings
   390                           
   391  07EA                     __initialization:
   392                           
   393                           ; Clear objects allocated to BANK1
   394  07EA  1383               	bcf	3,7	;select IRP bank0
   395  07EB  30A0               	movlw	low __pbssBANK1
   396  07EC  0084               	movwf	4
   397  07ED  30D4               	movlw	low (__pbssBANK1+52)
   398  07EE  160A  118A  241B  120A  118A  	fcall	clear_ram0
   399                           
   400                           ; Clear objects allocated to BANK3
   401  07F3  1783               	bsf	3,7	;select IRP bank2
   402  07F4  3090               	movlw	low __pbssBANK3
   403  07F5  0084               	movwf	4
   404  07F6  309A               	movlw	low (__pbssBANK3+10)
   405  07F7  160A  118A  241B  120A  118A  	fcall	clear_ram0
   406  07FC                     end_of_initialization:	
   407                           ;End of C runtime variable initialization code
   408                           
   409  07FC                     __end_of__initialization:
   410  07FC  0183               	clrf	3
   411  07FD  120A  158A  2CB1   	ljmp	_main	;jump to C main() function
   412                           
   413                           	psect	bssBANK1
   414  00A0                     __pbssBANK1:
   415  00A0                     _conv3:
   416  00A0                     	ds	4
   417  00A4                     _conv0:
   418  00A4                     	ds	4
   419  00A8                     _conv1:
   420  00A8                     	ds	4
   421  00AC                     _temperatura:
   422  00AC                     	ds	4
   423  00B0                     _volt:
   424  00B0                     	ds	4
   425  00B4                     _temp:
   426  00B4                     	ds	4
   427  00B8                     _datos_sensor:
   428  00B8                     	ds	3
   429  00BB                     _dato:
   430  00BB                     	ds	2
   431  00BD                     _var_hum:
   432  00BD                     	ds	1
   433  00BE                     _tem2:
   434  00BE                     	ds	1
   435  00BF                     _tem1:
   436  00BF                     	ds	1
   437  00C0                     _humedad:
   438  00C0                     	ds	10
   439  00CA                     _lcd1:
   440  00CA                     	ds	10
   441                           
   442                           	psect	bssBANK3
   443  0190                     __pbssBANK3:
   444  0190                     _lcd3:
   445  0190                     	ds	10
   446                           
   447                           	psect	clrtext
   448  141B                     clear_ram0:	
   449                           ;	Called with FSR containing the base address, and
   450                           ;	W with the last address+1
   451                           
   452  141B  0064               	clrwdt	;clear the watchdog before getting into this loop
   453  141C                     clrloop0:
   454  141C  0180               	clrf	0	;clear RAM location pointed to by FSR
   455  141D  0A84               	incf	4,f	;increment pointer
   456  141E  0604               	xorwf	4,w	;XOR with final address
   457  141F  1903               	btfsc	3,2	;have we reached the end yet?
   458  1420  3400               	retlw	0	;all done for this memory range, return
   459  1421  0604               	xorwf	4,w	;XOR again to restore value
   460  1422  2C1C               	goto	clrloop0	;do the next byte
   461                           
   462                           	psect	cstackBANK1
   463  00D4                     __pcstackBANK1:
   464  00D4                     convert@temp:
   465                           
   466                           ; 2 bytes @ 0x0
   467  00D4                     	ds	2
   468  00D6                     convert@j:
   469                           
   470                           ; 2 bytes @ 0x2
   471  00D6                     	ds	2
   472  00D8                     convert@data:
   473                           
   474                           ; 1 bytes @ 0x4
   475  00D8                     	ds	1
   476  00D9                     convert@x:
   477                           
   478                           ; 4 bytes @ 0x5
   479  00D9                     	ds	4
   480  00DD                     convert@i:
   481                           
   482                           ; 2 bytes @ 0x9
   483  00DD                     	ds	2
   484  00DF                     convert@digits:
   485                           
   486                           ; 2 bytes @ 0xB
   487  00DF                     	ds	2
   488  00E1                     convert@mu:
   489                           
   490                           ; 2 bytes @ 0xD
   491  00E1                     	ds	2
   492  00E3                     ??_main:
   493                           
   494                           ; 1 bytes @ 0xF
   495  00E3                     	ds	4
   496                           
   497                           	psect	cstackCOMMON
   498  0070                     __pcstackCOMMON:
   499  0070                     ?___flge:
   500  0070                     ?_setup:	
   501                           ; 1 bit 
   502                           
   503  0070                     ?_Lcd_Init:	
   504                           ; 1 bytes @ 0x0
   505                           
   506  0070                     ?_Lcd_Clear:	
   507                           ; 1 bytes @ 0x0
   508                           
   509  0070                     ?_I2C_Master_Start:	
   510                           ; 1 bytes @ 0x0
   511                           
   512  0070                     ??_I2C_Master_Start:	
   513                           ; 1 bytes @ 0x0
   514                           
   515  0070                     ?_I2C_Master_Write:	
   516                           ; 1 bytes @ 0x0
   517                           
   518  0070                     ?_I2C_Master_Stop:	
   519                           ; 1 bytes @ 0x0
   520                           
   521  0070                     ??_I2C_Master_Stop:	
   522                           ; 1 bytes @ 0x0
   523                           
   524  0070                     ?_main:	
   525                           ; 1 bytes @ 0x0
   526                           
   527  0070                     ?_I2C_Master_Wait:	
   528                           ; 1 bytes @ 0x0
   529                           
   530  0070                     ??_I2C_Master_Wait:	
   531                           ; 1 bytes @ 0x0
   532                           
   533  0070                     ?_Lcd_Port:	
   534                           ; 1 bytes @ 0x0
   535                           
   536  0070                     ??_Lcd_Port:	
   537                           ; 1 bytes @ 0x0
   538                           
   539  0070                     ?_Lcd_Cmd:	
   540                           ; 1 bytes @ 0x0
   541                           
   542  0070                     ?_Lcd_Write_Char:	
   543                           ; 1 bytes @ 0x0
   544                           
   545  0070                     ?_I2C_Master_Read:	
   546                           ; 1 bytes @ 0x0
   547                           
   548  0070                     ?__Umul8_16:	
   549                           ; 2 bytes @ 0x0
   550                           
   551  0070                     ?___awdiv:	
   552                           ; 2 bytes @ 0x0
   553                           
   554  0070                     ?___lldiv:	
   555                           ; 2 bytes @ 0x0
   556                           
   557  0070                     ?___fltol:	
   558                           ; 4 bytes @ 0x0
   559                           
   560  0070                     Lcd_Port@a:	
   561                           ; 4 bytes @ 0x0
   562                           
   563  0070                     __Umul8_16@multiplicand:	
   564                           ; 1 bytes @ 0x0
   565                           
   566  0070                     I2C_Master_Write@d:	
   567                           ; 1 bytes @ 0x0
   568                           
   569  0070                     I2C_Master_Read@a:	
   570                           ; 2 bytes @ 0x0
   571                           
   572  0070                     ___awdiv@divisor:	
   573                           ; 2 bytes @ 0x0
   574                           
   575  0070                     ___lldiv@divisor:	
   576                           ; 2 bytes @ 0x0
   577                           
   578  0070                     ___flge@ff1:	
   579                           ; 4 bytes @ 0x0
   580                           
   581  0070                     ___fltol@f1:	
   582                           ; 4 bytes @ 0x0
   583                           
   584                           
   585                           ; 4 bytes @ 0x0
   586  0070                     	ds	1
   587  0071                     ??_Lcd_Cmd:
   588  0071                     ??_Lcd_Write_Char:	
   589                           ; 1 bytes @ 0x1
   590                           
   591                           
   592                           ; 1 bytes @ 0x1
   593  0071                     	ds	1
   594  0072                     ??_I2C_Master_Write:
   595  0072                     ??_I2C_Master_Read:	
   596                           ; 1 bytes @ 0x2
   597                           
   598  0072                     ??__Umul8_16:	
   599                           ; 1 bytes @ 0x2
   600                           
   601  0072                     Lcd_Write_Char@a:	
   602                           ; 1 bytes @ 0x2
   603                           
   604  0072                     ___awdiv@dividend:	
   605                           ; 1 bytes @ 0x2
   606                           
   607                           
   608                           ; 2 bytes @ 0x2
   609  0072                     	ds	1
   610  0073                     ?_Lcd_Write_String:
   611  0073                     Lcd_Cmd@a:	
   612                           ; 1 bytes @ 0x3
   613                           
   614  0073                     Lcd_Write_String@a:	
   615                           ; 1 bytes @ 0x3
   616                           
   617                           
   618                           ; 2 bytes @ 0x3
   619  0073                     	ds	1
   620  0074                     ??_Lcd_Init:
   621  0074                     ??_Lcd_Clear:	
   622                           ; 1 bytes @ 0x4
   623                           
   624  0074                     ?_Lcd_Set_Cursor:	
   625                           ; 1 bytes @ 0x4
   626                           
   627  0074                     ??___awdiv:	
   628                           ; 1 bytes @ 0x4
   629                           
   630  0074                     ??___fltol:	
   631                           ; 1 bytes @ 0x4
   632                           
   633  0074                     Lcd_Set_Cursor@b:	
   634                           ; 1 bytes @ 0x4
   635                           
   636  0074                     I2C_Master_Read@temp:	
   637                           ; 1 bytes @ 0x4
   638                           
   639  0074                     __Umul8_16@product:	
   640                           ; 2 bytes @ 0x4
   641                           
   642  0074                     ___lldiv@dividend:	
   643                           ; 2 bytes @ 0x4
   644                           
   645  0074                     ___flge@ff2:	
   646                           ; 4 bytes @ 0x4
   647                           
   648                           
   649                           ; 4 bytes @ 0x4
   650  0074                     	ds	1
   651  0075                     ??_Lcd_Set_Cursor:
   652  0075                     ??_Lcd_Write_String:	
   653                           ; 1 bytes @ 0x5
   654                           
   655  0075                     ___awdiv@counter:	
   656                           ; 1 bytes @ 0x5
   657                           
   658                           
   659                           ; 1 bytes @ 0x5
   660  0075                     	ds	1
   661  0076                     Lcd_Set_Cursor@a:
   662  0076                     ___awdiv@sign:	
   663                           ; 1 bytes @ 0x6
   664                           
   665  0076                     __Umul8_16@word_mpld:	
   666                           ; 1 bytes @ 0x6
   667                           
   668                           
   669                           ; 2 bytes @ 0x6
   670  0076                     	ds	1
   671  0077                     Lcd_Set_Cursor@temp:
   672  0077                     ___awdiv@quotient:	
   673                           ; 1 bytes @ 0x7
   674                           
   675                           
   676                           ; 2 bytes @ 0x7
   677  0077                     	ds	1
   678  0078                     ??___lldiv:
   679  0078                     ??___flge:	
   680                           ; 1 bytes @ 0x8
   681                           
   682  0078                     __Umul8_16@multiplier:	
   683                           ; 1 bytes @ 0x8
   684                           
   685  0078                     Lcd_Write_String@i:	
   686                           ; 1 bytes @ 0x8
   687                           
   688                           
   689                           ; 2 bytes @ 0x8
   690  0078                     	ds	1
   691  0079                     ___fltol@sign1:
   692  0079                     ___lldiv@quotient:	
   693                           ; 1 bytes @ 0x9
   694                           
   695                           
   696                           ; 4 bytes @ 0x9
   697  0079                     	ds	1
   698  007A                     ___fltol@exp1:
   699                           
   700                           ; 1 bytes @ 0xA
   701  007A                     	ds	1
   702  007B                     ??___wmul:
   703  007B                     ___wmul@product:	
   704                           ; 1 bytes @ 0xB
   705                           
   706                           
   707                           ; 2 bytes @ 0xB
   708  007B                     	ds	2
   709  007D                     ??___flsub:
   710  007D                     ___lldiv@counter:	
   711                           ; 1 bytes @ 0xD
   712                           
   713                           
   714                           ; 1 bytes @ 0xD
   715  007D                     	ds	1
   716  007E                     ??_setup:
   717                           
   718                           	psect	cstackBANK0
   719  0020                     __pcstackBANK0:	
   720                           ; 1 bytes @ 0xE
   721                           
   722  0020                     ?_I2C_Master_Init:
   723  0020                     ?___wmul:	
   724                           ; 1 bytes @ 0x0
   725                           
   726  0020                     ___wmul@multiplier:	
   727                           ; 2 bytes @ 0x0
   728                           
   729  0020                     I2C_Master_Init@c:	
   730                           ; 2 bytes @ 0x0
   731                           
   732                           
   733                           ; 4 bytes @ 0x0
   734  0020                     	ds	2
   735  0022                     ___wmul@multiplicand:
   736                           
   737                           ; 2 bytes @ 0x2
   738  0022                     	ds	2
   739  0024                     ??_I2C_Master_Init:
   740  0024                     ?___xxtofl:	
   741                           ; 1 bytes @ 0x4
   742                           
   743  0024                     ___xxtofl@val:	
   744                           ; 4 bytes @ 0x4
   745                           
   746                           
   747                           ; 4 bytes @ 0x4
   748  0024                     	ds	4
   749  0028                     ??___xxtofl:
   750                           
   751                           ; 1 bytes @ 0x8
   752  0028                     	ds	4
   753  002C                     ___xxtofl@sign:
   754                           
   755                           ; 1 bytes @ 0xC
   756  002C                     	ds	1
   757  002D                     ___xxtofl@exp:
   758                           
   759                           ; 1 bytes @ 0xD
   760  002D                     	ds	1
   761  002E                     ___xxtofl@arg:
   762                           
   763                           ; 4 bytes @ 0xE
   764  002E                     	ds	4
   765  0032                     ?___fladd:
   766  0032                     ?___fldiv:	
   767                           ; 4 bytes @ 0x12
   768                           
   769  0032                     ___fladd@b:	
   770                           ; 4 bytes @ 0x12
   771                           
   772  0032                     ___fldiv@a:	
   773                           ; 4 bytes @ 0x12
   774                           
   775                           
   776                           ; 4 bytes @ 0x12
   777  0032                     	ds	4
   778  0036                     ___fladd@a:
   779  0036                     ___fldiv@b:	
   780                           ; 4 bytes @ 0x16
   781                           
   782                           
   783                           ; 4 bytes @ 0x16
   784  0036                     	ds	4
   785  003A                     ??___fladd:
   786  003A                     ??___fldiv:	
   787                           ; 1 bytes @ 0x1A
   788                           
   789                           
   790                           ; 1 bytes @ 0x1A
   791  003A                     	ds	5
   792  003F                     ___fldiv@rem:
   793                           
   794                           ; 4 bytes @ 0x1F
   795  003F                     	ds	3
   796  0042                     ___fladd@signs:
   797                           
   798                           ; 1 bytes @ 0x22
   799  0042                     	ds	1
   800  0043                     ___fladd@aexp:
   801  0043                     ___fldiv@sign:	
   802                           ; 1 bytes @ 0x23
   803                           
   804                           
   805                           ; 1 bytes @ 0x23
   806  0043                     	ds	1
   807  0044                     ___fladd@bexp:
   808  0044                     ___fldiv@new_exp:	
   809                           ; 1 bytes @ 0x24
   810                           
   811                           
   812                           ; 2 bytes @ 0x24
   813  0044                     	ds	1
   814  0045                     ___fladd@grs:
   815                           
   816                           ; 1 bytes @ 0x25
   817  0045                     	ds	1
   818  0046                     ?___flsub:
   819  0046                     ___flsub@a:	
   820                           ; 4 bytes @ 0x26
   821                           
   822  0046                     ___fldiv@grs:	
   823                           ; 4 bytes @ 0x26
   824                           
   825                           
   826                           ; 4 bytes @ 0x26
   827  0046                     	ds	4
   828  004A                     ___fldiv@bexp:
   829  004A                     ___flsub@b:	
   830                           ; 1 bytes @ 0x2A
   831                           
   832                           
   833                           ; 4 bytes @ 0x2A
   834  004A                     	ds	1
   835  004B                     ___fldiv@aexp:
   836                           
   837                           ; 1 bytes @ 0x2B
   838  004B                     	ds	3
   839  004E                     ?___flmul:
   840  004E                     ___flmul@b:	
   841                           ; 4 bytes @ 0x2E
   842                           
   843                           
   844                           ; 4 bytes @ 0x2E
   845  004E                     	ds	4
   846  0052                     ___flmul@a:
   847                           
   848                           ; 4 bytes @ 0x32
   849  0052                     	ds	4
   850  0056                     ??___flmul:
   851                           
   852                           ; 1 bytes @ 0x36
   853  0056                     	ds	5
   854  005B                     ___flmul@sign:
   855                           
   856                           ; 1 bytes @ 0x3B
   857  005B                     	ds	1
   858  005C                     ___flmul@grs:
   859                           
   860                           ; 4 bytes @ 0x3C
   861  005C                     	ds	4
   862  0060                     ___flmul@aexp:
   863                           
   864                           ; 1 bytes @ 0x40
   865  0060                     	ds	1
   866  0061                     ___flmul@bexp:
   867                           
   868                           ; 1 bytes @ 0x41
   869  0061                     	ds	1
   870  0062                     ___flmul@prod:
   871                           
   872                           ; 4 bytes @ 0x42
   873  0062                     	ds	4
   874  0066                     ___flmul@temp:
   875                           
   876                           ; 2 bytes @ 0x46
   877  0066                     	ds	2
   878  0068                     ?_convert:
   879  0068                     convert@a:	
   880                           ; 1 bytes @ 0x48
   881                           
   882                           
   883                           ; 4 bytes @ 0x48
   884  0068                     	ds	4
   885  006C                     convert@place:
   886                           
   887                           ; 2 bytes @ 0x4C
   888  006C                     	ds	2
   889  006E                     ??_convert:
   890                           
   891                           ; 1 bytes @ 0x4E
   892  006E                     	ds	2
   893                           
   894                           	psect	maintext
   895  0CB1                     __pmaintext:	
   896 ;;
   897 ;;Main: autosize = 0, tempsize = 4, incstack = 0, save=0
   898 ;;
   899 ;; *************** function _main *****************
   900 ;; Defined at:
   901 ;;		line 79 in file "Master.c"
   902 ;; Parameters:    Size  Location     Type
   903 ;;		None
   904 ;; Auto vars:     Size  Location     Type
   905 ;;		None
   906 ;; Return value:  Size  Location     Type
   907 ;;                  1    wreg      void 
   908 ;; Registers used:
   909 ;;		wreg, fsr0l, fsr0h, status,2, status,0, btemp+1, pclath, cstack
   910 ;; Tracked objects:
   911 ;;		On entry : B00/0
   912 ;;		On exit  : 0/0
   913 ;;		Unchanged: 0/0
   914 ;; Data sizes:     COMMON   BANK0   BANK1   BANK3   BANK2
   915 ;;      Params:         0       0       0       0       0
   916 ;;      Locals:         0       0       0       0       0
   917 ;;      Temps:          0       0       4       0       0
   918 ;;      Totals:         0       0       4       0       0
   919 ;;Total ram usage:        4 bytes
   920 ;; Hardware stack levels required when called:    3
   921 ;; This function calls:
   922 ;;		_I2C_Master_Read
   923 ;;		_I2C_Master_Start
   924 ;;		_I2C_Master_Stop
   925 ;;		_I2C_Master_Write
   926 ;;		_Lcd_Clear
   927 ;;		_Lcd_Init
   928 ;;		_Lcd_Set_Cursor
   929 ;;		_Lcd_Write_String
   930 ;;		___fladd
   931 ;;		___fldiv
   932 ;;		___flmul
   933 ;;		___xxtofl
   934 ;;		_convert
   935 ;;		_setup
   936 ;; This function is called by:
   937 ;;		Startup code after reset
   938 ;; This function uses a non-reentrant model
   939 ;;
   940                           
   941                           
   942                           ;psect for function _main
   943  0CB1                     _main:
   944  0CB1                     l2854:	
   945                           ;incstack = 0
   946                           ; Regs used in _main: [wreg-fsr0h+status,2+status,0+btemp+1+pclath+cstack]
   947                           
   948                           
   949                           ;Master.c: 80:     setup();
   950  0CB1  160A  118A  24BB  120A  158A  	fcall	_setup
   951                           
   952                           ;Master.c: 81:     Lcd_Init();
   953  0CB6  120A  158A  2007  120A  158A  	fcall	_Lcd_Init
   954                           
   955                           ;Master.c: 82:     Lcd_Clear();
   956  0CBB  160A  118A  244C  120A  158A  	fcall	_Lcd_Clear
   957  0CC0                     l77:	
   958                           ;Master.c: 83:     while(1){
   959                           
   960                           
   961                           ;Master.c: 85:         Lcd_Set_Cursor(1, 1);
   962  0CC0  01F4               	clrf	Lcd_Set_Cursor@b
   963  0CC1  0AF4               	incf	Lcd_Set_Cursor@b,f
   964  0CC2  3001               	movlw	1
   965  0CC3  160A  118A  2473  120A  158A  	fcall	_Lcd_Set_Cursor
   966  0CC8                     l2856:
   967                           
   968                           ;Master.c: 86:         Lcd_Write_String("TEMP");
   969  0CC8  3001               	movlw	(low ((STR_1-__stringbase)| (0+32768)))& (0+255)
   970  0CC9  00F3               	movwf	Lcd_Write_String@a
   971  0CCA  3080               	movlw	128
   972  0CCB  00F4               	movwf	Lcd_Write_String@a+1
   973  0CCC  160A  118A  2593  120A  158A  	fcall	_Lcd_Write_String
   974  0CD1                     l2858:
   975                           
   976                           ;Master.c: 87:         Lcd_Set_Cursor(1, 8);
   977  0CD1  3008               	movlw	8
   978  0CD2  1683               	bsf	3,5	;RP0=1, select bank1
   979  0CD3  1303               	bcf	3,6	;RP1=0, select bank1
   980  0CD4  00E3               	movwf	??_main^(0+128)
   981  0CD5  0863               	movf	??_main^(0+128),w
   982  0CD6  00F4               	movwf	Lcd_Set_Cursor@b
   983  0CD7  3001               	movlw	1
   984  0CD8  160A  118A  2473  120A  158A  	fcall	_Lcd_Set_Cursor
   985                           
   986                           ;Master.c: 88:         Lcd_Write_String("HUM");
   987  0CDD  3006               	movlw	(low ((STR_2-__stringbase)| (0+32768)))& (0+255)
   988  0CDE  00F3               	movwf	Lcd_Write_String@a
   989  0CDF  3080               	movlw	128
   990  0CE0  00F4               	movwf	Lcd_Write_String@a+1
   991  0CE1  160A  118A  2593  120A  158A  	fcall	_Lcd_Write_String
   992  0CE6                     l2860:
   993                           
   994                           ;Master.c: 89:         Lcd_Set_Cursor(1, 14);
   995  0CE6  300E               	movlw	14
   996  0CE7  1683               	bsf	3,5	;RP0=1, select bank1
   997  0CE8  1303               	bcf	3,6	;RP1=0, select bank1
   998  0CE9  00E3               	movwf	??_main^(0+128)
   999  0CEA  0863               	movf	??_main^(0+128),w
  1000  0CEB  00F4               	movwf	Lcd_Set_Cursor@b
  1001  0CEC  3001               	movlw	1
  1002  0CED  160A  118A  2473  120A  158A  	fcall	_Lcd_Set_Cursor
  1003  0CF2                     l2862:
  1004                           
  1005                           ;Master.c: 90:         Lcd_Write_String("CON");
  1006  0CF2  300A               	movlw	(low ((STR_3-__stringbase)| (0+32768)))& (0+255)
  1007  0CF3  00F3               	movwf	Lcd_Write_String@a
  1008  0CF4  3080               	movlw	128
  1009  0CF5  00F4               	movwf	Lcd_Write_String@a+1
  1010  0CF6  160A  118A  2593  120A  158A  	fcall	_Lcd_Write_String
  1011                           
  1012                           ;Master.c: 93:         I2C_Master_Start();
  1013  0CFB  160A  118A  2423  120A  158A  	fcall	_I2C_Master_Start
  1014                           
  1015                           ;Master.c: 94:         I2C_Master_Write(0x50);
  1016  0D00  3050               	movlw	80
  1017  0D01  00F0               	movwf	I2C_Master_Write@d
  1018  0D02  3000               	movlw	0
  1019  0D03  00F1               	movwf	I2C_Master_Write@d+1
  1020  0D04  160A  118A  2435  120A  158A  	fcall	_I2C_Master_Write
  1021                           
  1022                           ;Master.c: 95:         I2C_Master_Write(0x02);
  1023  0D09  3002               	movlw	2
  1024  0D0A  00F0               	movwf	I2C_Master_Write@d
  1025  0D0B  3000               	movlw	0
  1026  0D0C  00F1               	movwf	I2C_Master_Write@d+1
  1027  0D0D  160A  118A  2435  120A  158A  	fcall	_I2C_Master_Write
  1028                           
  1029                           ;Master.c: 96:         I2C_Master_Stop();
  1030  0D12  160A  118A  242C  120A  158A  	fcall	_I2C_Master_Stop
  1031  0D17                     l2864:
  1032                           
  1033                           ;Master.c: 97:         _delay((unsigned long)((200)*(8000000/4000.0)));
  1034  0D17  3003               	movlw	3
  1035  0D18  1683               	bsf	3,5	;RP0=1, select bank1
  1036  0D19  1303               	bcf	3,6	;RP1=0, select bank1
  1037  0D1A  00E5               	movwf	(??_main^(0+128)+2)
  1038  0D1B  3008               	movlw	8
  1039  0D1C  00E4               	movwf	(??_main^(0+128)+1)
  1040  0D1D  3076               	movlw	118
  1041  0D1E  00E3               	movwf	??_main^(0+128)
  1042  0D1F                     u3737:
  1043  0D1F  0BE3               	decfsz	??_main^(0+128),f
  1044  0D20  2D1F               	goto	u3737
  1045  0D21  0BE4               	decfsz	(??_main^(0+128)+1),f
  1046  0D22  2D1F               	goto	u3737
  1047  0D23  0BE5               	decfsz	(??_main^(0+128)+2),f
  1048  0D24  2D1F               	goto	u3737
  1049  0D25  0000               	nop
  1050  0D26                     l2866:
  1051                           
  1052                           ;Master.c: 99:         I2C_Master_Start();
  1053  0D26  160A  118A  2423  120A  158A  	fcall	_I2C_Master_Start
  1054  0D2B                     l2868:
  1055                           
  1056                           ;Master.c: 100:         I2C_Master_Write(0x51);
  1057  0D2B  3051               	movlw	81
  1058  0D2C  00F0               	movwf	I2C_Master_Write@d
  1059  0D2D  3000               	movlw	0
  1060  0D2E  00F1               	movwf	I2C_Master_Write@d+1
  1061  0D2F  160A  118A  2435  120A  158A  	fcall	_I2C_Master_Write
  1062  0D34                     l2870:
  1063                           
  1064                           ;Master.c: 101:         tem1 = I2C_Master_Read(0);
  1065  0D34  3000               	movlw	0
  1066  0D35  00F0               	movwf	I2C_Master_Read@a
  1067  0D36  00F1               	movwf	I2C_Master_Read@a+1
  1068  0D37  160A  118A  252D  120A  158A  	fcall	_I2C_Master_Read
  1069  0D3C  0870               	movf	?_I2C_Master_Read,w
  1070  0D3D  1683               	bsf	3,5	;RP0=1, select bank1
  1071  0D3E  1303               	bcf	3,6	;RP1=0, select bank1
  1072  0D3F  00E3               	movwf	??_main^(0+128)
  1073  0D40  0863               	movf	??_main^(0+128),w
  1074  0D41  00BF               	movwf	_tem1^(0+128)	;volatile
  1075  0D42                     l2872:
  1076                           
  1077                           ;Master.c: 102:         I2C_Master_Stop();
  1078  0D42  160A  118A  242C  120A  158A  	fcall	_I2C_Master_Stop
  1079  0D47                     l2874:
  1080                           
  1081                           ;Master.c: 103:         _delay((unsigned long)((200)*(8000000/4000.0)));
  1082  0D47  3003               	movlw	3
  1083  0D48  1683               	bsf	3,5	;RP0=1, select bank1
  1084  0D49  1303               	bcf	3,6	;RP1=0, select bank1
  1085  0D4A  00E5               	movwf	(??_main^(0+128)+2)
  1086  0D4B  3008               	movlw	8
  1087  0D4C  00E4               	movwf	(??_main^(0+128)+1)
  1088  0D4D  3076               	movlw	118
  1089  0D4E  00E3               	movwf	??_main^(0+128)
  1090  0D4F                     u3747:
  1091  0D4F  0BE3               	decfsz	??_main^(0+128),f
  1092  0D50  2D4F               	goto	u3747
  1093  0D51  0BE4               	decfsz	(??_main^(0+128)+1),f
  1094  0D52  2D4F               	goto	u3747
  1095  0D53  0BE5               	decfsz	(??_main^(0+128)+2),f
  1096  0D54  2D4F               	goto	u3747
  1097  0D55  0000               	nop
  1098                           
  1099                           ;Master.c: 105:         I2C_Master_Start();
  1100  0D56  160A  118A  2423  120A  158A  	fcall	_I2C_Master_Start
  1101                           
  1102                           ;Master.c: 106:         I2C_Master_Write(0x50);
  1103  0D5B  3050               	movlw	80
  1104  0D5C  00F0               	movwf	I2C_Master_Write@d
  1105  0D5D  3000               	movlw	0
  1106  0D5E  00F1               	movwf	I2C_Master_Write@d+1
  1107  0D5F  160A  118A  2435  120A  158A  	fcall	_I2C_Master_Write
  1108                           
  1109                           ;Master.c: 107:         I2C_Master_Write(0x01);
  1110  0D64  3001               	movlw	1
  1111  0D65  00F0               	movwf	I2C_Master_Write@d
  1112  0D66  3000               	movlw	0
  1113  0D67  00F1               	movwf	I2C_Master_Write@d+1
  1114  0D68  160A  118A  2435  120A  158A  	fcall	_I2C_Master_Write
  1115                           
  1116                           ;Master.c: 108:         I2C_Master_Stop();
  1117  0D6D  160A  118A  242C  120A  158A  	fcall	_I2C_Master_Stop
  1118  0D72                     l2876:
  1119                           
  1120                           ;Master.c: 109:         _delay((unsigned long)((200)*(8000000/4000.0)));
  1121  0D72  3003               	movlw	3
  1122  0D73  1683               	bsf	3,5	;RP0=1, select bank1
  1123  0D74  1303               	bcf	3,6	;RP1=0, select bank1
  1124  0D75  00E5               	movwf	(??_main^(0+128)+2)
  1125  0D76  3008               	movlw	8
  1126  0D77  00E4               	movwf	(??_main^(0+128)+1)
  1127  0D78  3076               	movlw	118
  1128  0D79  00E3               	movwf	??_main^(0+128)
  1129  0D7A                     u3757:
  1130  0D7A  0BE3               	decfsz	??_main^(0+128),f
  1131  0D7B  2D7A               	goto	u3757
  1132  0D7C  0BE4               	decfsz	(??_main^(0+128)+1),f
  1133  0D7D  2D7A               	goto	u3757
  1134  0D7E  0BE5               	decfsz	(??_main^(0+128)+2),f
  1135  0D7F  2D7A               	goto	u3757
  1136  0D80  0000               	nop
  1137  0D81                     l2878:
  1138                           
  1139                           ;Master.c: 111:         I2C_Master_Start();
  1140  0D81  160A  118A  2423  120A  158A  	fcall	_I2C_Master_Start
  1141  0D86                     l2880:
  1142                           
  1143                           ;Master.c: 112:         I2C_Master_Write(0x51);
  1144  0D86  3051               	movlw	81
  1145  0D87  00F0               	movwf	I2C_Master_Write@d
  1146  0D88  3000               	movlw	0
  1147  0D89  00F1               	movwf	I2C_Master_Write@d+1
  1148  0D8A  160A  118A  2435  120A  158A  	fcall	_I2C_Master_Write
  1149  0D8F                     l2882:
  1150                           
  1151                           ;Master.c: 113:         tem2 = I2C_Master_Read(0);
  1152  0D8F  3000               	movlw	0
  1153  0D90  00F0               	movwf	I2C_Master_Read@a
  1154  0D91  00F1               	movwf	I2C_Master_Read@a+1
  1155  0D92  160A  118A  252D  120A  158A  	fcall	_I2C_Master_Read
  1156  0D97  0870               	movf	?_I2C_Master_Read,w
  1157  0D98  1683               	bsf	3,5	;RP0=1, select bank1
  1158  0D99  1303               	bcf	3,6	;RP1=0, select bank1
  1159  0D9A  00E3               	movwf	??_main^(0+128)
  1160  0D9B  0863               	movf	??_main^(0+128),w
  1161  0D9C  00BE               	movwf	_tem2^(0+128)	;volatile
  1162  0D9D                     l2884:
  1163                           
  1164                           ;Master.c: 114:         I2C_Master_Stop();
  1165  0D9D  160A  118A  242C  120A  158A  	fcall	_I2C_Master_Stop
  1166  0DA2                     l2886:
  1167                           
  1168                           ;Master.c: 115:         _delay((unsigned long)((200)*(8000000/4000.0)));
  1169  0DA2  3003               	movlw	3
  1170  0DA3  1683               	bsf	3,5	;RP0=1, select bank1
  1171  0DA4  1303               	bcf	3,6	;RP1=0, select bank1
  1172  0DA5  00E5               	movwf	(??_main^(0+128)+2)
  1173  0DA6  3008               	movlw	8
  1174  0DA7  00E4               	movwf	(??_main^(0+128)+1)
  1175  0DA8  3076               	movlw	118
  1176  0DA9  00E3               	movwf	??_main^(0+128)
  1177  0DAA                     u3767:
  1178  0DAA  0BE3               	decfsz	??_main^(0+128),f
  1179  0DAB  2DAA               	goto	u3767
  1180  0DAC  0BE4               	decfsz	(??_main^(0+128)+1),f
  1181  0DAD  2DAA               	goto	u3767
  1182  0DAE  0BE5               	decfsz	(??_main^(0+128)+2),f
  1183  0DAF  2DAA               	goto	u3767
  1184  0DB0  0000               	nop
  1185                           
  1186                           ;Master.c: 117:          I2C_Master_Start();
  1187  0DB1  160A  118A  2423  120A  158A  	fcall	_I2C_Master_Start
  1188                           
  1189                           ;Master.c: 118:          I2C_Master_Write(0x11);
  1190  0DB6  3011               	movlw	17
  1191  0DB7  00F0               	movwf	I2C_Master_Write@d
  1192  0DB8  3000               	movlw	0
  1193  0DB9  00F1               	movwf	I2C_Master_Write@d+1
  1194  0DBA  160A  118A  2435  120A  158A  	fcall	_I2C_Master_Write
  1195                           
  1196                           ;Master.c: 120:          var_hum = I2C_Master_Read(0);
  1197  0DBF  3000               	movlw	0
  1198  0DC0  00F0               	movwf	I2C_Master_Read@a
  1199  0DC1  00F1               	movwf	I2C_Master_Read@a+1
  1200  0DC2  160A  118A  252D  120A  158A  	fcall	_I2C_Master_Read
  1201  0DC7  0870               	movf	?_I2C_Master_Read,w
  1202  0DC8  1683               	bsf	3,5	;RP0=1, select bank1
  1203  0DC9  1303               	bcf	3,6	;RP1=0, select bank1
  1204  0DCA  00E3               	movwf	??_main^(0+128)
  1205  0DCB  0863               	movf	??_main^(0+128),w
  1206  0DCC  00BD               	movwf	_var_hum^(0+128)	;volatile
  1207                           
  1208                           ;Master.c: 121:          I2C_Master_Stop();
  1209  0DCD  160A  118A  242C  120A  158A  	fcall	_I2C_Master_Stop
  1210  0DD2                     l2888:
  1211                           
  1212                           ;Master.c: 122:          _delay((unsigned long)((200)*(8000000/4000.0)));
  1213  0DD2  3003               	movlw	3
  1214  0DD3  1683               	bsf	3,5	;RP0=1, select bank1
  1215  0DD4  1303               	bcf	3,6	;RP1=0, select bank1
  1216  0DD5  00E5               	movwf	(??_main^(0+128)+2)
  1217  0DD6  3008               	movlw	8
  1218  0DD7  00E4               	movwf	(??_main^(0+128)+1)
  1219  0DD8  3076               	movlw	118
  1220  0DD9  00E3               	movwf	??_main^(0+128)
  1221  0DDA                     u3777:
  1222  0DDA  0BE3               	decfsz	??_main^(0+128),f
  1223  0DDB  2DDA               	goto	u3777
  1224  0DDC  0BE4               	decfsz	(??_main^(0+128)+1),f
  1225  0DDD  2DDA               	goto	u3777
  1226  0DDE  0BE5               	decfsz	(??_main^(0+128)+2),f
  1227  0DDF  2DDA               	goto	u3777
  1228  0DE0  0000               	nop
  1229  0DE1                     l2890:
  1230                           
  1231                           ;Master.c: 146:         temp = tem1 << 8;
  1232  0DE1  1683               	bsf	3,5	;RP0=1, select bank1
  1233  0DE2  1303               	bcf	3,6	;RP1=0, select bank1
  1234  0DE3  083F               	movf	_tem1^(0+128),w	;volatile
  1235  0DE4  00E3               	movwf	??_main^(0+128)
  1236  0DE5  01E4               	clrf	(??_main^(0+128)+1)
  1237  0DE6  0863               	movf	??_main^(0+128),w
  1238  0DE7  00E4               	movwf	(??_main^(0+128)+1)
  1239  0DE8  01E3               	clrf	??_main^(0+128)
  1240  0DE9  0863               	movf	??_main^(0+128),w
  1241  0DEA  1283               	bcf	3,5	;RP0=0, select bank0
  1242  0DEB  1303               	bcf	3,6	;RP1=0, select bank0
  1243  0DEC  00A4               	movwf	___xxtofl@val
  1244  0DED  1683               	bsf	3,5	;RP0=1, select bank1
  1245  0DEE  1303               	bcf	3,6	;RP1=0, select bank1
  1246  0DEF  0864               	movf	(??_main+1)^(0+128),w
  1247  0DF0  1283               	bcf	3,5	;RP0=0, select bank0
  1248  0DF1  1303               	bcf	3,6	;RP1=0, select bank0
  1249  0DF2  00A5               	movwf	___xxtofl@val+1
  1250  0DF3  3000               	movlw	0
  1251  0DF4  1BA5               	btfsc	___xxtofl@val+1,7
  1252  0DF5  30FF               	movlw	255
  1253  0DF6  00A6               	movwf	___xxtofl@val+2
  1254  0DF7  00A7               	movwf	___xxtofl@val+3
  1255  0DF8  3001               	movlw	1
  1256  0DF9  160A  118A  2744  120A  158A  	fcall	___xxtofl
  1257  0DFE  1283               	bcf	3,5	;RP0=0, select bank0
  1258  0DFF  1303               	bcf	3,6	;RP1=0, select bank0
  1259  0E00  0827               	movf	?___xxtofl+3,w
  1260  0E01  1683               	bsf	3,5	;RP0=1, select bank1
  1261  0E02  1303               	bcf	3,6	;RP1=0, select bank1
  1262  0E03  00B7               	movwf	(_temp+3)^(0+128)
  1263  0E04  1283               	bcf	3,5	;RP0=0, select bank0
  1264  0E05  1303               	bcf	3,6	;RP1=0, select bank0
  1265  0E06  0826               	movf	?___xxtofl+2,w
  1266  0E07  1683               	bsf	3,5	;RP0=1, select bank1
  1267  0E08  1303               	bcf	3,6	;RP1=0, select bank1
  1268  0E09  00B6               	movwf	(_temp+2)^(0+128)
  1269  0E0A  1283               	bcf	3,5	;RP0=0, select bank0
  1270  0E0B  1303               	bcf	3,6	;RP1=0, select bank0
  1271  0E0C  0825               	movf	?___xxtofl+1,w
  1272  0E0D  1683               	bsf	3,5	;RP0=1, select bank1
  1273  0E0E  1303               	bcf	3,6	;RP1=0, select bank1
  1274  0E0F  00B5               	movwf	(_temp+1)^(0+128)
  1275  0E10  1283               	bcf	3,5	;RP0=0, select bank0
  1276  0E11  1303               	bcf	3,6	;RP1=0, select bank0
  1277  0E12  0824               	movf	?___xxtofl,w
  1278  0E13  1683               	bsf	3,5	;RP0=1, select bank1
  1279  0E14  1303               	bcf	3,6	;RP1=0, select bank1
  1280  0E15  00B4               	movwf	_temp^(0+128)
  1281  0E16                     l2892:
  1282                           
  1283                           ;Master.c: 147:         temp = temp + tem2;
  1284  0E16  0837               	movf	(_temp+3)^(0+128),w
  1285  0E17  1283               	bcf	3,5	;RP0=0, select bank0
  1286  0E18  1303               	bcf	3,6	;RP1=0, select bank0
  1287  0E19  00B5               	movwf	___fladd@b+3
  1288  0E1A  1683               	bsf	3,5	;RP0=1, select bank1
  1289  0E1B  1303               	bcf	3,6	;RP1=0, select bank1
  1290  0E1C  0836               	movf	(_temp+2)^(0+128),w
  1291  0E1D  1283               	bcf	3,5	;RP0=0, select bank0
  1292  0E1E  1303               	bcf	3,6	;RP1=0, select bank0
  1293  0E1F  00B4               	movwf	___fladd@b+2
  1294  0E20  1683               	bsf	3,5	;RP0=1, select bank1
  1295  0E21  1303               	bcf	3,6	;RP1=0, select bank1
  1296  0E22  0835               	movf	(_temp+1)^(0+128),w
  1297  0E23  1283               	bcf	3,5	;RP0=0, select bank0
  1298  0E24  1303               	bcf	3,6	;RP1=0, select bank0
  1299  0E25  00B3               	movwf	___fladd@b+1
  1300  0E26  1683               	bsf	3,5	;RP0=1, select bank1
  1301  0E27  1303               	bcf	3,6	;RP1=0, select bank1
  1302  0E28  0834               	movf	_temp^(0+128),w
  1303  0E29  1283               	bcf	3,5	;RP0=0, select bank0
  1304  0E2A  1303               	bcf	3,6	;RP1=0, select bank0
  1305  0E2B  00B2               	movwf	___fladd@b
  1306  0E2C  1683               	bsf	3,5	;RP0=1, select bank1
  1307  0E2D  1303               	bcf	3,6	;RP1=0, select bank1
  1308  0E2E  083E               	movf	_tem2^(0+128),w	;volatile
  1309  0E2F  00E3               	movwf	??_main^(0+128)
  1310  0E30  01E4               	clrf	(??_main^(0+128)+1)
  1311  0E31  01E5               	clrf	(??_main^(0+128)+2)
  1312  0E32  01E6               	clrf	(??_main^(0+128)+3)
  1313  0E33  0866               	movf	(??_main+3)^(0+128),w
  1314  0E34  1283               	bcf	3,5	;RP0=0, select bank0
  1315  0E35  1303               	bcf	3,6	;RP1=0, select bank0
  1316  0E36  00A7               	movwf	___xxtofl@val+3
  1317  0E37  1683               	bsf	3,5	;RP0=1, select bank1
  1318  0E38  1303               	bcf	3,6	;RP1=0, select bank1
  1319  0E39  0865               	movf	(??_main+2)^(0+128),w
  1320  0E3A  1283               	bcf	3,5	;RP0=0, select bank0
  1321  0E3B  1303               	bcf	3,6	;RP1=0, select bank0
  1322  0E3C  00A6               	movwf	___xxtofl@val+2
  1323  0E3D  1683               	bsf	3,5	;RP0=1, select bank1
  1324  0E3E  1303               	bcf	3,6	;RP1=0, select bank1
  1325  0E3F  0864               	movf	(??_main+1)^(0+128),w
  1326  0E40  1283               	bcf	3,5	;RP0=0, select bank0
  1327  0E41  1303               	bcf	3,6	;RP1=0, select bank0
  1328  0E42  00A5               	movwf	___xxtofl@val+1
  1329  0E43  1683               	bsf	3,5	;RP0=1, select bank1
  1330  0E44  1303               	bcf	3,6	;RP1=0, select bank1
  1331  0E45  0863               	movf	??_main^(0+128),w
  1332  0E46  1283               	bcf	3,5	;RP0=0, select bank0
  1333  0E47  1303               	bcf	3,6	;RP1=0, select bank0
  1334  0E48  00A4               	movwf	___xxtofl@val
  1335  0E49  3001               	movlw	1
  1336  0E4A  160A  118A  2744  120A  158A  	fcall	___xxtofl
  1337  0E4F  1283               	bcf	3,5	;RP0=0, select bank0
  1338  0E50  1303               	bcf	3,6	;RP1=0, select bank0
  1339  0E51  0827               	movf	?___xxtofl+3,w
  1340  0E52  00B9               	movwf	___fladd@a+3
  1341  0E53  0826               	movf	?___xxtofl+2,w
  1342  0E54  00B8               	movwf	___fladd@a+2
  1343  0E55  0825               	movf	?___xxtofl+1,w
  1344  0E56  00B7               	movwf	___fladd@a+1
  1345  0E57  0824               	movf	?___xxtofl,w
  1346  0E58  00B6               	movwf	___fladd@a
  1347  0E59  120A  158A  2229  120A  158A  	fcall	___fladd
  1348  0E5E  1283               	bcf	3,5	;RP0=0, select bank0
  1349  0E5F  1303               	bcf	3,6	;RP1=0, select bank0
  1350  0E60  0835               	movf	?___fladd+3,w
  1351  0E61  1683               	bsf	3,5	;RP0=1, select bank1
  1352  0E62  1303               	bcf	3,6	;RP1=0, select bank1
  1353  0E63  00B7               	movwf	(_temp+3)^(0+128)
  1354  0E64  1283               	bcf	3,5	;RP0=0, select bank0
  1355  0E65  1303               	bcf	3,6	;RP1=0, select bank0
  1356  0E66  0834               	movf	?___fladd+2,w
  1357  0E67  1683               	bsf	3,5	;RP0=1, select bank1
  1358  0E68  1303               	bcf	3,6	;RP1=0, select bank1
  1359  0E69  00B6               	movwf	(_temp+2)^(0+128)
  1360  0E6A  1283               	bcf	3,5	;RP0=0, select bank0
  1361  0E6B  1303               	bcf	3,6	;RP1=0, select bank0
  1362  0E6C  0833               	movf	?___fladd+1,w
  1363  0E6D  1683               	bsf	3,5	;RP0=1, select bank1
  1364  0E6E  1303               	bcf	3,6	;RP1=0, select bank1
  1365  0E6F  00B5               	movwf	(_temp+1)^(0+128)
  1366  0E70  1283               	bcf	3,5	;RP0=0, select bank0
  1367  0E71  1303               	bcf	3,6	;RP1=0, select bank0
  1368  0E72  0832               	movf	?___fladd,w
  1369  0E73  1683               	bsf	3,5	;RP0=1, select bank1
  1370  0E74  1303               	bcf	3,6	;RP1=0, select bank1
  1371  0E75  00B4               	movwf	_temp^(0+128)
  1372  0E76                     l2894:
  1373                           
  1374                           ;Master.c: 149:         volt = (temp/ (float) 1023)*5;
  1375  0E76  3040               	movlw	64
  1376  0E77  1283               	bcf	3,5	;RP0=0, select bank0
  1377  0E78  1303               	bcf	3,6	;RP1=0, select bank0
  1378  0E79  00D1               	movwf	___flmul@b+3
  1379  0E7A  30A0               	movlw	160
  1380  0E7B  00D0               	movwf	___flmul@b+2
  1381  0E7C  3000               	movlw	0
  1382  0E7D  00CF               	movwf	___flmul@b+1
  1383  0E7E  3000               	movlw	0
  1384  0E7F  00CE               	movwf	___flmul@b
  1385  0E80  3044               	movlw	68
  1386  0E81  00B5               	movwf	___fldiv@a+3
  1387  0E82  307F               	movlw	127
  1388  0E83  00B4               	movwf	___fldiv@a+2
  1389  0E84  30C0               	movlw	192
  1390  0E85  00B3               	movwf	___fldiv@a+1
  1391  0E86  3000               	movlw	0
  1392  0E87  00B2               	movwf	___fldiv@a
  1393  0E88  1683               	bsf	3,5	;RP0=1, select bank1
  1394  0E89  1303               	bcf	3,6	;RP1=0, select bank1
  1395  0E8A  0837               	movf	(_temp+3)^(0+128),w
  1396  0E8B  1283               	bcf	3,5	;RP0=0, select bank0
  1397  0E8C  1303               	bcf	3,6	;RP1=0, select bank0
  1398  0E8D  00B9               	movwf	___fldiv@b+3
  1399  0E8E  1683               	bsf	3,5	;RP0=1, select bank1
  1400  0E8F  1303               	bcf	3,6	;RP1=0, select bank1
  1401  0E90  0836               	movf	(_temp+2)^(0+128),w
  1402  0E91  1283               	bcf	3,5	;RP0=0, select bank0
  1403  0E92  1303               	bcf	3,6	;RP1=0, select bank0
  1404  0E93  00B8               	movwf	___fldiv@b+2
  1405  0E94  1683               	bsf	3,5	;RP0=1, select bank1
  1406  0E95  1303               	bcf	3,6	;RP1=0, select bank1
  1407  0E96  0835               	movf	(_temp+1)^(0+128),w
  1408  0E97  1283               	bcf	3,5	;RP0=0, select bank0
  1409  0E98  1303               	bcf	3,6	;RP1=0, select bank0
  1410  0E99  00B7               	movwf	___fldiv@b+1
  1411  0E9A  1683               	bsf	3,5	;RP0=1, select bank1
  1412  0E9B  1303               	bcf	3,6	;RP1=0, select bank1
  1413  0E9C  0834               	movf	_temp^(0+128),w
  1414  0E9D  1283               	bcf	3,5	;RP0=0, select bank0
  1415  0E9E  1303               	bcf	3,6	;RP1=0, select bank0
  1416  0E9F  00B6               	movwf	___fldiv@b
  1417  0EA0  120A  158A  204C  120A  158A  	fcall	___fldiv
  1418  0EA5  1283               	bcf	3,5	;RP0=0, select bank0
  1419  0EA6  1303               	bcf	3,6	;RP1=0, select bank0
  1420  0EA7  0835               	movf	?___fldiv+3,w
  1421  0EA8  00D5               	movwf	___flmul@a+3
  1422  0EA9  0834               	movf	?___fldiv+2,w
  1423  0EAA  00D4               	movwf	___flmul@a+2
  1424  0EAB  0833               	movf	?___fldiv+1,w
  1425  0EAC  00D3               	movwf	___flmul@a+1
  1426  0EAD  0832               	movf	?___fldiv,w
  1427  0EAE  00D2               	movwf	___flmul@a
  1428  0EAF  120A  118A  2095  120A  158A  	fcall	___flmul
  1429  0EB4  1283               	bcf	3,5	;RP0=0, select bank0
  1430  0EB5  1303               	bcf	3,6	;RP1=0, select bank0
  1431  0EB6  0851               	movf	?___flmul+3,w
  1432  0EB7  1683               	bsf	3,5	;RP0=1, select bank1
  1433  0EB8  1303               	bcf	3,6	;RP1=0, select bank1
  1434  0EB9  00B3               	movwf	(_volt+3)^(0+128)
  1435  0EBA  1283               	bcf	3,5	;RP0=0, select bank0
  1436  0EBB  1303               	bcf	3,6	;RP1=0, select bank0
  1437  0EBC  0850               	movf	?___flmul+2,w
  1438  0EBD  1683               	bsf	3,5	;RP0=1, select bank1
  1439  0EBE  1303               	bcf	3,6	;RP1=0, select bank1
  1440  0EBF  00B2               	movwf	(_volt+2)^(0+128)
  1441  0EC0  1283               	bcf	3,5	;RP0=0, select bank0
  1442  0EC1  1303               	bcf	3,6	;RP1=0, select bank0
  1443  0EC2  084F               	movf	?___flmul+1,w
  1444  0EC3  1683               	bsf	3,5	;RP0=1, select bank1
  1445  0EC4  1303               	bcf	3,6	;RP1=0, select bank1
  1446  0EC5  00B1               	movwf	(_volt+1)^(0+128)
  1447  0EC6  1283               	bcf	3,5	;RP0=0, select bank0
  1448  0EC7  1303               	bcf	3,6	;RP1=0, select bank0
  1449  0EC8  084E               	movf	?___flmul,w
  1450  0EC9  1683               	bsf	3,5	;RP0=1, select bank1
  1451  0ECA  1303               	bcf	3,6	;RP1=0, select bank1
  1452  0ECB  00B0               	movwf	_volt^(0+128)
  1453  0ECC                     l2896:
  1454                           
  1455                           ;Master.c: 150:         temperatura = (volt* (float) 100);
  1456  0ECC  3042               	movlw	66
  1457  0ECD  1283               	bcf	3,5	;RP0=0, select bank0
  1458  0ECE  1303               	bcf	3,6	;RP1=0, select bank0
  1459  0ECF  00D1               	movwf	___flmul@b+3
  1460  0ED0  30C8               	movlw	200
  1461  0ED1  00D0               	movwf	___flmul@b+2
  1462  0ED2  3000               	movlw	0
  1463  0ED3  00CF               	movwf	___flmul@b+1
  1464  0ED4  3000               	movlw	0
  1465  0ED5  00CE               	movwf	___flmul@b
  1466  0ED6  1683               	bsf	3,5	;RP0=1, select bank1
  1467  0ED7  1303               	bcf	3,6	;RP1=0, select bank1
  1468  0ED8  0833               	movf	(_volt+3)^(0+128),w
  1469  0ED9  1283               	bcf	3,5	;RP0=0, select bank0
  1470  0EDA  1303               	bcf	3,6	;RP1=0, select bank0
  1471  0EDB  00D5               	movwf	___flmul@a+3
  1472  0EDC  1683               	bsf	3,5	;RP0=1, select bank1
  1473  0EDD  1303               	bcf	3,6	;RP1=0, select bank1
  1474  0EDE  0832               	movf	(_volt+2)^(0+128),w
  1475  0EDF  1283               	bcf	3,5	;RP0=0, select bank0
  1476  0EE0  1303               	bcf	3,6	;RP1=0, select bank0
  1477  0EE1  00D4               	movwf	___flmul@a+2
  1478  0EE2  1683               	bsf	3,5	;RP0=1, select bank1
  1479  0EE3  1303               	bcf	3,6	;RP1=0, select bank1
  1480  0EE4  0831               	movf	(_volt+1)^(0+128),w
  1481  0EE5  1283               	bcf	3,5	;RP0=0, select bank0
  1482  0EE6  1303               	bcf	3,6	;RP1=0, select bank0
  1483  0EE7  00D3               	movwf	___flmul@a+1
  1484  0EE8  1683               	bsf	3,5	;RP0=1, select bank1
  1485  0EE9  1303               	bcf	3,6	;RP1=0, select bank1
  1486  0EEA  0830               	movf	_volt^(0+128),w
  1487  0EEB  1283               	bcf	3,5	;RP0=0, select bank0
  1488  0EEC  1303               	bcf	3,6	;RP1=0, select bank0
  1489  0EED  00D2               	movwf	___flmul@a
  1490  0EEE  120A  118A  2095  120A  158A  	fcall	___flmul
  1491  0EF3  1283               	bcf	3,5	;RP0=0, select bank0
  1492  0EF4  1303               	bcf	3,6	;RP1=0, select bank0
  1493  0EF5  0851               	movf	?___flmul+3,w
  1494  0EF6  1683               	bsf	3,5	;RP0=1, select bank1
  1495  0EF7  1303               	bcf	3,6	;RP1=0, select bank1
  1496  0EF8  00AF               	movwf	(_temperatura+3)^(0+128)
  1497  0EF9  1283               	bcf	3,5	;RP0=0, select bank0
  1498  0EFA  1303               	bcf	3,6	;RP1=0, select bank0
  1499  0EFB  0850               	movf	?___flmul+2,w
  1500  0EFC  1683               	bsf	3,5	;RP0=1, select bank1
  1501  0EFD  1303               	bcf	3,6	;RP1=0, select bank1
  1502  0EFE  00AE               	movwf	(_temperatura+2)^(0+128)
  1503  0EFF  1283               	bcf	3,5	;RP0=0, select bank0
  1504  0F00  1303               	bcf	3,6	;RP1=0, select bank0
  1505  0F01  084F               	movf	?___flmul+1,w
  1506  0F02  1683               	bsf	3,5	;RP0=1, select bank1
  1507  0F03  1303               	bcf	3,6	;RP1=0, select bank1
  1508  0F04  00AD               	movwf	(_temperatura+1)^(0+128)
  1509  0F05  1283               	bcf	3,5	;RP0=0, select bank0
  1510  0F06  1303               	bcf	3,6	;RP1=0, select bank0
  1511  0F07  084E               	movf	?___flmul,w
  1512  0F08  1683               	bsf	3,5	;RP0=1, select bank1
  1513  0F09  1303               	bcf	3,6	;RP1=0, select bank1
  1514  0F0A  00AC               	movwf	_temperatura^(0+128)
  1515  0F0B                     l2898:
  1516                           
  1517                           ;Master.c: 152:         conv1 = 0;
  1518  0F0B  3000               	movlw	0
  1519  0F0C  00AB               	movwf	(_conv1+3)^(0+128)
  1520  0F0D  3000               	movlw	0
  1521  0F0E  00AA               	movwf	(_conv1+2)^(0+128)
  1522  0F0F  3000               	movlw	0
  1523  0F10  00A9               	movwf	(_conv1+1)^(0+128)
  1524  0F11  3000               	movlw	0
  1525  0F12  00A8               	movwf	_conv1^(0+128)
  1526  0F13                     l2900:
  1527                           
  1528                           ;Master.c: 155:         conv1 = temperatura;
  1529  0F13  082F               	movf	(_temperatura+3)^(0+128),w
  1530  0F14  00AB               	movwf	(_conv1+3)^(0+128)
  1531  0F15  082E               	movf	(_temperatura+2)^(0+128),w
  1532  0F16  00AA               	movwf	(_conv1+2)^(0+128)
  1533  0F17  082D               	movf	(_temperatura+1)^(0+128),w
  1534  0F18  00A9               	movwf	(_conv1+1)^(0+128)
  1535  0F19  082C               	movf	_temperatura^(0+128),w
  1536  0F1A  00A8               	movwf	_conv1^(0+128)
  1537  0F1B                     l2902:
  1538                           
  1539                           ;Master.c: 157:         convert(lcd1, conv1, 2);
  1540  0F1B  082B               	movf	(_conv1+3)^(0+128),w
  1541  0F1C  1283               	bcf	3,5	;RP0=0, select bank0
  1542  0F1D  1303               	bcf	3,6	;RP1=0, select bank0
  1543  0F1E  00EB               	movwf	convert@a+3
  1544  0F1F  1683               	bsf	3,5	;RP0=1, select bank1
  1545  0F20  1303               	bcf	3,6	;RP1=0, select bank1
  1546  0F21  082A               	movf	(_conv1+2)^(0+128),w
  1547  0F22  1283               	bcf	3,5	;RP0=0, select bank0
  1548  0F23  1303               	bcf	3,6	;RP1=0, select bank0
  1549  0F24  00EA               	movwf	convert@a+2
  1550  0F25  1683               	bsf	3,5	;RP0=1, select bank1
  1551  0F26  1303               	bcf	3,6	;RP1=0, select bank1
  1552  0F27  0829               	movf	(_conv1+1)^(0+128),w
  1553  0F28  1283               	bcf	3,5	;RP0=0, select bank0
  1554  0F29  1303               	bcf	3,6	;RP1=0, select bank0
  1555  0F2A  00E9               	movwf	convert@a+1
  1556  0F2B  1683               	bsf	3,5	;RP0=1, select bank1
  1557  0F2C  1303               	bcf	3,6	;RP1=0, select bank1
  1558  0F2D  0828               	movf	_conv1^(0+128),w
  1559  0F2E  1283               	bcf	3,5	;RP0=0, select bank0
  1560  0F2F  1303               	bcf	3,6	;RP1=0, select bank0
  1561  0F30  00E8               	movwf	convert@a
  1562  0F31  3002               	movlw	2
  1563  0F32  00EC               	movwf	convert@place
  1564  0F33  3000               	movlw	0
  1565  0F34  00ED               	movwf	convert@place+1
  1566  0F35  30CA               	movlw	(low (_lcd1| 0))& (0+255)
  1567  0F36  120A  118A  23F6  120A  158A  	fcall	_convert
  1568  0F3B                     l2904:
  1569                           
  1570                           ;Master.c: 159:         conv0 = 0;
  1571  0F3B  3000               	movlw	0
  1572  0F3C  1683               	bsf	3,5	;RP0=1, select bank1
  1573  0F3D  1303               	bcf	3,6	;RP1=0, select bank1
  1574  0F3E  00A7               	movwf	(_conv0+3)^(0+128)
  1575  0F3F  3000               	movlw	0
  1576  0F40  00A6               	movwf	(_conv0+2)^(0+128)
  1577  0F41  3000               	movlw	0
  1578  0F42  00A5               	movwf	(_conv0+1)^(0+128)
  1579  0F43  3000               	movlw	0
  1580  0F44  00A4               	movwf	_conv0^(0+128)
  1581  0F45                     l2906:
  1582                           
  1583                           ;Master.c: 160:         conv0 = var_hum;
  1584  0F45  083D               	movf	_var_hum^(0+128),w	;volatile
  1585  0F46  00E3               	movwf	??_main^(0+128)
  1586  0F47  01E4               	clrf	(??_main^(0+128)+1)
  1587  0F48  01E5               	clrf	(??_main^(0+128)+2)
  1588  0F49  01E6               	clrf	(??_main^(0+128)+3)
  1589  0F4A  0866               	movf	(??_main+3)^(0+128),w
  1590  0F4B  1283               	bcf	3,5	;RP0=0, select bank0
  1591  0F4C  1303               	bcf	3,6	;RP1=0, select bank0
  1592  0F4D  00A7               	movwf	___xxtofl@val+3
  1593  0F4E  1683               	bsf	3,5	;RP0=1, select bank1
  1594  0F4F  1303               	bcf	3,6	;RP1=0, select bank1
  1595  0F50  0865               	movf	(??_main+2)^(0+128),w
  1596  0F51  1283               	bcf	3,5	;RP0=0, select bank0
  1597  0F52  1303               	bcf	3,6	;RP1=0, select bank0
  1598  0F53  00A6               	movwf	___xxtofl@val+2
  1599  0F54  1683               	bsf	3,5	;RP0=1, select bank1
  1600  0F55  1303               	bcf	3,6	;RP1=0, select bank1
  1601  0F56  0864               	movf	(??_main+1)^(0+128),w
  1602  0F57  1283               	bcf	3,5	;RP0=0, select bank0
  1603  0F58  1303               	bcf	3,6	;RP1=0, select bank0
  1604  0F59  00A5               	movwf	___xxtofl@val+1
  1605  0F5A  1683               	bsf	3,5	;RP0=1, select bank1
  1606  0F5B  1303               	bcf	3,6	;RP1=0, select bank1
  1607  0F5C  0863               	movf	??_main^(0+128),w
  1608  0F5D  1283               	bcf	3,5	;RP0=0, select bank0
  1609  0F5E  1303               	bcf	3,6	;RP1=0, select bank0
  1610  0F5F  00A4               	movwf	___xxtofl@val
  1611  0F60  3000               	movlw	0
  1612  0F61  160A  118A  2744  120A  158A  	fcall	___xxtofl
  1613  0F66  1283               	bcf	3,5	;RP0=0, select bank0
  1614  0F67  1303               	bcf	3,6	;RP1=0, select bank0
  1615  0F68  0827               	movf	?___xxtofl+3,w
  1616  0F69  1683               	bsf	3,5	;RP0=1, select bank1
  1617  0F6A  1303               	bcf	3,6	;RP1=0, select bank1
  1618  0F6B  00A7               	movwf	(_conv0+3)^(0+128)
  1619  0F6C  1283               	bcf	3,5	;RP0=0, select bank0
  1620  0F6D  1303               	bcf	3,6	;RP1=0, select bank0
  1621  0F6E  0826               	movf	?___xxtofl+2,w
  1622  0F6F  1683               	bsf	3,5	;RP0=1, select bank1
  1623  0F70  1303               	bcf	3,6	;RP1=0, select bank1
  1624  0F71  00A6               	movwf	(_conv0+2)^(0+128)
  1625  0F72  1283               	bcf	3,5	;RP0=0, select bank0
  1626  0F73  1303               	bcf	3,6	;RP1=0, select bank0
  1627  0F74  0825               	movf	?___xxtofl+1,w
  1628  0F75  1683               	bsf	3,5	;RP0=1, select bank1
  1629  0F76  1303               	bcf	3,6	;RP1=0, select bank1
  1630  0F77  00A5               	movwf	(_conv0+1)^(0+128)
  1631  0F78  1283               	bcf	3,5	;RP0=0, select bank0
  1632  0F79  1303               	bcf	3,6	;RP1=0, select bank0
  1633  0F7A  0824               	movf	?___xxtofl,w
  1634  0F7B  1683               	bsf	3,5	;RP0=1, select bank1
  1635  0F7C  1303               	bcf	3,6	;RP1=0, select bank1
  1636  0F7D  00A4               	movwf	_conv0^(0+128)
  1637                           
  1638                           ;Master.c: 162:         convert(humedad, conv0, 2);
  1639  0F7E  0827               	movf	(_conv0+3)^(0+128),w
  1640  0F7F  1283               	bcf	3,5	;RP0=0, select bank0
  1641  0F80  1303               	bcf	3,6	;RP1=0, select bank0
  1642  0F81  00EB               	movwf	convert@a+3
  1643  0F82  1683               	bsf	3,5	;RP0=1, select bank1
  1644  0F83  1303               	bcf	3,6	;RP1=0, select bank1
  1645  0F84  0826               	movf	(_conv0+2)^(0+128),w
  1646  0F85  1283               	bcf	3,5	;RP0=0, select bank0
  1647  0F86  1303               	bcf	3,6	;RP1=0, select bank0
  1648  0F87  00EA               	movwf	convert@a+2
  1649  0F88  1683               	bsf	3,5	;RP0=1, select bank1
  1650  0F89  1303               	bcf	3,6	;RP1=0, select bank1
  1651  0F8A  0825               	movf	(_conv0+1)^(0+128),w
  1652  0F8B  1283               	bcf	3,5	;RP0=0, select bank0
  1653  0F8C  1303               	bcf	3,6	;RP1=0, select bank0
  1654  0F8D  00E9               	movwf	convert@a+1
  1655  0F8E  1683               	bsf	3,5	;RP0=1, select bank1
  1656  0F8F  1303               	bcf	3,6	;RP1=0, select bank1
  1657  0F90  0824               	movf	_conv0^(0+128),w
  1658  0F91  1283               	bcf	3,5	;RP0=0, select bank0
  1659  0F92  1303               	bcf	3,6	;RP1=0, select bank0
  1660  0F93  00E8               	movwf	convert@a
  1661  0F94  3002               	movlw	2
  1662  0F95  00EC               	movwf	convert@place
  1663  0F96  3000               	movlw	0
  1664  0F97  00ED               	movwf	convert@place+1
  1665  0F98  30C0               	movlw	(low (_humedad| 0))& (0+255)
  1666  0F99  120A  118A  23F6  120A  158A  	fcall	_convert
  1667  0F9E                     l2908:
  1668                           
  1669                           ;Master.c: 165:         Lcd_Set_Cursor(2, 1);
  1670  0F9E  01F4               	clrf	Lcd_Set_Cursor@b
  1671  0F9F  0AF4               	incf	Lcd_Set_Cursor@b,f
  1672  0FA0  3002               	movlw	2
  1673  0FA1  160A  118A  2473  120A  158A  	fcall	_Lcd_Set_Cursor
  1674  0FA6                     l2910:
  1675                           
  1676                           ;Master.c: 166:         Lcd_Write_String(lcd1);
  1677  0FA6  30CA               	movlw	(low (_lcd1| 0))& (0+255)
  1678  0FA7  00F3               	movwf	Lcd_Write_String@a
  1679  0FA8  3000               	movlw	0
  1680  0FA9  00F4               	movwf	Lcd_Write_String@a+1
  1681  0FAA  160A  118A  2593  120A  158A  	fcall	_Lcd_Write_String
  1682                           
  1683                           ;Master.c: 167:         Lcd_Set_Cursor(2, 6);
  1684  0FAF  3006               	movlw	6
  1685  0FB0  1683               	bsf	3,5	;RP0=1, select bank1
  1686  0FB1  1303               	bcf	3,6	;RP1=0, select bank1
  1687  0FB2  00E3               	movwf	??_main^(0+128)
  1688  0FB3  0863               	movf	??_main^(0+128),w
  1689  0FB4  00F4               	movwf	Lcd_Set_Cursor@b
  1690  0FB5  3002               	movlw	2
  1691  0FB6  160A  118A  2473  120A  158A  	fcall	_Lcd_Set_Cursor
  1692  0FBB                     l2912:
  1693                           
  1694                           ;Master.c: 168:         Lcd_Write_String("C");
  1695  0FBB  300E               	movlw	(low ((STR_4-__stringbase)| (0+32768)))& (0+255)
  1696  0FBC  00F3               	movwf	Lcd_Write_String@a
  1697  0FBD  3080               	movlw	128
  1698  0FBE  00F4               	movwf	Lcd_Write_String@a+1
  1699  0FBF  160A  118A  2593  120A  158A  	fcall	_Lcd_Write_String
  1700  0FC4                     l2914:
  1701                           
  1702                           ;Master.c: 170:         Lcd_Set_Cursor(2, 7);
  1703  0FC4  3007               	movlw	7
  1704  0FC5  1683               	bsf	3,5	;RP0=1, select bank1
  1705  0FC6  1303               	bcf	3,6	;RP1=0, select bank1
  1706  0FC7  00E3               	movwf	??_main^(0+128)
  1707  0FC8  0863               	movf	??_main^(0+128),w
  1708  0FC9  00F4               	movwf	Lcd_Set_Cursor@b
  1709  0FCA  3002               	movlw	2
  1710  0FCB  160A  118A  2473  120A  158A  	fcall	_Lcd_Set_Cursor
  1711                           
  1712                           ;Master.c: 171:         Lcd_Write_String(humedad);
  1713  0FD0  30C0               	movlw	(low (_humedad| 0))& (0+255)
  1714  0FD1  00F3               	movwf	Lcd_Write_String@a
  1715  0FD2  3000               	movlw	0
  1716  0FD3  00F4               	movwf	Lcd_Write_String@a+1
  1717  0FD4  160A  118A  2593  120A  158A  	fcall	_Lcd_Write_String
  1718  0FD9                     l2916:
  1719                           
  1720                           ;Master.c: 172:         Lcd_Set_Cursor(2, 11);
  1721  0FD9  300B               	movlw	11
  1722  0FDA  1683               	bsf	3,5	;RP0=1, select bank1
  1723  0FDB  1303               	bcf	3,6	;RP1=0, select bank1
  1724  0FDC  00E3               	movwf	??_main^(0+128)
  1725  0FDD  0863               	movf	??_main^(0+128),w
  1726  0FDE  00F4               	movwf	Lcd_Set_Cursor@b
  1727  0FDF  3002               	movlw	2
  1728  0FE0  160A  118A  2473  120A  158A  	fcall	_Lcd_Set_Cursor
  1729  0FE5                     l2918:
  1730                           
  1731                           ;Master.c: 173:         Lcd_Write_String("C");
  1732  0FE5  300E               	movlw	(low ((STR_4-__stringbase)| (0+32768)))& (0+255)
  1733  0FE6  00F3               	movwf	Lcd_Write_String@a
  1734  0FE7  3080               	movlw	128
  1735  0FE8  00F4               	movwf	Lcd_Write_String@a+1
  1736  0FE9  160A  118A  2593  120A  158A  	fcall	_Lcd_Write_String
  1737  0FEE                     l2920:
  1738                           
  1739                           ;Master.c: 201:         _delay((unsigned long)((500)*(8000000/4000.0)));
  1740  0FEE  3006               	movlw	6
  1741  0FEF  1683               	bsf	3,5	;RP0=1, select bank1
  1742  0FF0  1303               	bcf	3,6	;RP1=0, select bank1
  1743  0FF1  00E5               	movwf	(??_main^(0+128)+2)
  1744  0FF2  3013               	movlw	19
  1745  0FF3  00E4               	movwf	(??_main^(0+128)+1)
  1746  0FF4  30AD               	movlw	173
  1747  0FF5  00E3               	movwf	??_main^(0+128)
  1748  0FF6                     u3787:
  1749  0FF6  0BE3               	decfsz	??_main^(0+128),f
  1750  0FF7  2FF6               	goto	u3787
  1751  0FF8  0BE4               	decfsz	(??_main^(0+128)+1),f
  1752  0FF9  2FF6               	goto	u3787
  1753  0FFA  0BE5               	decfsz	(??_main^(0+128)+2),f
  1754  0FFB  2FF6               	goto	u3787
  1755  0FFC  2CC0               	goto	l77
  1756  0FFD  120A  118A  2800   	ljmp	start
  1757  1000                     __end_of_main:
  1758                           
  1759                           	psect	text1
  1760  14BB                     __ptext1:	
  1761 ;; *************** function _setup *****************
  1762 ;; Defined at:
  1763 ;;		line 209 in file "Master.c"
  1764 ;; Parameters:    Size  Location     Type
  1765 ;;		None
  1766 ;; Auto vars:     Size  Location     Type
  1767 ;;		None
  1768 ;; Return value:  Size  Location     Type
  1769 ;;                  1    wreg      void 
  1770 ;; Registers used:
  1771 ;;		wreg, status,2, status,0, pclath, cstack
  1772 ;; Tracked objects:
  1773 ;;		On entry : 0/0
  1774 ;;		On exit  : 0/0
  1775 ;;		Unchanged: 0/0
  1776 ;; Data sizes:     COMMON   BANK0   BANK1   BANK3   BANK2
  1777 ;;      Params:         0       0       0       0       0
  1778 ;;      Locals:         0       0       0       0       0
  1779 ;;      Temps:          0       0       0       0       0
  1780 ;;      Totals:         0       0       0       0       0
  1781 ;;Total ram usage:        0 bytes
  1782 ;; Hardware stack levels used:    1
  1783 ;; Hardware stack levels required when called:    2
  1784 ;; This function calls:
  1785 ;;		_I2C_Master_Init
  1786 ;; This function is called by:
  1787 ;;		_main
  1788 ;; This function uses a non-reentrant model
  1789 ;;
  1790                           
  1791                           
  1792                           ;psect for function _setup
  1793  14BB                     _setup:
  1794  14BB                     l2676:	
  1795                           ;incstack = 0
  1796                           ; Regs used in _setup: [wreg+status,2+status,0+pclath+cstack]
  1797                           
  1798                           
  1799                           ;Master.c: 210:     ANSEL = 0x00;
  1800  14BB  1683               	bsf	3,5	;RP0=1, select bank3
  1801  14BC  1703               	bsf	3,6	;RP1=1, select bank3
  1802  14BD  0188               	clrf	8	;volatile
  1803                           
  1804                           ;Master.c: 211:     ANSELH = 0x00;
  1805  14BE  0189               	clrf	9	;volatile
  1806  14BF                     l2678:
  1807                           
  1808                           ;Master.c: 213:     TRISCbits.TRISC0 = 0;
  1809  14BF  1683               	bsf	3,5	;RP0=1, select bank1
  1810  14C0  1303               	bcf	3,6	;RP1=0, select bank1
  1811  14C1  1007               	bcf	7,0	;volatile
  1812  14C2                     l2680:
  1813                           
  1814                           ;Master.c: 214:     TRISCbits.TRISC1 = 0;
  1815  14C2  1087               	bcf	7,1	;volatile
  1816                           
  1817                           ;Master.c: 215:     TRISB = 0x00;
  1818  14C3  0186               	clrf	6	;volatile
  1819                           
  1820                           ;Master.c: 216:     TRISD = 0x00;
  1821  14C4  0188               	clrf	8	;volatile
  1822                           
  1823                           ;Master.c: 217:     TRISE = 0x00;
  1824  14C5  0189               	clrf	9	;volatile
  1825                           
  1826                           ;Master.c: 218:     PORTE = 0x00;
  1827  14C6  1283               	bcf	3,5	;RP0=0, select bank0
  1828  14C7  1303               	bcf	3,6	;RP1=0, select bank0
  1829  14C8  0189               	clrf	9	;volatile
  1830                           
  1831                           ;Master.c: 219:     PORTB = 0x00;
  1832  14C9  0186               	clrf	6	;volatile
  1833                           
  1834                           ;Master.c: 220:     PORTD = 0x00;
  1835  14CA  0188               	clrf	8	;volatile
  1836  14CB                     l2682:
  1837                           
  1838                           ;Master.c: 221:     I2C_Master_Init(100000);
  1839  14CB  3000               	movlw	0
  1840  14CC  00A3               	movwf	I2C_Master_Init@c+3
  1841  14CD  3001               	movlw	1
  1842  14CE  00A2               	movwf	I2C_Master_Init@c+2
  1843  14CF  3086               	movlw	134
  1844  14D0  00A1               	movwf	I2C_Master_Init@c+1
  1845  14D1  30A0               	movlw	160
  1846  14D2  00A0               	movwf	I2C_Master_Init@c
  1847  14D3  160A  118A  255B  160A  118A  	fcall	_I2C_Master_Init
  1848  14D8                     l2684:
  1849                           
  1850                           ;Master.c: 224:     OSCCONbits.IRCF2 = 1;
  1851  14D8  1683               	bsf	3,5	;RP0=1, select bank1
  1852  14D9  1303               	bcf	3,6	;RP1=0, select bank1
  1853  14DA  170F               	bsf	15,6	;volatile
  1854  14DB                     l2686:
  1855                           
  1856                           ;Master.c: 225:     OSCCONbits.IRCF1 = 1;
  1857  14DB  168F               	bsf	15,5	;volatile
  1858  14DC                     l2688:
  1859                           
  1860                           ;Master.c: 226:     OSCCONbits.IRCF0 = 1;
  1861  14DC  160F               	bsf	15,4	;volatile
  1862  14DD                     l2690:
  1863                           
  1864                           ;Master.c: 227:     OSCCONbits.SCS = 1;
  1865  14DD  140F               	bsf	15,0	;volatile
  1866  14DE                     l83:
  1867  14DE  0008               	return
  1868  14DF                     __end_of_setup:
  1869                           
  1870                           	psect	text2
  1871  155B                     __ptext2:	
  1872 ;; *************** function _I2C_Master_Init *****************
  1873 ;; Defined at:
  1874 ;;		line 14 in file "Librerias.c"
  1875 ;; Parameters:    Size  Location     Type
  1876 ;;  c               4    0[BANK0 ] const unsigned long 
  1877 ;; Auto vars:     Size  Location     Type
  1878 ;;		None
  1879 ;; Return value:  Size  Location     Type
  1880 ;;                  1    wreg      void 
  1881 ;; Registers used:
  1882 ;;		wreg, status,2, status,0, pclath, cstack
  1883 ;; Tracked objects:
  1884 ;;		On entry : 0/0
  1885 ;;		On exit  : 0/0
  1886 ;;		Unchanged: 0/0
  1887 ;; Data sizes:     COMMON   BANK0   BANK1   BANK3   BANK2
  1888 ;;      Params:         0       4       0       0       0
  1889 ;;      Locals:         0       0       0       0       0
  1890 ;;      Temps:          0       4       0       0       0
  1891 ;;      Totals:         0       8       0       0       0
  1892 ;;Total ram usage:        8 bytes
  1893 ;; Hardware stack levels used:    1
  1894 ;; Hardware stack levels required when called:    1
  1895 ;; This function calls:
  1896 ;;		___lldiv
  1897 ;; This function is called by:
  1898 ;;		_setup
  1899 ;; This function uses a non-reentrant model
  1900 ;;
  1901                           
  1902                           
  1903                           ;psect for function _I2C_Master_Init
  1904  155B                     _I2C_Master_Init:
  1905  155B                     l2194:	
  1906                           ;incstack = 0
  1907                           ; Regs used in _I2C_Master_Init: [wreg+status,2+status,0+pclath+cstack]
  1908                           
  1909                           
  1910                           ;Librerias.c: 14: void I2C_Master_Init(const unsigned long c);Librerias.c: 15: {;Libreri
      +                          as.c: 16:     SSPCON = 0b00101000;
  1911  155B  3028               	movlw	40
  1912  155C  1283               	bcf	3,5	;RP0=0, select bank0
  1913  155D  1303               	bcf	3,6	;RP1=0, select bank0
  1914  155E  0094               	movwf	20	;volatile
  1915  155F                     l2196:
  1916                           
  1917                           ;Librerias.c: 17:     SSPCON2 = 0;
  1918  155F  1683               	bsf	3,5	;RP0=1, select bank1
  1919  1560  1303               	bcf	3,6	;RP1=0, select bank1
  1920  1561  0191               	clrf	17	;volatile
  1921  1562                     l2198:
  1922                           
  1923                           ;Librerias.c: 18:     SSPADD = (8000000/(4*c))-1;
  1924  1562  1283               	bcf	3,5	;RP0=0, select bank0
  1925  1563  1303               	bcf	3,6	;RP1=0, select bank0
  1926  1564  0820               	movf	I2C_Master_Init@c,w
  1927  1565  00A4               	movwf	??_I2C_Master_Init
  1928  1566  0821               	movf	I2C_Master_Init@c+1,w
  1929  1567  00A5               	movwf	??_I2C_Master_Init+1
  1930  1568  0822               	movf	I2C_Master_Init@c+2,w
  1931  1569  00A6               	movwf	??_I2C_Master_Init+2
  1932  156A  0823               	movf	I2C_Master_Init@c+3,w
  1933  156B  00A7               	movwf	??_I2C_Master_Init+3
  1934  156C  3002               	movlw	2
  1935  156D                     u2445:
  1936  156D  1003               	clrc
  1937  156E  0DA4               	rlf	??_I2C_Master_Init,f
  1938  156F  0DA5               	rlf	??_I2C_Master_Init+1,f
  1939  1570  0DA6               	rlf	??_I2C_Master_Init+2,f
  1940  1571  0DA7               	rlf	??_I2C_Master_Init+3,f
  1941  1572                     u2440:
  1942  1572  3EFF               	addlw	-1
  1943  1573  1D03               	skipz
  1944  1574  2D6D               	goto	u2445
  1945  1575  0827               	movf	??_I2C_Master_Init+3,w
  1946  1576  00F3               	movwf	___lldiv@divisor+3
  1947  1577  0826               	movf	??_I2C_Master_Init+2,w
  1948  1578  00F2               	movwf	___lldiv@divisor+2
  1949  1579  0825               	movf	??_I2C_Master_Init+1,w
  1950  157A  00F1               	movwf	___lldiv@divisor+1
  1951  157B  0824               	movf	??_I2C_Master_Init,w
  1952  157C  00F0               	movwf	___lldiv@divisor
  1953  157D  3000               	movlw	0
  1954  157E  00F7               	movwf	___lldiv@dividend+3
  1955  157F  307A               	movlw	122
  1956  1580  00F6               	movwf	___lldiv@dividend+2
  1957  1581  3012               	movlw	18
  1958  1582  00F5               	movwf	___lldiv@dividend+1
  1959  1583  3000               	movlw	0
  1960  1584  00F4               	movwf	___lldiv@dividend
  1961  1585  160A  118A  25D5  160A  118A  	fcall	___lldiv
  1962  158A  0870               	movf	?___lldiv,w
  1963  158B  3EFF               	addlw	255
  1964  158C  1683               	bsf	3,5	;RP0=1, select bank1
  1965  158D  1303               	bcf	3,6	;RP1=0, select bank1
  1966  158E  0093               	movwf	19	;volatile
  1967  158F                     l2200:
  1968                           
  1969                           ;Librerias.c: 19:     SSPSTAT = 0;
  1970  158F  0194               	clrf	20	;volatile
  1971  1590                     l2202:
  1972                           
  1973                           ;Librerias.c: 20:     TRISCbits.TRISC3 = 1;
  1974  1590  1587               	bsf	7,3	;volatile
  1975  1591                     l2204:
  1976                           
  1977                           ;Librerias.c: 21:     TRISCbits.TRISC4 = 1;
  1978  1591  1607               	bsf	7,4	;volatile
  1979  1592                     l134:
  1980  1592  0008               	return
  1981  1593                     __end_of_I2C_Master_Init:
  1982                           
  1983                           	psect	text3
  1984  15D5                     __ptext3:	
  1985 ;; *************** function ___lldiv *****************
  1986 ;; Defined at:
  1987 ;;		line 5 in file "C:\Program Files\Microchip\xc8\v2.31\pic\sources\c90\common\__lldiv.c"
  1988 ;; Parameters:    Size  Location     Type
  1989 ;;  divisor         4    0[COMMON] unsigned long 
  1990 ;;  dividend        4    4[COMMON] unsigned long 
  1991 ;; Auto vars:     Size  Location     Type
  1992 ;;  quotient        4    9[COMMON] unsigned long 
  1993 ;;  counter         1   13[COMMON] unsigned char 
  1994 ;; Return value:  Size  Location     Type
  1995 ;;                  4    0[COMMON] unsigned long 
  1996 ;; Registers used:
  1997 ;;		wreg, status,2, status,0
  1998 ;; Tracked objects:
  1999 ;;		On entry : 0/0
  2000 ;;		On exit  : 0/0
  2001 ;;		Unchanged: 0/0
  2002 ;; Data sizes:     COMMON   BANK0   BANK1   BANK3   BANK2
  2003 ;;      Params:         8       0       0       0       0
  2004 ;;      Locals:         5       0       0       0       0
  2005 ;;      Temps:          1       0       0       0       0
  2006 ;;      Totals:        14       0       0       0       0
  2007 ;;Total ram usage:       14 bytes
  2008 ;; Hardware stack levels used:    1
  2009 ;; This function calls:
  2010 ;;		Nothing
  2011 ;; This function is called by:
  2012 ;;		_I2C_Master_Init
  2013 ;; This function uses a non-reentrant model
  2014 ;;
  2015                           
  2016                           
  2017                           ;psect for function ___lldiv
  2018  15D5                     ___lldiv:
  2019  15D5                     l1962:	
  2020                           ;incstack = 0
  2021                           ; Regs used in ___lldiv: [wreg+status,2+status,0]
  2022                           
  2023  15D5  3000               	movlw	0
  2024  15D6  00FC               	movwf	___lldiv@quotient+3
  2025  15D7  3000               	movlw	0
  2026  15D8  00FB               	movwf	___lldiv@quotient+2
  2027  15D9  3000               	movlw	0
  2028  15DA  00FA               	movwf	___lldiv@quotient+1
  2029  15DB  3000               	movlw	0
  2030  15DC  00F9               	movwf	___lldiv@quotient
  2031  15DD  0873               	movf	___lldiv@divisor+3,w
  2032  15DE  0472               	iorwf	___lldiv@divisor+2,w
  2033  15DF  0471               	iorwf	___lldiv@divisor+1,w
  2034  15E0  0470               	iorwf	___lldiv@divisor,w
  2035  15E1  1903               	skipnz
  2036  15E2  2DE4               	goto	u1881
  2037  15E3  2DE5               	goto	u1880
  2038  15E4                     u1881:
  2039  15E4  2E32               	goto	l1982
  2040  15E5                     u1880:
  2041  15E5                     l1964:
  2042  15E5  01FD               	clrf	___lldiv@counter
  2043  15E6  0AFD               	incf	___lldiv@counter,f
  2044  15E7  2DF5               	goto	l1968
  2045  15E8                     l1966:
  2046  15E8  3001               	movlw	1
  2047  15E9  00F8               	movwf	??___lldiv
  2048  15EA                     u1895:
  2049  15EA  1003               	clrc
  2050  15EB  0DF0               	rlf	___lldiv@divisor,f
  2051  15EC  0DF1               	rlf	___lldiv@divisor+1,f
  2052  15ED  0DF2               	rlf	___lldiv@divisor+2,f
  2053  15EE  0DF3               	rlf	___lldiv@divisor+3,f
  2054  15EF  0BF8               	decfsz	??___lldiv,f
  2055  15F0  2DEA               	goto	u1895
  2056  15F1  3001               	movlw	1
  2057  15F2  00F8               	movwf	??___lldiv
  2058  15F3  0878               	movf	??___lldiv,w
  2059  15F4  07FD               	addwf	___lldiv@counter,f
  2060  15F5                     l1968:
  2061  15F5  1FF3               	btfss	___lldiv@divisor+3,7
  2062  15F6  2DF8               	goto	u1901
  2063  15F7  2DF9               	goto	u1900
  2064  15F8                     u1901:
  2065  15F8  2DE8               	goto	l1966
  2066  15F9                     u1900:
  2067  15F9                     l1970:
  2068  15F9  3001               	movlw	1
  2069  15FA  00F8               	movwf	??___lldiv
  2070  15FB                     u1915:
  2071  15FB  1003               	clrc
  2072  15FC  0DF9               	rlf	___lldiv@quotient,f
  2073  15FD  0DFA               	rlf	___lldiv@quotient+1,f
  2074  15FE  0DFB               	rlf	___lldiv@quotient+2,f
  2075  15FF  0DFC               	rlf	___lldiv@quotient+3,f
  2076  1600  0BF8               	decfsz	??___lldiv,f
  2077  1601  2DFB               	goto	u1915
  2078  1602                     l1972:
  2079  1602  0873               	movf	___lldiv@divisor+3,w
  2080  1603  0277               	subwf	___lldiv@dividend+3,w
  2081  1604  1D03               	skipz
  2082  1605  2E10               	goto	u1925
  2083  1606  0872               	movf	___lldiv@divisor+2,w
  2084  1607  0276               	subwf	___lldiv@dividend+2,w
  2085  1608  1D03               	skipz
  2086  1609  2E10               	goto	u1925
  2087  160A  0871               	movf	___lldiv@divisor+1,w
  2088  160B  0275               	subwf	___lldiv@dividend+1,w
  2089  160C  1D03               	skipz
  2090  160D  2E10               	goto	u1925
  2091  160E  0870               	movf	___lldiv@divisor,w
  2092  160F  0274               	subwf	___lldiv@dividend,w
  2093  1610                     u1925:
  2094  1610  1C03               	skipc
  2095  1611  2E13               	goto	u1921
  2096  1612  2E14               	goto	u1920
  2097  1613                     u1921:
  2098  1613  2E23               	goto	l1978
  2099  1614                     u1920:
  2100  1614                     l1974:
  2101  1614  0870               	movf	___lldiv@divisor,w
  2102  1615  02F4               	subwf	___lldiv@dividend,f
  2103  1616  0871               	movf	___lldiv@divisor+1,w
  2104  1617  1C03               	skipc
  2105  1618  0F71               	incfsz	___lldiv@divisor+1,w
  2106  1619  02F5               	subwf	___lldiv@dividend+1,f
  2107  161A  0872               	movf	___lldiv@divisor+2,w
  2108  161B  1C03               	skipc
  2109  161C  0F72               	incfsz	___lldiv@divisor+2,w
  2110  161D  02F6               	subwf	___lldiv@dividend+2,f
  2111  161E  0873               	movf	___lldiv@divisor+3,w
  2112  161F  1C03               	skipc
  2113  1620  0F73               	incfsz	___lldiv@divisor+3,w
  2114  1621  02F7               	subwf	___lldiv@dividend+3,f
  2115  1622                     l1976:
  2116  1622  1479               	bsf	___lldiv@quotient,0
  2117  1623                     l1978:
  2118  1623  3001               	movlw	1
  2119  1624                     u1935:
  2120  1624  1003               	clrc
  2121  1625  0CF3               	rrf	___lldiv@divisor+3,f
  2122  1626  0CF2               	rrf	___lldiv@divisor+2,f
  2123  1627  0CF1               	rrf	___lldiv@divisor+1,f
  2124  1628  0CF0               	rrf	___lldiv@divisor,f
  2125  1629  3EFF               	addlw	-1
  2126  162A  1D03               	skipz
  2127  162B  2E24               	goto	u1935
  2128  162C                     l1980:
  2129  162C  3001               	movlw	1
  2130  162D  02FD               	subwf	___lldiv@counter,f
  2131  162E  1D03               	btfss	3,2
  2132  162F  2E31               	goto	u1941
  2133  1630  2E32               	goto	u1940
  2134  1631                     u1941:
  2135  1631  2DF9               	goto	l1970
  2136  1632                     u1940:
  2137  1632                     l1982:
  2138  1632  087C               	movf	___lldiv@quotient+3,w
  2139  1633  00F3               	movwf	?___lldiv+3
  2140  1634  087B               	movf	___lldiv@quotient+2,w
  2141  1635  00F2               	movwf	?___lldiv+2
  2142  1636  087A               	movf	___lldiv@quotient+1,w
  2143  1637  00F1               	movwf	?___lldiv+1
  2144  1638  0879               	movf	___lldiv@quotient,w
  2145  1639  00F0               	movwf	?___lldiv
  2146  163A                     l412:
  2147  163A  0008               	return
  2148  163B                     __end_of___lldiv:
  2149                           
  2150                           	psect	text4
  2151  03F6                     __ptext4:	
  2152 ;; *************** function _convert *****************
  2153 ;; Defined at:
  2154 ;;		line 202 in file "Librerias.c"
  2155 ;; Parameters:    Size  Location     Type
  2156 ;;  data            1    wreg     PTR unsigned char 
  2157 ;;		 -> humedad(10), lcd1(10), 
  2158 ;;  a               4   72[BANK0 ] float 
  2159 ;;  place           2   76[BANK0 ] int 
  2160 ;; Auto vars:     Size  Location     Type
  2161 ;;  data            1    4[BANK1 ] PTR unsigned char 
  2162 ;;		 -> humedad(10), lcd1(10), 
  2163 ;;  x               4    5[BANK1 ] float 
  2164 ;;  mu              2   13[BANK1 ] int 
  2165 ;;  digits          2   11[BANK1 ] int 
  2166 ;;  i               2    9[BANK1 ] int 
  2167 ;;  j               2    2[BANK1 ] int 
  2168 ;;  temp            2    0[BANK1 ] int 
  2169 ;; Return value:  Size  Location     Type
  2170 ;;                  1    wreg      void 
  2171 ;; Registers used:
  2172 ;;		wreg, fsr0l, fsr0h, status,2, status,0, btemp+1, pclath, cstack
  2173 ;; Tracked objects:
  2174 ;;		On entry : 0/0
  2175 ;;		On exit  : 0/0
  2176 ;;		Unchanged: 0/0
  2177 ;; Data sizes:     COMMON   BANK0   BANK1   BANK3   BANK2
  2178 ;;      Params:         0       6       0       0       0
  2179 ;;      Locals:         0       0      15       0       0
  2180 ;;      Temps:          0       2       0       0       0
  2181 ;;      Totals:         0       8      15       0       0
  2182 ;;Total ram usage:       23 bytes
  2183 ;; Hardware stack levels used:    1
  2184 ;; Hardware stack levels required when called:    2
  2185 ;; This function calls:
  2186 ;;		___awdiv
  2187 ;;		___fldiv
  2188 ;;		___flge
  2189 ;;		___flmul
  2190 ;;		___flsub
  2191 ;;		___fltol
  2192 ;;		___wmul
  2193 ;;		___xxtofl
  2194 ;; This function is called by:
  2195 ;;		_main
  2196 ;; This function uses a non-reentrant model
  2197 ;;
  2198                           
  2199                           
  2200                           ;psect for function _convert
  2201  03F6                     _convert:
  2202                           
  2203                           ;incstack = 0
  2204                           ; Regs used in _convert: [wreg-fsr0h+status,2+status,0+btemp+1+pclath+cstack]
  2205                           ;convert@data stored from wreg
  2206  03F6  1683               	bsf	3,5	;RP0=1, select bank1
  2207  03F7  1303               	bcf	3,6	;RP1=0, select bank1
  2208  03F8  00D8               	movwf	convert@data^(0+128)
  2209  03F9                     l2752:
  2210                           
  2211                           ;Librerias.c: 202: void convert(char *data,float a, int place);Librerias.c: 203: {;Libre
      +                          rias.c: 204:      int temp=a;
  2212  03F9  1283               	bcf	3,5	;RP0=0, select bank0
  2213  03FA  1303               	bcf	3,6	;RP1=0, select bank0
  2214  03FB  086B               	movf	convert@a+3,w
  2215  03FC  00F3               	movwf	___fltol@f1+3
  2216  03FD  086A               	movf	convert@a+2,w
  2217  03FE  00F2               	movwf	___fltol@f1+2
  2218  03FF  0869               	movf	convert@a+1,w
  2219  0400  00F1               	movwf	___fltol@f1+1
  2220  0401  0868               	movf	convert@a,w
  2221  0402  00F0               	movwf	___fltol@f1
  2222  0403  120A  118A  201B  120A  118A  	fcall	___fltol
  2223  0408  0871               	movf	?___fltol+1,w
  2224  0409  1683               	bsf	3,5	;RP0=1, select bank1
  2225  040A  1303               	bcf	3,6	;RP1=0, select bank1
  2226  040B  00D5               	movwf	(convert@temp+1)^(0+128)
  2227  040C  0870               	movf	?___fltol,w
  2228  040D  00D4               	movwf	convert@temp^(0+128)
  2229  040E                     l2754:
  2230  040E                     l2756:
  2231                           
  2232                           ;Librerias.c: 206:      int digits=0;
  2233  040E  01DF               	clrf	convert@digits^(0+128)
  2234  040F  01E0               	clrf	(convert@digits+1)^(0+128)
  2235  0410                     l2758:
  2236                           
  2237                           ;Librerias.c: 207:      int i=0,mu=1;
  2238  0410  01DD               	clrf	convert@i^(0+128)
  2239  0411  01DE               	clrf	(convert@i+1)^(0+128)
  2240  0412                     l2760:
  2241  0412  3001               	movlw	1
  2242  0413  00E1               	movwf	convert@mu^(0+128)
  2243  0414  3000               	movlw	0
  2244  0415  00E2               	movwf	(convert@mu^(0+128)+1)
  2245  0416                     l2762:
  2246  0416                     l2764:
  2247                           
  2248                           ;Librerias.c: 209:      if(a<0)
  2249  0416  1283               	bcf	3,5	;RP0=0, select bank0
  2250  0417  1303               	bcf	3,6	;RP1=0, select bank0
  2251  0418  086B               	movf	convert@a+3,w
  2252  0419  00F3               	movwf	___flge@ff1+3
  2253  041A  086A               	movf	convert@a+2,w
  2254  041B  00F2               	movwf	___flge@ff1+2
  2255  041C  0869               	movf	convert@a+1,w
  2256  041D  00F1               	movwf	___flge@ff1+1
  2257  041E  0868               	movf	convert@a,w
  2258  041F  00F0               	movwf	___flge@ff1
  2259  0420  3000               	movlw	0
  2260  0421  00F7               	movwf	___flge@ff2+3
  2261  0422  3000               	movlw	0
  2262  0423  00F6               	movwf	___flge@ff2+2
  2263  0424  3000               	movlw	0
  2264  0425  00F5               	movwf	___flge@ff2+1
  2265  0426  3000               	movlw	0
  2266  0427  00F4               	movwf	___flge@ff2
  2267  0428  160A  118A  26A2  120A  118A  	fcall	___flge
  2268  042D  1803               	btfsc	3,0
  2269  042E  2C30               	goto	u3641
  2270  042F  2C31               	goto	u3640
  2271  0430                     u3641:
  2272  0430  2C7F               	goto	l2776
  2273  0431                     u3640:
  2274  0431                     l2766:
  2275                           
  2276                           ;Librerias.c: 210:      {;Librerias.c: 211:             a=a*-1;
  2277  0431  30BF               	movlw	191
  2278  0432  1283               	bcf	3,5	;RP0=0, select bank0
  2279  0433  1303               	bcf	3,6	;RP1=0, select bank0
  2280  0434  00D1               	movwf	___flmul@b+3
  2281  0435  3080               	movlw	128
  2282  0436  00D0               	movwf	___flmul@b+2
  2283  0437  3000               	movlw	0
  2284  0438  00CF               	movwf	___flmul@b+1
  2285  0439  3000               	movlw	0
  2286  043A  00CE               	movwf	___flmul@b
  2287  043B  086B               	movf	convert@a+3,w
  2288  043C  00D5               	movwf	___flmul@a+3
  2289  043D  086A               	movf	convert@a+2,w
  2290  043E  00D4               	movwf	___flmul@a+2
  2291  043F  0869               	movf	convert@a+1,w
  2292  0440  00D3               	movwf	___flmul@a+1
  2293  0441  0868               	movf	convert@a,w
  2294  0442  00D2               	movwf	___flmul@a
  2295  0443  120A  118A  2095  120A  118A  	fcall	___flmul
  2296  0448  1283               	bcf	3,5	;RP0=0, select bank0
  2297  0449  1303               	bcf	3,6	;RP1=0, select bank0
  2298  044A  0851               	movf	?___flmul+3,w
  2299  044B  00EB               	movwf	convert@a+3
  2300  044C  0850               	movf	?___flmul+2,w
  2301  044D  00EA               	movwf	convert@a+2
  2302  044E  084F               	movf	?___flmul+1,w
  2303  044F  00E9               	movwf	convert@a+1
  2304  0450  084E               	movf	?___flmul,w
  2305  0451  00E8               	movwf	convert@a
  2306  0452                     l2768:
  2307                           
  2308                           ;Librerias.c: 212:             data[i]='-';
  2309  0452  302D               	movlw	45
  2310  0453  00EE               	movwf	??_convert
  2311  0454  1683               	bsf	3,5	;RP0=1, select bank1
  2312  0455  1303               	bcf	3,6	;RP1=0, select bank1
  2313  0456  0858               	movf	convert@data^(0+128),w
  2314  0457  0084               	movwf	4
  2315  0458  1283               	bcf	3,5	;RP0=0, select bank0
  2316  0459  1303               	bcf	3,6	;RP1=0, select bank0
  2317  045A  086E               	movf	??_convert,w
  2318  045B  1383               	bcf	3,7	;select IRP bank0
  2319  045C  0080               	movwf	0
  2320  045D                     l2770:
  2321                           
  2322                           ;Librerias.c: 213:             i++;
  2323  045D  3001               	movlw	1
  2324  045E  1683               	bsf	3,5	;RP0=1, select bank1
  2325  045F  1303               	bcf	3,6	;RP1=0, select bank1
  2326  0460  07DD               	addwf	convert@i^(0+128),f
  2327  0461  1803               	skipnc
  2328  0462  0ADE               	incf	(convert@i+1)^(0+128),f
  2329  0463  3000               	movlw	0
  2330  0464  07DE               	addwf	(convert@i+1)^(0+128),f
  2331  0465  2C7F               	goto	l2776
  2332  0466                     l2772:
  2333                           
  2334                           ;Librerias.c: 217:      {;Librerias.c: 218:          temp=temp/10;
  2335  0466  300A               	movlw	10
  2336  0467  00F0               	movwf	___awdiv@divisor
  2337  0468  3000               	movlw	0
  2338  0469  00F1               	movwf	___awdiv@divisor+1
  2339  046A  0855               	movf	(convert@temp+1)^(0+128),w
  2340  046B  00F3               	movwf	___awdiv@dividend+1
  2341  046C  0854               	movf	convert@temp^(0+128),w
  2342  046D  00F2               	movwf	___awdiv@dividend
  2343  046E  160A  118A  263B  120A  118A  	fcall	___awdiv
  2344  0473  0871               	movf	?___awdiv+1,w
  2345  0474  1683               	bsf	3,5	;RP0=1, select bank1
  2346  0475  1303               	bcf	3,6	;RP1=0, select bank1
  2347  0476  00D5               	movwf	(convert@temp+1)^(0+128)
  2348  0477  0870               	movf	?___awdiv,w
  2349  0478  00D4               	movwf	convert@temp^(0+128)
  2350  0479                     l2774:
  2351                           
  2352                           ;Librerias.c: 219:          digits++;
  2353  0479  3001               	movlw	1
  2354  047A  07DF               	addwf	convert@digits^(0+128),f
  2355  047B  1803               	skipnc
  2356  047C  0AE0               	incf	(convert@digits+1)^(0+128),f
  2357  047D  3000               	movlw	0
  2358  047E  07E0               	addwf	(convert@digits+1)^(0+128),f
  2359  047F                     l2776:
  2360                           
  2361                           ;Librerias.c: 216:      while(temp!=0)
  2362  047F  1683               	bsf	3,5	;RP0=1, select bank1
  2363  0480  1303               	bcf	3,6	;RP1=0, select bank1
  2364  0481  0854               	movf	convert@temp^(0+128),w
  2365  0482  0455               	iorwf	(convert@temp+1)^(0+128),w
  2366  0483  1D03               	btfss	3,2
  2367  0484  2C86               	goto	u3651
  2368  0485  2C87               	goto	u3650
  2369  0486                     u3651:
  2370  0486  2C66               	goto	l2772
  2371  0487                     u3650:
  2372  0487  2DA3               	goto	l2800
  2373  0488                     l2778:
  2374                           
  2375                           ;Librerias.c: 222:      {;Librerias.c: 223:          if(digits==1)mu=1;
  2376  0488  035F               	decf	convert@digits^(0+128),w
  2377  0489  0460               	iorwf	(convert@digits+1)^(0+128),w
  2378  048A  1D03               	btfss	3,2
  2379  048B  2C8D               	goto	u3661
  2380  048C  2C8E               	goto	u3660
  2381  048D                     u3661:
  2382  048D  2C93               	goto	l2782
  2383  048E                     u3660:
  2384  048E                     l2780:
  2385  048E  3001               	movlw	1
  2386  048F  00E1               	movwf	convert@mu^(0+128)
  2387  0490  3000               	movlw	0
  2388  0491  00E2               	movwf	(convert@mu^(0+128)+1)
  2389  0492  2CD5               	goto	l2790
  2390  0493                     l2782:
  2391  0493  3002               	movlw	2
  2392  0494  00D6               	movwf	convert@j^(0+128)
  2393  0495  3000               	movlw	0
  2394  0496  00D7               	movwf	(convert@j^(0+128)+1)
  2395  0497  2CBF               	goto	l2788
  2396  0498                     l2784:
  2397  0498  1683               	bsf	3,5	;RP0=1, select bank1
  2398  0499  1303               	bcf	3,6	;RP1=0, select bank1
  2399  049A  0862               	movf	(convert@mu+1)^(0+128),w
  2400  049B  1283               	bcf	3,5	;RP0=0, select bank0
  2401  049C  1303               	bcf	3,6	;RP1=0, select bank0
  2402  049D  00A1               	movwf	___wmul@multiplier+1
  2403  049E  1683               	bsf	3,5	;RP0=1, select bank1
  2404  049F  1303               	bcf	3,6	;RP1=0, select bank1
  2405  04A0  0861               	movf	convert@mu^(0+128),w
  2406  04A1  1283               	bcf	3,5	;RP0=0, select bank0
  2407  04A2  1303               	bcf	3,6	;RP1=0, select bank0
  2408  04A3  00A0               	movwf	___wmul@multiplier
  2409  04A4  300A               	movlw	10
  2410  04A5  00A2               	movwf	___wmul@multiplicand
  2411  04A6  3000               	movlw	0
  2412  04A7  00A3               	movwf	___wmul@multiplicand+1
  2413  04A8  160A  118A  2506  120A  118A  	fcall	___wmul
  2414  04AD  1283               	bcf	3,5	;RP0=0, select bank0
  2415  04AE  1303               	bcf	3,6	;RP1=0, select bank0
  2416  04AF  0821               	movf	?___wmul+1,w
  2417  04B0  1683               	bsf	3,5	;RP0=1, select bank1
  2418  04B1  1303               	bcf	3,6	;RP1=0, select bank1
  2419  04B2  00E2               	movwf	(convert@mu+1)^(0+128)
  2420  04B3  1283               	bcf	3,5	;RP0=0, select bank0
  2421  04B4  1303               	bcf	3,6	;RP1=0, select bank0
  2422  04B5  0820               	movf	?___wmul,w
  2423  04B6  1683               	bsf	3,5	;RP0=1, select bank1
  2424  04B7  1303               	bcf	3,6	;RP1=0, select bank1
  2425  04B8  00E1               	movwf	convert@mu^(0+128)
  2426  04B9                     l2786:
  2427  04B9  3001               	movlw	1
  2428  04BA  07D6               	addwf	convert@j^(0+128),f
  2429  04BB  1803               	skipnc
  2430  04BC  0AD7               	incf	(convert@j+1)^(0+128),f
  2431  04BD  3000               	movlw	0
  2432  04BE  07D7               	addwf	(convert@j+1)^(0+128),f
  2433  04BF                     l2788:
  2434  04BF  0860               	movf	(convert@digits+1)^(0+128),w
  2435  04C0  3A80               	xorlw	128
  2436  04C1  1283               	bcf	3,5	;RP0=0, select bank0
  2437  04C2  1303               	bcf	3,6	;RP1=0, select bank0
  2438  04C3  00EE               	movwf	??_convert
  2439  04C4  1683               	bsf	3,5	;RP0=1, select bank1
  2440  04C5  1303               	bcf	3,6	;RP1=0, select bank1
  2441  04C6  0857               	movf	(convert@j+1)^(0+128),w
  2442  04C7  3A80               	xorlw	128
  2443  04C8  1283               	bcf	3,5	;RP0=0, select bank0
  2444  04C9  1303               	bcf	3,6	;RP1=0, select bank0
  2445  04CA  026E               	subwf	??_convert,w
  2446  04CB  1D03               	skipz
  2447  04CC  2CD1               	goto	u3675
  2448  04CD  1683               	bsf	3,5	;RP0=1, select bank1
  2449  04CE  1303               	bcf	3,6	;RP1=0, select bank1
  2450  04CF  0856               	movf	convert@j^(0+128),w
  2451  04D0  025F               	subwf	convert@digits^(0+128),w
  2452  04D1                     u3675:
  2453  04D1  1803               	skipnc
  2454  04D2  2CD4               	goto	u3671
  2455  04D3  2CD5               	goto	u3670
  2456  04D4                     u3671:
  2457  04D4  2C98               	goto	l2784
  2458  04D5                     u3670:
  2459  04D5                     l2790:
  2460                           
  2461                           ;Librerias.c: 226:          x=a/mu;
  2462  04D5  1683               	bsf	3,5	;RP0=1, select bank1
  2463  04D6  1303               	bcf	3,6	;RP1=0, select bank1
  2464  04D7  0861               	movf	convert@mu^(0+128),w
  2465  04D8  1283               	bcf	3,5	;RP0=0, select bank0
  2466  04D9  1303               	bcf	3,6	;RP1=0, select bank0
  2467  04DA  00A4               	movwf	___xxtofl@val
  2468  04DB  1683               	bsf	3,5	;RP0=1, select bank1
  2469  04DC  1303               	bcf	3,6	;RP1=0, select bank1
  2470  04DD  0862               	movf	(convert@mu+1)^(0+128),w
  2471  04DE  1283               	bcf	3,5	;RP0=0, select bank0
  2472  04DF  1303               	bcf	3,6	;RP1=0, select bank0
  2473  04E0  00A5               	movwf	___xxtofl@val+1
  2474  04E1  3000               	movlw	0
  2475  04E2  1BA5               	btfsc	___xxtofl@val+1,7
  2476  04E3  30FF               	movlw	255
  2477  04E4  00A6               	movwf	___xxtofl@val+2
  2478  04E5  00A7               	movwf	___xxtofl@val+3
  2479  04E6  3001               	movlw	1
  2480  04E7  160A  118A  2744  120A  118A  	fcall	___xxtofl
  2481  04EC  1283               	bcf	3,5	;RP0=0, select bank0
  2482  04ED  1303               	bcf	3,6	;RP1=0, select bank0
  2483  04EE  0827               	movf	?___xxtofl+3,w
  2484  04EF  00B5               	movwf	___fldiv@a+3
  2485  04F0  0826               	movf	?___xxtofl+2,w
  2486  04F1  00B4               	movwf	___fldiv@a+2
  2487  04F2  0825               	movf	?___xxtofl+1,w
  2488  04F3  00B3               	movwf	___fldiv@a+1
  2489  04F4  0824               	movf	?___xxtofl,w
  2490  04F5  00B2               	movwf	___fldiv@a
  2491  04F6  086B               	movf	convert@a+3,w
  2492  04F7  00B9               	movwf	___fldiv@b+3
  2493  04F8  086A               	movf	convert@a+2,w
  2494  04F9  00B8               	movwf	___fldiv@b+2
  2495  04FA  0869               	movf	convert@a+1,w
  2496  04FB  00B7               	movwf	___fldiv@b+1
  2497  04FC  0868               	movf	convert@a,w
  2498  04FD  00B6               	movwf	___fldiv@b
  2499  04FE  120A  158A  204C  120A  118A  	fcall	___fldiv
  2500  0503  1283               	bcf	3,5	;RP0=0, select bank0
  2501  0504  1303               	bcf	3,6	;RP1=0, select bank0
  2502  0505  0835               	movf	?___fldiv+3,w
  2503  0506  1683               	bsf	3,5	;RP0=1, select bank1
  2504  0507  1303               	bcf	3,6	;RP1=0, select bank1
  2505  0508  00DC               	movwf	(convert@x+3)^(0+128)
  2506  0509  1283               	bcf	3,5	;RP0=0, select bank0
  2507  050A  1303               	bcf	3,6	;RP1=0, select bank0
  2508  050B  0834               	movf	?___fldiv+2,w
  2509  050C  1683               	bsf	3,5	;RP0=1, select bank1
  2510  050D  1303               	bcf	3,6	;RP1=0, select bank1
  2511  050E  00DB               	movwf	(convert@x+2)^(0+128)
  2512  050F  1283               	bcf	3,5	;RP0=0, select bank0
  2513  0510  1303               	bcf	3,6	;RP1=0, select bank0
  2514  0511  0833               	movf	?___fldiv+1,w
  2515  0512  1683               	bsf	3,5	;RP0=1, select bank1
  2516  0513  1303               	bcf	3,6	;RP1=0, select bank1
  2517  0514  00DA               	movwf	(convert@x+1)^(0+128)
  2518  0515  1283               	bcf	3,5	;RP0=0, select bank0
  2519  0516  1303               	bcf	3,6	;RP1=0, select bank0
  2520  0517  0832               	movf	?___fldiv,w
  2521  0518  1683               	bsf	3,5	;RP0=1, select bank1
  2522  0519  1303               	bcf	3,6	;RP1=0, select bank1
  2523  051A  00D9               	movwf	convert@x^(0+128)
  2524                           
  2525                           ;Librerias.c: 227:          a=a-((int)x*mu);
  2526  051B  0862               	movf	(convert@mu+1)^(0+128),w
  2527  051C  1283               	bcf	3,5	;RP0=0, select bank0
  2528  051D  1303               	bcf	3,6	;RP1=0, select bank0
  2529  051E  00A3               	movwf	___wmul@multiplicand+1
  2530  051F  1683               	bsf	3,5	;RP0=1, select bank1
  2531  0520  1303               	bcf	3,6	;RP1=0, select bank1
  2532  0521  0861               	movf	convert@mu^(0+128),w
  2533  0522  1283               	bcf	3,5	;RP0=0, select bank0
  2534  0523  1303               	bcf	3,6	;RP1=0, select bank0
  2535  0524  00A2               	movwf	___wmul@multiplicand
  2536  0525  1683               	bsf	3,5	;RP0=1, select bank1
  2537  0526  1303               	bcf	3,6	;RP1=0, select bank1
  2538  0527  085C               	movf	(convert@x+3)^(0+128),w
  2539  0528  00F3               	movwf	___fltol@f1+3
  2540  0529  085B               	movf	(convert@x+2)^(0+128),w
  2541  052A  00F2               	movwf	___fltol@f1+2
  2542  052B  085A               	movf	(convert@x+1)^(0+128),w
  2543  052C  00F1               	movwf	___fltol@f1+1
  2544  052D  0859               	movf	convert@x^(0+128),w
  2545  052E  00F0               	movwf	___fltol@f1
  2546  052F  120A  118A  201B  120A  118A  	fcall	___fltol
  2547  0534  0871               	movf	?___fltol+1,w
  2548  0535  1283               	bcf	3,5	;RP0=0, select bank0
  2549  0536  1303               	bcf	3,6	;RP1=0, select bank0
  2550  0537  00A1               	movwf	___wmul@multiplier+1
  2551  0538  0870               	movf	?___fltol,w
  2552  0539  00A0               	movwf	___wmul@multiplier
  2553  053A  160A  118A  2506  120A  118A  	fcall	___wmul
  2554  053F  1283               	bcf	3,5	;RP0=0, select bank0
  2555  0540  1303               	bcf	3,6	;RP1=0, select bank0
  2556  0541  0820               	movf	?___wmul,w
  2557  0542  00A4               	movwf	___xxtofl@val
  2558  0543  0821               	movf	?___wmul+1,w
  2559  0544  00A5               	movwf	___xxtofl@val+1
  2560  0545  3000               	movlw	0
  2561  0546  1BA5               	btfsc	___xxtofl@val+1,7
  2562  0547  30FF               	movlw	255
  2563  0548  00A6               	movwf	___xxtofl@val+2
  2564  0549  00A7               	movwf	___xxtofl@val+3
  2565  054A  3001               	movlw	1
  2566  054B  160A  118A  2744  120A  118A  	fcall	___xxtofl
  2567  0550  1283               	bcf	3,5	;RP0=0, select bank0
  2568  0551  1303               	bcf	3,6	;RP1=0, select bank0
  2569  0552  0827               	movf	?___xxtofl+3,w
  2570  0553  00C9               	movwf	___flsub@a+3
  2571  0554  0826               	movf	?___xxtofl+2,w
  2572  0555  00C8               	movwf	___flsub@a+2
  2573  0556  0825               	movf	?___xxtofl+1,w
  2574  0557  00C7               	movwf	___flsub@a+1
  2575  0558  0824               	movf	?___xxtofl,w
  2576  0559  00C6               	movwf	___flsub@a
  2577  055A  086B               	movf	convert@a+3,w
  2578  055B  00CD               	movwf	___flsub@b+3
  2579  055C  086A               	movf	convert@a+2,w
  2580  055D  00CC               	movwf	___flsub@b+2
  2581  055E  0869               	movf	convert@a+1,w
  2582  055F  00CB               	movwf	___flsub@b+1
  2583  0560  0868               	movf	convert@a,w
  2584  0561  00CA               	movwf	___flsub@b
  2585  0562  160A  118A  2497  120A  118A  	fcall	___flsub
  2586  0567  1283               	bcf	3,5	;RP0=0, select bank0
  2587  0568  1303               	bcf	3,6	;RP1=0, select bank0
  2588  0569  0849               	movf	?___flsub+3,w
  2589  056A  00EB               	movwf	convert@a+3
  2590  056B  0848               	movf	?___flsub+2,w
  2591  056C  00EA               	movwf	convert@a+2
  2592  056D  0847               	movf	?___flsub+1,w
  2593  056E  00E9               	movwf	convert@a+1
  2594  056F  0846               	movf	?___flsub,w
  2595  0570  00E8               	movwf	convert@a
  2596  0571                     l2792:
  2597                           
  2598                           ;Librerias.c: 228:          data[i]=0x30+((int)x);
  2599  0571  1683               	bsf	3,5	;RP0=1, select bank1
  2600  0572  1303               	bcf	3,6	;RP1=0, select bank1
  2601  0573  085C               	movf	(convert@x+3)^(0+128),w
  2602  0574  00F3               	movwf	___fltol@f1+3
  2603  0575  085B               	movf	(convert@x+2)^(0+128),w
  2604  0576  00F2               	movwf	___fltol@f1+2
  2605  0577  085A               	movf	(convert@x+1)^(0+128),w
  2606  0578  00F1               	movwf	___fltol@f1+1
  2607  0579  0859               	movf	convert@x^(0+128),w
  2608  057A  00F0               	movwf	___fltol@f1
  2609  057B  120A  118A  201B  120A  118A  	fcall	___fltol
  2610  0580  0870               	movf	?___fltol,w
  2611  0581  3E30               	addlw	48
  2612  0582  1283               	bcf	3,5	;RP0=0, select bank0
  2613  0583  1303               	bcf	3,6	;RP1=0, select bank0
  2614  0584  00EE               	movwf	??_convert
  2615  0585  1683               	bsf	3,5	;RP0=1, select bank1
  2616  0586  1303               	bcf	3,6	;RP1=0, select bank1
  2617  0587  085D               	movf	convert@i^(0+128),w
  2618  0588  0758               	addwf	convert@data^(0+128),w
  2619  0589  1283               	bcf	3,5	;RP0=0, select bank0
  2620  058A  1303               	bcf	3,6	;RP1=0, select bank0
  2621  058B  00EF               	movwf	??_convert+1
  2622  058C  086F               	movf	??_convert+1,w
  2623  058D  0084               	movwf	4
  2624  058E  086E               	movf	??_convert,w
  2625  058F  1383               	bcf	3,7	;select IRP bank0
  2626  0590  0080               	movwf	0
  2627  0591                     l2794:
  2628                           
  2629                           ;Librerias.c: 229:          i++;
  2630  0591  3001               	movlw	1
  2631  0592  1683               	bsf	3,5	;RP0=1, select bank1
  2632  0593  1303               	bcf	3,6	;RP1=0, select bank1
  2633  0594  07DD               	addwf	convert@i^(0+128),f
  2634  0595  1803               	skipnc
  2635  0596  0ADE               	incf	(convert@i+1)^(0+128),f
  2636  0597  3000               	movlw	0
  2637  0598  07DE               	addwf	(convert@i+1)^(0+128),f
  2638  0599                     l2796:
  2639                           
  2640                           ;Librerias.c: 230:          digits--;
  2641  0599  30FF               	movlw	255
  2642  059A  07DF               	addwf	convert@digits^(0+128),f
  2643  059B  1803               	skipnc
  2644  059C  0AE0               	incf	(convert@digits+1)^(0+128),f
  2645  059D  30FF               	movlw	255
  2646  059E  07E0               	addwf	(convert@digits+1)^(0+128),f
  2647  059F                     l2798:
  2648                           
  2649                           ;Librerias.c: 231:          mu=1;
  2650  059F  3001               	movlw	1
  2651  05A0  00E1               	movwf	convert@mu^(0+128)
  2652  05A1  3000               	movlw	0
  2653  05A2  00E2               	movwf	(convert@mu^(0+128)+1)
  2654  05A3                     l2800:
  2655                           
  2656                           ;Librerias.c: 221:      while(digits!=0)
  2657  05A3  085F               	movf	convert@digits^(0+128),w
  2658  05A4  0460               	iorwf	(convert@digits+1)^(0+128),w
  2659  05A5  1D03               	btfss	3,2
  2660  05A6  2DA8               	goto	u3681
  2661  05A7  2DA9               	goto	u3680
  2662  05A8                     u3681:
  2663  05A8  2C88               	goto	l2778
  2664  05A9                     u3680:
  2665  05A9                     l2802:
  2666                           
  2667                           ;Librerias.c: 234:      data[i]='.';
  2668  05A9  302E               	movlw	46
  2669  05AA  1283               	bcf	3,5	;RP0=0, select bank0
  2670  05AB  1303               	bcf	3,6	;RP1=0, select bank0
  2671  05AC  00EE               	movwf	??_convert
  2672  05AD  1683               	bsf	3,5	;RP0=1, select bank1
  2673  05AE  1303               	bcf	3,6	;RP1=0, select bank1
  2674  05AF  085D               	movf	convert@i^(0+128),w
  2675  05B0  0758               	addwf	convert@data^(0+128),w
  2676  05B1  1283               	bcf	3,5	;RP0=0, select bank0
  2677  05B2  1303               	bcf	3,6	;RP1=0, select bank0
  2678  05B3  00EF               	movwf	??_convert+1
  2679  05B4  086F               	movf	??_convert+1,w
  2680  05B5  0084               	movwf	4
  2681  05B6  086E               	movf	??_convert,w
  2682  05B7  1383               	bcf	3,7	;select IRP bank0
  2683  05B8  0080               	movwf	0
  2684  05B9                     l2804:
  2685                           
  2686                           ;Librerias.c: 235:      i++;
  2687  05B9  3001               	movlw	1
  2688  05BA  1683               	bsf	3,5	;RP0=1, select bank1
  2689  05BB  1303               	bcf	3,6	;RP1=0, select bank1
  2690  05BC  07DD               	addwf	convert@i^(0+128),f
  2691  05BD  1803               	skipnc
  2692  05BE  0ADE               	incf	(convert@i+1)^(0+128),f
  2693  05BF  3000               	movlw	0
  2694  05C0  07DE               	addwf	(convert@i+1)^(0+128),f
  2695  05C1                     l2806:
  2696  05C1                     l2808:
  2697                           
  2698                           ;Librerias.c: 237:      for(j=1;j<=place;j++)mu=mu*10;
  2699  05C1  3001               	movlw	1
  2700  05C2  00D6               	movwf	convert@j^(0+128)
  2701  05C3  3000               	movlw	0
  2702  05C4  00D7               	movwf	(convert@j^(0+128)+1)
  2703  05C5  2DED               	goto	l2814
  2704  05C6                     l2810:
  2705  05C6  1683               	bsf	3,5	;RP0=1, select bank1
  2706  05C7  1303               	bcf	3,6	;RP1=0, select bank1
  2707  05C8  0862               	movf	(convert@mu+1)^(0+128),w
  2708  05C9  1283               	bcf	3,5	;RP0=0, select bank0
  2709  05CA  1303               	bcf	3,6	;RP1=0, select bank0
  2710  05CB  00A1               	movwf	___wmul@multiplier+1
  2711  05CC  1683               	bsf	3,5	;RP0=1, select bank1
  2712  05CD  1303               	bcf	3,6	;RP1=0, select bank1
  2713  05CE  0861               	movf	convert@mu^(0+128),w
  2714  05CF  1283               	bcf	3,5	;RP0=0, select bank0
  2715  05D0  1303               	bcf	3,6	;RP1=0, select bank0
  2716  05D1  00A0               	movwf	___wmul@multiplier
  2717  05D2  300A               	movlw	10
  2718  05D3  00A2               	movwf	___wmul@multiplicand
  2719  05D4  3000               	movlw	0
  2720  05D5  00A3               	movwf	___wmul@multiplicand+1
  2721  05D6  160A  118A  2506  120A  118A  	fcall	___wmul
  2722  05DB  1283               	bcf	3,5	;RP0=0, select bank0
  2723  05DC  1303               	bcf	3,6	;RP1=0, select bank0
  2724  05DD  0821               	movf	?___wmul+1,w
  2725  05DE  1683               	bsf	3,5	;RP0=1, select bank1
  2726  05DF  1303               	bcf	3,6	;RP1=0, select bank1
  2727  05E0  00E2               	movwf	(convert@mu+1)^(0+128)
  2728  05E1  1283               	bcf	3,5	;RP0=0, select bank0
  2729  05E2  1303               	bcf	3,6	;RP1=0, select bank0
  2730  05E3  0820               	movf	?___wmul,w
  2731  05E4  1683               	bsf	3,5	;RP0=1, select bank1
  2732  05E5  1303               	bcf	3,6	;RP1=0, select bank1
  2733  05E6  00E1               	movwf	convert@mu^(0+128)
  2734  05E7                     l2812:
  2735  05E7  3001               	movlw	1
  2736  05E8  07D6               	addwf	convert@j^(0+128),f
  2737  05E9  1803               	skipnc
  2738  05EA  0AD7               	incf	(convert@j+1)^(0+128),f
  2739  05EB  3000               	movlw	0
  2740  05EC  07D7               	addwf	(convert@j+1)^(0+128),f
  2741  05ED                     l2814:
  2742  05ED  1283               	bcf	3,5	;RP0=0, select bank0
  2743  05EE  1303               	bcf	3,6	;RP1=0, select bank0
  2744  05EF  086D               	movf	convert@place+1,w
  2745  05F0  3A80               	xorlw	128
  2746  05F1  00EE               	movwf	??_convert
  2747  05F2  1683               	bsf	3,5	;RP0=1, select bank1
  2748  05F3  1303               	bcf	3,6	;RP1=0, select bank1
  2749  05F4  0857               	movf	(convert@j+1)^(0+128),w
  2750  05F5  3A80               	xorlw	128
  2751  05F6  1283               	bcf	3,5	;RP0=0, select bank0
  2752  05F7  1303               	bcf	3,6	;RP1=0, select bank0
  2753  05F8  026E               	subwf	??_convert,w
  2754  05F9  1D03               	skipz
  2755  05FA  2E01               	goto	u3695
  2756  05FB  1683               	bsf	3,5	;RP0=1, select bank1
  2757  05FC  1303               	bcf	3,6	;RP1=0, select bank1
  2758  05FD  0856               	movf	convert@j^(0+128),w
  2759  05FE  1283               	bcf	3,5	;RP0=0, select bank0
  2760  05FF  1303               	bcf	3,6	;RP1=0, select bank0
  2761  0600  026C               	subwf	convert@place,w
  2762  0601                     u3695:
  2763  0601  1803               	skipnc
  2764  0602  2E04               	goto	u3691
  2765  0603  2E05               	goto	u3690
  2766  0604                     u3691:
  2767  0604  2DC6               	goto	l2810
  2768  0605                     u3690:
  2769  0605                     l2816:
  2770                           
  2771                           ;Librerias.c: 238:      x=(a-(int)a)*mu;
  2772  0605  1683               	bsf	3,5	;RP0=1, select bank1
  2773  0606  1303               	bcf	3,6	;RP1=0, select bank1
  2774  0607  0861               	movf	convert@mu^(0+128),w
  2775  0608  1283               	bcf	3,5	;RP0=0, select bank0
  2776  0609  1303               	bcf	3,6	;RP1=0, select bank0
  2777  060A  00A4               	movwf	___xxtofl@val
  2778  060B  1683               	bsf	3,5	;RP0=1, select bank1
  2779  060C  1303               	bcf	3,6	;RP1=0, select bank1
  2780  060D  0862               	movf	(convert@mu+1)^(0+128),w
  2781  060E  1283               	bcf	3,5	;RP0=0, select bank0
  2782  060F  1303               	bcf	3,6	;RP1=0, select bank0
  2783  0610  00A5               	movwf	___xxtofl@val+1
  2784  0611  3000               	movlw	0
  2785  0612  1BA5               	btfsc	___xxtofl@val+1,7
  2786  0613  30FF               	movlw	255
  2787  0614  00A6               	movwf	___xxtofl@val+2
  2788  0615  00A7               	movwf	___xxtofl@val+3
  2789  0616  3001               	movlw	1
  2790  0617  160A  118A  2744  120A  118A  	fcall	___xxtofl
  2791  061C  1283               	bcf	3,5	;RP0=0, select bank0
  2792  061D  1303               	bcf	3,6	;RP1=0, select bank0
  2793  061E  0827               	movf	?___xxtofl+3,w
  2794  061F  00D1               	movwf	___flmul@b+3
  2795  0620  0826               	movf	?___xxtofl+2,w
  2796  0621  00D0               	movwf	___flmul@b+2
  2797  0622  0825               	movf	?___xxtofl+1,w
  2798  0623  00CF               	movwf	___flmul@b+1
  2799  0624  0824               	movf	?___xxtofl,w
  2800  0625  00CE               	movwf	___flmul@b
  2801  0626  086B               	movf	convert@a+3,w
  2802  0627  00F3               	movwf	___fltol@f1+3
  2803  0628  086A               	movf	convert@a+2,w
  2804  0629  00F2               	movwf	___fltol@f1+2
  2805  062A  0869               	movf	convert@a+1,w
  2806  062B  00F1               	movwf	___fltol@f1+1
  2807  062C  0868               	movf	convert@a,w
  2808  062D  00F0               	movwf	___fltol@f1
  2809  062E  120A  118A  201B  120A  118A  	fcall	___fltol
  2810  0633  0870               	movf	?___fltol,w
  2811  0634  1283               	bcf	3,5	;RP0=0, select bank0
  2812  0635  1303               	bcf	3,6	;RP1=0, select bank0
  2813  0636  00A4               	movwf	___xxtofl@val
  2814  0637  0871               	movf	?___fltol+1,w
  2815  0638  00A5               	movwf	___xxtofl@val+1
  2816  0639  3000               	movlw	0
  2817  063A  1BA5               	btfsc	___xxtofl@val+1,7
  2818  063B  30FF               	movlw	255
  2819  063C  00A6               	movwf	___xxtofl@val+2
  2820  063D  00A7               	movwf	___xxtofl@val+3
  2821  063E  3001               	movlw	1
  2822  063F  160A  118A  2744  120A  118A  	fcall	___xxtofl
  2823  0644  1283               	bcf	3,5	;RP0=0, select bank0
  2824  0645  1303               	bcf	3,6	;RP1=0, select bank0
  2825  0646  0827               	movf	?___xxtofl+3,w
  2826  0647  00C9               	movwf	___flsub@a+3
  2827  0648  0826               	movf	?___xxtofl+2,w
  2828  0649  00C8               	movwf	___flsub@a+2
  2829  064A  0825               	movf	?___xxtofl+1,w
  2830  064B  00C7               	movwf	___flsub@a+1
  2831  064C  0824               	movf	?___xxtofl,w
  2832  064D  00C6               	movwf	___flsub@a
  2833  064E  086B               	movf	convert@a+3,w
  2834  064F  00CD               	movwf	___flsub@b+3
  2835  0650  086A               	movf	convert@a+2,w
  2836  0651  00CC               	movwf	___flsub@b+2
  2837  0652  0869               	movf	convert@a+1,w
  2838  0653  00CB               	movwf	___flsub@b+1
  2839  0654  0868               	movf	convert@a,w
  2840  0655  00CA               	movwf	___flsub@b
  2841  0656  160A  118A  2497  120A  118A  	fcall	___flsub
  2842  065B  1283               	bcf	3,5	;RP0=0, select bank0
  2843  065C  1303               	bcf	3,6	;RP1=0, select bank0
  2844  065D  0849               	movf	?___flsub+3,w
  2845  065E  00D5               	movwf	___flmul@a+3
  2846  065F  0848               	movf	?___flsub+2,w
  2847  0660  00D4               	movwf	___flmul@a+2
  2848  0661  0847               	movf	?___flsub+1,w
  2849  0662  00D3               	movwf	___flmul@a+1
  2850  0663  0846               	movf	?___flsub,w
  2851  0664  00D2               	movwf	___flmul@a
  2852  0665  120A  118A  2095  120A  118A  	fcall	___flmul
  2853  066A  1283               	bcf	3,5	;RP0=0, select bank0
  2854  066B  1303               	bcf	3,6	;RP1=0, select bank0
  2855  066C  0851               	movf	?___flmul+3,w
  2856  066D  1683               	bsf	3,5	;RP0=1, select bank1
  2857  066E  1303               	bcf	3,6	;RP1=0, select bank1
  2858  066F  00DC               	movwf	(convert@x+3)^(0+128)
  2859  0670  1283               	bcf	3,5	;RP0=0, select bank0
  2860  0671  1303               	bcf	3,6	;RP1=0, select bank0
  2861  0672  0850               	movf	?___flmul+2,w
  2862  0673  1683               	bsf	3,5	;RP0=1, select bank1
  2863  0674  1303               	bcf	3,6	;RP1=0, select bank1
  2864  0675  00DB               	movwf	(convert@x+2)^(0+128)
  2865  0676  1283               	bcf	3,5	;RP0=0, select bank0
  2866  0677  1303               	bcf	3,6	;RP1=0, select bank0
  2867  0678  084F               	movf	?___flmul+1,w
  2868  0679  1683               	bsf	3,5	;RP0=1, select bank1
  2869  067A  1303               	bcf	3,6	;RP1=0, select bank1
  2870  067B  00DA               	movwf	(convert@x+1)^(0+128)
  2871  067C  1283               	bcf	3,5	;RP0=0, select bank0
  2872  067D  1303               	bcf	3,6	;RP1=0, select bank0
  2873  067E  084E               	movf	?___flmul,w
  2874  067F  1683               	bsf	3,5	;RP0=1, select bank1
  2875  0680  1303               	bcf	3,6	;RP1=0, select bank1
  2876  0681  00D9               	movwf	convert@x^(0+128)
  2877  0682                     l2818:
  2878                           
  2879                           ;Librerias.c: 239:      a=x;
  2880  0682  085C               	movf	(convert@x+3)^(0+128),w
  2881  0683  1283               	bcf	3,5	;RP0=0, select bank0
  2882  0684  1303               	bcf	3,6	;RP1=0, select bank0
  2883  0685  00EB               	movwf	convert@a+3
  2884  0686  1683               	bsf	3,5	;RP0=1, select bank1
  2885  0687  1303               	bcf	3,6	;RP1=0, select bank1
  2886  0688  085B               	movf	(convert@x+2)^(0+128),w
  2887  0689  1283               	bcf	3,5	;RP0=0, select bank0
  2888  068A  1303               	bcf	3,6	;RP1=0, select bank0
  2889  068B  00EA               	movwf	convert@a+2
  2890  068C  1683               	bsf	3,5	;RP0=1, select bank1
  2891  068D  1303               	bcf	3,6	;RP1=0, select bank1
  2892  068E  085A               	movf	(convert@x+1)^(0+128),w
  2893  068F  1283               	bcf	3,5	;RP0=0, select bank0
  2894  0690  1303               	bcf	3,6	;RP1=0, select bank0
  2895  0691  00E9               	movwf	convert@a+1
  2896  0692  1683               	bsf	3,5	;RP0=1, select bank1
  2897  0693  1303               	bcf	3,6	;RP1=0, select bank1
  2898  0694  0859               	movf	convert@x^(0+128),w
  2899  0695  1283               	bcf	3,5	;RP0=0, select bank0
  2900  0696  1303               	bcf	3,6	;RP1=0, select bank0
  2901  0697  00E8               	movwf	convert@a
  2902  0698                     l2820:
  2903  0698  086B               	movf	convert@a+3,w
  2904  0699  00F3               	movwf	___fltol@f1+3
  2905  069A  086A               	movf	convert@a+2,w
  2906  069B  00F2               	movwf	___fltol@f1+2
  2907  069C  0869               	movf	convert@a+1,w
  2908  069D  00F1               	movwf	___fltol@f1+1
  2909  069E  0868               	movf	convert@a,w
  2910  069F  00F0               	movwf	___fltol@f1
  2911  06A0  120A  118A  201B  120A  118A  	fcall	___fltol
  2912  06A5                     l2822:
  2913  06A5                     l2824:
  2914                           
  2915                           ;Librerias.c: 242:      mu=1;
  2916  06A5  3001               	movlw	1
  2917  06A6  1683               	bsf	3,5	;RP0=1, select bank1
  2918  06A7  1303               	bcf	3,6	;RP1=0, select bank1
  2919  06A8  00E1               	movwf	convert@mu^(0+128)
  2920  06A9  3000               	movlw	0
  2921  06AA  00E2               	movwf	(convert@mu^(0+128)+1)
  2922  06AB                     l2826:
  2923                           
  2924                           ;Librerias.c: 243:      digits=place;
  2925  06AB  1283               	bcf	3,5	;RP0=0, select bank0
  2926  06AC  1303               	bcf	3,6	;RP1=0, select bank0
  2927  06AD  086D               	movf	convert@place+1,w
  2928  06AE  1683               	bsf	3,5	;RP0=1, select bank1
  2929  06AF  1303               	bcf	3,6	;RP1=0, select bank1
  2930  06B0  00E0               	movwf	(convert@digits+1)^(0+128)
  2931  06B1  1283               	bcf	3,5	;RP0=0, select bank0
  2932  06B2  1303               	bcf	3,6	;RP1=0, select bank0
  2933  06B3  086C               	movf	convert@place,w
  2934  06B4  1683               	bsf	3,5	;RP0=1, select bank1
  2935  06B5  1303               	bcf	3,6	;RP1=0, select bank1
  2936  06B6  00DF               	movwf	convert@digits^(0+128)
  2937                           
  2938                           ;Librerias.c: 244:      while(digits!=0)
  2939  06B7  2FD3               	goto	l2850
  2940  06B8                     l2828:
  2941                           
  2942                           ;Librerias.c: 245:      {;Librerias.c: 246:          if(digits==1)mu=1;
  2943  06B8  035F               	decf	convert@digits^(0+128),w
  2944  06B9  0460               	iorwf	(convert@digits+1)^(0+128),w
  2945  06BA  1D03               	btfss	3,2
  2946  06BB  2EBD               	goto	u3701
  2947  06BC  2EBE               	goto	u3700
  2948  06BD                     u3701:
  2949  06BD  2EC3               	goto	l2832
  2950  06BE                     u3700:
  2951  06BE                     l2830:
  2952  06BE  3001               	movlw	1
  2953  06BF  00E1               	movwf	convert@mu^(0+128)
  2954  06C0  3000               	movlw	0
  2955  06C1  00E2               	movwf	(convert@mu^(0+128)+1)
  2956  06C2  2F05               	goto	l2840
  2957  06C3                     l2832:
  2958  06C3  3002               	movlw	2
  2959  06C4  00D6               	movwf	convert@j^(0+128)
  2960  06C5  3000               	movlw	0
  2961  06C6  00D7               	movwf	(convert@j^(0+128)+1)
  2962  06C7  2EEF               	goto	l2838
  2963  06C8                     l2834:
  2964  06C8  1683               	bsf	3,5	;RP0=1, select bank1
  2965  06C9  1303               	bcf	3,6	;RP1=0, select bank1
  2966  06CA  0862               	movf	(convert@mu+1)^(0+128),w
  2967  06CB  1283               	bcf	3,5	;RP0=0, select bank0
  2968  06CC  1303               	bcf	3,6	;RP1=0, select bank0
  2969  06CD  00A1               	movwf	___wmul@multiplier+1
  2970  06CE  1683               	bsf	3,5	;RP0=1, select bank1
  2971  06CF  1303               	bcf	3,6	;RP1=0, select bank1
  2972  06D0  0861               	movf	convert@mu^(0+128),w
  2973  06D1  1283               	bcf	3,5	;RP0=0, select bank0
  2974  06D2  1303               	bcf	3,6	;RP1=0, select bank0
  2975  06D3  00A0               	movwf	___wmul@multiplier
  2976  06D4  300A               	movlw	10
  2977  06D5  00A2               	movwf	___wmul@multiplicand
  2978  06D6  3000               	movlw	0
  2979  06D7  00A3               	movwf	___wmul@multiplicand+1
  2980  06D8  160A  118A  2506  120A  118A  	fcall	___wmul
  2981  06DD  1283               	bcf	3,5	;RP0=0, select bank0
  2982  06DE  1303               	bcf	3,6	;RP1=0, select bank0
  2983  06DF  0821               	movf	?___wmul+1,w
  2984  06E0  1683               	bsf	3,5	;RP0=1, select bank1
  2985  06E1  1303               	bcf	3,6	;RP1=0, select bank1
  2986  06E2  00E2               	movwf	(convert@mu+1)^(0+128)
  2987  06E3  1283               	bcf	3,5	;RP0=0, select bank0
  2988  06E4  1303               	bcf	3,6	;RP1=0, select bank0
  2989  06E5  0820               	movf	?___wmul,w
  2990  06E6  1683               	bsf	3,5	;RP0=1, select bank1
  2991  06E7  1303               	bcf	3,6	;RP1=0, select bank1
  2992  06E8  00E1               	movwf	convert@mu^(0+128)
  2993  06E9                     l2836:
  2994  06E9  3001               	movlw	1
  2995  06EA  07D6               	addwf	convert@j^(0+128),f
  2996  06EB  1803               	skipnc
  2997  06EC  0AD7               	incf	(convert@j+1)^(0+128),f
  2998  06ED  3000               	movlw	0
  2999  06EE  07D7               	addwf	(convert@j+1)^(0+128),f
  3000  06EF                     l2838:
  3001  06EF  0860               	movf	(convert@digits+1)^(0+128),w
  3002  06F0  3A80               	xorlw	128
  3003  06F1  1283               	bcf	3,5	;RP0=0, select bank0
  3004  06F2  1303               	bcf	3,6	;RP1=0, select bank0
  3005  06F3  00EE               	movwf	??_convert
  3006  06F4  1683               	bsf	3,5	;RP0=1, select bank1
  3007  06F5  1303               	bcf	3,6	;RP1=0, select bank1
  3008  06F6  0857               	movf	(convert@j+1)^(0+128),w
  3009  06F7  3A80               	xorlw	128
  3010  06F8  1283               	bcf	3,5	;RP0=0, select bank0
  3011  06F9  1303               	bcf	3,6	;RP1=0, select bank0
  3012  06FA  026E               	subwf	??_convert,w
  3013  06FB  1D03               	skipz
  3014  06FC  2F01               	goto	u3715
  3015  06FD  1683               	bsf	3,5	;RP0=1, select bank1
  3016  06FE  1303               	bcf	3,6	;RP1=0, select bank1
  3017  06FF  0856               	movf	convert@j^(0+128),w
  3018  0700  025F               	subwf	convert@digits^(0+128),w
  3019  0701                     u3715:
  3020  0701  1803               	skipnc
  3021  0702  2F04               	goto	u3711
  3022  0703  2F05               	goto	u3710
  3023  0704                     u3711:
  3024  0704  2EC8               	goto	l2834
  3025  0705                     u3710:
  3026  0705                     l2840:
  3027                           
  3028                           ;Librerias.c: 249:          x=a/mu;
  3029  0705  1683               	bsf	3,5	;RP0=1, select bank1
  3030  0706  1303               	bcf	3,6	;RP1=0, select bank1
  3031  0707  0861               	movf	convert@mu^(0+128),w
  3032  0708  1283               	bcf	3,5	;RP0=0, select bank0
  3033  0709  1303               	bcf	3,6	;RP1=0, select bank0
  3034  070A  00A4               	movwf	___xxtofl@val
  3035  070B  1683               	bsf	3,5	;RP0=1, select bank1
  3036  070C  1303               	bcf	3,6	;RP1=0, select bank1
  3037  070D  0862               	movf	(convert@mu+1)^(0+128),w
  3038  070E  1283               	bcf	3,5	;RP0=0, select bank0
  3039  070F  1303               	bcf	3,6	;RP1=0, select bank0
  3040  0710  00A5               	movwf	___xxtofl@val+1
  3041  0711  3000               	movlw	0
  3042  0712  1BA5               	btfsc	___xxtofl@val+1,7
  3043  0713  30FF               	movlw	255
  3044  0714  00A6               	movwf	___xxtofl@val+2
  3045  0715  00A7               	movwf	___xxtofl@val+3
  3046  0716  3001               	movlw	1
  3047  0717  160A  118A  2744  120A  118A  	fcall	___xxtofl
  3048  071C  1283               	bcf	3,5	;RP0=0, select bank0
  3049  071D  1303               	bcf	3,6	;RP1=0, select bank0
  3050  071E  0827               	movf	?___xxtofl+3,w
  3051  071F  00B5               	movwf	___fldiv@a+3
  3052  0720  0826               	movf	?___xxtofl+2,w
  3053  0721  00B4               	movwf	___fldiv@a+2
  3054  0722  0825               	movf	?___xxtofl+1,w
  3055  0723  00B3               	movwf	___fldiv@a+1
  3056  0724  0824               	movf	?___xxtofl,w
  3057  0725  00B2               	movwf	___fldiv@a
  3058  0726  086B               	movf	convert@a+3,w
  3059  0727  00B9               	movwf	___fldiv@b+3
  3060  0728  086A               	movf	convert@a+2,w
  3061  0729  00B8               	movwf	___fldiv@b+2
  3062  072A  0869               	movf	convert@a+1,w
  3063  072B  00B7               	movwf	___fldiv@b+1
  3064  072C  0868               	movf	convert@a,w
  3065  072D  00B6               	movwf	___fldiv@b
  3066  072E  120A  158A  204C  120A  118A  	fcall	___fldiv
  3067  0733  1283               	bcf	3,5	;RP0=0, select bank0
  3068  0734  1303               	bcf	3,6	;RP1=0, select bank0
  3069  0735  0835               	movf	?___fldiv+3,w
  3070  0736  1683               	bsf	3,5	;RP0=1, select bank1
  3071  0737  1303               	bcf	3,6	;RP1=0, select bank1
  3072  0738  00DC               	movwf	(convert@x+3)^(0+128)
  3073  0739  1283               	bcf	3,5	;RP0=0, select bank0
  3074  073A  1303               	bcf	3,6	;RP1=0, select bank0
  3075  073B  0834               	movf	?___fldiv+2,w
  3076  073C  1683               	bsf	3,5	;RP0=1, select bank1
  3077  073D  1303               	bcf	3,6	;RP1=0, select bank1
  3078  073E  00DB               	movwf	(convert@x+2)^(0+128)
  3079  073F  1283               	bcf	3,5	;RP0=0, select bank0
  3080  0740  1303               	bcf	3,6	;RP1=0, select bank0
  3081  0741  0833               	movf	?___fldiv+1,w
  3082  0742  1683               	bsf	3,5	;RP0=1, select bank1
  3083  0743  1303               	bcf	3,6	;RP1=0, select bank1
  3084  0744  00DA               	movwf	(convert@x+1)^(0+128)
  3085  0745  1283               	bcf	3,5	;RP0=0, select bank0
  3086  0746  1303               	bcf	3,6	;RP1=0, select bank0
  3087  0747  0832               	movf	?___fldiv,w
  3088  0748  1683               	bsf	3,5	;RP0=1, select bank1
  3089  0749  1303               	bcf	3,6	;RP1=0, select bank1
  3090  074A  00D9               	movwf	convert@x^(0+128)
  3091                           
  3092                           ;Librerias.c: 250:          a=a-((int)x*mu);
  3093  074B  0862               	movf	(convert@mu+1)^(0+128),w
  3094  074C  1283               	bcf	3,5	;RP0=0, select bank0
  3095  074D  1303               	bcf	3,6	;RP1=0, select bank0
  3096  074E  00A3               	movwf	___wmul@multiplicand+1
  3097  074F  1683               	bsf	3,5	;RP0=1, select bank1
  3098  0750  1303               	bcf	3,6	;RP1=0, select bank1
  3099  0751  0861               	movf	convert@mu^(0+128),w
  3100  0752  1283               	bcf	3,5	;RP0=0, select bank0
  3101  0753  1303               	bcf	3,6	;RP1=0, select bank0
  3102  0754  00A2               	movwf	___wmul@multiplicand
  3103  0755  1683               	bsf	3,5	;RP0=1, select bank1
  3104  0756  1303               	bcf	3,6	;RP1=0, select bank1
  3105  0757  085C               	movf	(convert@x+3)^(0+128),w
  3106  0758  00F3               	movwf	___fltol@f1+3
  3107  0759  085B               	movf	(convert@x+2)^(0+128),w
  3108  075A  00F2               	movwf	___fltol@f1+2
  3109  075B  085A               	movf	(convert@x+1)^(0+128),w
  3110  075C  00F1               	movwf	___fltol@f1+1
  3111  075D  0859               	movf	convert@x^(0+128),w
  3112  075E  00F0               	movwf	___fltol@f1
  3113  075F  120A  118A  201B  120A  118A  	fcall	___fltol
  3114  0764  0871               	movf	?___fltol+1,w
  3115  0765  1283               	bcf	3,5	;RP0=0, select bank0
  3116  0766  1303               	bcf	3,6	;RP1=0, select bank0
  3117  0767  00A1               	movwf	___wmul@multiplier+1
  3118  0768  0870               	movf	?___fltol,w
  3119  0769  00A0               	movwf	___wmul@multiplier
  3120  076A  160A  118A  2506  120A  118A  	fcall	___wmul
  3121  076F  1283               	bcf	3,5	;RP0=0, select bank0
  3122  0770  1303               	bcf	3,6	;RP1=0, select bank0
  3123  0771  0820               	movf	?___wmul,w
  3124  0772  00A4               	movwf	___xxtofl@val
  3125  0773  0821               	movf	?___wmul+1,w
  3126  0774  00A5               	movwf	___xxtofl@val+1
  3127  0775  3000               	movlw	0
  3128  0776  1BA5               	btfsc	___xxtofl@val+1,7
  3129  0777  30FF               	movlw	255
  3130  0778  00A6               	movwf	___xxtofl@val+2
  3131  0779  00A7               	movwf	___xxtofl@val+3
  3132  077A  3001               	movlw	1
  3133  077B  160A  118A  2744  120A  118A  	fcall	___xxtofl
  3134  0780  1283               	bcf	3,5	;RP0=0, select bank0
  3135  0781  1303               	bcf	3,6	;RP1=0, select bank0
  3136  0782  0827               	movf	?___xxtofl+3,w
  3137  0783  00C9               	movwf	___flsub@a+3
  3138  0784  0826               	movf	?___xxtofl+2,w
  3139  0785  00C8               	movwf	___flsub@a+2
  3140  0786  0825               	movf	?___xxtofl+1,w
  3141  0787  00C7               	movwf	___flsub@a+1
  3142  0788  0824               	movf	?___xxtofl,w
  3143  0789  00C6               	movwf	___flsub@a
  3144  078A  086B               	movf	convert@a+3,w
  3145  078B  00CD               	movwf	___flsub@b+3
  3146  078C  086A               	movf	convert@a+2,w
  3147  078D  00CC               	movwf	___flsub@b+2
  3148  078E  0869               	movf	convert@a+1,w
  3149  078F  00CB               	movwf	___flsub@b+1
  3150  0790  0868               	movf	convert@a,w
  3151  0791  00CA               	movwf	___flsub@b
  3152  0792  160A  118A  2497  120A  118A  	fcall	___flsub
  3153  0797  1283               	bcf	3,5	;RP0=0, select bank0
  3154  0798  1303               	bcf	3,6	;RP1=0, select bank0
  3155  0799  0849               	movf	?___flsub+3,w
  3156  079A  00EB               	movwf	convert@a+3
  3157  079B  0848               	movf	?___flsub+2,w
  3158  079C  00EA               	movwf	convert@a+2
  3159  079D  0847               	movf	?___flsub+1,w
  3160  079E  00E9               	movwf	convert@a+1
  3161  079F  0846               	movf	?___flsub,w
  3162  07A0  00E8               	movwf	convert@a
  3163  07A1                     l2842:
  3164                           
  3165                           ;Librerias.c: 251:          data[i]=0x30+((int)x);
  3166  07A1  1683               	bsf	3,5	;RP0=1, select bank1
  3167  07A2  1303               	bcf	3,6	;RP1=0, select bank1
  3168  07A3  085C               	movf	(convert@x+3)^(0+128),w
  3169  07A4  00F3               	movwf	___fltol@f1+3
  3170  07A5  085B               	movf	(convert@x+2)^(0+128),w
  3171  07A6  00F2               	movwf	___fltol@f1+2
  3172  07A7  085A               	movf	(convert@x+1)^(0+128),w
  3173  07A8  00F1               	movwf	___fltol@f1+1
  3174  07A9  0859               	movf	convert@x^(0+128),w
  3175  07AA  00F0               	movwf	___fltol@f1
  3176  07AB  120A  118A  201B  120A  118A  	fcall	___fltol
  3177  07B0  0870               	movf	?___fltol,w
  3178  07B1  3E30               	addlw	48
  3179  07B2  1283               	bcf	3,5	;RP0=0, select bank0
  3180  07B3  1303               	bcf	3,6	;RP1=0, select bank0
  3181  07B4  00EE               	movwf	??_convert
  3182  07B5  1683               	bsf	3,5	;RP0=1, select bank1
  3183  07B6  1303               	bcf	3,6	;RP1=0, select bank1
  3184  07B7  085D               	movf	convert@i^(0+128),w
  3185  07B8  0758               	addwf	convert@data^(0+128),w
  3186  07B9  1283               	bcf	3,5	;RP0=0, select bank0
  3187  07BA  1303               	bcf	3,6	;RP1=0, select bank0
  3188  07BB  00EF               	movwf	??_convert+1
  3189  07BC  086F               	movf	??_convert+1,w
  3190  07BD  0084               	movwf	4
  3191  07BE  086E               	movf	??_convert,w
  3192  07BF  1383               	bcf	3,7	;select IRP bank0
  3193  07C0  0080               	movwf	0
  3194  07C1                     l2844:
  3195                           
  3196                           ;Librerias.c: 252:          i++;
  3197  07C1  3001               	movlw	1
  3198  07C2  1683               	bsf	3,5	;RP0=1, select bank1
  3199  07C3  1303               	bcf	3,6	;RP1=0, select bank1
  3200  07C4  07DD               	addwf	convert@i^(0+128),f
  3201  07C5  1803               	skipnc
  3202  07C6  0ADE               	incf	(convert@i+1)^(0+128),f
  3203  07C7  3000               	movlw	0
  3204  07C8  07DE               	addwf	(convert@i+1)^(0+128),f
  3205  07C9                     l2846:
  3206                           
  3207                           ;Librerias.c: 253:          digits--;
  3208  07C9  30FF               	movlw	255
  3209  07CA  07DF               	addwf	convert@digits^(0+128),f
  3210  07CB  1803               	skipnc
  3211  07CC  0AE0               	incf	(convert@digits+1)^(0+128),f
  3212  07CD  30FF               	movlw	255
  3213  07CE  07E0               	addwf	(convert@digits+1)^(0+128),f
  3214  07CF                     l2848:
  3215                           
  3216                           ;Librerias.c: 254:          mu=1;
  3217  07CF  3001               	movlw	1
  3218  07D0  00E1               	movwf	convert@mu^(0+128)
  3219  07D1  3000               	movlw	0
  3220  07D2  00E2               	movwf	(convert@mu^(0+128)+1)
  3221  07D3                     l2850:
  3222                           
  3223                           ;Librerias.c: 244:      while(digits!=0)
  3224  07D3  085F               	movf	convert@digits^(0+128),w
  3225  07D4  0460               	iorwf	(convert@digits+1)^(0+128),w
  3226  07D5  1D03               	btfss	3,2
  3227  07D6  2FD8               	goto	u3721
  3228  07D7  2FD9               	goto	u3720
  3229  07D8                     u3721:
  3230  07D8  2EB8               	goto	l2828
  3231  07D9                     u3720:
  3232  07D9                     l2852:
  3233                           
  3234                           ;Librerias.c: 257:     data[i]='\n';
  3235  07D9  300A               	movlw	10
  3236  07DA  1283               	bcf	3,5	;RP0=0, select bank0
  3237  07DB  1303               	bcf	3,6	;RP1=0, select bank0
  3238  07DC  00EE               	movwf	??_convert
  3239  07DD  1683               	bsf	3,5	;RP0=1, select bank1
  3240  07DE  1303               	bcf	3,6	;RP1=0, select bank1
  3241  07DF  085D               	movf	convert@i^(0+128),w
  3242  07E0  0758               	addwf	convert@data^(0+128),w
  3243  07E1  1283               	bcf	3,5	;RP0=0, select bank0
  3244  07E2  1303               	bcf	3,6	;RP1=0, select bank0
  3245  07E3  00EF               	movwf	??_convert+1
  3246  07E4  086F               	movf	??_convert+1,w
  3247  07E5  0084               	movwf	4
  3248  07E6  086E               	movf	??_convert,w
  3249  07E7  1383               	bcf	3,7	;select IRP bank0
  3250  07E8  0080               	movwf	0
  3251  07E9                     l232:
  3252  07E9  0008               	return
  3253  07EA                     __end_of_convert:
  3254                           
  3255                           	psect	text5
  3256  1744                     __ptext5:	
  3257 ;; *************** function ___xxtofl *****************
  3258 ;; Defined at:
  3259 ;;		line 10 in file "C:\Program Files\Microchip\xc8\v2.31\pic\sources\c90\common\xxtofl.c"
  3260 ;; Parameters:    Size  Location     Type
  3261 ;;  sign            1    wreg     unsigned char 
  3262 ;;  val             4    4[BANK0 ] long 
  3263 ;; Auto vars:     Size  Location     Type
  3264 ;;  sign            1   12[BANK0 ] unsigned char 
  3265 ;;  arg             4   14[BANK0 ] unsigned long 
  3266 ;;  exp             1   13[BANK0 ] unsigned char 
  3267 ;; Return value:  Size  Location     Type
  3268 ;;                  4    4[BANK0 ] unsigned char 
  3269 ;; Registers used:
  3270 ;;		wreg, status,2, status,0
  3271 ;; Tracked objects:
  3272 ;;		On entry : 0/0
  3273 ;;		On exit  : 0/0
  3274 ;;		Unchanged: 0/0
  3275 ;; Data sizes:     COMMON   BANK0   BANK1   BANK3   BANK2
  3276 ;;      Params:         0       4       0       0       0
  3277 ;;      Locals:         0       6       0       0       0
  3278 ;;      Temps:          0       4       0       0       0
  3279 ;;      Totals:         0      14       0       0       0
  3280 ;;Total ram usage:       14 bytes
  3281 ;; Hardware stack levels used:    1
  3282 ;; This function calls:
  3283 ;;		Nothing
  3284 ;; This function is called by:
  3285 ;;		_main
  3286 ;;		_convert
  3287 ;; This function uses a non-reentrant model
  3288 ;;
  3289                           
  3290                           
  3291                           ;psect for function ___xxtofl
  3292  1744                     ___xxtofl:
  3293                           
  3294                           ;incstack = 0
  3295                           ; Regs used in ___xxtofl: [wreg+status,2+status,0]
  3296                           ;___xxtofl@sign stored from wreg
  3297  1744  1283               	bcf	3,5	;RP0=0, select bank0
  3298  1745  1303               	bcf	3,6	;RP1=0, select bank0
  3299  1746  00AC               	movwf	___xxtofl@sign
  3300  1747                     l2632:
  3301  1747  082C               	movf	___xxtofl@sign,w
  3302  1748  1903               	btfsc	3,2
  3303  1749  2F4B               	goto	u3441
  3304  174A  2F4C               	goto	u3440
  3305  174B                     u3441:
  3306  174B  2F60               	goto	l2638
  3307  174C                     u3440:
  3308  174C                     l2634:
  3309  174C  1FA7               	btfss	___xxtofl@val+3,7
  3310  174D  2F4F               	goto	u3451
  3311  174E  2F50               	goto	u3450
  3312  174F                     u3451:
  3313  174F  2F60               	goto	l2638
  3314  1750                     u3450:
  3315  1750                     l2636:
  3316  1750  0924               	comf	___xxtofl@val,w
  3317  1751  00AE               	movwf	___xxtofl@arg
  3318  1752  0925               	comf	___xxtofl@val+1,w
  3319  1753  00AF               	movwf	___xxtofl@arg+1
  3320  1754  0926               	comf	___xxtofl@val+2,w
  3321  1755  00B0               	movwf	___xxtofl@arg+2
  3322  1756  0927               	comf	___xxtofl@val+3,w
  3323  1757  00B1               	movwf	___xxtofl@arg+3
  3324  1758  0AAE               	incf	___xxtofl@arg,f
  3325  1759  1903               	skipnz
  3326  175A  0AAF               	incf	___xxtofl@arg+1,f
  3327  175B  1903               	skipnz
  3328  175C  0AB0               	incf	___xxtofl@arg+2,f
  3329  175D  1903               	skipnz
  3330  175E  0AB1               	incf	___xxtofl@arg+3,f
  3331  175F  2F68               	goto	l809
  3332  1760                     l2638:
  3333  1760  0827               	movf	___xxtofl@val+3,w
  3334  1761  00B1               	movwf	___xxtofl@arg+3
  3335  1762  0826               	movf	___xxtofl@val+2,w
  3336  1763  00B0               	movwf	___xxtofl@arg+2
  3337  1764  0825               	movf	___xxtofl@val+1,w
  3338  1765  00AF               	movwf	___xxtofl@arg+1
  3339  1766  0824               	movf	___xxtofl@val,w
  3340  1767  00AE               	movwf	___xxtofl@arg
  3341  1768                     l809:
  3342  1768  0827               	movf	___xxtofl@val+3,w
  3343  1769  0426               	iorwf	___xxtofl@val+2,w
  3344  176A  0425               	iorwf	___xxtofl@val+1,w
  3345  176B  0424               	iorwf	___xxtofl@val,w
  3346  176C  1D03               	skipz
  3347  176D  2F6F               	goto	u3461
  3348  176E  2F70               	goto	u3460
  3349  176F                     u3461:
  3350  176F  2F79               	goto	l2644
  3351  1770                     u3460:
  3352  1770                     l2640:
  3353  1770  3000               	movlw	0
  3354  1771  00A7               	movwf	?___xxtofl+3
  3355  1772  3000               	movlw	0
  3356  1773  00A6               	movwf	?___xxtofl+2
  3357  1774  3000               	movlw	0
  3358  1775  00A5               	movwf	?___xxtofl+1
  3359  1776  3000               	movlw	0
  3360  1777  00A4               	movwf	?___xxtofl
  3361  1778  2FFF               	goto	l811
  3362  1779                     l2644:
  3363  1779  3096               	movlw	150
  3364  177A  00A8               	movwf	??___xxtofl
  3365  177B  0828               	movf	??___xxtofl,w
  3366  177C  00AD               	movwf	___xxtofl@exp
  3367  177D  2F8B               	goto	l2648
  3368  177E                     l2646:
  3369  177E  3001               	movlw	1
  3370  177F  00A8               	movwf	??___xxtofl
  3371  1780  0828               	movf	??___xxtofl,w
  3372  1781  07AD               	addwf	___xxtofl@exp,f
  3373  1782  3001               	movlw	1
  3374  1783                     u3475:
  3375  1783  1003               	clrc
  3376  1784  0CB1               	rrf	___xxtofl@arg+3,f
  3377  1785  0CB0               	rrf	___xxtofl@arg+2,f
  3378  1786  0CAF               	rrf	___xxtofl@arg+1,f
  3379  1787  0CAE               	rrf	___xxtofl@arg,f
  3380  1788  3EFF               	addlw	-1
  3381  1789  1D03               	skipz
  3382  178A  2F83               	goto	u3475
  3383  178B                     l2648:
  3384  178B  30FE               	movlw	254
  3385  178C  0531               	andwf	___xxtofl@arg+3,w
  3386  178D  1D03               	btfss	3,2
  3387  178E  2F90               	goto	u3481
  3388  178F  2F91               	goto	u3480
  3389  1790                     u3481:
  3390  1790  2F7E               	goto	l2646
  3391  1791                     u3480:
  3392  1791  2FAD               	goto	l815
  3393  1792                     l2650:
  3394  1792  3001               	movlw	1
  3395  1793  00A8               	movwf	??___xxtofl
  3396  1794  0828               	movf	??___xxtofl,w
  3397  1795  07AD               	addwf	___xxtofl@exp,f
  3398  1796                     l2652:
  3399  1796  3001               	movlw	1
  3400  1797  07AE               	addwf	___xxtofl@arg,f
  3401  1798  3000               	movlw	0
  3402  1799  1803               	skipnc
  3403  179A  3001               	movlw	1
  3404  179B  07AF               	addwf	___xxtofl@arg+1,f
  3405  179C  3000               	movlw	0
  3406  179D  1803               	skipnc
  3407  179E  3001               	movlw	1
  3408  179F  07B0               	addwf	___xxtofl@arg+2,f
  3409  17A0  3000               	movlw	0
  3410  17A1  1803               	skipnc
  3411  17A2  3001               	movlw	1
  3412  17A3  07B1               	addwf	___xxtofl@arg+3,f
  3413  17A4                     l2654:
  3414  17A4  3001               	movlw	1
  3415  17A5                     u3495:
  3416  17A5  1003               	clrc
  3417  17A6  0CB1               	rrf	___xxtofl@arg+3,f
  3418  17A7  0CB0               	rrf	___xxtofl@arg+2,f
  3419  17A8  0CAF               	rrf	___xxtofl@arg+1,f
  3420  17A9  0CAE               	rrf	___xxtofl@arg,f
  3421  17AA  3EFF               	addlw	-1
  3422  17AB  1D03               	skipz
  3423  17AC  2FA5               	goto	u3495
  3424  17AD                     l815:
  3425  17AD  30FF               	movlw	255
  3426  17AE  0531               	andwf	___xxtofl@arg+3,w
  3427  17AF  1D03               	btfss	3,2
  3428  17B0  2FB2               	goto	u3501
  3429  17B1  2FB3               	goto	u3500
  3430  17B2                     u3501:
  3431  17B2  2F92               	goto	l2650
  3432  17B3                     u3500:
  3433  17B3  2FBF               	goto	l2658
  3434  17B4                     l2656:
  3435  17B4  3001               	movlw	1
  3436  17B5  02AD               	subwf	___xxtofl@exp,f
  3437  17B6  3001               	movlw	1
  3438  17B7  00A8               	movwf	??___xxtofl
  3439  17B8                     u3515:
  3440  17B8  1003               	clrc
  3441  17B9  0DAE               	rlf	___xxtofl@arg,f
  3442  17BA  0DAF               	rlf	___xxtofl@arg+1,f
  3443  17BB  0DB0               	rlf	___xxtofl@arg+2,f
  3444  17BC  0DB1               	rlf	___xxtofl@arg+3,f
  3445  17BD  0BA8               	decfsz	??___xxtofl,f
  3446  17BE  2FB8               	goto	u3515
  3447  17BF                     l2658:
  3448  17BF  1BB0               	btfsc	___xxtofl@arg+2,7
  3449  17C0  2FC2               	goto	u3521
  3450  17C1  2FC3               	goto	u3520
  3451  17C2                     u3521:
  3452  17C2  2FC9               	goto	l822
  3453  17C3                     u3520:
  3454  17C3                     l2660:
  3455  17C3  3002               	movlw	2
  3456  17C4  022D               	subwf	___xxtofl@exp,w
  3457  17C5  1803               	skipnc
  3458  17C6  2FC8               	goto	u3531
  3459  17C7  2FC9               	goto	u3530
  3460  17C8                     u3531:
  3461  17C8  2FB4               	goto	l2656
  3462  17C9                     u3530:
  3463  17C9                     l822:
  3464  17C9  182D               	btfsc	___xxtofl@exp,0
  3465  17CA  2FCC               	goto	u3541
  3466  17CB  2FCD               	goto	u3540
  3467  17CC                     u3541:
  3468  17CC  2FD5               	goto	l823
  3469  17CD                     u3540:
  3470  17CD                     l2662:
  3471  17CD  30FF               	movlw	255
  3472  17CE  05AE               	andwf	___xxtofl@arg,f
  3473  17CF  30FF               	movlw	255
  3474  17D0  05AF               	andwf	___xxtofl@arg+1,f
  3475  17D1  307F               	movlw	127
  3476  17D2  05B0               	andwf	___xxtofl@arg+2,f
  3477  17D3  30FF               	movlw	255
  3478  17D4  05B1               	andwf	___xxtofl@arg+3,f
  3479  17D5                     l823:
  3480  17D5  1003               	clrc
  3481  17D6  0CAD               	rrf	___xxtofl@exp,f
  3482  17D7                     l2664:
  3483  17D7  082D               	movf	___xxtofl@exp,w
  3484  17D8  00A8               	movwf	??___xxtofl
  3485  17D9  01A9               	clrf	??___xxtofl+1
  3486  17DA  01AA               	clrf	??___xxtofl+2
  3487  17DB  01AB               	clrf	??___xxtofl+3
  3488  17DC  3018               	movlw	24
  3489  17DD                     u3555:
  3490  17DD  1003               	clrc
  3491  17DE  0DA8               	rlf	??___xxtofl,f
  3492  17DF  0DA9               	rlf	??___xxtofl+1,f
  3493  17E0  0DAA               	rlf	??___xxtofl+2,f
  3494  17E1  0DAB               	rlf	??___xxtofl+3,f
  3495  17E2                     u3550:
  3496  17E2  3EFF               	addlw	-1
  3497  17E3  1D03               	skipz
  3498  17E4  2FDD               	goto	u3555
  3499  17E5  0828               	movf	??___xxtofl,w
  3500  17E6  04AE               	iorwf	___xxtofl@arg,f
  3501  17E7  0829               	movf	??___xxtofl+1,w
  3502  17E8  04AF               	iorwf	___xxtofl@arg+1,f
  3503  17E9  082A               	movf	??___xxtofl+2,w
  3504  17EA  04B0               	iorwf	___xxtofl@arg+2,f
  3505  17EB  082B               	movf	??___xxtofl+3,w
  3506  17EC  04B1               	iorwf	___xxtofl@arg+3,f
  3507  17ED                     l2666:
  3508  17ED  082C               	movf	___xxtofl@sign,w
  3509  17EE  1903               	btfsc	3,2
  3510  17EF  2FF1               	goto	u3561
  3511  17F0  2FF2               	goto	u3560
  3512  17F1                     u3561:
  3513  17F1  2FF7               	goto	l2672
  3514  17F2                     u3560:
  3515  17F2                     l2668:
  3516  17F2  1FA7               	btfss	___xxtofl@val+3,7
  3517  17F3  2FF5               	goto	u3571
  3518  17F4  2FF6               	goto	u3570
  3519  17F5                     u3571:
  3520  17F5  2FF7               	goto	l2672
  3521  17F6                     u3570:
  3522  17F6                     l2670:
  3523  17F6  17B1               	bsf	___xxtofl@arg+3,7
  3524  17F7                     l2672:
  3525  17F7  0831               	movf	___xxtofl@arg+3,w
  3526  17F8  00A7               	movwf	?___xxtofl+3
  3527  17F9  0830               	movf	___xxtofl@arg+2,w
  3528  17FA  00A6               	movwf	?___xxtofl+2
  3529  17FB  082F               	movf	___xxtofl@arg+1,w
  3530  17FC  00A5               	movwf	?___xxtofl+1
  3531  17FD  082E               	movf	___xxtofl@arg,w
  3532  17FE  00A4               	movwf	?___xxtofl
  3533  17FF                     l811:
  3534  17FF  0008               	return
  3535  1800                     __end_of___xxtofl:
  3536                           
  3537                           	psect	text6
  3538  1506                     __ptext6:	
  3539 ;; *************** function ___wmul *****************
  3540 ;; Defined at:
  3541 ;;		line 15 in file "C:\Program Files\Microchip\xc8\v2.31\pic\sources\c90\common\Umul16.c"
  3542 ;; Parameters:    Size  Location     Type
  3543 ;;  multiplier      2    0[BANK0 ] unsigned int 
  3544 ;;  multiplicand    2    2[BANK0 ] unsigned int 
  3545 ;; Auto vars:     Size  Location     Type
  3546 ;;  product         2   11[COMMON] unsigned int 
  3547 ;; Return value:  Size  Location     Type
  3548 ;;                  2    0[BANK0 ] unsigned int 
  3549 ;; Registers used:
  3550 ;;		wreg, status,2, status,0
  3551 ;; Tracked objects:
  3552 ;;		On entry : 0/0
  3553 ;;		On exit  : 0/0
  3554 ;;		Unchanged: 0/0
  3555 ;; Data sizes:     COMMON   BANK0   BANK1   BANK3   BANK2
  3556 ;;      Params:         0       4       0       0       0
  3557 ;;      Locals:         2       0       0       0       0
  3558 ;;      Temps:          0       0       0       0       0
  3559 ;;      Totals:         2       4       0       0       0
  3560 ;;Total ram usage:        6 bytes
  3561 ;; Hardware stack levels used:    1
  3562 ;; This function calls:
  3563 ;;		Nothing
  3564 ;; This function is called by:
  3565 ;;		_convert
  3566 ;; This function uses a non-reentrant model
  3567 ;;
  3568                           
  3569                           
  3570                           ;psect for function ___wmul
  3571  1506                     ___wmul:
  3572  1506                     l2230:	
  3573                           ;incstack = 0
  3574                           ; Regs used in ___wmul: [wreg+status,2+status,0]
  3575                           
  3576  1506  01FB               	clrf	___wmul@product
  3577  1507  01FC               	clrf	___wmul@product+1
  3578  1508                     l2232:
  3579  1508  1283               	bcf	3,5	;RP0=0, select bank0
  3580  1509  1303               	bcf	3,6	;RP1=0, select bank0
  3581  150A  1C20               	btfss	___wmul@multiplier,0
  3582  150B  2D0D               	goto	u2471
  3583  150C  2D0E               	goto	u2470
  3584  150D                     u2471:
  3585  150D  2D14               	goto	l376
  3586  150E                     u2470:
  3587  150E                     l2234:
  3588  150E  0822               	movf	___wmul@multiplicand,w
  3589  150F  07FB               	addwf	___wmul@product,f
  3590  1510  1803               	skipnc
  3591  1511  0AFC               	incf	___wmul@product+1,f
  3592  1512  0823               	movf	___wmul@multiplicand+1,w
  3593  1513  07FC               	addwf	___wmul@product+1,f
  3594  1514                     l376:
  3595  1514  3001               	movlw	1
  3596  1515                     u2485:
  3597  1515  1003               	clrc
  3598  1516  0DA2               	rlf	___wmul@multiplicand,f
  3599  1517  0DA3               	rlf	___wmul@multiplicand+1,f
  3600  1518  3EFF               	addlw	-1
  3601  1519  1D03               	skipz
  3602  151A  2D15               	goto	u2485
  3603  151B                     l2236:
  3604  151B  3001               	movlw	1
  3605  151C                     u2495:
  3606  151C  1003               	clrc
  3607  151D  0CA1               	rrf	___wmul@multiplier+1,f
  3608  151E  0CA0               	rrf	___wmul@multiplier,f
  3609  151F  3EFF               	addlw	-1
  3610  1520  1D03               	skipz
  3611  1521  2D1C               	goto	u2495
  3612  1522                     l2238:
  3613  1522  0820               	movf	___wmul@multiplier,w
  3614  1523  0421               	iorwf	___wmul@multiplier+1,w
  3615  1524  1D03               	btfss	3,2
  3616  1525  2D27               	goto	u2501
  3617  1526  2D28               	goto	u2500
  3618  1527                     u2501:
  3619  1527  2D08               	goto	l2232
  3620  1528                     u2500:
  3621  1528                     l2240:
  3622  1528  087C               	movf	___wmul@product+1,w
  3623  1529  00A1               	movwf	?___wmul+1
  3624  152A  087B               	movf	___wmul@product,w
  3625  152B  00A0               	movwf	?___wmul
  3626  152C                     l378:
  3627  152C  0008               	return
  3628  152D                     __end_of___wmul:
  3629                           
  3630                           	psect	text7
  3631  001B                     __ptext7:	
  3632 ;; *************** function ___fltol *****************
  3633 ;; Defined at:
  3634 ;;		line 43 in file "C:\Program Files\Microchip\xc8\v2.31\pic\sources\c90\common\fltol.c"
  3635 ;; Parameters:    Size  Location     Type
  3636 ;;  f1              4    0[COMMON] unsigned int 
  3637 ;; Auto vars:     Size  Location     Type
  3638 ;;  exp1            1   10[COMMON] unsigned char 
  3639 ;;  sign1           1    9[COMMON] unsigned char 
  3640 ;; Return value:  Size  Location     Type
  3641 ;;                  4    0[COMMON] long 
  3642 ;; Registers used:
  3643 ;;		wreg, status,2, status,0
  3644 ;; Tracked objects:
  3645 ;;		On entry : 0/0
  3646 ;;		On exit  : 0/0
  3647 ;;		Unchanged: 0/0
  3648 ;; Data sizes:     COMMON   BANK0   BANK1   BANK3   BANK2
  3649 ;;      Params:         4       0       0       0       0
  3650 ;;      Locals:         2       0       0       0       0
  3651 ;;      Temps:          5       0       0       0       0
  3652 ;;      Totals:        11       0       0       0       0
  3653 ;;Total ram usage:       11 bytes
  3654 ;; Hardware stack levels used:    1
  3655 ;; This function calls:
  3656 ;;		Nothing
  3657 ;; This function is called by:
  3658 ;;		_convert
  3659 ;; This function uses a non-reentrant model
  3660 ;;
  3661                           
  3662                           
  3663                           ;psect for function ___fltol
  3664  001B                     ___fltol:
  3665  001B                     l2308:	
  3666                           ;incstack = 0
  3667                           ; Regs used in ___fltol: [wreg+status,2+status,0]
  3668                           
  3669  001B  1003               	clrc
  3670  001C  0D72               	rlf	___fltol@f1+2,w
  3671  001D  0D73               	rlf	___fltol@f1+3,w
  3672  001E  00F4               	movwf	??___fltol
  3673  001F  0874               	movf	??___fltol,w
  3674  0020  00FA               	movwf	___fltol@exp1
  3675  0021  087A               	movf	___fltol@exp1,w
  3676  0022  1D03               	btfss	3,2
  3677  0023  2825               	goto	u2681
  3678  0024  2826               	goto	u2680
  3679  0025                     u2681:
  3680  0025  282F               	goto	l2314
  3681  0026                     u2680:
  3682  0026                     l2310:
  3683  0026  3000               	movlw	0
  3684  0027  00F3               	movwf	?___fltol+3
  3685  0028  3000               	movlw	0
  3686  0029  00F2               	movwf	?___fltol+2
  3687  002A  3000               	movlw	0
  3688  002B  00F1               	movwf	?___fltol+1
  3689  002C  3000               	movlw	0
  3690  002D  00F0               	movwf	?___fltol
  3691  002E  2894               	goto	l562
  3692  002F                     l2314:
  3693  002F  0870               	movf	___fltol@f1,w
  3694  0030  00F4               	movwf	??___fltol
  3695  0031  0871               	movf	___fltol@f1+1,w
  3696  0032  00F5               	movwf	??___fltol+1
  3697  0033  0872               	movf	___fltol@f1+2,w
  3698  0034  00F6               	movwf	??___fltol+2
  3699  0035  0873               	movf	___fltol@f1+3,w
  3700  0036  00F7               	movwf	??___fltol+3
  3701  0037  301F               	movlw	31
  3702  0038                     u2695:
  3703  0038  1003               	clrc
  3704  0039  0CF7               	rrf	??___fltol+3,f
  3705  003A  0CF6               	rrf	??___fltol+2,f
  3706  003B  0CF5               	rrf	??___fltol+1,f
  3707  003C  0CF4               	rrf	??___fltol,f
  3708  003D                     u2690:
  3709  003D  3EFF               	addlw	-1
  3710  003E  1D03               	skipz
  3711  003F  2838               	goto	u2695
  3712  0040  0874               	movf	??___fltol,w
  3713  0041  00F8               	movwf	??___fltol+4
  3714  0042  0878               	movf	??___fltol+4,w
  3715  0043  00F9               	movwf	___fltol@sign1
  3716  0044                     l2316:
  3717  0044  17F2               	bsf	___fltol@f1+2,7
  3718  0045                     l2318:
  3719  0045  30FF               	movlw	255
  3720  0046  05F0               	andwf	___fltol@f1,f
  3721  0047  30FF               	movlw	255
  3722  0048  05F1               	andwf	___fltol@f1+1,f
  3723  0049  30FF               	movlw	255
  3724  004A  05F2               	andwf	___fltol@f1+2,f
  3725  004B  3000               	movlw	0
  3726  004C  05F3               	andwf	___fltol@f1+3,f
  3727  004D                     l2320:
  3728  004D  3096               	movlw	150
  3729  004E  02FA               	subwf	___fltol@exp1,f
  3730  004F                     l2322:
  3731  004F  1FFA               	btfss	___fltol@exp1,7
  3732  0050  2852               	goto	u2701
  3733  0051  2853               	goto	u2700
  3734  0052                     u2701:
  3735  0052  286D               	goto	l2332
  3736  0053                     u2700:
  3737  0053                     l2324:
  3738  0053  087A               	movf	___fltol@exp1,w
  3739  0054  3A80               	xorlw	128
  3740  0055  3E97               	addlw	151
  3741  0056  1803               	skipnc
  3742  0057  2859               	goto	u2711
  3743  0058  285A               	goto	u2710
  3744  0059                     u2711:
  3745  0059  285B               	goto	l2330
  3746  005A                     u2710:
  3747  005A  2826               	goto	l2310
  3748  005B                     l2330:
  3749  005B  3001               	movlw	1
  3750  005C                     u2725:
  3751  005C  1003               	clrc
  3752  005D  0CF3               	rrf	___fltol@f1+3,f
  3753  005E  0CF2               	rrf	___fltol@f1+2,f
  3754  005F  0CF1               	rrf	___fltol@f1+1,f
  3755  0060  0CF0               	rrf	___fltol@f1,f
  3756  0061  3EFF               	addlw	-1
  3757  0062  1D03               	skipz
  3758  0063  285C               	goto	u2725
  3759  0064  3001               	movlw	1
  3760  0065  00F4               	movwf	??___fltol
  3761  0066  0874               	movf	??___fltol,w
  3762  0067  07FA               	addwf	___fltol@exp1,f
  3763  0068  1D03               	btfss	3,2
  3764  0069  286B               	goto	u2731
  3765  006A  286C               	goto	u2730
  3766  006B                     u2731:
  3767  006B  285B               	goto	l2330
  3768  006C                     u2730:
  3769  006C  2884               	goto	l2340
  3770  006D                     l2332:
  3771  006D  3020               	movlw	32
  3772  006E  027A               	subwf	___fltol@exp1,w
  3773  006F  1C03               	skipc
  3774  0070  2872               	goto	u2741
  3775  0071  2873               	goto	u2740
  3776  0072                     u2741:
  3777  0072  287F               	goto	l569
  3778  0073                     u2740:
  3779  0073  2826               	goto	l2310
  3780  0074                     l2338:
  3781  0074  3001               	movlw	1
  3782  0075  00F4               	movwf	??___fltol
  3783  0076                     u2755:
  3784  0076  1003               	clrc
  3785  0077  0DF0               	rlf	___fltol@f1,f
  3786  0078  0DF1               	rlf	___fltol@f1+1,f
  3787  0079  0DF2               	rlf	___fltol@f1+2,f
  3788  007A  0DF3               	rlf	___fltol@f1+3,f
  3789  007B  0BF4               	decfsz	??___fltol,f
  3790  007C  2876               	goto	u2755
  3791  007D  3001               	movlw	1
  3792  007E  02FA               	subwf	___fltol@exp1,f
  3793  007F                     l569:
  3794  007F  087A               	movf	___fltol@exp1,w
  3795  0080  1D03               	btfss	3,2
  3796  0081  2883               	goto	u2761
  3797  0082  2884               	goto	u2760
  3798  0083                     u2761:
  3799  0083  2874               	goto	l2338
  3800  0084                     u2760:
  3801  0084                     l2340:
  3802  0084  0879               	movf	___fltol@sign1,w
  3803  0085  1903               	btfsc	3,2
  3804  0086  2888               	goto	u2771
  3805  0087  2889               	goto	u2770
  3806  0088                     u2771:
  3807  0088  2894               	goto	l572
  3808  0089                     u2770:
  3809  0089                     l2342:
  3810  0089  09F0               	comf	___fltol@f1,f
  3811  008A  09F1               	comf	___fltol@f1+1,f
  3812  008B  09F2               	comf	___fltol@f1+2,f
  3813  008C  09F3               	comf	___fltol@f1+3,f
  3814  008D  0AF0               	incf	___fltol@f1,f
  3815  008E  1903               	skipnz
  3816  008F  0AF1               	incf	___fltol@f1+1,f
  3817  0090  1903               	skipnz
  3818  0091  0AF2               	incf	___fltol@f1+2,f
  3819  0092  1903               	skipnz
  3820  0093  0AF3               	incf	___fltol@f1+3,f
  3821  0094                     l572:
  3822  0094                     l562:
  3823  0094  0008               	return
  3824  0095                     __end_of___fltol:
  3825                           
  3826                           	psect	text8
  3827  1497                     __ptext8:	
  3828 ;; *************** function ___flsub *****************
  3829 ;; Defined at:
  3830 ;;		line 242 in file "C:\Program Files\Microchip\xc8\v2.31\pic\sources\c90\common\sprcadd.c"
  3831 ;; Parameters:    Size  Location     Type
  3832 ;;  a               4   38[BANK0 ] long 
  3833 ;;  b               4   42[BANK0 ] long 
  3834 ;; Auto vars:     Size  Location     Type
  3835 ;;		None
  3836 ;; Return value:  Size  Location     Type
  3837 ;;                  4   38[BANK0 ] long 
  3838 ;; Registers used:
  3839 ;;		wreg, status,2, status,0, btemp+1, pclath, cstack
  3840 ;; Tracked objects:
  3841 ;;		On entry : 0/0
  3842 ;;		On exit  : 0/0
  3843 ;;		Unchanged: 0/0
  3844 ;; Data sizes:     COMMON   BANK0   BANK1   BANK3   BANK2
  3845 ;;      Params:         0       8       0       0       0
  3846 ;;      Locals:         0       0       0       0       0
  3847 ;;      Temps:          0       0       0       0       0
  3848 ;;      Totals:         0       8       0       0       0
  3849 ;;Total ram usage:        8 bytes
  3850 ;; Hardware stack levels used:    1
  3851 ;; Hardware stack levels required when called:    1
  3852 ;; This function calls:
  3853 ;;		___fladd
  3854 ;; This function is called by:
  3855 ;;		_convert
  3856 ;; This function uses a non-reentrant model
  3857 ;;
  3858                           
  3859                           
  3860                           ;psect for function ___flsub
  3861  1497                     ___flsub:
  3862  1497                     l2344:	
  3863                           ;incstack = 0
  3864                           ; Regs used in ___flsub: [wreg+status,2+status,0+btemp+1+pclath+cstack]
  3865                           
  3866  1497  3080               	movlw	128
  3867  1498  1283               	bcf	3,5	;RP0=0, select bank0
  3868  1499  1303               	bcf	3,6	;RP1=0, select bank0
  3869  149A  06C9               	xorwf	___flsub@a+3,f
  3870  149B                     l2346:
  3871  149B  084D               	movf	___flsub@b+3,w
  3872  149C  00B5               	movwf	___fladd@b+3
  3873  149D  084C               	movf	___flsub@b+2,w
  3874  149E  00B4               	movwf	___fladd@b+2
  3875  149F  084B               	movf	___flsub@b+1,w
  3876  14A0  00B3               	movwf	___fladd@b+1
  3877  14A1  084A               	movf	___flsub@b,w
  3878  14A2  00B2               	movwf	___fladd@b
  3879  14A3  0849               	movf	___flsub@a+3,w
  3880  14A4  00B9               	movwf	___fladd@a+3
  3881  14A5  0848               	movf	___flsub@a+2,w
  3882  14A6  00B8               	movwf	___fladd@a+2
  3883  14A7  0847               	movf	___flsub@a+1,w
  3884  14A8  00B7               	movwf	___fladd@a+1
  3885  14A9  0846               	movf	___flsub@a,w
  3886  14AA  00B6               	movwf	___fladd@a
  3887  14AB  120A  158A  2229  160A  118A  	fcall	___fladd
  3888  14B0  1283               	bcf	3,5	;RP0=0, select bank0
  3889  14B1  1303               	bcf	3,6	;RP1=0, select bank0
  3890  14B2  0835               	movf	?___fladd+3,w
  3891  14B3  00C9               	movwf	?___flsub+3
  3892  14B4  0834               	movf	?___fladd+2,w
  3893  14B5  00C8               	movwf	?___flsub+2
  3894  14B6  0833               	movf	?___fladd+1,w
  3895  14B7  00C7               	movwf	?___flsub+1
  3896  14B8  0832               	movf	?___fladd,w
  3897  14B9  00C6               	movwf	?___flsub
  3898  14BA                     l715:
  3899  14BA  0008               	return
  3900  14BB                     __end_of___flsub:
  3901                           
  3902                           	psect	text9
  3903  0A29                     __ptext9:	
  3904 ;; *************** function ___fladd *****************
  3905 ;; Defined at:
  3906 ;;		line 10 in file "C:\Program Files\Microchip\xc8\v2.31\pic\sources\c90\common\sprcadd.c"
  3907 ;; Parameters:    Size  Location     Type
  3908 ;;  b               4   18[BANK0 ] long 
  3909 ;;  a               4   22[BANK0 ] long 
  3910 ;; Auto vars:     Size  Location     Type
  3911 ;;  grs             1   37[BANK0 ] unsigned char 
  3912 ;;  bexp            1   36[BANK0 ] unsigned char 
  3913 ;;  aexp            1   35[BANK0 ] unsigned char 
  3914 ;;  signs           1   34[BANK0 ] unsigned char 
  3915 ;; Return value:  Size  Location     Type
  3916 ;;                  4   18[BANK0 ] unsigned char 
  3917 ;; Registers used:
  3918 ;;		wreg, status,2, status,0, btemp+1
  3919 ;; Tracked objects:
  3920 ;;		On entry : 0/0
  3921 ;;		On exit  : 0/0
  3922 ;;		Unchanged: 0/0
  3923 ;; Data sizes:     COMMON   BANK0   BANK1   BANK3   BANK2
  3924 ;;      Params:         0       8       0       0       0
  3925 ;;      Locals:         0       4       0       0       0
  3926 ;;      Temps:          0       8       0       0       0
  3927 ;;      Totals:         0      20       0       0       0
  3928 ;;Total ram usage:       20 bytes
  3929 ;; Hardware stack levels used:    1
  3930 ;; This function calls:
  3931 ;;		Nothing
  3932 ;; This function is called by:
  3933 ;;		_main
  3934 ;;		___flsub
  3935 ;; This function uses a non-reentrant model
  3936 ;;
  3937                           
  3938                           
  3939                           ;psect for function ___fladd
  3940  0A29                     ___fladd:
  3941  0A29                     l1986:	
  3942                           ;incstack = 0
  3943                           ; Regs used in ___fladd: [wreg+status,2+status,0+btemp+1]
  3944                           
  3945  0A29  1283               	bcf	3,5	;RP0=0, select bank0
  3946  0A2A  1303               	bcf	3,6	;RP1=0, select bank0
  3947  0A2B  0835               	movf	___fladd@b+3,w
  3948  0A2C  3980               	andlw	128
  3949  0A2D  00BA               	movwf	??___fladd
  3950  0A2E  083A               	movf	??___fladd,w
  3951  0A2F  00C2               	movwf	___fladd@signs
  3952  0A30                     l1988:
  3953  0A30  0835               	movf	___fladd@b+3,w
  3954  0A31  00BA               	movwf	??___fladd
  3955  0A32  073A               	addwf	??___fladd,w
  3956  0A33  00BB               	movwf	??___fladd+1
  3957  0A34  083B               	movf	??___fladd+1,w
  3958  0A35  00C4               	movwf	___fladd@bexp
  3959  0A36                     l1990:
  3960  0A36  1FB4               	btfss	___fladd@b+2,7
  3961  0A37  2A39               	goto	u1951
  3962  0A38  2A3A               	goto	u1950
  3963  0A39                     u1951:
  3964  0A39  2A3B               	goto	l1994
  3965  0A3A                     u1950:
  3966  0A3A                     l1992:
  3967  0A3A  1444               	bsf	___fladd@bexp,0
  3968  0A3B                     l1994:
  3969  0A3B  0844               	movf	___fladd@bexp,w
  3970  0A3C  1903               	btfsc	3,2
  3971  0A3D  2A3F               	goto	u1961
  3972  0A3E  2A40               	goto	u1960
  3973  0A3F                     u1961:
  3974  0A3F  2A50               	goto	l2004
  3975  0A40                     u1960:
  3976  0A40                     l1996:
  3977  0A40  0A44               	incf	___fladd@bexp,w
  3978  0A41  1D03               	btfss	3,2
  3979  0A42  2A44               	goto	u1971
  3980  0A43  2A45               	goto	u1970
  3981  0A44                     u1971:
  3982  0A44  2A4D               	goto	l2000
  3983  0A45                     u1970:
  3984  0A45                     l1998:
  3985  0A45  3000               	movlw	0
  3986  0A46  00B5               	movwf	___fladd@b+3
  3987  0A47  3000               	movlw	0
  3988  0A48  00B4               	movwf	___fladd@b+2
  3989  0A49  3000               	movlw	0
  3990  0A4A  00B3               	movwf	___fladd@b+1
  3991  0A4B  3000               	movlw	0
  3992  0A4C  00B2               	movwf	___fladd@b
  3993  0A4D                     l2000:
  3994  0A4D  17B4               	bsf	___fladd@b+2,7
  3995  0A4E                     l2002:
  3996  0A4E  01B5               	clrf	___fladd@b+3
  3997  0A4F  2A58               	goto	l2006
  3998  0A50                     l2004:
  3999  0A50  3000               	movlw	0
  4000  0A51  00B5               	movwf	___fladd@b+3
  4001  0A52  3000               	movlw	0
  4002  0A53  00B4               	movwf	___fladd@b+2
  4003  0A54  3000               	movlw	0
  4004  0A55  00B3               	movwf	___fladd@b+1
  4005  0A56  3000               	movlw	0
  4006  0A57  00B2               	movwf	___fladd@b
  4007  0A58                     l2006:
  4008  0A58  0839               	movf	___fladd@a+3,w
  4009  0A59  3980               	andlw	128
  4010  0A5A  00BA               	movwf	??___fladd
  4011  0A5B  083A               	movf	??___fladd,w
  4012  0A5C  00C3               	movwf	___fladd@aexp
  4013  0A5D                     l2008:
  4014  0A5D  0843               	movf	___fladd@aexp,w
  4015  0A5E  0642               	xorwf	___fladd@signs,w
  4016  0A5F  1903               	skipnz
  4017  0A60  2A62               	goto	u1981
  4018  0A61  2A63               	goto	u1980
  4019  0A62                     u1981:
  4020  0A62  2A64               	goto	l2012
  4021  0A63                     u1980:
  4022  0A63                     l2010:
  4023  0A63  1742               	bsf	___fladd@signs,6
  4024  0A64                     l2012:
  4025  0A64  0839               	movf	___fladd@a+3,w
  4026  0A65  00BA               	movwf	??___fladd
  4027  0A66  073A               	addwf	??___fladd,w
  4028  0A67  00BB               	movwf	??___fladd+1
  4029  0A68  083B               	movf	??___fladd+1,w
  4030  0A69  00C3               	movwf	___fladd@aexp
  4031  0A6A                     l2014:
  4032  0A6A  1FB8               	btfss	___fladd@a+2,7
  4033  0A6B  2A6D               	goto	u1991
  4034  0A6C  2A6E               	goto	u1990
  4035  0A6D                     u1991:
  4036  0A6D  2A6F               	goto	l2018
  4037  0A6E                     u1990:
  4038  0A6E                     l2016:
  4039  0A6E  1443               	bsf	___fladd@aexp,0
  4040  0A6F                     l2018:
  4041  0A6F  0843               	movf	___fladd@aexp,w
  4042  0A70  1903               	btfsc	3,2
  4043  0A71  2A73               	goto	u2001
  4044  0A72  2A74               	goto	u2000
  4045  0A73                     u2001:
  4046  0A73  2A84               	goto	l2028
  4047  0A74                     u2000:
  4048  0A74                     l2020:
  4049  0A74  0A43               	incf	___fladd@aexp,w
  4050  0A75  1D03               	btfss	3,2
  4051  0A76  2A78               	goto	u2011
  4052  0A77  2A79               	goto	u2010
  4053  0A78                     u2011:
  4054  0A78  2A81               	goto	l2024
  4055  0A79                     u2010:
  4056  0A79                     l2022:
  4057  0A79  3000               	movlw	0
  4058  0A7A  00B9               	movwf	___fladd@a+3
  4059  0A7B  3000               	movlw	0
  4060  0A7C  00B8               	movwf	___fladd@a+2
  4061  0A7D  3000               	movlw	0
  4062  0A7E  00B7               	movwf	___fladd@a+1
  4063  0A7F  3000               	movlw	0
  4064  0A80  00B6               	movwf	___fladd@a
  4065  0A81                     l2024:
  4066  0A81  17B8               	bsf	___fladd@a+2,7
  4067  0A82                     l2026:
  4068  0A82  01B9               	clrf	___fladd@a+3
  4069  0A83  2A8C               	goto	l669
  4070  0A84                     l2028:
  4071  0A84  3000               	movlw	0
  4072  0A85  00B9               	movwf	___fladd@a+3
  4073  0A86  3000               	movlw	0
  4074  0A87  00B8               	movwf	___fladd@a+2
  4075  0A88  3000               	movlw	0
  4076  0A89  00B7               	movwf	___fladd@a+1
  4077  0A8A  3000               	movlw	0
  4078  0A8B  00B6               	movwf	___fladd@a
  4079  0A8C                     l669:
  4080  0A8C  0844               	movf	___fladd@bexp,w
  4081  0A8D  0243               	subwf	___fladd@aexp,w
  4082  0A8E  1803               	skipnc
  4083  0A8F  2A91               	goto	u2021
  4084  0A90  2A92               	goto	u2020
  4085  0A91                     u2021:
  4086  0A91  2AD6               	goto	l2064
  4087  0A92                     u2020:
  4088  0A92                     l2030:
  4089  0A92  1F42               	btfss	___fladd@signs,6
  4090  0A93  2A95               	goto	u2031
  4091  0A94  2A96               	goto	u2030
  4092  0A95                     u2031:
  4093  0A95  2A9A               	goto	l2034
  4094  0A96                     u2030:
  4095  0A96                     l2032:
  4096  0A96  3080               	movlw	128
  4097  0A97  00BA               	movwf	??___fladd
  4098  0A98  083A               	movf	??___fladd,w
  4099  0A99  06C2               	xorwf	___fladd@signs,f
  4100  0A9A                     l2034:
  4101  0A9A  0844               	movf	___fladd@bexp,w
  4102  0A9B  00BA               	movwf	??___fladd
  4103  0A9C  083A               	movf	??___fladd,w
  4104  0A9D  00C5               	movwf	___fladd@grs
  4105  0A9E                     l2036:
  4106  0A9E  0843               	movf	___fladd@aexp,w
  4107  0A9F  00BA               	movwf	??___fladd
  4108  0AA0  083A               	movf	??___fladd,w
  4109  0AA1  00C4               	movwf	___fladd@bexp
  4110  0AA2                     l2038:
  4111  0AA2  0845               	movf	___fladd@grs,w
  4112  0AA3  00BA               	movwf	??___fladd
  4113  0AA4  083A               	movf	??___fladd,w
  4114  0AA5  00C3               	movwf	___fladd@aexp
  4115  0AA6                     l2040:
  4116  0AA6  0832               	movf	___fladd@b,w
  4117  0AA7  00BA               	movwf	??___fladd
  4118  0AA8  083A               	movf	??___fladd,w
  4119  0AA9  00C5               	movwf	___fladd@grs
  4120  0AAA                     l2042:
  4121  0AAA  0836               	movf	___fladd@a,w
  4122  0AAB  00BA               	movwf	??___fladd
  4123  0AAC  083A               	movf	??___fladd,w
  4124  0AAD  00B2               	movwf	___fladd@b
  4125  0AAE                     l2044:
  4126  0AAE  0845               	movf	___fladd@grs,w
  4127  0AAF  00BA               	movwf	??___fladd
  4128  0AB0  083A               	movf	??___fladd,w
  4129  0AB1  00B6               	movwf	___fladd@a
  4130  0AB2                     l2046:
  4131  0AB2  0833               	movf	___fladd@b+1,w
  4132  0AB3  00BA               	movwf	??___fladd
  4133  0AB4  083A               	movf	??___fladd,w
  4134  0AB5  00C5               	movwf	___fladd@grs
  4135  0AB6                     l2048:
  4136  0AB6  0837               	movf	___fladd@a+1,w
  4137  0AB7  00BA               	movwf	??___fladd
  4138  0AB8  083A               	movf	??___fladd,w
  4139  0AB9  00B3               	movwf	___fladd@b+1
  4140  0ABA                     l2050:
  4141  0ABA  0845               	movf	___fladd@grs,w
  4142  0ABB  00BA               	movwf	??___fladd
  4143  0ABC  083A               	movf	??___fladd,w
  4144  0ABD  00B7               	movwf	___fladd@a+1
  4145  0ABE                     l2052:
  4146  0ABE  0834               	movf	___fladd@b+2,w
  4147  0ABF  00BA               	movwf	??___fladd
  4148  0AC0  083A               	movf	??___fladd,w
  4149  0AC1  00C5               	movwf	___fladd@grs
  4150  0AC2                     l2054:
  4151  0AC2  0838               	movf	___fladd@a+2,w
  4152  0AC3  00BA               	movwf	??___fladd
  4153  0AC4  083A               	movf	??___fladd,w
  4154  0AC5  00B4               	movwf	___fladd@b+2
  4155  0AC6                     l2056:
  4156  0AC6  0845               	movf	___fladd@grs,w
  4157  0AC7  00BA               	movwf	??___fladd
  4158  0AC8  083A               	movf	??___fladd,w
  4159  0AC9  00B8               	movwf	___fladd@a+2
  4160  0ACA                     l2058:
  4161  0ACA  0835               	movf	___fladd@b+3,w
  4162  0ACB  00BA               	movwf	??___fladd
  4163  0ACC  083A               	movf	??___fladd,w
  4164  0ACD  00C5               	movwf	___fladd@grs
  4165  0ACE                     l2060:
  4166  0ACE  0839               	movf	___fladd@a+3,w
  4167  0ACF  00BA               	movwf	??___fladd
  4168  0AD0  083A               	movf	??___fladd,w
  4169  0AD1  00B5               	movwf	___fladd@b+3
  4170  0AD2                     l2062:
  4171  0AD2  0845               	movf	___fladd@grs,w
  4172  0AD3  00BA               	movwf	??___fladd
  4173  0AD4  083A               	movf	??___fladd,w
  4174  0AD5  00B9               	movwf	___fladd@a+3
  4175  0AD6                     l2064:
  4176  0AD6  01C5               	clrf	___fladd@grs
  4177  0AD7                     l2066:
  4178  0AD7  0843               	movf	___fladd@aexp,w
  4179  0AD8  00BA               	movwf	??___fladd
  4180  0AD9  01BB               	clrf	??___fladd+1
  4181  0ADA  083B               	movf	??___fladd+1,w
  4182  0ADB  00BD               	movwf	??___fladd+3
  4183  0ADC  0844               	movf	___fladd@bexp,w
  4184  0ADD  023A               	subwf	??___fladd,w
  4185  0ADE  00BC               	movwf	??___fladd+2
  4186  0ADF  1C03               	skipc
  4187  0AE0  03BD               	decf	??___fladd+3,f
  4188  0AE1  083D               	movf	??___fladd+3,w
  4189  0AE2  3A80               	xorlw	128
  4190  0AE3  00FF               	movwf	btemp+1
  4191  0AE4  3080               	movlw	128
  4192  0AE5  027F               	subwf	btemp+1,w
  4193  0AE6  1D03               	skipz
  4194  0AE7  2AEA               	goto	u2045
  4195  0AE8  301A               	movlw	26
  4196  0AE9  023C               	subwf	??___fladd+2,w
  4197  0AEA                     u2045:
  4198  0AEA  1C03               	skipc
  4199  0AEB  2AED               	goto	u2041
  4200  0AEC  2AEE               	goto	u2040
  4201  0AED                     u2041:
  4202  0AED  2B2B               	goto	l2082
  4203  0AEE                     u2040:
  4204  0AEE                     l2068:
  4205  0AEE  1283               	bcf	3,5	;RP0=0, select bank0
  4206  0AEF  1303               	bcf	3,6	;RP1=0, select bank0
  4207  0AF0  0835               	movf	___fladd@b+3,w
  4208  0AF1  0434               	iorwf	___fladd@b+2,w
  4209  0AF2  0433               	iorwf	___fladd@b+1,w
  4210  0AF3  0432               	iorwf	___fladd@b,w
  4211  0AF4  1D03               	skipz
  4212  0AF5  2AF7               	goto	u2051
  4213  0AF6  2AF9               	goto	u2050
  4214  0AF7                     u2051:
  4215  0AF7  3001               	movlw	1
  4216  0AF8  2AFA               	goto	u2060
  4217  0AF9                     u2050:
  4218  0AF9  3000               	movlw	0
  4219  0AFA                     u2060:
  4220  0AFA  00BA               	movwf	??___fladd
  4221  0AFB  083A               	movf	??___fladd,w
  4222  0AFC  00C5               	movwf	___fladd@grs
  4223  0AFD  3000               	movlw	0
  4224  0AFE  00B5               	movwf	___fladd@b+3
  4225  0AFF  3000               	movlw	0
  4226  0B00  00B4               	movwf	___fladd@b+2
  4227  0B01  3000               	movlw	0
  4228  0B02  00B3               	movwf	___fladd@b+1
  4229  0B03  3000               	movlw	0
  4230  0B04  00B2               	movwf	___fladd@b
  4231  0B05  0843               	movf	___fladd@aexp,w
  4232  0B06  00BA               	movwf	??___fladd
  4233  0B07  083A               	movf	??___fladd,w
  4234  0B08  00C4               	movwf	___fladd@bexp
  4235  0B09  2B33               	goto	l673
  4236  0B0A                     l675:
  4237  0B0A  1C45               	btfss	___fladd@grs,0
  4238  0B0B  2B0D               	goto	u2071
  4239  0B0C  2B0E               	goto	u2070
  4240  0B0D                     u2071:
  4241  0B0D  2B17               	goto	l2072
  4242  0B0E                     u2070:
  4243  0B0E                     l2070:
  4244  0B0E  0845               	movf	___fladd@grs,w
  4245  0B0F  00BA               	movwf	??___fladd
  4246  0B10  1003               	clrc
  4247  0B11  0C3A               	rrf	??___fladd,w
  4248  0B12  3801               	iorlw	1
  4249  0B13  00BB               	movwf	??___fladd+1
  4250  0B14  083B               	movf	??___fladd+1,w
  4251  0B15  00C5               	movwf	___fladd@grs
  4252  0B16  2B19               	goto	l2074
  4253  0B17                     l2072:
  4254  0B17  1003               	clrc
  4255  0B18  0CC5               	rrf	___fladd@grs,f
  4256  0B19                     l2074:
  4257  0B19  1C32               	btfss	___fladd@b,0
  4258  0B1A  2B1C               	goto	u2081
  4259  0B1B  2B1D               	goto	u2080
  4260  0B1C                     u2081:
  4261  0B1C  2B1E               	goto	l2078
  4262  0B1D                     u2080:
  4263  0B1D                     l2076:
  4264  0B1D  17C5               	bsf	___fladd@grs,7
  4265  0B1E                     l2078:
  4266  0B1E  3001               	movlw	1
  4267  0B1F  00BA               	movwf	??___fladd
  4268  0B20                     u2095:
  4269  0B20  0D35               	rlf	___fladd@b+3,w
  4270  0B21  0CB5               	rrf	___fladd@b+3,f
  4271  0B22  0CB4               	rrf	___fladd@b+2,f
  4272  0B23  0CB3               	rrf	___fladd@b+1,f
  4273  0B24  0CB2               	rrf	___fladd@b,f
  4274  0B25  0BBA               	decfsz	??___fladd& (0+127),f
  4275  0B26  2B20               	goto	u2095
  4276  0B27                     l2080:
  4277  0B27  3001               	movlw	1
  4278  0B28  00BA               	movwf	??___fladd
  4279  0B29  083A               	movf	??___fladd,w
  4280  0B2A  07C4               	addwf	___fladd@bexp,f
  4281  0B2B                     l2082:
  4282  0B2B  1283               	bcf	3,5	;RP0=0, select bank0
  4283  0B2C  1303               	bcf	3,6	;RP1=0, select bank0
  4284  0B2D  0843               	movf	___fladd@aexp,w
  4285  0B2E  0244               	subwf	___fladd@bexp,w
  4286  0B2F  1C03               	skipc
  4287  0B30  2B32               	goto	u2101
  4288  0B31  2B33               	goto	u2100
  4289  0B32                     u2101:
  4290  0B32  2B0A               	goto	l675
  4291  0B33                     u2100:
  4292  0B33                     l673:
  4293  0B33  1B42               	btfsc	___fladd@signs,6
  4294  0B34  2B36               	goto	u2111
  4295  0B35  2B37               	goto	u2110
  4296  0B36                     u2111:
  4297  0B36  2B82               	goto	l2108
  4298  0B37                     u2110:
  4299  0B37                     l2084:
  4300  0B37  0844               	movf	___fladd@bexp,w
  4301  0B38  1D03               	btfss	3,2
  4302  0B39  2B3B               	goto	u2121
  4303  0B3A  2B3C               	goto	u2120
  4304  0B3B                     u2121:
  4305  0B3B  2B45               	goto	l2090
  4306  0B3C                     u2120:
  4307  0B3C                     l2086:
  4308  0B3C  3000               	movlw	0
  4309  0B3D  00B5               	movwf	?___fladd+3
  4310  0B3E  3000               	movlw	0
  4311  0B3F  00B4               	movwf	?___fladd+2
  4312  0B40  3000               	movlw	0
  4313  0B41  00B3               	movwf	?___fladd+1
  4314  0B42  3000               	movlw	0
  4315  0B43  00B2               	movwf	?___fladd
  4316  0B44  2CB0               	goto	l682
  4317  0B45                     l2090:
  4318  0B45  0836               	movf	___fladd@a,w
  4319  0B46  07B2               	addwf	___fladd@b,f
  4320  0B47  0837               	movf	___fladd@a+1,w
  4321  0B48  1103               	clrz
  4322  0B49  1803               	skipnc
  4323  0B4A  3E01               	addlw	1
  4324  0B4B  1903               	skipnz
  4325  0B4C  2B4E               	goto	u2131
  4326  0B4D  07B3               	addwf	___fladd@b+1,f
  4327  0B4E                     u2131:
  4328  0B4E  0838               	movf	___fladd@a+2,w
  4329  0B4F  1103               	clrz
  4330  0B50  1803               	skipnc
  4331  0B51  3E01               	addlw	1
  4332  0B52  1903               	skipnz
  4333  0B53  2B55               	goto	u2132
  4334  0B54  07B4               	addwf	___fladd@b+2,f
  4335  0B55                     u2132:
  4336  0B55  0839               	movf	___fladd@a+3,w
  4337  0B56  1103               	clrz
  4338  0B57  1803               	skipnc
  4339  0B58  3E01               	addlw	1
  4340  0B59  1903               	skipnz
  4341  0B5A  2B5C               	goto	u2133
  4342  0B5B  07B5               	addwf	___fladd@b+3,f
  4343  0B5C                     u2133:
  4344  0B5C                     l2092:
  4345  0B5C  1C35               	btfss	___fladd@b+3,0
  4346  0B5D  2B5F               	goto	u2141
  4347  0B5E  2B60               	goto	u2140
  4348  0B5F                     u2141:
  4349  0B5F  2C36               	goto	l2142
  4350  0B60                     u2140:
  4351  0B60                     l2094:
  4352  0B60  1C45               	btfss	___fladd@grs,0
  4353  0B61  2B63               	goto	u2151
  4354  0B62  2B64               	goto	u2150
  4355  0B63                     u2151:
  4356  0B63  2B6D               	goto	l2098
  4357  0B64                     u2150:
  4358  0B64                     l2096:
  4359  0B64  0845               	movf	___fladd@grs,w
  4360  0B65  00BA               	movwf	??___fladd
  4361  0B66  1003               	clrc
  4362  0B67  0C3A               	rrf	??___fladd,w
  4363  0B68  3801               	iorlw	1
  4364  0B69  00BB               	movwf	??___fladd+1
  4365  0B6A  083B               	movf	??___fladd+1,w
  4366  0B6B  00C5               	movwf	___fladd@grs
  4367  0B6C  2B6F               	goto	l2100
  4368  0B6D                     l2098:
  4369  0B6D  1003               	clrc
  4370  0B6E  0CC5               	rrf	___fladd@grs,f
  4371  0B6F                     l2100:
  4372  0B6F  1C32               	btfss	___fladd@b,0
  4373  0B70  2B72               	goto	u2161
  4374  0B71  2B73               	goto	u2160
  4375  0B72                     u2161:
  4376  0B72  2B74               	goto	l2104
  4377  0B73                     u2160:
  4378  0B73                     l2102:
  4379  0B73  17C5               	bsf	___fladd@grs,7
  4380  0B74                     l2104:
  4381  0B74  3001               	movlw	1
  4382  0B75  00BA               	movwf	??___fladd
  4383  0B76                     u2175:
  4384  0B76  0D35               	rlf	___fladd@b+3,w
  4385  0B77  0CB5               	rrf	___fladd@b+3,f
  4386  0B78  0CB4               	rrf	___fladd@b+2,f
  4387  0B79  0CB3               	rrf	___fladd@b+1,f
  4388  0B7A  0CB2               	rrf	___fladd@b,f
  4389  0B7B  0BBA               	decfsz	??___fladd& (0+127),f
  4390  0B7C  2B76               	goto	u2175
  4391  0B7D                     l2106:
  4392  0B7D  3001               	movlw	1
  4393  0B7E  00BA               	movwf	??___fladd
  4394  0B7F  083A               	movf	??___fladd,w
  4395  0B80  07C4               	addwf	___fladd@bexp,f
  4396  0B81  2C36               	goto	l2142
  4397  0B82                     l2108:
  4398  0B82  0835               	movf	___fladd@b+3,w
  4399  0B83  3A80               	xorlw	128
  4400  0B84  00FF               	movwf	btemp+1
  4401  0B85  0839               	movf	___fladd@a+3,w
  4402  0B86  3A80               	xorlw	128
  4403  0B87  027F               	subwf	btemp+1,w
  4404  0B88  1D03               	skipz
  4405  0B89  2B94               	goto	u2183
  4406  0B8A  0838               	movf	___fladd@a+2,w
  4407  0B8B  0234               	subwf	___fladd@b+2,w
  4408  0B8C  1D03               	skipz
  4409  0B8D  2B94               	goto	u2183
  4410  0B8E  0837               	movf	___fladd@a+1,w
  4411  0B8F  0233               	subwf	___fladd@b+1,w
  4412  0B90  1D03               	skipz
  4413  0B91  2B94               	goto	u2183
  4414  0B92  0836               	movf	___fladd@a,w
  4415  0B93  0232               	subwf	___fladd@b,w
  4416  0B94                     u2183:
  4417  0B94  1803               	skipnc
  4418  0B95  2B97               	goto	u2181
  4419  0B96  2B98               	goto	u2180
  4420  0B97                     u2181:
  4421  0B97  2BF0               	goto	l2118
  4422  0B98                     u2180:
  4423  0B98                     l2110:
  4424  0B98  30FF               	movlw	255
  4425  0B99  00BA               	movwf	??___fladd
  4426  0B9A  30FF               	movlw	255
  4427  0B9B  00BB               	movwf	??___fladd+1
  4428  0B9C  30FF               	movlw	255
  4429  0B9D  00BC               	movwf	??___fladd+2
  4430  0B9E  30FF               	movlw	255
  4431  0B9F  00BD               	movwf	??___fladd+3
  4432  0BA0  0836               	movf	___fladd@a,w
  4433  0BA1  00BE               	movwf	??___fladd+4
  4434  0BA2  0837               	movf	___fladd@a+1,w
  4435  0BA3  00BF               	movwf	??___fladd+5
  4436  0BA4  0838               	movf	___fladd@a+2,w
  4437  0BA5  00C0               	movwf	??___fladd+6
  4438  0BA6  0839               	movf	___fladd@a+3,w
  4439  0BA7  00C1               	movwf	??___fladd+7
  4440  0BA8  0832               	movf	___fladd@b,w
  4441  0BA9  02BE               	subwf	??___fladd+4,f
  4442  0BAA  0833               	movf	___fladd@b+1,w
  4443  0BAB  1C03               	skipc
  4444  0BAC  0F33               	incfsz	___fladd@b+1,w
  4445  0BAD  2BAF               	goto	u2191
  4446  0BAE  2BB0               	goto	u2192
  4447  0BAF                     u2191:
  4448  0BAF  02BF               	subwf	??___fladd+5,f
  4449  0BB0                     u2192:
  4450  0BB0  0834               	movf	___fladd@b+2,w
  4451  0BB1  1C03               	skipc
  4452  0BB2  0F34               	incfsz	___fladd@b+2,w
  4453  0BB3  2BB5               	goto	u2193
  4454  0BB4  2BB6               	goto	u2194
  4455  0BB5                     u2193:
  4456  0BB5  02C0               	subwf	??___fladd+6,f
  4457  0BB6                     u2194:
  4458  0BB6  0835               	movf	___fladd@b+3,w
  4459  0BB7  1C03               	skipc
  4460  0BB8  0F35               	incfsz	___fladd@b+3,w
  4461  0BB9  2BBB               	goto	u2195
  4462  0BBA  2BBC               	goto	u2196
  4463  0BBB                     u2195:
  4464  0BBB  02C1               	subwf	??___fladd+7,f
  4465  0BBC                     u2196:
  4466  0BBC  083E               	movf	??___fladd+4,w
  4467  0BBD  07BA               	addwf	??___fladd,f
  4468  0BBE  083F               	movf	??___fladd+5,w
  4469  0BBF  1803               	skipnc
  4470  0BC0  0F3F               	incfsz	??___fladd+5,w
  4471  0BC1  2BC3               	goto	u2200
  4472  0BC2  2BC4               	goto	u2201
  4473  0BC3                     u2200:
  4474  0BC3  07BB               	addwf	??___fladd+1,f
  4475  0BC4                     u2201:
  4476  0BC4  0840               	movf	??___fladd+6,w
  4477  0BC5  1803               	skipnc
  4478  0BC6  0F40               	incfsz	??___fladd+6,w
  4479  0BC7  2BC9               	goto	u2202
  4480  0BC8  2BCA               	goto	u2203
  4481  0BC9                     u2202:
  4482  0BC9  07BC               	addwf	??___fladd+2,f
  4483  0BCA                     u2203:
  4484  0BCA  0841               	movf	??___fladd+7,w
  4485  0BCB  1803               	skipnc
  4486  0BCC  0A41               	incf	??___fladd+7,w
  4487  0BCD  07BD               	addwf	??___fladd+3,f
  4488  0BCE  083D               	movf	??___fladd+3,w
  4489  0BCF  00B5               	movwf	___fladd@b+3
  4490  0BD0  083C               	movf	??___fladd+2,w
  4491  0BD1  00B4               	movwf	___fladd@b+2
  4492  0BD2  083B               	movf	??___fladd+1,w
  4493  0BD3  00B3               	movwf	___fladd@b+1
  4494  0BD4  083A               	movf	??___fladd,w
  4495  0BD5  00B2               	movwf	___fladd@b
  4496  0BD6                     l2112:
  4497  0BD6  3080               	movlw	128
  4498  0BD7  00BA               	movwf	??___fladd
  4499  0BD8  083A               	movf	??___fladd,w
  4500  0BD9  06C2               	xorwf	___fladd@signs,f
  4501  0BDA  09C5               	comf	___fladd@grs,f
  4502  0BDB  0AC5               	incf	___fladd@grs,f
  4503  0BDC                     l2114:
  4504  0BDC  0845               	movf	___fladd@grs,w
  4505  0BDD  1D03               	btfss	3,2
  4506  0BDE  2BE0               	goto	u2211
  4507  0BDF  2BE1               	goto	u2210
  4508  0BE0                     u2211:
  4509  0BE0  2BFE               	goto	l690
  4510  0BE1                     u2210:
  4511  0BE1                     l2116:
  4512  0BE1  3001               	movlw	1
  4513  0BE2  07B2               	addwf	___fladd@b,f
  4514  0BE3  3000               	movlw	0
  4515  0BE4  1803               	skipnc
  4516  0BE5  3001               	movlw	1
  4517  0BE6  07B3               	addwf	___fladd@b+1,f
  4518  0BE7  3000               	movlw	0
  4519  0BE8  1803               	skipnc
  4520  0BE9  3001               	movlw	1
  4521  0BEA  07B4               	addwf	___fladd@b+2,f
  4522  0BEB  3000               	movlw	0
  4523  0BEC  1803               	skipnc
  4524  0BED  3001               	movlw	1
  4525  0BEE  07B5               	addwf	___fladd@b+3,f
  4526  0BEF  2BFE               	goto	l690
  4527  0BF0                     l2118:
  4528  0BF0  0836               	movf	___fladd@a,w
  4529  0BF1  02B2               	subwf	___fladd@b,f
  4530  0BF2  0837               	movf	___fladd@a+1,w
  4531  0BF3  1C03               	skipc
  4532  0BF4  0F37               	incfsz	___fladd@a+1,w
  4533  0BF5  02B3               	subwf	___fladd@b+1,f
  4534  0BF6  0838               	movf	___fladd@a+2,w
  4535  0BF7  1C03               	skipc
  4536  0BF8  0F38               	incfsz	___fladd@a+2,w
  4537  0BF9  02B4               	subwf	___fladd@b+2,f
  4538  0BFA  0839               	movf	___fladd@a+3,w
  4539  0BFB  1C03               	skipc
  4540  0BFC  0F39               	incfsz	___fladd@a+3,w
  4541  0BFD  02B5               	subwf	___fladd@b+3,f
  4542  0BFE                     l690:
  4543  0BFE  0835               	movf	___fladd@b+3,w
  4544  0BFF  0434               	iorwf	___fladd@b+2,w
  4545  0C00  0433               	iorwf	___fladd@b+1,w
  4546  0C01  0432               	iorwf	___fladd@b,w
  4547  0C02  1D03               	skipz
  4548  0C03  2C05               	goto	u2221
  4549  0C04  2C06               	goto	u2220
  4550  0C05                     u2221:
  4551  0C05  2C32               	goto	l2140
  4552  0C06                     u2220:
  4553  0C06                     l2120:
  4554  0C06  0845               	movf	___fladd@grs,w
  4555  0C07  1D03               	btfss	3,2
  4556  0C08  2C0A               	goto	u2231
  4557  0C09  2C0B               	goto	u2230
  4558  0C0A                     u2231:
  4559  0C0A  2C32               	goto	l2140
  4560  0C0B                     u2230:
  4561  0C0B                     l2122:
  4562  0C0B  3000               	movlw	0
  4563  0C0C  00B5               	movwf	?___fladd+3
  4564  0C0D  3000               	movlw	0
  4565  0C0E  00B4               	movwf	?___fladd+2
  4566  0C0F  3000               	movlw	0
  4567  0C10  00B3               	movwf	?___fladd+1
  4568  0C11  3000               	movlw	0
  4569  0C12  00B2               	movwf	?___fladd
  4570  0C13  2CB0               	goto	l682
  4571  0C14                     l2126:
  4572  0C14  3001               	movlw	1
  4573  0C15  00BA               	movwf	??___fladd
  4574  0C16                     u2245:
  4575  0C16  1003               	clrc
  4576  0C17  0DB2               	rlf	___fladd@b,f
  4577  0C18  0DB3               	rlf	___fladd@b+1,f
  4578  0C19  0DB4               	rlf	___fladd@b+2,f
  4579  0C1A  0DB5               	rlf	___fladd@b+3,f
  4580  0C1B  0BBA               	decfsz	??___fladd,f
  4581  0C1C  2C16               	goto	u2245
  4582  0C1D                     l2128:
  4583  0C1D  1FC5               	btfss	___fladd@grs,7
  4584  0C1E  2C20               	goto	u2251
  4585  0C1F  2C21               	goto	u2250
  4586  0C20                     u2251:
  4587  0C20  2C22               	goto	l694
  4588  0C21                     u2250:
  4589  0C21                     l2130:
  4590  0C21  1432               	bsf	___fladd@b,0
  4591  0C22                     l694:
  4592  0C22  1C45               	btfss	___fladd@grs,0
  4593  0C23  2C25               	goto	u2261
  4594  0C24  2C26               	goto	u2260
  4595  0C25                     u2261:
  4596  0C25  2C29               	goto	l2134
  4597  0C26                     u2260:
  4598  0C26                     l2132:
  4599  0C26  1403               	setc
  4600  0C27  0DC5               	rlf	___fladd@grs,f
  4601  0C28  2C2B               	goto	l2136
  4602  0C29                     l2134:
  4603  0C29  1003               	clrc
  4604  0C2A  0DC5               	rlf	___fladd@grs,f
  4605  0C2B                     l2136:
  4606  0C2B  0844               	movf	___fladd@bexp,w
  4607  0C2C  1903               	btfsc	3,2
  4608  0C2D  2C2F               	goto	u2271
  4609  0C2E  2C30               	goto	u2270
  4610  0C2F                     u2271:
  4611  0C2F  2C32               	goto	l2140
  4612  0C30                     u2270:
  4613  0C30                     l2138:
  4614  0C30  3001               	movlw	1
  4615  0C31  02C4               	subwf	___fladd@bexp,f
  4616  0C32                     l2140:
  4617  0C32  1FB4               	btfss	___fladd@b+2,7
  4618  0C33  2C35               	goto	u2281
  4619  0C34  2C36               	goto	u2280
  4620  0C35                     u2281:
  4621  0C35  2C14               	goto	l2126
  4622  0C36                     u2280:
  4623  0C36                     l2142:
  4624  0C36  01C3               	clrf	___fladd@aexp
  4625  0C37                     l2144:
  4626  0C37  1FC5               	btfss	___fladd@grs,7
  4627  0C38  2C3A               	goto	u2291
  4628  0C39  2C3B               	goto	u2290
  4629  0C3A                     u2291:
  4630  0C3A  2C49               	goto	l2152
  4631  0C3B                     u2290:
  4632  0C3B                     l2146:
  4633  0C3B  0845               	movf	___fladd@grs,w
  4634  0C3C  397F               	andlw	127
  4635  0C3D  1903               	btfsc	3,2
  4636  0C3E  2C40               	goto	u2301
  4637  0C3F  2C41               	goto	u2300
  4638  0C40                     u2301:
  4639  0C40  2C44               	goto	l700
  4640  0C41                     u2300:
  4641  0C41                     l2148:
  4642  0C41  01C3               	clrf	___fladd@aexp
  4643  0C42  0AC3               	incf	___fladd@aexp,f
  4644  0C43  2C49               	goto	l2152
  4645  0C44                     l700:
  4646  0C44  1C32               	btfss	___fladd@b,0
  4647  0C45  2C47               	goto	u2311
  4648  0C46  2C48               	goto	u2310
  4649  0C47                     u2311:
  4650  0C47  2C49               	goto	l2152
  4651  0C48                     u2310:
  4652  0C48  2C41               	goto	l2148
  4653  0C49                     l2152:
  4654  0C49  0843               	movf	___fladd@aexp,w
  4655  0C4A  1903               	btfsc	3,2
  4656  0C4B  2C4D               	goto	u2321
  4657  0C4C  2C4E               	goto	u2320
  4658  0C4D                     u2321:
  4659  0C4D  2C82               	goto	l703
  4660  0C4E                     u2320:
  4661  0C4E                     l2154:
  4662  0C4E  3001               	movlw	1
  4663  0C4F  07B2               	addwf	___fladd@b,f
  4664  0C50  3000               	movlw	0
  4665  0C51  1803               	skipnc
  4666  0C52  3001               	movlw	1
  4667  0C53  07B3               	addwf	___fladd@b+1,f
  4668  0C54  3000               	movlw	0
  4669  0C55  1803               	skipnc
  4670  0C56  3001               	movlw	1
  4671  0C57  07B4               	addwf	___fladd@b+2,f
  4672  0C58  3000               	movlw	0
  4673  0C59  1803               	skipnc
  4674  0C5A  3001               	movlw	1
  4675  0C5B  07B5               	addwf	___fladd@b+3,f
  4676  0C5C                     l2156:
  4677  0C5C  1C35               	btfss	___fladd@b+3,0
  4678  0C5D  2C5F               	goto	u2331
  4679  0C5E  2C60               	goto	u2330
  4680  0C5F                     u2331:
  4681  0C5F  2C82               	goto	l703
  4682  0C60                     u2330:
  4683  0C60                     l2158:
  4684  0C60  0832               	movf	___fladd@b,w
  4685  0C61  00BA               	movwf	??___fladd
  4686  0C62  0833               	movf	___fladd@b+1,w
  4687  0C63  00BB               	movwf	??___fladd+1
  4688  0C64  0834               	movf	___fladd@b+2,w
  4689  0C65  00BC               	movwf	??___fladd+2
  4690  0C66  0835               	movf	___fladd@b+3,w
  4691  0C67  00BD               	movwf	??___fladd+3
  4692  0C68  3001               	movlw	1
  4693  0C69  00BE               	movwf	??___fladd+4
  4694  0C6A                     u2345:
  4695  0C6A  0D3D               	rlf	??___fladd+3,w
  4696  0C6B  0CBD               	rrf	??___fladd+3,f
  4697  0C6C  0CBC               	rrf	??___fladd+2,f
  4698  0C6D  0CBB               	rrf	??___fladd+1,f
  4699  0C6E  0CBA               	rrf	??___fladd,f
  4700  0C6F                     u2340:
  4701  0C6F  0BBE               	decfsz	??___fladd+4,f
  4702  0C70  2C6A               	goto	u2345
  4703  0C71  083D               	movf	??___fladd+3,w
  4704  0C72  00B5               	movwf	___fladd@b+3
  4705  0C73  083C               	movf	??___fladd+2,w
  4706  0C74  00B4               	movwf	___fladd@b+2
  4707  0C75  083B               	movf	??___fladd+1,w
  4708  0C76  00B3               	movwf	___fladd@b+1
  4709  0C77  083A               	movf	??___fladd,w
  4710  0C78  00B2               	movwf	___fladd@b
  4711  0C79  0A44               	incf	___fladd@bexp,w
  4712  0C7A  1903               	btfsc	3,2
  4713  0C7B  2C7D               	goto	u2351
  4714  0C7C  2C7E               	goto	u2350
  4715  0C7D                     u2351:
  4716  0C7D  2C82               	goto	l703
  4717  0C7E                     u2350:
  4718  0C7E                     l2160:
  4719  0C7E  3001               	movlw	1
  4720  0C7F  00BA               	movwf	??___fladd
  4721  0C80  083A               	movf	??___fladd,w
  4722  0C81  07C4               	addwf	___fladd@bexp,f
  4723  0C82                     l703:
  4724  0C82  0A44               	incf	___fladd@bexp,w
  4725  0C83  1903               	btfsc	3,2
  4726  0C84  2C86               	goto	u2361
  4727  0C85  2C87               	goto	u2360
  4728  0C86                     u2361:
  4729  0C86  2C8C               	goto	l2164
  4730  0C87                     u2360:
  4731  0C87                     l2162:
  4732  0C87  0844               	movf	___fladd@bexp,w
  4733  0C88  1D03               	btfss	3,2
  4734  0C89  2C8B               	goto	u2371
  4735  0C8A  2C8C               	goto	u2370
  4736  0C8B                     u2371:
  4737  0C8B  2C9A               	goto	l2170
  4738  0C8C                     u2370:
  4739  0C8C                     l2164:
  4740  0C8C  3000               	movlw	0
  4741  0C8D  00B5               	movwf	___fladd@b+3
  4742  0C8E  3000               	movlw	0
  4743  0C8F  00B4               	movwf	___fladd@b+2
  4744  0C90  3000               	movlw	0
  4745  0C91  00B3               	movwf	___fladd@b+1
  4746  0C92  3000               	movlw	0
  4747  0C93  00B2               	movwf	___fladd@b
  4748  0C94                     l2166:
  4749  0C94  0844               	movf	___fladd@bexp,w
  4750  0C95  1D03               	btfss	3,2
  4751  0C96  2C98               	goto	u2381
  4752  0C97  2C99               	goto	u2380
  4753  0C98                     u2381:
  4754  0C98  2C9A               	goto	l2170
  4755  0C99                     u2380:
  4756  0C99                     l2168:
  4757  0C99  01C2               	clrf	___fladd@signs
  4758  0C9A                     l2170:
  4759  0C9A  1C44               	btfss	___fladd@bexp,0
  4760  0C9B  2C9D               	goto	u2391
  4761  0C9C  2C9E               	goto	u2390
  4762  0C9D                     u2391:
  4763  0C9D  2CA0               	goto	l2174
  4764  0C9E                     u2390:
  4765  0C9E                     l2172:
  4766  0C9E  17B4               	bsf	___fladd@b+2,7
  4767  0C9F  2CA4               	goto	l711
  4768  0CA0                     l2174:
  4769  0CA0  307F               	movlw	127
  4770  0CA1  00BA               	movwf	??___fladd
  4771  0CA2  083A               	movf	??___fladd,w
  4772  0CA3  05B4               	andwf	___fladd@b+2,f
  4773  0CA4                     l711:
  4774  0CA4  0844               	movf	___fladd@bexp,w
  4775  0CA5  00BA               	movwf	??___fladd
  4776  0CA6  1003               	clrc
  4777  0CA7  0C3A               	rrf	??___fladd,w
  4778  0CA8  00BB               	movwf	??___fladd+1
  4779  0CA9  083B               	movf	??___fladd+1,w
  4780  0CAA  00B5               	movwf	___fladd@b+3
  4781  0CAB                     l2176:
  4782  0CAB  1FC2               	btfss	___fladd@signs,7
  4783  0CAC  2CAE               	goto	u2401
  4784  0CAD  2CAF               	goto	u2400
  4785  0CAE                     u2401:
  4786  0CAE  2CB0               	goto	l712
  4787  0CAF                     u2400:
  4788  0CAF                     l2178:
  4789  0CAF  17B5               	bsf	___fladd@b+3,7
  4790  0CB0                     l712:
  4791  0CB0                     l682:
  4792  0CB0  0008               	return
  4793  0CB1                     __end_of___fladd:
  4794                           
  4795                           	psect	text10
  4796  0095                     __ptext10:	
  4797 ;; *************** function ___flmul *****************
  4798 ;; Defined at:
  4799 ;;		line 8 in file "C:\Program Files\Microchip\xc8\v2.31\pic\sources\c90\common\sprcmul.c"
  4800 ;; Parameters:    Size  Location     Type
  4801 ;;  b               4   46[BANK0 ] unsigned char 
  4802 ;;  a               4   50[BANK0 ] unsigned char 
  4803 ;; Auto vars:     Size  Location     Type
  4804 ;;  prod            4   66[BANK0 ] struct .
  4805 ;;  grs             4   60[BANK0 ] unsigned long 
  4806 ;;  temp            2   70[BANK0 ] struct .
  4807 ;;  bexp            1   65[BANK0 ] unsigned char 
  4808 ;;  aexp            1   64[BANK0 ] unsigned char 
  4809 ;;  sign            1   59[BANK0 ] unsigned char 
  4810 ;; Return value:  Size  Location     Type
  4811 ;;                  4   46[BANK0 ] unsigned char 
  4812 ;; Registers used:
  4813 ;;		wreg, status,2, status,0, btemp+1, pclath, cstack
  4814 ;; Tracked objects:
  4815 ;;		On entry : 0/0
  4816 ;;		On exit  : 0/0
  4817 ;;		Unchanged: 0/0
  4818 ;; Data sizes:     COMMON   BANK0   BANK1   BANK3   BANK2
  4819 ;;      Params:         0       8       0       0       0
  4820 ;;      Locals:         0      13       0       0       0
  4821 ;;      Temps:          0       5       0       0       0
  4822 ;;      Totals:         0      26       0       0       0
  4823 ;;Total ram usage:       26 bytes
  4824 ;; Hardware stack levels used:    1
  4825 ;; Hardware stack levels required when called:    1
  4826 ;; This function calls:
  4827 ;;		__Umul8_16
  4828 ;; This function is called by:
  4829 ;;		_main
  4830 ;;		_convert
  4831 ;; This function uses a non-reentrant model
  4832 ;;
  4833                           
  4834                           
  4835                           ;psect for function ___flmul
  4836  0095                     ___flmul:
  4837  0095                     l2492:	
  4838                           ;incstack = 0
  4839                           ; Regs used in ___flmul: [wreg+status,2+status,0+btemp+1+pclath+cstack]
  4840                           
  4841  0095  1283               	bcf	3,5	;RP0=0, select bank0
  4842  0096  1303               	bcf	3,6	;RP1=0, select bank0
  4843  0097  0851               	movf	___flmul@b+3,w
  4844  0098  3980               	andlw	128
  4845  0099  00D6               	movwf	??___flmul
  4846  009A  0856               	movf	??___flmul,w
  4847  009B  00DB               	movwf	___flmul@sign
  4848  009C                     l2494:
  4849  009C  0851               	movf	___flmul@b+3,w
  4850  009D  00D6               	movwf	??___flmul
  4851  009E  0756               	addwf	??___flmul,w
  4852  009F  00D7               	movwf	??___flmul+1
  4853  00A0  0857               	movf	??___flmul+1,w
  4854  00A1  00E1               	movwf	___flmul@bexp
  4855  00A2                     l2496:
  4856  00A2  1FD0               	btfss	___flmul@b+2,7
  4857  00A3  28A5               	goto	u3071
  4858  00A4  28A6               	goto	u3070
  4859  00A5                     u3071:
  4860  00A5  28A7               	goto	l2500
  4861  00A6                     u3070:
  4862  00A6                     l2498:
  4863  00A6  1461               	bsf	___flmul@bexp,0
  4864  00A7                     l2500:
  4865  00A7  0861               	movf	___flmul@bexp,w
  4866  00A8  1903               	btfsc	3,2
  4867  00A9  28AB               	goto	u3081
  4868  00AA  28AC               	goto	u3080
  4869  00AB                     u3081:
  4870  00AB  28BB               	goto	l2508
  4871  00AC                     u3080:
  4872  00AC                     l2502:
  4873  00AC  0A61               	incf	___flmul@bexp,w
  4874  00AD  1D03               	btfss	3,2
  4875  00AE  28B0               	goto	u3091
  4876  00AF  28B1               	goto	u3090
  4877  00B0                     u3091:
  4878  00B0  28B9               	goto	l2506
  4879  00B1                     u3090:
  4880  00B1                     l2504:
  4881  00B1  3000               	movlw	0
  4882  00B2  00D1               	movwf	___flmul@b+3
  4883  00B3  3000               	movlw	0
  4884  00B4  00D0               	movwf	___flmul@b+2
  4885  00B5  3000               	movlw	0
  4886  00B6  00CF               	movwf	___flmul@b+1
  4887  00B7  3000               	movlw	0
  4888  00B8  00CE               	movwf	___flmul@b
  4889  00B9                     l2506:
  4890  00B9  17D0               	bsf	___flmul@b+2,7
  4891  00BA  28C3               	goto	l2510
  4892  00BB                     l2508:
  4893  00BB  3000               	movlw	0
  4894  00BC  00D1               	movwf	___flmul@b+3
  4895  00BD  3000               	movlw	0
  4896  00BE  00D0               	movwf	___flmul@b+2
  4897  00BF  3000               	movlw	0
  4898  00C0  00CF               	movwf	___flmul@b+1
  4899  00C1  3000               	movlw	0
  4900  00C2  00CE               	movwf	___flmul@b
  4901  00C3                     l2510:
  4902  00C3  0855               	movf	___flmul@a+3,w
  4903  00C4  3980               	andlw	128
  4904  00C5  00D6               	movwf	??___flmul
  4905  00C6  0856               	movf	??___flmul,w
  4906  00C7  06DB               	xorwf	___flmul@sign,f
  4907  00C8                     l2512:
  4908  00C8  0855               	movf	___flmul@a+3,w
  4909  00C9  00D6               	movwf	??___flmul
  4910  00CA  0756               	addwf	??___flmul,w
  4911  00CB  00D7               	movwf	??___flmul+1
  4912  00CC  0857               	movf	??___flmul+1,w
  4913  00CD  00E0               	movwf	___flmul@aexp
  4914  00CE                     l2514:
  4915  00CE  1FD4               	btfss	___flmul@a+2,7
  4916  00CF  28D1               	goto	u3101
  4917  00D0  28D2               	goto	u3100
  4918  00D1                     u3101:
  4919  00D1  28D3               	goto	l2518
  4920  00D2                     u3100:
  4921  00D2                     l2516:
  4922  00D2  1460               	bsf	___flmul@aexp,0
  4923  00D3                     l2518:
  4924  00D3  0860               	movf	___flmul@aexp,w
  4925  00D4  1903               	btfsc	3,2
  4926  00D5  28D7               	goto	u3111
  4927  00D6  28D8               	goto	u3110
  4928  00D7                     u3111:
  4929  00D7  28E7               	goto	l2526
  4930  00D8                     u3110:
  4931  00D8                     l2520:
  4932  00D8  0A60               	incf	___flmul@aexp,w
  4933  00D9  1D03               	btfss	3,2
  4934  00DA  28DC               	goto	u3121
  4935  00DB  28DD               	goto	u3120
  4936  00DC                     u3121:
  4937  00DC  28E5               	goto	l2524
  4938  00DD                     u3120:
  4939  00DD                     l2522:
  4940  00DD  3000               	movlw	0
  4941  00DE  00D5               	movwf	___flmul@a+3
  4942  00DF  3000               	movlw	0
  4943  00E0  00D4               	movwf	___flmul@a+2
  4944  00E1  3000               	movlw	0
  4945  00E2  00D3               	movwf	___flmul@a+1
  4946  00E3  3000               	movlw	0
  4947  00E4  00D2               	movwf	___flmul@a
  4948  00E5                     l2524:
  4949  00E5  17D4               	bsf	___flmul@a+2,7
  4950  00E6  28EF               	goto	l2528
  4951  00E7                     l2526:
  4952  00E7  3000               	movlw	0
  4953  00E8  00D5               	movwf	___flmul@a+3
  4954  00E9  3000               	movlw	0
  4955  00EA  00D4               	movwf	___flmul@a+2
  4956  00EB  3000               	movlw	0
  4957  00EC  00D3               	movwf	___flmul@a+1
  4958  00ED  3000               	movlw	0
  4959  00EE  00D2               	movwf	___flmul@a
  4960  00EF                     l2528:
  4961  00EF  0860               	movf	___flmul@aexp,w
  4962  00F0  1903               	btfsc	3,2
  4963  00F1  28F3               	goto	u3131
  4964  00F2  28F4               	goto	u3130
  4965  00F3                     u3131:
  4966  00F3  28F9               	goto	l2532
  4967  00F4                     u3130:
  4968  00F4                     l2530:
  4969  00F4  0861               	movf	___flmul@bexp,w
  4970  00F5  1D03               	btfss	3,2
  4971  00F6  28F8               	goto	u3141
  4972  00F7  28F9               	goto	u3140
  4973  00F8                     u3141:
  4974  00F8  2902               	goto	l2536
  4975  00F9                     u3140:
  4976  00F9                     l2532:
  4977  00F9  3000               	movlw	0
  4978  00FA  00D1               	movwf	?___flmul+3
  4979  00FB  3000               	movlw	0
  4980  00FC  00D0               	movwf	?___flmul+2
  4981  00FD  3000               	movlw	0
  4982  00FE  00CF               	movwf	?___flmul+1
  4983  00FF  3000               	movlw	0
  4984  0100  00CE               	movwf	?___flmul
  4985  0101  2BF5               	goto	l765
  4986  0102                     l2536:
  4987  0102  084E               	movf	___flmul@b,w
  4988  0103  00D6               	movwf	??___flmul
  4989  0104  0856               	movf	??___flmul,w
  4990  0105  00F0               	movwf	__Umul8_16@multiplicand
  4991  0106  0854               	movf	___flmul@a+2,w
  4992  0107  160A  118A  24DF  120A  118A  	fcall	__Umul8_16
  4993  010C  0871               	movf	?__Umul8_16+1,w
  4994  010D  1283               	bcf	3,5	;RP0=0, select bank0
  4995  010E  1303               	bcf	3,6	;RP1=0, select bank0
  4996  010F  00E7               	movwf	___flmul@temp+1
  4997  0110  0870               	movf	?__Umul8_16,w
  4998  0111  00E6               	movwf	___flmul@temp
  4999  0112                     l2538:
  5000  0112  0866               	movf	___flmul@temp,w
  5001  0113  00D6               	movwf	??___flmul
  5002  0114  01D7               	clrf	??___flmul+1
  5003  0115  01D8               	clrf	??___flmul+2
  5004  0116  01D9               	clrf	??___flmul+3
  5005  0117  0859               	movf	??___flmul+3,w
  5006  0118  00DF               	movwf	___flmul@grs+3
  5007  0119  0858               	movf	??___flmul+2,w
  5008  011A  00DE               	movwf	___flmul@grs+2
  5009  011B  0857               	movf	??___flmul+1,w
  5010  011C  00DD               	movwf	___flmul@grs+1
  5011  011D  0856               	movf	??___flmul,w
  5012  011E  00DC               	movwf	___flmul@grs
  5013  011F                     l2540:
  5014  011F  0867               	movf	___flmul@temp+1,w
  5015  0120  00D6               	movwf	??___flmul
  5016  0121  01D7               	clrf	??___flmul+1
  5017  0122  01D8               	clrf	??___flmul+2
  5018  0123  01D9               	clrf	??___flmul+3
  5019  0124  0859               	movf	??___flmul+3,w
  5020  0125  00E5               	movwf	___flmul@prod+3
  5021  0126  0858               	movf	??___flmul+2,w
  5022  0127  00E4               	movwf	___flmul@prod+2
  5023  0128  0857               	movf	??___flmul+1,w
  5024  0129  00E3               	movwf	___flmul@prod+1
  5025  012A  0856               	movf	??___flmul,w
  5026  012B  00E2               	movwf	___flmul@prod
  5027  012C  084F               	movf	___flmul@b+1,w
  5028  012D  00D6               	movwf	??___flmul
  5029  012E  0856               	movf	??___flmul,w
  5030  012F  00F0               	movwf	__Umul8_16@multiplicand
  5031  0130  0853               	movf	___flmul@a+1,w
  5032  0131  160A  118A  24DF  120A  118A  	fcall	__Umul8_16
  5033  0136  0871               	movf	?__Umul8_16+1,w
  5034  0137  1283               	bcf	3,5	;RP0=0, select bank0
  5035  0138  1303               	bcf	3,6	;RP1=0, select bank0
  5036  0139  00E7               	movwf	___flmul@temp+1
  5037  013A  0870               	movf	?__Umul8_16,w
  5038  013B  00E6               	movwf	___flmul@temp
  5039  013C                     l2542:
  5040  013C  0866               	movf	___flmul@temp,w
  5041  013D  00D6               	movwf	??___flmul
  5042  013E  01D7               	clrf	??___flmul+1
  5043  013F  01D8               	clrf	??___flmul+2
  5044  0140  01D9               	clrf	??___flmul+3
  5045  0141  0856               	movf	??___flmul,w
  5046  0142  07DC               	addwf	___flmul@grs,f
  5047  0143  0857               	movf	??___flmul+1,w
  5048  0144  1103               	clrz
  5049  0145  1803               	skipnc
  5050  0146  3E01               	addlw	1
  5051  0147  1903               	skipnz
  5052  0148  294A               	goto	u3151
  5053  0149  07DD               	addwf	___flmul@grs+1,f
  5054  014A                     u3151:
  5055  014A  0858               	movf	??___flmul+2,w
  5056  014B  1103               	clrz
  5057  014C  1803               	skipnc
  5058  014D  3E01               	addlw	1
  5059  014E  1903               	skipnz
  5060  014F  2951               	goto	u3152
  5061  0150  07DE               	addwf	___flmul@grs+2,f
  5062  0151                     u3152:
  5063  0151  0859               	movf	??___flmul+3,w
  5064  0152  1103               	clrz
  5065  0153  1803               	skipnc
  5066  0154  3E01               	addlw	1
  5067  0155  1903               	skipnz
  5068  0156  2958               	goto	u3153
  5069  0157  07DF               	addwf	___flmul@grs+3,f
  5070  0158                     u3153:
  5071  0158                     l2544:
  5072  0158  0867               	movf	___flmul@temp+1,w
  5073  0159  00D6               	movwf	??___flmul
  5074  015A  01D7               	clrf	??___flmul+1
  5075  015B  01D8               	clrf	??___flmul+2
  5076  015C  01D9               	clrf	??___flmul+3
  5077  015D  0856               	movf	??___flmul,w
  5078  015E  07E2               	addwf	___flmul@prod,f
  5079  015F  0857               	movf	??___flmul+1,w
  5080  0160  1103               	clrz
  5081  0161  1803               	skipnc
  5082  0162  3E01               	addlw	1
  5083  0163  1903               	skipnz
  5084  0164  2966               	goto	u3161
  5085  0165  07E3               	addwf	___flmul@prod+1,f
  5086  0166                     u3161:
  5087  0166  0858               	movf	??___flmul+2,w
  5088  0167  1103               	clrz
  5089  0168  1803               	skipnc
  5090  0169  3E01               	addlw	1
  5091  016A  1903               	skipnz
  5092  016B  296D               	goto	u3162
  5093  016C  07E4               	addwf	___flmul@prod+2,f
  5094  016D                     u3162:
  5095  016D  0859               	movf	??___flmul+3,w
  5096  016E  1103               	clrz
  5097  016F  1803               	skipnc
  5098  0170  3E01               	addlw	1
  5099  0171  1903               	skipnz
  5100  0172  2974               	goto	u3163
  5101  0173  07E5               	addwf	___flmul@prod+3,f
  5102  0174                     u3163:
  5103  0174  0850               	movf	___flmul@b+2,w
  5104  0175  00D6               	movwf	??___flmul
  5105  0176  0856               	movf	??___flmul,w
  5106  0177  00F0               	movwf	__Umul8_16@multiplicand
  5107  0178  0852               	movf	___flmul@a,w
  5108  0179  160A  118A  24DF  120A  118A  	fcall	__Umul8_16
  5109  017E  0871               	movf	?__Umul8_16+1,w
  5110  017F  1283               	bcf	3,5	;RP0=0, select bank0
  5111  0180  1303               	bcf	3,6	;RP1=0, select bank0
  5112  0181  00E7               	movwf	___flmul@temp+1
  5113  0182  0870               	movf	?__Umul8_16,w
  5114  0183  00E6               	movwf	___flmul@temp
  5115  0184                     l2546:
  5116  0184  0866               	movf	___flmul@temp,w
  5117  0185  00D6               	movwf	??___flmul
  5118  0186  01D7               	clrf	??___flmul+1
  5119  0187  01D8               	clrf	??___flmul+2
  5120  0188  01D9               	clrf	??___flmul+3
  5121  0189  0856               	movf	??___flmul,w
  5122  018A  07DC               	addwf	___flmul@grs,f
  5123  018B  0857               	movf	??___flmul+1,w
  5124  018C  1103               	clrz
  5125  018D  1803               	skipnc
  5126  018E  3E01               	addlw	1
  5127  018F  1903               	skipnz
  5128  0190  2992               	goto	u3171
  5129  0191  07DD               	addwf	___flmul@grs+1,f
  5130  0192                     u3171:
  5131  0192  0858               	movf	??___flmul+2,w
  5132  0193  1103               	clrz
  5133  0194  1803               	skipnc
  5134  0195  3E01               	addlw	1
  5135  0196  1903               	skipnz
  5136  0197  2999               	goto	u3172
  5137  0198  07DE               	addwf	___flmul@grs+2,f
  5138  0199                     u3172:
  5139  0199  0859               	movf	??___flmul+3,w
  5140  019A  1103               	clrz
  5141  019B  1803               	skipnc
  5142  019C  3E01               	addlw	1
  5143  019D  1903               	skipnz
  5144  019E  29A0               	goto	u3173
  5145  019F  07DF               	addwf	___flmul@grs+3,f
  5146  01A0                     u3173:
  5147  01A0                     l2548:
  5148  01A0  0867               	movf	___flmul@temp+1,w
  5149  01A1  00D6               	movwf	??___flmul
  5150  01A2  01D7               	clrf	??___flmul+1
  5151  01A3  01D8               	clrf	??___flmul+2
  5152  01A4  01D9               	clrf	??___flmul+3
  5153  01A5  0856               	movf	??___flmul,w
  5154  01A6  07E2               	addwf	___flmul@prod,f
  5155  01A7  0857               	movf	??___flmul+1,w
  5156  01A8  1103               	clrz
  5157  01A9  1803               	skipnc
  5158  01AA  3E01               	addlw	1
  5159  01AB  1903               	skipnz
  5160  01AC  29AE               	goto	u3181
  5161  01AD  07E3               	addwf	___flmul@prod+1,f
  5162  01AE                     u3181:
  5163  01AE  0858               	movf	??___flmul+2,w
  5164  01AF  1103               	clrz
  5165  01B0  1803               	skipnc
  5166  01B1  3E01               	addlw	1
  5167  01B2  1903               	skipnz
  5168  01B3  29B5               	goto	u3182
  5169  01B4  07E4               	addwf	___flmul@prod+2,f
  5170  01B5                     u3182:
  5171  01B5  0859               	movf	??___flmul+3,w
  5172  01B6  1103               	clrz
  5173  01B7  1803               	skipnc
  5174  01B8  3E01               	addlw	1
  5175  01B9  1903               	skipnz
  5176  01BA  29BC               	goto	u3183
  5177  01BB  07E5               	addwf	___flmul@prod+3,f
  5178  01BC                     u3183:
  5179  01BC                     l2550:
  5180  01BC  3008               	movlw	8
  5181  01BD  00D6               	movwf	??___flmul
  5182  01BE                     u3195:
  5183  01BE  1003               	clrc
  5184  01BF  0DDC               	rlf	___flmul@grs,f
  5185  01C0  0DDD               	rlf	___flmul@grs+1,f
  5186  01C1  0DDE               	rlf	___flmul@grs+2,f
  5187  01C2  0DDF               	rlf	___flmul@grs+3,f
  5188  01C3  0BD6               	decfsz	??___flmul,f
  5189  01C4  29BE               	goto	u3195
  5190  01C5                     l2552:
  5191  01C5  084F               	movf	___flmul@b+1,w
  5192  01C6  00D6               	movwf	??___flmul
  5193  01C7  0856               	movf	??___flmul,w
  5194  01C8  00F0               	movwf	__Umul8_16@multiplicand
  5195  01C9  0852               	movf	___flmul@a,w
  5196  01CA  160A  118A  24DF  120A  118A  	fcall	__Umul8_16
  5197  01CF  0871               	movf	?__Umul8_16+1,w
  5198  01D0  1283               	bcf	3,5	;RP0=0, select bank0
  5199  01D1  1303               	bcf	3,6	;RP1=0, select bank0
  5200  01D2  00E7               	movwf	___flmul@temp+1
  5201  01D3  0870               	movf	?__Umul8_16,w
  5202  01D4  00E6               	movwf	___flmul@temp
  5203  01D5                     l2554:
  5204  01D5  0866               	movf	___flmul@temp,w
  5205  01D6  00D6               	movwf	??___flmul
  5206  01D7  0867               	movf	___flmul@temp+1,w
  5207  01D8  00D7               	movwf	??___flmul+1
  5208  01D9  01D8               	clrf	??___flmul+2
  5209  01DA  01D9               	clrf	??___flmul+3
  5210  01DB  0856               	movf	??___flmul,w
  5211  01DC  07DC               	addwf	___flmul@grs,f
  5212  01DD  0857               	movf	??___flmul+1,w
  5213  01DE  1103               	clrz
  5214  01DF  1803               	skipnc
  5215  01E0  3E01               	addlw	1
  5216  01E1  1903               	skipnz
  5217  01E2  29E4               	goto	u3201
  5218  01E3  07DD               	addwf	___flmul@grs+1,f
  5219  01E4                     u3201:
  5220  01E4  0858               	movf	??___flmul+2,w
  5221  01E5  1103               	clrz
  5222  01E6  1803               	skipnc
  5223  01E7  3E01               	addlw	1
  5224  01E8  1903               	skipnz
  5225  01E9  29EB               	goto	u3202
  5226  01EA  07DE               	addwf	___flmul@grs+2,f
  5227  01EB                     u3202:
  5228  01EB  0859               	movf	??___flmul+3,w
  5229  01EC  1103               	clrz
  5230  01ED  1803               	skipnc
  5231  01EE  3E01               	addlw	1
  5232  01EF  1903               	skipnz
  5233  01F0  29F2               	goto	u3203
  5234  01F1  07DF               	addwf	___flmul@grs+3,f
  5235  01F2                     u3203:
  5236  01F2                     l2556:
  5237  01F2  084E               	movf	___flmul@b,w
  5238  01F3  00D6               	movwf	??___flmul
  5239  01F4  0856               	movf	??___flmul,w
  5240  01F5  00F0               	movwf	__Umul8_16@multiplicand
  5241  01F6  0853               	movf	___flmul@a+1,w
  5242  01F7  160A  118A  24DF  120A  118A  	fcall	__Umul8_16
  5243  01FC  0871               	movf	?__Umul8_16+1,w
  5244  01FD  1283               	bcf	3,5	;RP0=0, select bank0
  5245  01FE  1303               	bcf	3,6	;RP1=0, select bank0
  5246  01FF  00E7               	movwf	___flmul@temp+1
  5247  0200  0870               	movf	?__Umul8_16,w
  5248  0201  00E6               	movwf	___flmul@temp
  5249  0202                     l2558:
  5250  0202  0866               	movf	___flmul@temp,w
  5251  0203  00D6               	movwf	??___flmul
  5252  0204  0867               	movf	___flmul@temp+1,w
  5253  0205  00D7               	movwf	??___flmul+1
  5254  0206  01D8               	clrf	??___flmul+2
  5255  0207  01D9               	clrf	??___flmul+3
  5256  0208  0856               	movf	??___flmul,w
  5257  0209  07DC               	addwf	___flmul@grs,f
  5258  020A  0857               	movf	??___flmul+1,w
  5259  020B  1103               	clrz
  5260  020C  1803               	skipnc
  5261  020D  3E01               	addlw	1
  5262  020E  1903               	skipnz
  5263  020F  2A11               	goto	u3211
  5264  0210  07DD               	addwf	___flmul@grs+1,f
  5265  0211                     u3211:
  5266  0211  0858               	movf	??___flmul+2,w
  5267  0212  1103               	clrz
  5268  0213  1803               	skipnc
  5269  0214  3E01               	addlw	1
  5270  0215  1903               	skipnz
  5271  0216  2A18               	goto	u3212
  5272  0217  07DE               	addwf	___flmul@grs+2,f
  5273  0218                     u3212:
  5274  0218  0859               	movf	??___flmul+3,w
  5275  0219  1103               	clrz
  5276  021A  1803               	skipnc
  5277  021B  3E01               	addlw	1
  5278  021C  1903               	skipnz
  5279  021D  2A1F               	goto	u3213
  5280  021E  07DF               	addwf	___flmul@grs+3,f
  5281  021F                     u3213:
  5282  021F                     l2560:
  5283  021F  3008               	movlw	8
  5284  0220  00D6               	movwf	??___flmul
  5285  0221                     u3225:
  5286  0221  1003               	clrc
  5287  0222  0DDC               	rlf	___flmul@grs,f
  5288  0223  0DDD               	rlf	___flmul@grs+1,f
  5289  0224  0DDE               	rlf	___flmul@grs+2,f
  5290  0225  0DDF               	rlf	___flmul@grs+3,f
  5291  0226  0BD6               	decfsz	??___flmul,f
  5292  0227  2A21               	goto	u3225
  5293  0228  084E               	movf	___flmul@b,w
  5294  0229  00D6               	movwf	??___flmul
  5295  022A  0856               	movf	??___flmul,w
  5296  022B  00F0               	movwf	__Umul8_16@multiplicand
  5297  022C  0852               	movf	___flmul@a,w
  5298  022D  160A  118A  24DF  120A  118A  	fcall	__Umul8_16
  5299  0232  0871               	movf	?__Umul8_16+1,w
  5300  0233  1283               	bcf	3,5	;RP0=0, select bank0
  5301  0234  1303               	bcf	3,6	;RP1=0, select bank0
  5302  0235  00E7               	movwf	___flmul@temp+1
  5303  0236  0870               	movf	?__Umul8_16,w
  5304  0237  00E6               	movwf	___flmul@temp
  5305  0238                     l2562:
  5306  0238  0866               	movf	___flmul@temp,w
  5307  0239  00D6               	movwf	??___flmul
  5308  023A  0867               	movf	___flmul@temp+1,w
  5309  023B  00D7               	movwf	??___flmul+1
  5310  023C  01D8               	clrf	??___flmul+2
  5311  023D  01D9               	clrf	??___flmul+3
  5312  023E  0856               	movf	??___flmul,w
  5313  023F  07DC               	addwf	___flmul@grs,f
  5314  0240  0857               	movf	??___flmul+1,w
  5315  0241  1103               	clrz
  5316  0242  1803               	skipnc
  5317  0243  3E01               	addlw	1
  5318  0244  1903               	skipnz
  5319  0245  2A47               	goto	u3231
  5320  0246  07DD               	addwf	___flmul@grs+1,f
  5321  0247                     u3231:
  5322  0247  0858               	movf	??___flmul+2,w
  5323  0248  1103               	clrz
  5324  0249  1803               	skipnc
  5325  024A  3E01               	addlw	1
  5326  024B  1903               	skipnz
  5327  024C  2A4E               	goto	u3232
  5328  024D  07DE               	addwf	___flmul@grs+2,f
  5329  024E                     u3232:
  5330  024E  0859               	movf	??___flmul+3,w
  5331  024F  1103               	clrz
  5332  0250  1803               	skipnc
  5333  0251  3E01               	addlw	1
  5334  0252  1903               	skipnz
  5335  0253  2A55               	goto	u3233
  5336  0254  07DF               	addwf	___flmul@grs+3,f
  5337  0255                     u3233:
  5338  0255                     l2564:
  5339  0255  084F               	movf	___flmul@b+1,w
  5340  0256  00D6               	movwf	??___flmul
  5341  0257  0856               	movf	??___flmul,w
  5342  0258  00F0               	movwf	__Umul8_16@multiplicand
  5343  0259  0854               	movf	___flmul@a+2,w
  5344  025A  160A  118A  24DF  120A  118A  	fcall	__Umul8_16
  5345  025F  0871               	movf	?__Umul8_16+1,w
  5346  0260  1283               	bcf	3,5	;RP0=0, select bank0
  5347  0261  1303               	bcf	3,6	;RP1=0, select bank0
  5348  0262  00E7               	movwf	___flmul@temp+1
  5349  0263  0870               	movf	?__Umul8_16,w
  5350  0264  00E6               	movwf	___flmul@temp
  5351  0265  0866               	movf	___flmul@temp,w
  5352  0266  00D6               	movwf	??___flmul
  5353  0267  0867               	movf	___flmul@temp+1,w
  5354  0268  00D7               	movwf	??___flmul+1
  5355  0269  01D8               	clrf	??___flmul+2
  5356  026A  01D9               	clrf	??___flmul+3
  5357  026B  0856               	movf	??___flmul,w
  5358  026C  07E2               	addwf	___flmul@prod,f
  5359  026D  0857               	movf	??___flmul+1,w
  5360  026E  1103               	clrz
  5361  026F  1803               	skipnc
  5362  0270  3E01               	addlw	1
  5363  0271  1903               	skipnz
  5364  0272  2A74               	goto	u3241
  5365  0273  07E3               	addwf	___flmul@prod+1,f
  5366  0274                     u3241:
  5367  0274  0858               	movf	??___flmul+2,w
  5368  0275  1103               	clrz
  5369  0276  1803               	skipnc
  5370  0277  3E01               	addlw	1
  5371  0278  1903               	skipnz
  5372  0279  2A7B               	goto	u3242
  5373  027A  07E4               	addwf	___flmul@prod+2,f
  5374  027B                     u3242:
  5375  027B  0859               	movf	??___flmul+3,w
  5376  027C  1103               	clrz
  5377  027D  1803               	skipnc
  5378  027E  3E01               	addlw	1
  5379  027F  1903               	skipnz
  5380  0280  2A82               	goto	u3243
  5381  0281  07E5               	addwf	___flmul@prod+3,f
  5382  0282                     u3243:
  5383  0282                     l2566:
  5384  0282  0850               	movf	___flmul@b+2,w
  5385  0283  00D6               	movwf	??___flmul
  5386  0284  0856               	movf	??___flmul,w
  5387  0285  00F0               	movwf	__Umul8_16@multiplicand
  5388  0286  0853               	movf	___flmul@a+1,w
  5389  0287  160A  118A  24DF  120A  118A  	fcall	__Umul8_16
  5390  028C  0871               	movf	?__Umul8_16+1,w
  5391  028D  1283               	bcf	3,5	;RP0=0, select bank0
  5392  028E  1303               	bcf	3,6	;RP1=0, select bank0
  5393  028F  00E7               	movwf	___flmul@temp+1
  5394  0290  0870               	movf	?__Umul8_16,w
  5395  0291  00E6               	movwf	___flmul@temp
  5396  0292                     l2568:
  5397  0292  0866               	movf	___flmul@temp,w
  5398  0293  00D6               	movwf	??___flmul
  5399  0294  0867               	movf	___flmul@temp+1,w
  5400  0295  00D7               	movwf	??___flmul+1
  5401  0296  01D8               	clrf	??___flmul+2
  5402  0297  01D9               	clrf	??___flmul+3
  5403  0298  0856               	movf	??___flmul,w
  5404  0299  07E2               	addwf	___flmul@prod,f
  5405  029A  0857               	movf	??___flmul+1,w
  5406  029B  1103               	clrz
  5407  029C  1803               	skipnc
  5408  029D  3E01               	addlw	1
  5409  029E  1903               	skipnz
  5410  029F  2AA1               	goto	u3251
  5411  02A0  07E3               	addwf	___flmul@prod+1,f
  5412  02A1                     u3251:
  5413  02A1  0858               	movf	??___flmul+2,w
  5414  02A2  1103               	clrz
  5415  02A3  1803               	skipnc
  5416  02A4  3E01               	addlw	1
  5417  02A5  1903               	skipnz
  5418  02A6  2AA8               	goto	u3252
  5419  02A7  07E4               	addwf	___flmul@prod+2,f
  5420  02A8                     u3252:
  5421  02A8  0859               	movf	??___flmul+3,w
  5422  02A9  1103               	clrz
  5423  02AA  1803               	skipnc
  5424  02AB  3E01               	addlw	1
  5425  02AC  1903               	skipnz
  5426  02AD  2AAF               	goto	u3253
  5427  02AE  07E5               	addwf	___flmul@prod+3,f
  5428  02AF                     u3253:
  5429  02AF  0850               	movf	___flmul@b+2,w
  5430  02B0  00D6               	movwf	??___flmul
  5431  02B1  0856               	movf	??___flmul,w
  5432  02B2  00F0               	movwf	__Umul8_16@multiplicand
  5433  02B3  0854               	movf	___flmul@a+2,w
  5434  02B4  160A  118A  24DF  120A  118A  	fcall	__Umul8_16
  5435  02B9  0871               	movf	?__Umul8_16+1,w
  5436  02BA  1283               	bcf	3,5	;RP0=0, select bank0
  5437  02BB  1303               	bcf	3,6	;RP1=0, select bank0
  5438  02BC  00E7               	movwf	___flmul@temp+1
  5439  02BD  0870               	movf	?__Umul8_16,w
  5440  02BE  00E6               	movwf	___flmul@temp
  5441  02BF                     l2570:
  5442  02BF  0866               	movf	___flmul@temp,w
  5443  02C0  00D6               	movwf	??___flmul
  5444  02C1  0867               	movf	___flmul@temp+1,w
  5445  02C2  00D7               	movwf	??___flmul+1
  5446  02C3  01D8               	clrf	??___flmul+2
  5447  02C4  01D9               	clrf	??___flmul+3
  5448  02C5  3008               	movlw	8
  5449  02C6                     u3265:
  5450  02C6  1003               	clrc
  5451  02C7  0DD6               	rlf	??___flmul,f
  5452  02C8  0DD7               	rlf	??___flmul+1,f
  5453  02C9  0DD8               	rlf	??___flmul+2,f
  5454  02CA  0DD9               	rlf	??___flmul+3,f
  5455  02CB                     u3260:
  5456  02CB  3EFF               	addlw	-1
  5457  02CC  1D03               	skipz
  5458  02CD  2AC6               	goto	u3265
  5459  02CE  0856               	movf	??___flmul,w
  5460  02CF  07E2               	addwf	___flmul@prod,f
  5461  02D0  0857               	movf	??___flmul+1,w
  5462  02D1  1103               	clrz
  5463  02D2  1803               	skipnc
  5464  02D3  3E01               	addlw	1
  5465  02D4  1903               	skipnz
  5466  02D5  2AD7               	goto	u3271
  5467  02D6  07E3               	addwf	___flmul@prod+1,f
  5468  02D7                     u3271:
  5469  02D7  0858               	movf	??___flmul+2,w
  5470  02D8  1103               	clrz
  5471  02D9  1803               	skipnc
  5472  02DA  3E01               	addlw	1
  5473  02DB  1903               	skipnz
  5474  02DC  2ADE               	goto	u3272
  5475  02DD  07E4               	addwf	___flmul@prod+2,f
  5476  02DE                     u3272:
  5477  02DE  0859               	movf	??___flmul+3,w
  5478  02DF  1103               	clrz
  5479  02E0  1803               	skipnc
  5480  02E1  3E01               	addlw	1
  5481  02E2  1903               	skipnz
  5482  02E3  2AE5               	goto	u3273
  5483  02E4  07E5               	addwf	___flmul@prod+3,f
  5484  02E5                     u3273:
  5485  02E5                     l2572:
  5486  02E5  085C               	movf	___flmul@grs,w
  5487  02E6  00D6               	movwf	??___flmul
  5488  02E7  085D               	movf	___flmul@grs+1,w
  5489  02E8  00D7               	movwf	??___flmul+1
  5490  02E9  085E               	movf	___flmul@grs+2,w
  5491  02EA  00D8               	movwf	??___flmul+2
  5492  02EB  085F               	movf	___flmul@grs+3,w
  5493  02EC  00D9               	movwf	??___flmul+3
  5494  02ED  3018               	movlw	24
  5495  02EE                     u3285:
  5496  02EE  1003               	clrc
  5497  02EF  0CD9               	rrf	??___flmul+3,f
  5498  02F0  0CD8               	rrf	??___flmul+2,f
  5499  02F1  0CD7               	rrf	??___flmul+1,f
  5500  02F2  0CD6               	rrf	??___flmul,f
  5501  02F3                     u3280:
  5502  02F3  3EFF               	addlw	-1
  5503  02F4  1D03               	skipz
  5504  02F5  2AEE               	goto	u3285
  5505  02F6  0856               	movf	??___flmul,w
  5506  02F7  07E2               	addwf	___flmul@prod,f
  5507  02F8  0857               	movf	??___flmul+1,w
  5508  02F9  1103               	clrz
  5509  02FA  1803               	skipnc
  5510  02FB  3E01               	addlw	1
  5511  02FC  1903               	skipnz
  5512  02FD  2AFF               	goto	u3291
  5513  02FE  07E3               	addwf	___flmul@prod+1,f
  5514  02FF                     u3291:
  5515  02FF  0858               	movf	??___flmul+2,w
  5516  0300  1103               	clrz
  5517  0301  1803               	skipnc
  5518  0302  3E01               	addlw	1
  5519  0303  1903               	skipnz
  5520  0304  2B06               	goto	u3292
  5521  0305  07E4               	addwf	___flmul@prod+2,f
  5522  0306                     u3292:
  5523  0306  0859               	movf	??___flmul+3,w
  5524  0307  1103               	clrz
  5525  0308  1803               	skipnc
  5526  0309  3E01               	addlw	1
  5527  030A  1903               	skipnz
  5528  030B  2B0D               	goto	u3293
  5529  030C  07E5               	addwf	___flmul@prod+3,f
  5530  030D                     u3293:
  5531  030D                     l2574:
  5532  030D  3008               	movlw	8
  5533  030E  00D6               	movwf	??___flmul
  5534  030F                     u3305:
  5535  030F  1003               	clrc
  5536  0310  0DDC               	rlf	___flmul@grs,f
  5537  0311  0DDD               	rlf	___flmul@grs+1,f
  5538  0312  0DDE               	rlf	___flmul@grs+2,f
  5539  0313  0DDF               	rlf	___flmul@grs+3,f
  5540  0314  0BD6               	decfsz	??___flmul,f
  5541  0315  2B0F               	goto	u3305
  5542  0316                     l2576:
  5543  0316  0861               	movf	___flmul@bexp,w
  5544  0317  0760               	addwf	___flmul@aexp,w
  5545  0318  00D6               	movwf	??___flmul
  5546  0319  01D7               	clrf	??___flmul+1
  5547  031A  0DD7               	rlf	??___flmul+1,f
  5548  031B  0856               	movf	??___flmul,w
  5549  031C  3E82               	addlw	130
  5550  031D  00E6               	movwf	___flmul@temp
  5551  031E  0857               	movf	??___flmul+1,w
  5552  031F  1803               	skipnc
  5553  0320  3E01               	addlw	1
  5554  0321  3EFF               	addlw	255
  5555  0322  00E7               	movwf	___flmul@temp+1
  5556  0323  2B41               	goto	l2588
  5557  0324                     l2578:
  5558  0324  3001               	movlw	1
  5559  0325  00D6               	movwf	??___flmul
  5560  0326                     u3315:
  5561  0326  1003               	clrc
  5562  0327  0DE2               	rlf	___flmul@prod,f
  5563  0328  0DE3               	rlf	___flmul@prod+1,f
  5564  0329  0DE4               	rlf	___flmul@prod+2,f
  5565  032A  0DE5               	rlf	___flmul@prod+3,f
  5566  032B  0BD6               	decfsz	??___flmul,f
  5567  032C  2B26               	goto	u3315
  5568  032D                     l2580:
  5569  032D  1FDF               	btfss	___flmul@grs+3,7
  5570  032E  2B30               	goto	u3321
  5571  032F  2B31               	goto	u3320
  5572  0330                     u3321:
  5573  0330  2B32               	goto	l2584
  5574  0331                     u3320:
  5575  0331                     l2582:
  5576  0331  1462               	bsf	___flmul@prod,0
  5577  0332                     l2584:
  5578  0332  3001               	movlw	1
  5579  0333  00D6               	movwf	??___flmul
  5580  0334                     u3335:
  5581  0334  1003               	clrc
  5582  0335  0DDC               	rlf	___flmul@grs,f
  5583  0336  0DDD               	rlf	___flmul@grs+1,f
  5584  0337  0DDE               	rlf	___flmul@grs+2,f
  5585  0338  0DDF               	rlf	___flmul@grs+3,f
  5586  0339  0BD6               	decfsz	??___flmul,f
  5587  033A  2B34               	goto	u3335
  5588  033B                     l2586:
  5589  033B  30FF               	movlw	255
  5590  033C  07E6               	addwf	___flmul@temp,f
  5591  033D  1803               	skipnc
  5592  033E  0AE7               	incf	___flmul@temp+1,f
  5593  033F  30FF               	movlw	255
  5594  0340  07E7               	addwf	___flmul@temp+1,f
  5595  0341                     l2588:
  5596  0341  1FE4               	btfss	___flmul@prod+2,7
  5597  0342  2B44               	goto	u3341
  5598  0343  2B45               	goto	u3340
  5599  0344                     u3341:
  5600  0344  2B24               	goto	l2578
  5601  0345                     u3340:
  5602  0345                     l2590:
  5603  0345  01E0               	clrf	___flmul@aexp
  5604  0346                     l2592:
  5605  0346  1FDF               	btfss	___flmul@grs+3,7
  5606  0347  2B49               	goto	u3351
  5607  0348  2B4A               	goto	u3350
  5608  0349                     u3351:
  5609  0349  2B66               	goto	l2600
  5610  034A                     u3350:
  5611  034A                     l2594:
  5612  034A  30FF               	movlw	255
  5613  034B  055C               	andwf	___flmul@grs,w
  5614  034C  00D6               	movwf	??___flmul
  5615  034D  30FF               	movlw	255
  5616  034E  055D               	andwf	___flmul@grs+1,w
  5617  034F  00D7               	movwf	??___flmul+1
  5618  0350  30FF               	movlw	255
  5619  0351  055E               	andwf	___flmul@grs+2,w
  5620  0352  00D8               	movwf	??___flmul+2
  5621  0353  307F               	movlw	127
  5622  0354  055F               	andwf	___flmul@grs+3,w
  5623  0355  00D9               	movwf	??___flmul+3
  5624  0356  0859               	movf	??___flmul+3,w
  5625  0357  0458               	iorwf	??___flmul+2,w
  5626  0358  0457               	iorwf	??___flmul+1,w
  5627  0359  0456               	iorwf	??___flmul,w
  5628  035A  1903               	skipnz
  5629  035B  2B5D               	goto	u3361
  5630  035C  2B5E               	goto	u3360
  5631  035D                     u3361:
  5632  035D  2B61               	goto	l771
  5633  035E                     u3360:
  5634  035E                     l2596:
  5635  035E  01E0               	clrf	___flmul@aexp
  5636  035F  0AE0               	incf	___flmul@aexp,f
  5637  0360  2B66               	goto	l2600
  5638  0361                     l771:
  5639  0361  1C62               	btfss	___flmul@prod,0
  5640  0362  2B64               	goto	u3371
  5641  0363  2B65               	goto	u3370
  5642  0364                     u3371:
  5643  0364  2B66               	goto	l2600
  5644  0365                     u3370:
  5645  0365  2B5E               	goto	l2596
  5646  0366                     l2600:
  5647  0366  0860               	movf	___flmul@aexp,w
  5648  0367  1903               	btfsc	3,2
  5649  0368  2B6A               	goto	u3381
  5650  0369  2B6B               	goto	u3380
  5651  036A                     u3381:
  5652  036A  2B9C               	goto	l2610
  5653  036B                     u3380:
  5654  036B                     l2602:
  5655  036B  3001               	movlw	1
  5656  036C  07E2               	addwf	___flmul@prod,f
  5657  036D  3000               	movlw	0
  5658  036E  1803               	skipnc
  5659  036F  3001               	movlw	1
  5660  0370  07E3               	addwf	___flmul@prod+1,f
  5661  0371  3000               	movlw	0
  5662  0372  1803               	skipnc
  5663  0373  3001               	movlw	1
  5664  0374  07E4               	addwf	___flmul@prod+2,f
  5665  0375  3000               	movlw	0
  5666  0376  1803               	skipnc
  5667  0377  3001               	movlw	1
  5668  0378  07E5               	addwf	___flmul@prod+3,f
  5669  0379                     l2604:
  5670  0379  1C65               	btfss	___flmul@prod+3,0
  5671  037A  2B7C               	goto	u3391
  5672  037B  2B7D               	goto	u3390
  5673  037C                     u3391:
  5674  037C  2B9C               	goto	l2610
  5675  037D                     u3390:
  5676  037D                     l2606:
  5677  037D  0862               	movf	___flmul@prod,w
  5678  037E  00D6               	movwf	??___flmul
  5679  037F  0863               	movf	___flmul@prod+1,w
  5680  0380  00D7               	movwf	??___flmul+1
  5681  0381  0864               	movf	___flmul@prod+2,w
  5682  0382  00D8               	movwf	??___flmul+2
  5683  0383  0865               	movf	___flmul@prod+3,w
  5684  0384  00D9               	movwf	??___flmul+3
  5685  0385  3001               	movlw	1
  5686  0386  00DA               	movwf	??___flmul+4
  5687  0387                     u3405:
  5688  0387  0D59               	rlf	??___flmul+3,w
  5689  0388  0CD9               	rrf	??___flmul+3,f
  5690  0389  0CD8               	rrf	??___flmul+2,f
  5691  038A  0CD7               	rrf	??___flmul+1,f
  5692  038B  0CD6               	rrf	??___flmul,f
  5693  038C                     u3400:
  5694  038C  0BDA               	decfsz	??___flmul+4,f
  5695  038D  2B87               	goto	u3405
  5696  038E  0859               	movf	??___flmul+3,w
  5697  038F  00E5               	movwf	___flmul@prod+3
  5698  0390  0858               	movf	??___flmul+2,w
  5699  0391  00E4               	movwf	___flmul@prod+2
  5700  0392  0857               	movf	??___flmul+1,w
  5701  0393  00E3               	movwf	___flmul@prod+1
  5702  0394  0856               	movf	??___flmul,w
  5703  0395  00E2               	movwf	___flmul@prod
  5704  0396                     l2608:
  5705  0396  3001               	movlw	1
  5706  0397  07E6               	addwf	___flmul@temp,f
  5707  0398  1803               	skipnc
  5708  0399  0AE7               	incf	___flmul@temp+1,f
  5709  039A  3000               	movlw	0
  5710  039B  07E7               	addwf	___flmul@temp+1,f
  5711  039C                     l2610:
  5712  039C  0867               	movf	___flmul@temp+1,w
  5713  039D  3A80               	xorlw	128
  5714  039E  00FF               	movwf	btemp+1
  5715  039F  3080               	movlw	128
  5716  03A0  027F               	subwf	btemp+1,w
  5717  03A1  1D03               	skipz
  5718  03A2  2BA5               	goto	u3415
  5719  03A3  30FF               	movlw	255
  5720  03A4  0266               	subwf	___flmul@temp,w
  5721  03A5                     u3415:
  5722  03A5  1C03               	skipc
  5723  03A6  2BA8               	goto	u3411
  5724  03A7  2BA9               	goto	u3410
  5725  03A8                     u3411:
  5726  03A8  2BB4               	goto	l2614
  5727  03A9                     u3410:
  5728  03A9                     l2612:
  5729  03A9  307F               	movlw	127
  5730  03AA  1283               	bcf	3,5	;RP0=0, select bank0
  5731  03AB  1303               	bcf	3,6	;RP1=0, select bank0
  5732  03AC  00E5               	movwf	___flmul@prod+3
  5733  03AD  3080               	movlw	128
  5734  03AE  00E4               	movwf	___flmul@prod+2
  5735  03AF  3000               	movlw	0
  5736  03B0  00E3               	movwf	___flmul@prod+1
  5737  03B1  3000               	movlw	0
  5738  03B2  00E2               	movwf	___flmul@prod
  5739  03B3  2BE9               	goto	l777
  5740  03B4                     l2614:
  5741  03B4  1283               	bcf	3,5	;RP0=0, select bank0
  5742  03B5  1303               	bcf	3,6	;RP1=0, select bank0
  5743  03B6  0867               	movf	___flmul@temp+1,w
  5744  03B7  3A80               	xorlw	128
  5745  03B8  00FF               	movwf	btemp+1
  5746  03B9  3080               	movlw	128
  5747  03BA  027F               	subwf	btemp+1,w
  5748  03BB  1D03               	skipz
  5749  03BC  2BBF               	goto	u3425
  5750  03BD  3001               	movlw	1
  5751  03BE  0266               	subwf	___flmul@temp,w
  5752  03BF                     u3425:
  5753  03BF  1803               	skipnc
  5754  03C0  2BC2               	goto	u3421
  5755  03C1  2BC3               	goto	u3420
  5756  03C2                     u3421:
  5757  03C2  2BCF               	goto	l2620
  5758  03C3                     u3420:
  5759  03C3                     l2616:
  5760  03C3  3000               	movlw	0
  5761  03C4  1283               	bcf	3,5	;RP0=0, select bank0
  5762  03C5  1303               	bcf	3,6	;RP1=0, select bank0
  5763  03C6  00E5               	movwf	___flmul@prod+3
  5764  03C7  3000               	movlw	0
  5765  03C8  00E4               	movwf	___flmul@prod+2
  5766  03C9  3000               	movlw	0
  5767  03CA  00E3               	movwf	___flmul@prod+1
  5768  03CB  3000               	movlw	0
  5769  03CC  00E2               	movwf	___flmul@prod
  5770  03CD                     l2618:
  5771  03CD  01DB               	clrf	___flmul@sign
  5772  03CE  2BE9               	goto	l777
  5773  03CF                     l2620:
  5774  03CF  1283               	bcf	3,5	;RP0=0, select bank0
  5775  03D0  1303               	bcf	3,6	;RP1=0, select bank0
  5776  03D1  0866               	movf	___flmul@temp,w
  5777  03D2  00D6               	movwf	??___flmul
  5778  03D3  0856               	movf	??___flmul,w
  5779  03D4  00E1               	movwf	___flmul@bexp
  5780  03D5  30FF               	movlw	255
  5781  03D6  05E2               	andwf	___flmul@prod,f
  5782  03D7  30FF               	movlw	255
  5783  03D8  05E3               	andwf	___flmul@prod+1,f
  5784  03D9  307F               	movlw	127
  5785  03DA  05E4               	andwf	___flmul@prod+2,f
  5786  03DB  3000               	movlw	0
  5787  03DC  05E5               	andwf	___flmul@prod+3,f
  5788  03DD                     l2622:
  5789  03DD  1C61               	btfss	___flmul@bexp,0
  5790  03DE  2BE0               	goto	u3431
  5791  03DF  2BE1               	goto	u3430
  5792  03E0                     u3431:
  5793  03E0  2BE2               	goto	l2626
  5794  03E1                     u3430:
  5795  03E1                     l2624:
  5796  03E1  17E4               	bsf	___flmul@prod+2,7
  5797  03E2                     l2626:
  5798  03E2  0861               	movf	___flmul@bexp,w
  5799  03E3  00D6               	movwf	??___flmul
  5800  03E4  1003               	clrc
  5801  03E5  0C56               	rrf	??___flmul,w
  5802  03E6  00D7               	movwf	??___flmul+1
  5803  03E7  0857               	movf	??___flmul+1,w
  5804  03E8  00E5               	movwf	___flmul@prod+3
  5805  03E9                     l777:
  5806  03E9  085B               	movf	___flmul@sign,w
  5807  03EA  00D6               	movwf	??___flmul
  5808  03EB  0856               	movf	??___flmul,w
  5809  03EC  04E5               	iorwf	___flmul@prod+3,f
  5810  03ED                     l2628:
  5811  03ED  0865               	movf	___flmul@prod+3,w
  5812  03EE  00D1               	movwf	?___flmul+3
  5813  03EF  0864               	movf	___flmul@prod+2,w
  5814  03F0  00D0               	movwf	?___flmul+2
  5815  03F1  0863               	movf	___flmul@prod+1,w
  5816  03F2  00CF               	movwf	?___flmul+1
  5817  03F3  0862               	movf	___flmul@prod,w
  5818  03F4  00CE               	movwf	?___flmul
  5819  03F5                     l765:
  5820  03F5  0008               	return
  5821  03F6                     __end_of___flmul:
  5822                           
  5823                           	psect	text11
  5824  14DF                     __ptext11:	
  5825 ;; *************** function __Umul8_16 *****************
  5826 ;; Defined at:
  5827 ;;		line 4 in file "C:\Program Files\Microchip\xc8\v2.31\pic\sources\c90\common\Umul8_16.c"
  5828 ;; Parameters:    Size  Location     Type
  5829 ;;  multiplier      1    wreg     unsigned char 
  5830 ;;  multiplicand    1    0[COMMON] unsigned char 
  5831 ;; Auto vars:     Size  Location     Type
  5832 ;;  multiplier      1    8[COMMON] unsigned char 
  5833 ;;  word_mpld       2    6[COMMON] unsigned int 
  5834 ;;  product         2    4[COMMON] unsigned int 
  5835 ;; Return value:  Size  Location     Type
  5836 ;;                  2    0[COMMON] unsigned int 
  5837 ;; Registers used:
  5838 ;;		wreg, status,2, status,0
  5839 ;; Tracked objects:
  5840 ;;		On entry : 0/0
  5841 ;;		On exit  : 0/0
  5842 ;;		Unchanged: 0/0
  5843 ;; Data sizes:     COMMON   BANK0   BANK1   BANK3   BANK2
  5844 ;;      Params:         2       0       0       0       0
  5845 ;;      Locals:         5       0       0       0       0
  5846 ;;      Temps:          2       0       0       0       0
  5847 ;;      Totals:         9       0       0       0       0
  5848 ;;Total ram usage:        9 bytes
  5849 ;; Hardware stack levels used:    1
  5850 ;; This function calls:
  5851 ;;		Nothing
  5852 ;; This function is called by:
  5853 ;;		___flmul
  5854 ;; This function uses a non-reentrant model
  5855 ;;
  5856                           
  5857                           
  5858                           ;psect for function __Umul8_16
  5859  14DF                     __Umul8_16:
  5860                           
  5861                           ;incstack = 0
  5862                           ; Regs used in __Umul8_16: [wreg+status,2+status,0]
  5863                           ;__Umul8_16@multiplier stored from wreg
  5864  14DF  00F8               	movwf	__Umul8_16@multiplier
  5865  14E0                     l2180:
  5866  14E0  01F4               	clrf	__Umul8_16@product
  5867  14E1  01F5               	clrf	__Umul8_16@product+1
  5868  14E2                     l2182:
  5869  14E2  0870               	movf	__Umul8_16@multiplicand,w
  5870  14E3  00F2               	movwf	??__Umul8_16
  5871  14E4  01F3               	clrf	??__Umul8_16+1
  5872  14E5  0872               	movf	??__Umul8_16,w
  5873  14E6  00F6               	movwf	__Umul8_16@word_mpld
  5874  14E7  0873               	movf	??__Umul8_16+1,w
  5875  14E8  00F7               	movwf	__Umul8_16@word_mpld+1
  5876  14E9                     l2184:
  5877  14E9  1C78               	btfss	__Umul8_16@multiplier,0
  5878  14EA  2CEC               	goto	u2411
  5879  14EB  2CED               	goto	u2410
  5880  14EC                     u2411:
  5881  14EC  2CF3               	goto	l784
  5882  14ED                     u2410:
  5883  14ED                     l2186:
  5884  14ED  0876               	movf	__Umul8_16@word_mpld,w
  5885  14EE  07F4               	addwf	__Umul8_16@product,f
  5886  14EF  1803               	skipnc
  5887  14F0  0AF5               	incf	__Umul8_16@product+1,f
  5888  14F1  0877               	movf	__Umul8_16@word_mpld+1,w
  5889  14F2  07F5               	addwf	__Umul8_16@product+1,f
  5890  14F3                     l784:
  5891  14F3  3001               	movlw	1
  5892  14F4                     u2425:
  5893  14F4  1003               	clrc
  5894  14F5  0DF6               	rlf	__Umul8_16@word_mpld,f
  5895  14F6  0DF7               	rlf	__Umul8_16@word_mpld+1,f
  5896  14F7  3EFF               	addlw	-1
  5897  14F8  1D03               	skipz
  5898  14F9  2CF4               	goto	u2425
  5899  14FA  1003               	clrc
  5900  14FB  0CF8               	rrf	__Umul8_16@multiplier,f
  5901  14FC                     l2188:
  5902  14FC  0878               	movf	__Umul8_16@multiplier,w
  5903  14FD  1D03               	btfss	3,2
  5904  14FE  2D00               	goto	u2431
  5905  14FF  2D01               	goto	u2430
  5906  1500                     u2431:
  5907  1500  2CE9               	goto	l2184
  5908  1501                     u2430:
  5909  1501                     l2190:
  5910  1501  0875               	movf	__Umul8_16@product+1,w
  5911  1502  00F1               	movwf	?__Umul8_16+1
  5912  1503  0874               	movf	__Umul8_16@product,w
  5913  1504  00F0               	movwf	?__Umul8_16
  5914  1505                     l786:
  5915  1505  0008               	return
  5916  1506                     __end_of__Umul8_16:
  5917                           
  5918                           	psect	text12
  5919  16A2                     __ptext12:	
  5920 ;; *************** function ___flge *****************
  5921 ;; Defined at:
  5922 ;;		line 4 in file "C:\Program Files\Microchip\xc8\v2.31\pic\sources\c90\common\flge.c"
  5923 ;; Parameters:    Size  Location     Type
  5924 ;;  ff1             4    0[COMMON] unsigned int 
  5925 ;;  ff2             4    4[COMMON] unsigned int 
  5926 ;; Auto vars:     Size  Location     Type
  5927 ;;		None
  5928 ;; Return value:  Size  Location     Type
  5929 ;;		None               void
  5930 ;; Registers used:
  5931 ;;		wreg, status,2, status,0
  5932 ;; Tracked objects:
  5933 ;;		On entry : 0/0
  5934 ;;		On exit  : 0/0
  5935 ;;		Unchanged: 0/0
  5936 ;; Data sizes:     COMMON   BANK0   BANK1   BANK3   BANK2
  5937 ;;      Params:         8       0       0       0       0
  5938 ;;      Locals:         0       0       0       0       0
  5939 ;;      Temps:          4       0       0       0       0
  5940 ;;      Totals:        12       0       0       0       0
  5941 ;;Total ram usage:       12 bytes
  5942 ;; Hardware stack levels used:    1
  5943 ;; This function calls:
  5944 ;;		Nothing
  5945 ;; This function is called by:
  5946 ;;		_convert
  5947 ;; This function uses a non-reentrant model
  5948 ;;
  5949                           
  5950                           
  5951                           ;psect for function ___flge
  5952  16A2                     ___flge:
  5953  16A2                     l2288:	
  5954                           ;incstack = 0
  5955                           ; Regs used in ___flge: [wreg+status,2+status,0]
  5956                           
  5957  16A2  3000               	movlw	0
  5958  16A3  0570               	andwf	___flge@ff1,w
  5959  16A4  00F8               	movwf	??___flge
  5960  16A5  3000               	movlw	0
  5961  16A6  0571               	andwf	___flge@ff1+1,w
  5962  16A7  00F9               	movwf	??___flge+1
  5963  16A8  3080               	movlw	128
  5964  16A9  0572               	andwf	___flge@ff1+2,w
  5965  16AA  00FA               	movwf	??___flge+2
  5966  16AB  307F               	movlw	127
  5967  16AC  0573               	andwf	___flge@ff1+3,w
  5968  16AD  00FB               	movwf	??___flge+3
  5969  16AE  087B               	movf	??___flge+3,w
  5970  16AF  047A               	iorwf	??___flge+2,w
  5971  16B0  0479               	iorwf	??___flge+1,w
  5972  16B1  0478               	iorwf	??___flge,w
  5973  16B2  1D03               	skipz
  5974  16B3  2EB5               	goto	u2611
  5975  16B4  2EB6               	goto	u2610
  5976  16B5                     u2611:
  5977  16B5  2EBE               	goto	l550
  5978  16B6                     u2610:
  5979  16B6                     l2290:
  5980  16B6  3000               	movlw	0
  5981  16B7  00F3               	movwf	___flge@ff1+3
  5982  16B8  3000               	movlw	0
  5983  16B9  00F2               	movwf	___flge@ff1+2
  5984  16BA  3000               	movlw	0
  5985  16BB  00F1               	movwf	___flge@ff1+1
  5986  16BC  3000               	movlw	0
  5987  16BD  00F0               	movwf	___flge@ff1
  5988  16BE                     l550:
  5989  16BE  3000               	movlw	0
  5990  16BF  0574               	andwf	___flge@ff2,w
  5991  16C0  00F8               	movwf	??___flge
  5992  16C1  3000               	movlw	0
  5993  16C2  0575               	andwf	___flge@ff2+1,w
  5994  16C3  00F9               	movwf	??___flge+1
  5995  16C4  3080               	movlw	128
  5996  16C5  0576               	andwf	___flge@ff2+2,w
  5997  16C6  00FA               	movwf	??___flge+2
  5998  16C7  307F               	movlw	127
  5999  16C8  0577               	andwf	___flge@ff2+3,w
  6000  16C9  00FB               	movwf	??___flge+3
  6001  16CA  087B               	movf	??___flge+3,w
  6002  16CB  047A               	iorwf	??___flge+2,w
  6003  16CC  0479               	iorwf	??___flge+1,w
  6004  16CD  0478               	iorwf	??___flge,w
  6005  16CE  1D03               	skipz
  6006  16CF  2ED1               	goto	u2621
  6007  16D0  2ED2               	goto	u2620
  6008  16D1                     u2621:
  6009  16D1  2EDA               	goto	l2294
  6010  16D2                     u2620:
  6011  16D2                     l2292:
  6012  16D2  3000               	movlw	0
  6013  16D3  00F7               	movwf	___flge@ff2+3
  6014  16D4  3000               	movlw	0
  6015  16D5  00F6               	movwf	___flge@ff2+2
  6016  16D6  3000               	movlw	0
  6017  16D7  00F5               	movwf	___flge@ff2+1
  6018  16D8  3000               	movlw	0
  6019  16D9  00F4               	movwf	___flge@ff2
  6020  16DA                     l2294:
  6021  16DA  1FF3               	btfss	___flge@ff1+3,7
  6022  16DB  2EDD               	goto	u2631
  6023  16DC  2EDE               	goto	u2630
  6024  16DD                     u2631:
  6025  16DD  2F02               	goto	l2298
  6026  16DE                     u2630:
  6027  16DE                     l2296:
  6028  16DE  3000               	movlw	0
  6029  16DF  00F8               	movwf	??___flge
  6030  16E0  3000               	movlw	0
  6031  16E1  00F9               	movwf	??___flge+1
  6032  16E2  3000               	movlw	0
  6033  16E3  00FA               	movwf	??___flge+2
  6034  16E4  3080               	movlw	128
  6035  16E5  00FB               	movwf	??___flge+3
  6036  16E6  0870               	movf	___flge@ff1,w
  6037  16E7  02F8               	subwf	??___flge,f
  6038  16E8  0871               	movf	___flge@ff1+1,w
  6039  16E9  1C03               	skipc
  6040  16EA  0F71               	incfsz	___flge@ff1+1,w
  6041  16EB  2EED               	goto	u2641
  6042  16EC  2EEE               	goto	u2642
  6043  16ED                     u2641:
  6044  16ED  02F9               	subwf	??___flge+1,f
  6045  16EE                     u2642:
  6046  16EE  0872               	movf	___flge@ff1+2,w
  6047  16EF  1C03               	skipc
  6048  16F0  0F72               	incfsz	___flge@ff1+2,w
  6049  16F1  2EF3               	goto	u2643
  6050  16F2  2EF4               	goto	u2644
  6051  16F3                     u2643:
  6052  16F3  02FA               	subwf	??___flge+2,f
  6053  16F4                     u2644:
  6054  16F4  0873               	movf	___flge@ff1+3,w
  6055  16F5  1C03               	skipc
  6056  16F6  0F73               	incfsz	___flge@ff1+3,w
  6057  16F7  2EF9               	goto	u2645
  6058  16F8  2EFA               	goto	u2646
  6059  16F9                     u2645:
  6060  16F9  02FB               	subwf	??___flge+3,f
  6061  16FA                     u2646:
  6062  16FA  087B               	movf	??___flge+3,w
  6063  16FB  00F3               	movwf	___flge@ff1+3
  6064  16FC  087A               	movf	??___flge+2,w
  6065  16FD  00F2               	movwf	___flge@ff1+2
  6066  16FE  0879               	movf	??___flge+1,w
  6067  16FF  00F1               	movwf	___flge@ff1+1
  6068  1700  0878               	movf	??___flge,w
  6069  1701  00F0               	movwf	___flge@ff1
  6070  1702                     l2298:
  6071  1702  1FF7               	btfss	___flge@ff2+3,7
  6072  1703  2F05               	goto	u2651
  6073  1704  2F06               	goto	u2650
  6074  1705                     u2651:
  6075  1705  2F2A               	goto	l553
  6076  1706                     u2650:
  6077  1706                     l2300:
  6078  1706  3000               	movlw	0
  6079  1707  00F8               	movwf	??___flge
  6080  1708  3000               	movlw	0
  6081  1709  00F9               	movwf	??___flge+1
  6082  170A  3000               	movlw	0
  6083  170B  00FA               	movwf	??___flge+2
  6084  170C  3080               	movlw	128
  6085  170D  00FB               	movwf	??___flge+3
  6086  170E  0874               	movf	___flge@ff2,w
  6087  170F  02F8               	subwf	??___flge,f
  6088  1710  0875               	movf	___flge@ff2+1,w
  6089  1711  1C03               	skipc
  6090  1712  0F75               	incfsz	___flge@ff2+1,w
  6091  1713  2F15               	goto	u2661
  6092  1714  2F16               	goto	u2662
  6093  1715                     u2661:
  6094  1715  02F9               	subwf	??___flge+1,f
  6095  1716                     u2662:
  6096  1716  0876               	movf	___flge@ff2+2,w
  6097  1717  1C03               	skipc
  6098  1718  0F76               	incfsz	___flge@ff2+2,w
  6099  1719  2F1B               	goto	u2663
  6100  171A  2F1C               	goto	u2664
  6101  171B                     u2663:
  6102  171B  02FA               	subwf	??___flge+2,f
  6103  171C                     u2664:
  6104  171C  0877               	movf	___flge@ff2+3,w
  6105  171D  1C03               	skipc
  6106  171E  0F77               	incfsz	___flge@ff2+3,w
  6107  171F  2F21               	goto	u2665
  6108  1720  2F22               	goto	u2666
  6109  1721                     u2665:
  6110  1721  02FB               	subwf	??___flge+3,f
  6111  1722                     u2666:
  6112  1722  087B               	movf	??___flge+3,w
  6113  1723  00F7               	movwf	___flge@ff2+3
  6114  1724  087A               	movf	??___flge+2,w
  6115  1725  00F6               	movwf	___flge@ff2+2
  6116  1726  0879               	movf	??___flge+1,w
  6117  1727  00F5               	movwf	___flge@ff2+1
  6118  1728  0878               	movf	??___flge,w
  6119  1729  00F4               	movwf	___flge@ff2
  6120  172A                     l553:
  6121  172A  3080               	movlw	128
  6122  172B  06F3               	xorwf	___flge@ff1+3,f
  6123  172C  3080               	movlw	128
  6124  172D  06F7               	xorwf	___flge@ff2+3,f
  6125  172E  0877               	movf	___flge@ff2+3,w
  6126  172F  0273               	subwf	___flge@ff1+3,w
  6127  1730  1D03               	skipz
  6128  1731  2F3C               	goto	u2675
  6129  1732  0876               	movf	___flge@ff2+2,w
  6130  1733  0272               	subwf	___flge@ff1+2,w
  6131  1734  1D03               	skipz
  6132  1735  2F3C               	goto	u2675
  6133  1736  0875               	movf	___flge@ff2+1,w
  6134  1737  0271               	subwf	___flge@ff1+1,w
  6135  1738  1D03               	skipz
  6136  1739  2F3C               	goto	u2675
  6137  173A  0874               	movf	___flge@ff2,w
  6138  173B  0270               	subwf	___flge@ff1,w
  6139  173C                     u2675:
  6140  173C  1803               	skipnc
  6141  173D  2F3F               	goto	u2671
  6142  173E  2F40               	goto	u2670
  6143  173F                     u2671:
  6144  173F  2F42               	goto	l2304
  6145  1740                     u2670:
  6146  1740                     l2302:
  6147  1740  1003               	clrc
  6148  1741  2F43               	goto	l554
  6149  1742                     l2304:
  6150  1742  1403               	setc
  6151  1743                     l554:
  6152  1743  0008               	return
  6153  1744                     __end_of___flge:
  6154                           
  6155                           	psect	text13
  6156  084C                     __ptext13:	
  6157 ;; *************** function ___fldiv *****************
  6158 ;; Defined at:
  6159 ;;		line 8 in file "C:\Program Files\Microchip\xc8\v2.31\pic\sources\c90\common\sprcdiv.c"
  6160 ;; Parameters:    Size  Location     Type
  6161 ;;  a               4   18[BANK0 ] unsigned int 
  6162 ;;  b               4   22[BANK0 ] unsigned int 
  6163 ;; Auto vars:     Size  Location     Type
  6164 ;;  grs             4   38[BANK0 ] unsigned long 
  6165 ;;  rem             4   31[BANK0 ] unsigned long 
  6166 ;;  new_exp         2   36[BANK0 ] int 
  6167 ;;  aexp            1   43[BANK0 ] unsigned char 
  6168 ;;  bexp            1   42[BANK0 ] unsigned char 
  6169 ;;  sign            1   35[BANK0 ] unsigned char 
  6170 ;; Return value:  Size  Location     Type
  6171 ;;                  4   18[BANK0 ] unsigned char 
  6172 ;; Registers used:
  6173 ;;		wreg, status,2, status,0, btemp+1
  6174 ;; Tracked objects:
  6175 ;;		On entry : 0/0
  6176 ;;		On exit  : 0/0
  6177 ;;		Unchanged: 0/0
  6178 ;; Data sizes:     COMMON   BANK0   BANK1   BANK3   BANK2
  6179 ;;      Params:         0       8       0       0       0
  6180 ;;      Locals:         0      13       0       0       0
  6181 ;;      Temps:          0       5       0       0       0
  6182 ;;      Totals:         0      26       0       0       0
  6183 ;;Total ram usage:       26 bytes
  6184 ;; Hardware stack levels used:    1
  6185 ;; This function calls:
  6186 ;;		Nothing
  6187 ;; This function is called by:
  6188 ;;		_main
  6189 ;;		_convert
  6190 ;; This function uses a non-reentrant model
  6191 ;;
  6192                           
  6193                           
  6194                           ;psect for function ___fldiv
  6195  084C                     ___fldiv:
  6196  084C                     l2350:	
  6197                           ;incstack = 0
  6198                           ; Regs used in ___fldiv: [wreg+status,2+status,0+btemp+1]
  6199                           
  6200  084C  1283               	bcf	3,5	;RP0=0, select bank0
  6201  084D  1303               	bcf	3,6	;RP1=0, select bank0
  6202  084E  0839               	movf	___fldiv@b+3,w
  6203  084F  3980               	andlw	128
  6204  0850  00BA               	movwf	??___fldiv
  6205  0851  083A               	movf	??___fldiv,w
  6206  0852  00C3               	movwf	___fldiv@sign
  6207  0853                     l2352:
  6208  0853  0839               	movf	___fldiv@b+3,w
  6209  0854  00BA               	movwf	??___fldiv
  6210  0855  073A               	addwf	??___fldiv,w
  6211  0856  00BB               	movwf	??___fldiv+1
  6212  0857  083B               	movf	??___fldiv+1,w
  6213  0858  00CA               	movwf	___fldiv@bexp
  6214  0859                     l2354:
  6215  0859  1FB8               	btfss	___fldiv@b+2,7
  6216  085A  285C               	goto	u2781
  6217  085B  285D               	goto	u2780
  6218  085C                     u2781:
  6219  085C  285E               	goto	l2358
  6220  085D                     u2780:
  6221  085D                     l2356:
  6222  085D  144A               	bsf	___fldiv@bexp,0
  6223  085E                     l2358:
  6224  085E  084A               	movf	___fldiv@bexp,w
  6225  085F  1903               	btfsc	3,2
  6226  0860  2862               	goto	u2791
  6227  0861  2863               	goto	u2790
  6228  0862                     u2791:
  6229  0862  2873               	goto	l2368
  6230  0863                     u2790:
  6231  0863                     l2360:
  6232  0863  0A4A               	incf	___fldiv@bexp,w
  6233  0864  1D03               	btfss	3,2
  6234  0865  2867               	goto	u2801
  6235  0866  2868               	goto	u2800
  6236  0867                     u2801:
  6237  0867  2870               	goto	l2364
  6238  0868                     u2800:
  6239  0868                     l2362:
  6240  0868  3000               	movlw	0
  6241  0869  00B9               	movwf	___fldiv@b+3
  6242  086A  3000               	movlw	0
  6243  086B  00B8               	movwf	___fldiv@b+2
  6244  086C  3000               	movlw	0
  6245  086D  00B7               	movwf	___fldiv@b+1
  6246  086E  3000               	movlw	0
  6247  086F  00B6               	movwf	___fldiv@b
  6248  0870                     l2364:
  6249  0870  17B8               	bsf	___fldiv@b+2,7
  6250  0871                     l2366:
  6251  0871  01B9               	clrf	___fldiv@b+3
  6252  0872  287B               	goto	l2370
  6253  0873                     l2368:
  6254  0873  3000               	movlw	0
  6255  0874  00B9               	movwf	___fldiv@b+3
  6256  0875  3000               	movlw	0
  6257  0876  00B8               	movwf	___fldiv@b+2
  6258  0877  3000               	movlw	0
  6259  0878  00B7               	movwf	___fldiv@b+1
  6260  0879  3000               	movlw	0
  6261  087A  00B6               	movwf	___fldiv@b
  6262  087B                     l2370:
  6263  087B  0835               	movf	___fldiv@a+3,w
  6264  087C  3980               	andlw	128
  6265  087D  00BA               	movwf	??___fldiv
  6266  087E  083A               	movf	??___fldiv,w
  6267  087F  06C3               	xorwf	___fldiv@sign,f
  6268  0880                     l2372:
  6269  0880  0835               	movf	___fldiv@a+3,w
  6270  0881  00BA               	movwf	??___fldiv
  6271  0882  073A               	addwf	??___fldiv,w
  6272  0883  00BB               	movwf	??___fldiv+1
  6273  0884  083B               	movf	??___fldiv+1,w
  6274  0885  00CB               	movwf	___fldiv@aexp
  6275  0886                     l2374:
  6276  0886  1FB4               	btfss	___fldiv@a+2,7
  6277  0887  2889               	goto	u2811
  6278  0888  288A               	goto	u2810
  6279  0889                     u2811:
  6280  0889  288B               	goto	l2378
  6281  088A                     u2810:
  6282  088A                     l2376:
  6283  088A  144B               	bsf	___fldiv@aexp,0
  6284  088B                     l2378:
  6285  088B  084B               	movf	___fldiv@aexp,w
  6286  088C  1903               	btfsc	3,2
  6287  088D  288F               	goto	u2821
  6288  088E  2890               	goto	u2820
  6289  088F                     u2821:
  6290  088F  28A0               	goto	l2388
  6291  0890                     u2820:
  6292  0890                     l2380:
  6293  0890  0A4B               	incf	___fldiv@aexp,w
  6294  0891  1D03               	btfss	3,2
  6295  0892  2894               	goto	u2831
  6296  0893  2895               	goto	u2830
  6297  0894                     u2831:
  6298  0894  289D               	goto	l2384
  6299  0895                     u2830:
  6300  0895                     l2382:
  6301  0895  3000               	movlw	0
  6302  0896  00B5               	movwf	___fldiv@a+3
  6303  0897  3000               	movlw	0
  6304  0898  00B4               	movwf	___fldiv@a+2
  6305  0899  3000               	movlw	0
  6306  089A  00B3               	movwf	___fldiv@a+1
  6307  089B  3000               	movlw	0
  6308  089C  00B2               	movwf	___fldiv@a
  6309  089D                     l2384:
  6310  089D  17B4               	bsf	___fldiv@a+2,7
  6311  089E                     l2386:
  6312  089E  01B5               	clrf	___fldiv@a+3
  6313  089F  28A8               	goto	l725
  6314  08A0                     l2388:
  6315  08A0  3000               	movlw	0
  6316  08A1  00B5               	movwf	___fldiv@a+3
  6317  08A2  3000               	movlw	0
  6318  08A3  00B4               	movwf	___fldiv@a+2
  6319  08A4  3000               	movlw	0
  6320  08A5  00B3               	movwf	___fldiv@a+1
  6321  08A6  3000               	movlw	0
  6322  08A7  00B2               	movwf	___fldiv@a
  6323  08A8                     l725:
  6324  08A8  0835               	movf	___fldiv@a+3,w
  6325  08A9  0434               	iorwf	___fldiv@a+2,w
  6326  08AA  0433               	iorwf	___fldiv@a+1,w
  6327  08AB  0432               	iorwf	___fldiv@a,w
  6328  08AC  1D03               	skipz
  6329  08AD  28AF               	goto	u2841
  6330  08AE  28B0               	goto	u2840
  6331  08AF                     u2841:
  6332  08AF  28C9               	goto	l2398
  6333  08B0                     u2840:
  6334  08B0                     l2390:
  6335  08B0  3000               	movlw	0
  6336  08B1  00B9               	movwf	___fldiv@b+3
  6337  08B2  3000               	movlw	0
  6338  08B3  00B8               	movwf	___fldiv@b+2
  6339  08B4  3000               	movlw	0
  6340  08B5  00B7               	movwf	___fldiv@b+1
  6341  08B6  3000               	movlw	0
  6342  08B7  00B6               	movwf	___fldiv@b
  6343  08B8  3080               	movlw	128
  6344  08B9  04B8               	iorwf	___fldiv@b+2,f
  6345  08BA  307F               	movlw	127
  6346  08BB  04B9               	iorwf	___fldiv@b+3,f
  6347  08BC                     l2392:
  6348  08BC  0843               	movf	___fldiv@sign,w
  6349  08BD  00BA               	movwf	??___fldiv
  6350  08BE  083A               	movf	??___fldiv,w
  6351  08BF  04B9               	iorwf	___fldiv@b+3,f
  6352  08C0                     l2394:
  6353  08C0  0839               	movf	___fldiv@b+3,w
  6354  08C1  00B5               	movwf	?___fldiv+3
  6355  08C2  0838               	movf	___fldiv@b+2,w
  6356  08C3  00B4               	movwf	?___fldiv+2
  6357  08C4  0837               	movf	___fldiv@b+1,w
  6358  08C5  00B3               	movwf	?___fldiv+1
  6359  08C6  0836               	movf	___fldiv@b,w
  6360  08C7  00B2               	movwf	?___fldiv
  6361  08C8  2A28               	goto	l727
  6362  08C9                     l2398:
  6363  08C9  084A               	movf	___fldiv@bexp,w
  6364  08CA  1D03               	btfss	3,2
  6365  08CB  28CD               	goto	u2851
  6366  08CC  28CE               	goto	u2850
  6367  08CD                     u2851:
  6368  08CD  28D7               	goto	l2404
  6369  08CE                     u2850:
  6370  08CE                     l2400:
  6371  08CE  3000               	movlw	0
  6372  08CF  00B5               	movwf	?___fldiv+3
  6373  08D0  3000               	movlw	0
  6374  08D1  00B4               	movwf	?___fldiv+2
  6375  08D2  3000               	movlw	0
  6376  08D3  00B3               	movwf	?___fldiv+1
  6377  08D4  3000               	movlw	0
  6378  08D5  00B2               	movwf	?___fldiv
  6379  08D6  2A28               	goto	l727
  6380  08D7                     l2404:
  6381  08D7  084A               	movf	___fldiv@bexp,w
  6382  08D8  00BA               	movwf	??___fldiv
  6383  08D9  01BB               	clrf	??___fldiv+1
  6384  08DA  083B               	movf	??___fldiv+1,w
  6385  08DB  00BD               	movwf	??___fldiv+3
  6386  08DC  084B               	movf	___fldiv@aexp,w
  6387  08DD  023A               	subwf	??___fldiv,w
  6388  08DE  00BC               	movwf	??___fldiv+2
  6389  08DF  1C03               	skipc
  6390  08E0  03BD               	decf	??___fldiv+3,f
  6391  08E1  083C               	movf	??___fldiv+2,w
  6392  08E2  3E7F               	addlw	127
  6393  08E3  00C4               	movwf	___fldiv@new_exp
  6394  08E4  083D               	movf	??___fldiv+3,w
  6395  08E5  1803               	skipnc
  6396  08E6  3E01               	addlw	1
  6397  08E7  3E00               	addlw	0
  6398  08E8  00C5               	movwf	___fldiv@new_exp+1
  6399  08E9                     l2406:
  6400  08E9  0839               	movf	___fldiv@b+3,w
  6401  08EA  00C2               	movwf	___fldiv@rem+3
  6402  08EB  0838               	movf	___fldiv@b+2,w
  6403  08EC  00C1               	movwf	___fldiv@rem+2
  6404  08ED  0837               	movf	___fldiv@b+1,w
  6405  08EE  00C0               	movwf	___fldiv@rem+1
  6406  08EF  0836               	movf	___fldiv@b,w
  6407  08F0  00BF               	movwf	___fldiv@rem
  6408  08F1                     l2408:
  6409  08F1  3000               	movlw	0
  6410  08F2  00B9               	movwf	___fldiv@b+3
  6411  08F3  3000               	movlw	0
  6412  08F4  00B8               	movwf	___fldiv@b+2
  6413  08F5  3000               	movlw	0
  6414  08F6  00B7               	movwf	___fldiv@b+1
  6415  08F7  3000               	movlw	0
  6416  08F8  00B6               	movwf	___fldiv@b
  6417  08F9                     l2410:
  6418  08F9  3000               	movlw	0
  6419  08FA  00C9               	movwf	___fldiv@grs+3
  6420  08FB  3000               	movlw	0
  6421  08FC  00C8               	movwf	___fldiv@grs+2
  6422  08FD  3000               	movlw	0
  6423  08FE  00C7               	movwf	___fldiv@grs+1
  6424  08FF  3000               	movlw	0
  6425  0900  00C6               	movwf	___fldiv@grs
  6426  0901                     l2412:
  6427  0901  01CB               	clrf	___fldiv@aexp
  6428  0902  294D               	goto	l2432
  6429  0903                     l2414:
  6430  0903  084B               	movf	___fldiv@aexp,w
  6431  0904  1903               	btfsc	3,2
  6432  0905  2907               	goto	u2861
  6433  0906  2908               	goto	u2860
  6434  0907                     u2861:
  6435  0907  2928               	goto	l2424
  6436  0908                     u2860:
  6437  0908                     l2416:
  6438  0908  3001               	movlw	1
  6439  0909  00BA               	movwf	??___fldiv
  6440  090A                     u2875:
  6441  090A  1003               	clrc
  6442  090B  0DBF               	rlf	___fldiv@rem,f
  6443  090C  0DC0               	rlf	___fldiv@rem+1,f
  6444  090D  0DC1               	rlf	___fldiv@rem+2,f
  6445  090E  0DC2               	rlf	___fldiv@rem+3,f
  6446  090F  0BBA               	decfsz	??___fldiv,f
  6447  0910  290A               	goto	u2875
  6448  0911  3001               	movlw	1
  6449  0912  00BA               	movwf	??___fldiv
  6450  0913                     u2885:
  6451  0913  1003               	clrc
  6452  0914  0DB6               	rlf	___fldiv@b,f
  6453  0915  0DB7               	rlf	___fldiv@b+1,f
  6454  0916  0DB8               	rlf	___fldiv@b+2,f
  6455  0917  0DB9               	rlf	___fldiv@b+3,f
  6456  0918  0BBA               	decfsz	??___fldiv,f
  6457  0919  2913               	goto	u2885
  6458  091A                     l2418:
  6459  091A  1FC9               	btfss	___fldiv@grs+3,7
  6460  091B  291D               	goto	u2891
  6461  091C  291E               	goto	u2890
  6462  091D                     u2891:
  6463  091D  291F               	goto	l2422
  6464  091E                     u2890:
  6465  091E                     l2420:
  6466  091E  1436               	bsf	___fldiv@b,0
  6467  091F                     l2422:
  6468  091F  3001               	movlw	1
  6469  0920  00BA               	movwf	??___fldiv
  6470  0921                     u2905:
  6471  0921  1003               	clrc
  6472  0922  0DC6               	rlf	___fldiv@grs,f
  6473  0923  0DC7               	rlf	___fldiv@grs+1,f
  6474  0924  0DC8               	rlf	___fldiv@grs+2,f
  6475  0925  0DC9               	rlf	___fldiv@grs+3,f
  6476  0926  0BBA               	decfsz	??___fldiv,f
  6477  0927  2921               	goto	u2905
  6478  0928                     l2424:
  6479  0928  0835               	movf	___fldiv@a+3,w
  6480  0929  0242               	subwf	___fldiv@rem+3,w
  6481  092A  1D03               	skipz
  6482  092B  2936               	goto	u2915
  6483  092C  0834               	movf	___fldiv@a+2,w
  6484  092D  0241               	subwf	___fldiv@rem+2,w
  6485  092E  1D03               	skipz
  6486  092F  2936               	goto	u2915
  6487  0930  0833               	movf	___fldiv@a+1,w
  6488  0931  0240               	subwf	___fldiv@rem+1,w
  6489  0932  1D03               	skipz
  6490  0933  2936               	goto	u2915
  6491  0934  0832               	movf	___fldiv@a,w
  6492  0935  023F               	subwf	___fldiv@rem,w
  6493  0936                     u2915:
  6494  0936  1C03               	skipc
  6495  0937  2939               	goto	u2911
  6496  0938  293A               	goto	u2910
  6497  0939                     u2911:
  6498  0939  2949               	goto	l2430
  6499  093A                     u2910:
  6500  093A                     l2426:
  6501  093A  1749               	bsf	___fldiv@grs+3,6
  6502  093B                     l2428:
  6503  093B  0832               	movf	___fldiv@a,w
  6504  093C  02BF               	subwf	___fldiv@rem,f
  6505  093D  0833               	movf	___fldiv@a+1,w
  6506  093E  1C03               	skipc
  6507  093F  0F33               	incfsz	___fldiv@a+1,w
  6508  0940  02C0               	subwf	___fldiv@rem+1,f
  6509  0941  0834               	movf	___fldiv@a+2,w
  6510  0942  1C03               	skipc
  6511  0943  0F34               	incfsz	___fldiv@a+2,w
  6512  0944  02C1               	subwf	___fldiv@rem+2,f
  6513  0945  0835               	movf	___fldiv@a+3,w
  6514  0946  1C03               	skipc
  6515  0947  0F35               	incfsz	___fldiv@a+3,w
  6516  0948  02C2               	subwf	___fldiv@rem+3,f
  6517  0949                     l2430:
  6518  0949  3001               	movlw	1
  6519  094A  00BA               	movwf	??___fldiv
  6520  094B  083A               	movf	??___fldiv,w
  6521  094C  07CB               	addwf	___fldiv@aexp,f
  6522  094D                     l2432:
  6523  094D  301A               	movlw	26
  6524  094E  024B               	subwf	___fldiv@aexp,w
  6525  094F  1C03               	skipc
  6526  0950  2952               	goto	u2921
  6527  0951  2953               	goto	u2920
  6528  0952                     u2921:
  6529  0952  2903               	goto	l2414
  6530  0953                     u2920:
  6531  0953                     l2434:
  6532  0953  0842               	movf	___fldiv@rem+3,w
  6533  0954  0441               	iorwf	___fldiv@rem+2,w
  6534  0955  0440               	iorwf	___fldiv@rem+1,w
  6535  0956  043F               	iorwf	___fldiv@rem,w
  6536  0957  1903               	skipnz
  6537  0958  295A               	goto	u2931
  6538  0959  295B               	goto	u2930
  6539  095A                     u2931:
  6540  095A  297A               	goto	l2448
  6541  095B                     u2930:
  6542  095B                     l2436:
  6543  095B  1446               	bsf	___fldiv@grs,0
  6544  095C  297A               	goto	l2448
  6545  095D                     l2438:
  6546  095D  3001               	movlw	1
  6547  095E  00BA               	movwf	??___fldiv
  6548  095F                     u2945:
  6549  095F  1003               	clrc
  6550  0960  0DB6               	rlf	___fldiv@b,f
  6551  0961  0DB7               	rlf	___fldiv@b+1,f
  6552  0962  0DB8               	rlf	___fldiv@b+2,f
  6553  0963  0DB9               	rlf	___fldiv@b+3,f
  6554  0964  0BBA               	decfsz	??___fldiv,f
  6555  0965  295F               	goto	u2945
  6556  0966                     l2440:
  6557  0966  1FC9               	btfss	___fldiv@grs+3,7
  6558  0967  2969               	goto	u2951
  6559  0968  296A               	goto	u2950
  6560  0969                     u2951:
  6561  0969  296B               	goto	l2444
  6562  096A                     u2950:
  6563  096A                     l2442:
  6564  096A  1436               	bsf	___fldiv@b,0
  6565  096B                     l2444:
  6566  096B  3001               	movlw	1
  6567  096C  00BA               	movwf	??___fldiv
  6568  096D                     u2965:
  6569  096D  1003               	clrc
  6570  096E  0DC6               	rlf	___fldiv@grs,f
  6571  096F  0DC7               	rlf	___fldiv@grs+1,f
  6572  0970  0DC8               	rlf	___fldiv@grs+2,f
  6573  0971  0DC9               	rlf	___fldiv@grs+3,f
  6574  0972  0BBA               	decfsz	??___fldiv,f
  6575  0973  296D               	goto	u2965
  6576  0974                     l2446:
  6577  0974  30FF               	movlw	255
  6578  0975  07C4               	addwf	___fldiv@new_exp,f
  6579  0976  1803               	skipnc
  6580  0977  0AC5               	incf	___fldiv@new_exp+1,f
  6581  0978  30FF               	movlw	255
  6582  0979  07C5               	addwf	___fldiv@new_exp+1,f
  6583  097A                     l2448:
  6584  097A  1FB8               	btfss	___fldiv@b+2,7
  6585  097B  297D               	goto	u2971
  6586  097C  297E               	goto	u2970
  6587  097D                     u2971:
  6588  097D  295D               	goto	l2438
  6589  097E                     u2970:
  6590  097E                     l2450:
  6591  097E  01CB               	clrf	___fldiv@aexp
  6592  097F                     l2452:
  6593  097F  1FC9               	btfss	___fldiv@grs+3,7
  6594  0980  2982               	goto	u2981
  6595  0981  2983               	goto	u2980
  6596  0982                     u2981:
  6597  0982  299F               	goto	l2460
  6598  0983                     u2980:
  6599  0983                     l2454:
  6600  0983  30FF               	movlw	255
  6601  0984  0546               	andwf	___fldiv@grs,w
  6602  0985  00BA               	movwf	??___fldiv
  6603  0986  30FF               	movlw	255
  6604  0987  0547               	andwf	___fldiv@grs+1,w
  6605  0988  00BB               	movwf	??___fldiv+1
  6606  0989  30FF               	movlw	255
  6607  098A  0548               	andwf	___fldiv@grs+2,w
  6608  098B  00BC               	movwf	??___fldiv+2
  6609  098C  307F               	movlw	127
  6610  098D  0549               	andwf	___fldiv@grs+3,w
  6611  098E  00BD               	movwf	??___fldiv+3
  6612  098F  083D               	movf	??___fldiv+3,w
  6613  0990  043C               	iorwf	??___fldiv+2,w
  6614  0991  043B               	iorwf	??___fldiv+1,w
  6615  0992  043A               	iorwf	??___fldiv,w
  6616  0993  1903               	skipnz
  6617  0994  2996               	goto	u2991
  6618  0995  2997               	goto	u2990
  6619  0996                     u2991:
  6620  0996  299A               	goto	l741
  6621  0997                     u2990:
  6622  0997                     l2456:
  6623  0997  01CB               	clrf	___fldiv@aexp
  6624  0998  0ACB               	incf	___fldiv@aexp,f
  6625  0999  299F               	goto	l2460
  6626  099A                     l741:
  6627  099A  1C36               	btfss	___fldiv@b,0
  6628  099B  299D               	goto	u3001
  6629  099C  299E               	goto	u3000
  6630  099D                     u3001:
  6631  099D  299F               	goto	l2460
  6632  099E                     u3000:
  6633  099E  2997               	goto	l2456
  6634  099F                     l2460:
  6635  099F  084B               	movf	___fldiv@aexp,w
  6636  09A0  1903               	btfsc	3,2
  6637  09A1  29A3               	goto	u3011
  6638  09A2  29A4               	goto	u3010
  6639  09A3                     u3011:
  6640  09A3  29D5               	goto	l2470
  6641  09A4                     u3010:
  6642  09A4                     l2462:
  6643  09A4  3001               	movlw	1
  6644  09A5  07B6               	addwf	___fldiv@b,f
  6645  09A6  3000               	movlw	0
  6646  09A7  1803               	skipnc
  6647  09A8  3001               	movlw	1
  6648  09A9  07B7               	addwf	___fldiv@b+1,f
  6649  09AA  3000               	movlw	0
  6650  09AB  1803               	skipnc
  6651  09AC  3001               	movlw	1
  6652  09AD  07B8               	addwf	___fldiv@b+2,f
  6653  09AE  3000               	movlw	0
  6654  09AF  1803               	skipnc
  6655  09B0  3001               	movlw	1
  6656  09B1  07B9               	addwf	___fldiv@b+3,f
  6657  09B2                     l2464:
  6658  09B2  1C39               	btfss	___fldiv@b+3,0
  6659  09B3  29B5               	goto	u3021
  6660  09B4  29B6               	goto	u3020
  6661  09B5                     u3021:
  6662  09B5  29D5               	goto	l2470
  6663  09B6                     u3020:
  6664  09B6                     l2466:
  6665  09B6  0836               	movf	___fldiv@b,w
  6666  09B7  00BA               	movwf	??___fldiv
  6667  09B8  0837               	movf	___fldiv@b+1,w
  6668  09B9  00BB               	movwf	??___fldiv+1
  6669  09BA  0838               	movf	___fldiv@b+2,w
  6670  09BB  00BC               	movwf	??___fldiv+2
  6671  09BC  0839               	movf	___fldiv@b+3,w
  6672  09BD  00BD               	movwf	??___fldiv+3
  6673  09BE  3001               	movlw	1
  6674  09BF  00BE               	movwf	??___fldiv+4
  6675  09C0                     u3035:
  6676  09C0  0D3D               	rlf	??___fldiv+3,w
  6677  09C1  0CBD               	rrf	??___fldiv+3,f
  6678  09C2  0CBC               	rrf	??___fldiv+2,f
  6679  09C3  0CBB               	rrf	??___fldiv+1,f
  6680  09C4  0CBA               	rrf	??___fldiv,f
  6681  09C5                     u3030:
  6682  09C5  0BBE               	decfsz	??___fldiv+4,f
  6683  09C6  29C0               	goto	u3035
  6684  09C7  083D               	movf	??___fldiv+3,w
  6685  09C8  00B9               	movwf	___fldiv@b+3
  6686  09C9  083C               	movf	??___fldiv+2,w
  6687  09CA  00B8               	movwf	___fldiv@b+2
  6688  09CB  083B               	movf	??___fldiv+1,w
  6689  09CC  00B7               	movwf	___fldiv@b+1
  6690  09CD  083A               	movf	??___fldiv,w
  6691  09CE  00B6               	movwf	___fldiv@b
  6692  09CF                     l2468:
  6693  09CF  3001               	movlw	1
  6694  09D0  07C4               	addwf	___fldiv@new_exp,f
  6695  09D1  1803               	skipnc
  6696  09D2  0AC5               	incf	___fldiv@new_exp+1,f
  6697  09D3  3000               	movlw	0
  6698  09D4  07C5               	addwf	___fldiv@new_exp+1,f
  6699  09D5                     l2470:
  6700  09D5  0845               	movf	___fldiv@new_exp+1,w
  6701  09D6  3A80               	xorlw	128
  6702  09D7  00FF               	movwf	btemp+1
  6703  09D8  3080               	movlw	128
  6704  09D9  027F               	subwf	btemp+1,w
  6705  09DA  1D03               	skipz
  6706  09DB  29DE               	goto	u3045
  6707  09DC  30FF               	movlw	255
  6708  09DD  0244               	subwf	___fldiv@new_exp,w
  6709  09DE                     u3045:
  6710  09DE  1C03               	skipc
  6711  09DF  29E1               	goto	u3041
  6712  09E0  29E2               	goto	u3040
  6713  09E1                     u3041:
  6714  09E1  29F0               	goto	l2474
  6715  09E2                     u3040:
  6716  09E2                     l2472:
  6717  09E2  30FF               	movlw	255
  6718  09E3  1283               	bcf	3,5	;RP0=0, select bank0
  6719  09E4  1303               	bcf	3,6	;RP1=0, select bank0
  6720  09E5  00C4               	movwf	___fldiv@new_exp
  6721  09E6  3000               	movlw	0
  6722  09E7  00C5               	movwf	___fldiv@new_exp+1
  6723  09E8  3000               	movlw	0
  6724  09E9  00B9               	movwf	___fldiv@b+3
  6725  09EA  3000               	movlw	0
  6726  09EB  00B8               	movwf	___fldiv@b+2
  6727  09EC  3000               	movlw	0
  6728  09ED  00B7               	movwf	___fldiv@b+1
  6729  09EE  3000               	movlw	0
  6730  09EF  00B6               	movwf	___fldiv@b
  6731  09F0                     l2474:
  6732  09F0  1283               	bcf	3,5	;RP0=0, select bank0
  6733  09F1  1303               	bcf	3,6	;RP1=0, select bank0
  6734  09F2  0845               	movf	___fldiv@new_exp+1,w
  6735  09F3  3A80               	xorlw	128
  6736  09F4  00FF               	movwf	btemp+1
  6737  09F5  3080               	movlw	128
  6738  09F6  027F               	subwf	btemp+1,w
  6739  09F7  1D03               	skipz
  6740  09F8  29FB               	goto	u3055
  6741  09F9  3001               	movlw	1
  6742  09FA  0244               	subwf	___fldiv@new_exp,w
  6743  09FB                     u3055:
  6744  09FB  1803               	skipnc
  6745  09FC  29FE               	goto	u3051
  6746  09FD  29FF               	goto	u3050
  6747  09FE                     u3051:
  6748  09FE  2A0C               	goto	l747
  6749  09FF                     u3050:
  6750  09FF                     l2476:
  6751  09FF  1283               	bcf	3,5	;RP0=0, select bank0
  6752  0A00  1303               	bcf	3,6	;RP1=0, select bank0
  6753  0A01  01C4               	clrf	___fldiv@new_exp
  6754  0A02  01C5               	clrf	___fldiv@new_exp+1
  6755  0A03                     l2478:
  6756  0A03  3000               	movlw	0
  6757  0A04  00B9               	movwf	___fldiv@b+3
  6758  0A05  3000               	movlw	0
  6759  0A06  00B8               	movwf	___fldiv@b+2
  6760  0A07  3000               	movlw	0
  6761  0A08  00B7               	movwf	___fldiv@b+1
  6762  0A09  3000               	movlw	0
  6763  0A0A  00B6               	movwf	___fldiv@b
  6764  0A0B                     l2480:
  6765  0A0B  01C3               	clrf	___fldiv@sign
  6766  0A0C                     l747:
  6767  0A0C  1283               	bcf	3,5	;RP0=0, select bank0
  6768  0A0D  1303               	bcf	3,6	;RP1=0, select bank0
  6769  0A0E  0844               	movf	___fldiv@new_exp,w
  6770  0A0F  00BA               	movwf	??___fldiv
  6771  0A10  083A               	movf	??___fldiv,w
  6772  0A11  00CA               	movwf	___fldiv@bexp
  6773  0A12                     l2482:
  6774  0A12  1C4A               	btfss	___fldiv@bexp,0
  6775  0A13  2A15               	goto	u3061
  6776  0A14  2A16               	goto	u3060
  6777  0A15                     u3061:
  6778  0A15  2A18               	goto	l2486
  6779  0A16                     u3060:
  6780  0A16                     l2484:
  6781  0A16  17B8               	bsf	___fldiv@b+2,7
  6782  0A17  2A1C               	goto	l749
  6783  0A18                     l2486:
  6784  0A18  307F               	movlw	127
  6785  0A19  00BA               	movwf	??___fldiv
  6786  0A1A  083A               	movf	??___fldiv,w
  6787  0A1B  05B8               	andwf	___fldiv@b+2,f
  6788  0A1C                     l749:
  6789  0A1C  084A               	movf	___fldiv@bexp,w
  6790  0A1D  00BA               	movwf	??___fldiv
  6791  0A1E  1003               	clrc
  6792  0A1F  0C3A               	rrf	??___fldiv,w
  6793  0A20  00BB               	movwf	??___fldiv+1
  6794  0A21  083B               	movf	??___fldiv+1,w
  6795  0A22  00B9               	movwf	___fldiv@b+3
  6796  0A23  0843               	movf	___fldiv@sign,w
  6797  0A24  00BA               	movwf	??___fldiv
  6798  0A25  083A               	movf	??___fldiv,w
  6799  0A26  04B9               	iorwf	___fldiv@b+3,f
  6800  0A27  28C0               	goto	l2394
  6801  0A28                     l727:
  6802  0A28  0008               	return
  6803  0A29                     __end_of___fldiv:
  6804                           
  6805                           	psect	text14
  6806  163B                     __ptext14:	
  6807 ;; *************** function ___awdiv *****************
  6808 ;; Defined at:
  6809 ;;		line 5 in file "C:\Program Files\Microchip\xc8\v2.31\pic\sources\c90\common\awdiv.c"
  6810 ;; Parameters:    Size  Location     Type
  6811 ;;  divisor         2    0[COMMON] int 
  6812 ;;  dividend        2    2[COMMON] int 
  6813 ;; Auto vars:     Size  Location     Type
  6814 ;;  quotient        2    7[COMMON] int 
  6815 ;;  sign            1    6[COMMON] unsigned char 
  6816 ;;  counter         1    5[COMMON] unsigned char 
  6817 ;; Return value:  Size  Location     Type
  6818 ;;                  2    0[COMMON] int 
  6819 ;; Registers used:
  6820 ;;		wreg, status,2, status,0
  6821 ;; Tracked objects:
  6822 ;;		On entry : 0/0
  6823 ;;		On exit  : 0/0
  6824 ;;		Unchanged: 0/0
  6825 ;; Data sizes:     COMMON   BANK0   BANK1   BANK3   BANK2
  6826 ;;      Params:         4       0       0       0       0
  6827 ;;      Locals:         4       0       0       0       0
  6828 ;;      Temps:          1       0       0       0       0
  6829 ;;      Totals:         9       0       0       0       0
  6830 ;;Total ram usage:        9 bytes
  6831 ;; Hardware stack levels used:    1
  6832 ;; This function calls:
  6833 ;;		Nothing
  6834 ;; This function is called by:
  6835 ;;		_convert
  6836 ;; This function uses a non-reentrant model
  6837 ;;
  6838                           
  6839                           
  6840                           ;psect for function ___awdiv
  6841  163B                     ___awdiv:
  6842  163B                     l2244:	
  6843                           ;incstack = 0
  6844                           ; Regs used in ___awdiv: [wreg+status,2+status,0]
  6845                           
  6846  163B  01F6               	clrf	___awdiv@sign
  6847  163C                     l2246:
  6848  163C  1FF1               	btfss	___awdiv@divisor+1,7
  6849  163D  2E3F               	goto	u2511
  6850  163E  2E40               	goto	u2510
  6851  163F                     u2511:
  6852  163F  2E47               	goto	l2252
  6853  1640                     u2510:
  6854  1640                     l2248:
  6855  1640  09F0               	comf	___awdiv@divisor,f
  6856  1641  09F1               	comf	___awdiv@divisor+1,f
  6857  1642  0AF0               	incf	___awdiv@divisor,f
  6858  1643  1903               	skipnz
  6859  1644  0AF1               	incf	___awdiv@divisor+1,f
  6860  1645                     l2250:
  6861  1645  01F6               	clrf	___awdiv@sign
  6862  1646  0AF6               	incf	___awdiv@sign,f
  6863  1647                     l2252:
  6864  1647  1FF3               	btfss	___awdiv@dividend+1,7
  6865  1648  2E4A               	goto	u2521
  6866  1649  2E4B               	goto	u2520
  6867  164A                     u2521:
  6868  164A  2E54               	goto	l2258
  6869  164B                     u2520:
  6870  164B                     l2254:
  6871  164B  09F2               	comf	___awdiv@dividend,f
  6872  164C  09F3               	comf	___awdiv@dividend+1,f
  6873  164D  0AF2               	incf	___awdiv@dividend,f
  6874  164E  1903               	skipnz
  6875  164F  0AF3               	incf	___awdiv@dividend+1,f
  6876  1650                     l2256:
  6877  1650  3001               	movlw	1
  6878  1651  00F4               	movwf	??___awdiv
  6879  1652  0874               	movf	??___awdiv,w
  6880  1653  06F6               	xorwf	___awdiv@sign,f
  6881  1654                     l2258:
  6882  1654  01F7               	clrf	___awdiv@quotient
  6883  1655  01F8               	clrf	___awdiv@quotient+1
  6884  1656                     l2260:
  6885  1656  0870               	movf	___awdiv@divisor,w
  6886  1657  0471               	iorwf	___awdiv@divisor+1,w
  6887  1658  1903               	btfsc	3,2
  6888  1659  2E5B               	goto	u2531
  6889  165A  2E5C               	goto	u2530
  6890  165B                     u2531:
  6891  165B  2E93               	goto	l2280
  6892  165C                     u2530:
  6893  165C                     l2262:
  6894  165C  01F5               	clrf	___awdiv@counter
  6895  165D  0AF5               	incf	___awdiv@counter,f
  6896  165E  2E6A               	goto	l2268
  6897  165F                     l2264:
  6898  165F  3001               	movlw	1
  6899  1660                     u2545:
  6900  1660  1003               	clrc
  6901  1661  0DF0               	rlf	___awdiv@divisor,f
  6902  1662  0DF1               	rlf	___awdiv@divisor+1,f
  6903  1663  3EFF               	addlw	-1
  6904  1664  1D03               	skipz
  6905  1665  2E60               	goto	u2545
  6906  1666                     l2266:
  6907  1666  3001               	movlw	1
  6908  1667  00F4               	movwf	??___awdiv
  6909  1668  0874               	movf	??___awdiv,w
  6910  1669  07F5               	addwf	___awdiv@counter,f
  6911  166A                     l2268:
  6912  166A  1FF1               	btfss	___awdiv@divisor+1,7
  6913  166B  2E6D               	goto	u2551
  6914  166C  2E6E               	goto	u2550
  6915  166D                     u2551:
  6916  166D  2E5F               	goto	l2264
  6917  166E                     u2550:
  6918  166E                     l2270:
  6919  166E  3001               	movlw	1
  6920  166F                     u2565:
  6921  166F  1003               	clrc
  6922  1670  0DF7               	rlf	___awdiv@quotient,f
  6923  1671  0DF8               	rlf	___awdiv@quotient+1,f
  6924  1672  3EFF               	addlw	-1
  6925  1673  1D03               	skipz
  6926  1674  2E6F               	goto	u2565
  6927  1675  0871               	movf	___awdiv@divisor+1,w
  6928  1676  0273               	subwf	___awdiv@dividend+1,w
  6929  1677  1D03               	skipz
  6930  1678  2E7B               	goto	u2575
  6931  1679  0870               	movf	___awdiv@divisor,w
  6932  167A  0272               	subwf	___awdiv@dividend,w
  6933  167B                     u2575:
  6934  167B  1C03               	skipc
  6935  167C  2E7E               	goto	u2571
  6936  167D  2E7F               	goto	u2570
  6937  167E                     u2571:
  6938  167E  2E86               	goto	l2276
  6939  167F                     u2570:
  6940  167F                     l2272:
  6941  167F  0870               	movf	___awdiv@divisor,w
  6942  1680  02F2               	subwf	___awdiv@dividend,f
  6943  1681  0871               	movf	___awdiv@divisor+1,w
  6944  1682  1C03               	skipc
  6945  1683  03F3               	decf	___awdiv@dividend+1,f
  6946  1684  02F3               	subwf	___awdiv@dividend+1,f
  6947  1685                     l2274:
  6948  1685  1477               	bsf	___awdiv@quotient,0
  6949  1686                     l2276:
  6950  1686  3001               	movlw	1
  6951  1687                     u2585:
  6952  1687  1003               	clrc
  6953  1688  0CF1               	rrf	___awdiv@divisor+1,f
  6954  1689  0CF0               	rrf	___awdiv@divisor,f
  6955  168A  3EFF               	addlw	-1
  6956  168B  1D03               	skipz
  6957  168C  2E87               	goto	u2585
  6958  168D                     l2278:
  6959  168D  3001               	movlw	1
  6960  168E  02F5               	subwf	___awdiv@counter,f
  6961  168F  1D03               	btfss	3,2
  6962  1690  2E92               	goto	u2591
  6963  1691  2E93               	goto	u2590
  6964  1692                     u2591:
  6965  1692  2E6E               	goto	l2270
  6966  1693                     u2590:
  6967  1693                     l2280:
  6968  1693  0876               	movf	___awdiv@sign,w
  6969  1694  1903               	btfsc	3,2
  6970  1695  2E97               	goto	u2601
  6971  1696  2E98               	goto	u2600
  6972  1697                     u2601:
  6973  1697  2E9D               	goto	l2284
  6974  1698                     u2600:
  6975  1698                     l2282:
  6976  1698  09F7               	comf	___awdiv@quotient,f
  6977  1699  09F8               	comf	___awdiv@quotient+1,f
  6978  169A  0AF7               	incf	___awdiv@quotient,f
  6979  169B  1903               	skipnz
  6980  169C  0AF8               	incf	___awdiv@quotient+1,f
  6981  169D                     l2284:
  6982  169D  0878               	movf	___awdiv@quotient+1,w
  6983  169E  00F1               	movwf	?___awdiv+1
  6984  169F  0877               	movf	___awdiv@quotient,w
  6985  16A0  00F0               	movwf	?___awdiv
  6986  16A1                     l529:
  6987  16A1  0008               	return
  6988  16A2                     __end_of___awdiv:
  6989                           
  6990                           	psect	text15
  6991  1593                     __ptext15:	
  6992 ;; *************** function _Lcd_Write_String *****************
  6993 ;; Defined at:
  6994 ;;		line 186 in file "Librerias.c"
  6995 ;; Parameters:    Size  Location     Type
  6996 ;;  a               2    3[COMMON] PTR unsigned char 
  6997 ;;		 -> STR_5(2), STR_4(2), humedad(10), lcd1(10), 
  6998 ;;		 -> STR_3(4), STR_2(4), STR_1(5), 
  6999 ;; Auto vars:     Size  Location     Type
  7000 ;;  i               2    8[COMMON] int 
  7001 ;; Return value:  Size  Location     Type
  7002 ;;                  1    wreg      void 
  7003 ;; Registers used:
  7004 ;;		wreg, fsr0l, fsr0h, status,2, status,0, btemp+1, pclath, cstack
  7005 ;; Tracked objects:
  7006 ;;		On entry : 0/0
  7007 ;;		On exit  : 0/0
  7008 ;;		Unchanged: 0/0
  7009 ;; Data sizes:     COMMON   BANK0   BANK1   BANK3   BANK2
  7010 ;;      Params:         2       0       0       0       0
  7011 ;;      Locals:         2       0       0       0       0
  7012 ;;      Temps:          3       0       0       0       0
  7013 ;;      Totals:         7       0       0       0       0
  7014 ;;Total ram usage:        7 bytes
  7015 ;; Hardware stack levels used:    1
  7016 ;; Hardware stack levels required when called:    2
  7017 ;; This function calls:
  7018 ;;		_Lcd_Write_Char
  7019 ;; This function is called by:
  7020 ;;		_main
  7021 ;; This function uses a non-reentrant model
  7022 ;;
  7023                           
  7024                           
  7025                           ;psect for function _Lcd_Write_String
  7026  1593                     _Lcd_Write_String:
  7027  1593                     l2716:	
  7028                           ;incstack = 0
  7029                           ; Regs used in _Lcd_Write_String: [wreg-fsr0h+status,2+status,0+btemp+1+pclath+cstack]
  7030                           
  7031                           
  7032                           ;Librerias.c: 187:     int i;;Librerias.c: 188:     for (i = 0; a[i] != '\0'; i++)
  7033  1593  01F8               	clrf	Lcd_Write_String@i
  7034  1594  01F9               	clrf	Lcd_Write_String@i+1
  7035  1595  2DB8               	goto	l2722
  7036  1596                     l2718:
  7037                           
  7038                           ;Librerias.c: 189:         Lcd_Write_Char(a[i]);
  7039  1596  0878               	movf	Lcd_Write_String@i,w
  7040  1597  0773               	addwf	Lcd_Write_String@a,w
  7041  1598  00F6               	movwf	??_Lcd_Write_String+1
  7042  1599  0874               	movf	Lcd_Write_String@a+1,w
  7043  159A  00F5               	movwf	??_Lcd_Write_String
  7044  159B  1803               	skipnc
  7045  159C  0AF5               	incf	??_Lcd_Write_String,f
  7046  159D  1FF8               	btfss	Lcd_Write_String@i,7
  7047  159E  2DA0               	goto	u3600
  7048  159F  03F5               	decf	??_Lcd_Write_String,f
  7049  15A0                     u3600:
  7050  15A0  0875               	movf	??_Lcd_Write_String,w
  7051  15A1  00F7               	movwf	??_Lcd_Write_String+2
  7052  15A2  0877               	movf	??_Lcd_Write_String+2,w
  7053  15A3  1283               	bcf	3,5	;RP0=0, select bank0
  7054  15A4  1303               	bcf	3,6	;RP1=0, select bank0
  7055  15A5  00FF               	movwf	btemp+1
  7056  15A6  0876               	movf	??_Lcd_Write_String+1,w
  7057  15A7  0084               	movwf	4
  7058  15A8  160A  118A  2000  160A  118A  	fcall	stringtab
  7059  15AD  120A  118A  2005  160A  118A  	fcall	_Lcd_Write_Char
  7060  15B2                     l2720:
  7061  15B2  3001               	movlw	1
  7062  15B3  07F8               	addwf	Lcd_Write_String@i,f
  7063  15B4  1803               	skipnc
  7064  15B5  0AF9               	incf	Lcd_Write_String@i+1,f
  7065  15B6  3000               	movlw	0
  7066  15B7  07F9               	addwf	Lcd_Write_String@i+1,f
  7067  15B8                     l2722:
  7068  15B8  0878               	movf	Lcd_Write_String@i,w
  7069  15B9  0773               	addwf	Lcd_Write_String@a,w
  7070  15BA  00F6               	movwf	??_Lcd_Write_String+1
  7071  15BB  0874               	movf	Lcd_Write_String@a+1,w
  7072  15BC  00F5               	movwf	??_Lcd_Write_String
  7073  15BD  1803               	skipnc
  7074  15BE  0AF5               	incf	??_Lcd_Write_String,f
  7075  15BF  1FF8               	btfss	Lcd_Write_String@i,7
  7076  15C0  2DC2               	goto	u3610
  7077  15C1  03F5               	decf	??_Lcd_Write_String,f
  7078  15C2                     u3610:
  7079  15C2  0875               	movf	??_Lcd_Write_String,w
  7080  15C3  00F7               	movwf	??_Lcd_Write_String+2
  7081  15C4  0877               	movf	??_Lcd_Write_String+2,w
  7082  15C5  1283               	bcf	3,5	;RP0=0, select bank0
  7083  15C6  1303               	bcf	3,6	;RP1=0, select bank0
  7084  15C7  00FF               	movwf	btemp+1
  7085  15C8  0876               	movf	??_Lcd_Write_String+1,w
  7086  15C9  0084               	movwf	4
  7087  15CA  160A  118A  2000  160A  118A  	fcall	stringtab
  7088  15CF  3A00               	xorlw	0
  7089  15D0  1D03               	skipz
  7090  15D1  2DD3               	goto	u3621
  7091  15D2  2DD4               	goto	u3620
  7092  15D3                     u3621:
  7093  15D3  2D96               	goto	l2718
  7094  15D4                     u3620:
  7095  15D4                     l200:
  7096  15D4  0008               	return
  7097  15D5                     __end_of_Lcd_Write_String:
  7098                           
  7099                           	psect	text16
  7100  0005                     __ptext16:	
  7101 ;; *************** function _Lcd_Write_Char *****************
  7102 ;; Defined at:
  7103 ;;		line 178 in file "Librerias.c"
  7104 ;; Parameters:    Size  Location     Type
  7105 ;;  a               1    wreg     unsigned char 
  7106 ;; Auto vars:     Size  Location     Type
  7107 ;;  a               1    2[COMMON] unsigned char 
  7108 ;; Return value:  Size  Location     Type
  7109 ;;                  1    wreg      void 
  7110 ;; Registers used:
  7111 ;;		wreg, status,2, status,0, pclath, cstack
  7112 ;; Tracked objects:
  7113 ;;		On entry : 0/0
  7114 ;;		On exit  : 0/0
  7115 ;;		Unchanged: 0/0
  7116 ;; Data sizes:     COMMON   BANK0   BANK1   BANK3   BANK2
  7117 ;;      Params:         0       0       0       0       0
  7118 ;;      Locals:         1       0       0       0       0
  7119 ;;      Temps:          1       0       0       0       0
  7120 ;;      Totals:         2       0       0       0       0
  7121 ;;Total ram usage:        2 bytes
  7122 ;; Hardware stack levels used:    1
  7123 ;; Hardware stack levels required when called:    1
  7124 ;; This function calls:
  7125 ;;		_Lcd_Port
  7126 ;; This function is called by:
  7127 ;;		_Lcd_Write_String
  7128 ;; This function uses a non-reentrant model
  7129 ;;
  7130                           
  7131                           
  7132                           ;psect for function _Lcd_Write_Char
  7133  0005                     _Lcd_Write_Char:
  7134                           
  7135                           ;incstack = 0
  7136                           ; Regs used in _Lcd_Write_Char: [wreg+status,2+status,0+pclath+cstack]
  7137                           ;Lcd_Write_Char@a stored from wreg
  7138  0005  00F2               	movwf	Lcd_Write_Char@a
  7139  0006                     l2220:
  7140                           
  7141                           ;Librerias.c: 179:     PORTEbits.RE0 = 1;
  7142  0006  1283               	bcf	3,5	;RP0=0, select bank0
  7143  0007  1303               	bcf	3,6	;RP1=0, select bank0
  7144  0008  1409               	bsf	9,0	;volatile
  7145  0009                     l2222:
  7146                           
  7147                           ;Librerias.c: 180:     Lcd_Port(a);
  7148  0009  0872               	movf	Lcd_Write_Char@a,w
  7149  000A  120A  158A  2001  120A  118A  	fcall	_Lcd_Port
  7150  000F                     l2224:
  7151                           
  7152                           ;Librerias.c: 181:     PORTEbits.RE2 = 1;
  7153  000F  1283               	bcf	3,5	;RP0=0, select bank0
  7154  0010  1303               	bcf	3,6	;RP1=0, select bank0
  7155  0011  1509               	bsf	9,2	;volatile
  7156  0012                     l2226:
  7157                           
  7158                           ;Librerias.c: 182:     _delay((unsigned long)((10)*(8000000/4000000.0)));
  7159  0012  3006               	movlw	6
  7160  0013  00F1               	movwf	??_Lcd_Write_Char
  7161  0014                     u3797:
  7162  0014  0BF1               	decfsz	??_Lcd_Write_Char,f
  7163  0015  2814               	goto	u3797
  7164  0016  0000               	nop
  7165  0017                     l2228:
  7166                           
  7167                           ;Librerias.c: 183:     PORTEbits.RE2 = 0;
  7168  0017  1283               	bcf	3,5	;RP0=0, select bank0
  7169  0018  1303               	bcf	3,6	;RP1=0, select bank0
  7170  0019  1109               	bcf	9,2	;volatile
  7171  001A                     l194:
  7172  001A  0008               	return
  7173  001B                     __end_of_Lcd_Write_Char:
  7174                           
  7175                           	psect	text17
  7176  1473                     __ptext17:	
  7177 ;; *************** function _Lcd_Set_Cursor *****************
  7178 ;; Defined at:
  7179 ;;		line 153 in file "Librerias.c"
  7180 ;; Parameters:    Size  Location     Type
  7181 ;;  a               1    wreg     unsigned char 
  7182 ;;  b               1    4[COMMON] unsigned char 
  7183 ;; Auto vars:     Size  Location     Type
  7184 ;;  a               1    6[COMMON] unsigned char 
  7185 ;;  temp            1    7[COMMON] unsigned char 
  7186 ;; Return value:  Size  Location     Type
  7187 ;;                  1    wreg      void 
  7188 ;; Registers used:
  7189 ;;		wreg, status,2, status,0, pclath, cstack
  7190 ;; Tracked objects:
  7191 ;;		On entry : 0/0
  7192 ;;		On exit  : 0/0
  7193 ;;		Unchanged: 0/0
  7194 ;; Data sizes:     COMMON   BANK0   BANK1   BANK3   BANK2
  7195 ;;      Params:         1       0       0       0       0
  7196 ;;      Locals:         2       0       0       0       0
  7197 ;;      Temps:          1       0       0       0       0
  7198 ;;      Totals:         4       0       0       0       0
  7199 ;;Total ram usage:        4 bytes
  7200 ;; Hardware stack levels used:    1
  7201 ;; Hardware stack levels required when called:    2
  7202 ;; This function calls:
  7203 ;;		_Lcd_Cmd
  7204 ;; This function is called by:
  7205 ;;		_main
  7206 ;; This function uses a non-reentrant model
  7207 ;;
  7208                           
  7209                           
  7210                           ;psect for function _Lcd_Set_Cursor
  7211  1473                     _Lcd_Set_Cursor:
  7212                           
  7213                           ;incstack = 0
  7214                           ; Regs used in _Lcd_Set_Cursor: [wreg+status,2+status,0+pclath+cstack]
  7215                           ;Lcd_Set_Cursor@a stored from wreg
  7216  1473  00F6               	movwf	Lcd_Set_Cursor@a
  7217  1474                     l2704:
  7218                           
  7219                           ;Librerias.c: 154:     char temp;;Librerias.c: 155:     if (a == 1) {
  7220  1474  0376               	decf	Lcd_Set_Cursor@a,w
  7221  1475  1D03               	btfss	3,2
  7222  1476  2C78               	goto	u3581
  7223  1477  2C79               	goto	u3580
  7224  1478                     u3581:
  7225  1478  2C85               	goto	l2710
  7226  1479                     u3580:
  7227  1479                     l2706:
  7228                           
  7229                           ;Librerias.c: 156:         temp = 0x80 + b - 1;
  7230  1479  0874               	movf	Lcd_Set_Cursor@b,w
  7231  147A  3E7F               	addlw	127
  7232  147B  00F5               	movwf	??_Lcd_Set_Cursor
  7233  147C  0875               	movf	??_Lcd_Set_Cursor,w
  7234  147D  00F7               	movwf	Lcd_Set_Cursor@temp
  7235  147E                     l2708:
  7236                           
  7237                           ;Librerias.c: 157:         Lcd_Cmd(temp);
  7238  147E  0877               	movf	Lcd_Set_Cursor@temp,w
  7239  147F  160A  118A  2459  160A  118A  	fcall	_Lcd_Cmd
  7240                           
  7241                           ;Librerias.c: 158:     } else if (a == 2) {
  7242  1484  2C96               	goto	l188
  7243  1485                     l2710:
  7244  1485  3002               	movlw	2
  7245  1486  0676               	xorwf	Lcd_Set_Cursor@a,w
  7246  1487  1D03               	btfss	3,2
  7247  1488  2C8A               	goto	u3591
  7248  1489  2C8B               	goto	u3590
  7249  148A                     u3591:
  7250  148A  2C96               	goto	l188
  7251  148B                     u3590:
  7252  148B                     l2712:
  7253                           
  7254                           ;Librerias.c: 159:         temp = 0xC0 + b - 1;
  7255  148B  0874               	movf	Lcd_Set_Cursor@b,w
  7256  148C  3EBF               	addlw	191
  7257  148D  00F5               	movwf	??_Lcd_Set_Cursor
  7258  148E  0875               	movf	??_Lcd_Set_Cursor,w
  7259  148F  00F7               	movwf	Lcd_Set_Cursor@temp
  7260  1490                     l2714:
  7261                           
  7262                           ;Librerias.c: 160:         Lcd_Cmd(temp);
  7263  1490  0877               	movf	Lcd_Set_Cursor@temp,w
  7264  1491  160A  118A  2459  160A  118A  	fcall	_Lcd_Cmd
  7265  1496                     l188:
  7266  1496  0008               	return
  7267  1497                     __end_of_Lcd_Set_Cursor:
  7268                           
  7269                           	psect	text18
  7270  0807                     __ptext18:	
  7271 ;; *************** function _Lcd_Init *****************
  7272 ;; Defined at:
  7273 ;;		line 164 in file "Librerias.c"
  7274 ;; Parameters:    Size  Location     Type
  7275 ;;		None
  7276 ;; Auto vars:     Size  Location     Type
  7277 ;;		None
  7278 ;; Return value:  Size  Location     Type
  7279 ;;                  1    wreg      void 
  7280 ;; Registers used:
  7281 ;;		wreg, status,2, status,0, pclath, cstack
  7282 ;; Tracked objects:
  7283 ;;		On entry : 0/0
  7284 ;;		On exit  : 0/0
  7285 ;;		Unchanged: 0/0
  7286 ;; Data sizes:     COMMON   BANK0   BANK1   BANK3   BANK2
  7287 ;;      Params:         0       0       0       0       0
  7288 ;;      Locals:         0       0       0       0       0
  7289 ;;      Temps:          2       0       0       0       0
  7290 ;;      Totals:         2       0       0       0       0
  7291 ;;Total ram usage:        2 bytes
  7292 ;; Hardware stack levels used:    1
  7293 ;; Hardware stack levels required when called:    2
  7294 ;; This function calls:
  7295 ;;		_Lcd_Cmd
  7296 ;;		_Lcd_Port
  7297 ;; This function is called by:
  7298 ;;		_main
  7299 ;; This function uses a non-reentrant model
  7300 ;;
  7301                           
  7302                           
  7303                           ;psect for function _Lcd_Init
  7304  0807                     _Lcd_Init:
  7305  0807                     l2692:	
  7306                           ;incstack = 0
  7307                           ; Regs used in _Lcd_Init: [wreg+status,2+status,0+pclath+cstack]
  7308                           
  7309                           
  7310                           ;Librerias.c: 165:     Lcd_Port(0x00);
  7311  0807  3000               	movlw	0
  7312  0808  120A  158A  2001  120A  158A  	fcall	_Lcd_Port
  7313  080D                     l2694:
  7314                           
  7315                           ;Librerias.c: 166:     _delay((unsigned long)((20)*(8000000/4000.0)));
  7316  080D  3034               	movlw	52
  7317  080E  00F5               	movwf	??_Lcd_Init+1
  7318  080F  30F1               	movlw	241
  7319  0810  00F4               	movwf	??_Lcd_Init
  7320  0811                     u3807:
  7321  0811  0BF4               	decfsz	??_Lcd_Init,f
  7322  0812  2811               	goto	u3807
  7323  0813  0BF5               	decfsz	??_Lcd_Init+1,f
  7324  0814  2811               	goto	u3807
  7325  0815  2816               	nop2
  7326  0816                     l2696:
  7327                           
  7328                           ;Librerias.c: 167:     Lcd_Cmd(0x30);
  7329  0816  3030               	movlw	48
  7330  0817  160A  118A  2459  120A  158A  	fcall	_Lcd_Cmd
  7331                           
  7332                           ;Librerias.c: 168:     _delay((unsigned long)((5)*(8000000/4000.0)));
  7333  081C  300D               	movlw	13
  7334  081D  00F5               	movwf	??_Lcd_Init+1
  7335  081E  30FB               	movlw	251
  7336  081F  00F4               	movwf	??_Lcd_Init
  7337  0820                     u3817:
  7338  0820  0BF4               	decfsz	??_Lcd_Init,f
  7339  0821  2820               	goto	u3817
  7340  0822  0BF5               	decfsz	??_Lcd_Init+1,f
  7341  0823  2820               	goto	u3817
  7342  0824  2825               	nop2
  7343  0825                     l2698:
  7344                           
  7345                           ;Librerias.c: 169:     Lcd_Cmd(0x30);
  7346  0825  3030               	movlw	48
  7347  0826  160A  118A  2459  120A  158A  	fcall	_Lcd_Cmd
  7348  082B                     l2700:
  7349                           
  7350                           ;Librerias.c: 170:     _delay((unsigned long)((11)*(8000000/4000.0)));
  7351  082B  301D               	movlw	29
  7352  082C  00F5               	movwf	??_Lcd_Init+1
  7353  082D  3091               	movlw	145
  7354  082E  00F4               	movwf	??_Lcd_Init
  7355  082F                     u3827:
  7356  082F  0BF4               	decfsz	??_Lcd_Init,f
  7357  0830  282F               	goto	u3827
  7358  0831  0BF5               	decfsz	??_Lcd_Init+1,f
  7359  0832  282F               	goto	u3827
  7360                           
  7361                           ;Librerias.c: 171:     Lcd_Cmd(0x30);
  7362  0833  3030               	movlw	48
  7363  0834  160A  118A  2459  120A  158A  	fcall	_Lcd_Cmd
  7364                           
  7365                           ;Librerias.c: 173:     Lcd_Cmd(0x38);
  7366  0839  3038               	movlw	56
  7367  083A  160A  118A  2459  120A  158A  	fcall	_Lcd_Cmd
  7368                           
  7369                           ;Librerias.c: 174:     Lcd_Cmd(0x0C);
  7370  083F  300C               	movlw	12
  7371  0840  160A  118A  2459  120A  158A  	fcall	_Lcd_Cmd
  7372                           
  7373                           ;Librerias.c: 175:     Lcd_Cmd(0x06);
  7374  0845  3006               	movlw	6
  7375  0846  160A  118A  2459  120A  158A  	fcall	_Lcd_Cmd
  7376  084B                     l191:
  7377  084B  0008               	return
  7378  084C                     __end_of_Lcd_Init:
  7379                           
  7380                           	psect	text19
  7381  144C                     __ptext19:	
  7382 ;; *************** function _Lcd_Clear *****************
  7383 ;; Defined at:
  7384 ;;		line 148 in file "Librerias.c"
  7385 ;; Parameters:    Size  Location     Type
  7386 ;;		None
  7387 ;; Auto vars:     Size  Location     Type
  7388 ;;		None
  7389 ;; Return value:  Size  Location     Type
  7390 ;;                  1    wreg      void 
  7391 ;; Registers used:
  7392 ;;		wreg, status,2, status,0, pclath, cstack
  7393 ;; Tracked objects:
  7394 ;;		On entry : 0/0
  7395 ;;		On exit  : 0/0
  7396 ;;		Unchanged: 0/0
  7397 ;; Data sizes:     COMMON   BANK0   BANK1   BANK3   BANK2
  7398 ;;      Params:         0       0       0       0       0
  7399 ;;      Locals:         0       0       0       0       0
  7400 ;;      Temps:          0       0       0       0       0
  7401 ;;      Totals:         0       0       0       0       0
  7402 ;;Total ram usage:        0 bytes
  7403 ;; Hardware stack levels used:    1
  7404 ;; Hardware stack levels required when called:    2
  7405 ;; This function calls:
  7406 ;;		_Lcd_Cmd
  7407 ;; This function is called by:
  7408 ;;		_main
  7409 ;; This function uses a non-reentrant model
  7410 ;;
  7411                           
  7412                           
  7413                           ;psect for function _Lcd_Clear
  7414  144C                     _Lcd_Clear:
  7415  144C                     l2702:	
  7416                           ;incstack = 0
  7417                           ; Regs used in _Lcd_Clear: [wreg+status,2+status,0+pclath+cstack]
  7418                           
  7419                           
  7420                           ;Librerias.c: 149:     Lcd_Cmd(0);
  7421  144C  3000               	movlw	0
  7422  144D  160A  118A  2459  160A  118A  	fcall	_Lcd_Cmd
  7423                           
  7424                           ;Librerias.c: 150:     Lcd_Cmd(1);
  7425  1452  3001               	movlw	1
  7426  1453  160A  118A  2459  160A  118A  	fcall	_Lcd_Cmd
  7427  1458                     l182:
  7428  1458  0008               	return
  7429  1459                     __end_of_Lcd_Clear:
  7430                           
  7431                           	psect	text20
  7432  1459                     __ptext20:	
  7433 ;; *************** function _Lcd_Cmd *****************
  7434 ;; Defined at:
  7435 ;;		line 140 in file "Librerias.c"
  7436 ;; Parameters:    Size  Location     Type
  7437 ;;  a               1    wreg     unsigned char 
  7438 ;; Auto vars:     Size  Location     Type
  7439 ;;  a               1    3[COMMON] unsigned char 
  7440 ;; Return value:  Size  Location     Type
  7441 ;;                  1    wreg      void 
  7442 ;; Registers used:
  7443 ;;		wreg, status,2, status,0, pclath, cstack
  7444 ;; Tracked objects:
  7445 ;;		On entry : 0/0
  7446 ;;		On exit  : 0/0
  7447 ;;		Unchanged: 0/0
  7448 ;; Data sizes:     COMMON   BANK0   BANK1   BANK3   BANK2
  7449 ;;      Params:         0       0       0       0       0
  7450 ;;      Locals:         1       0       0       0       0
  7451 ;;      Temps:          2       0       0       0       0
  7452 ;;      Totals:         3       0       0       0       0
  7453 ;;Total ram usage:        3 bytes
  7454 ;; Hardware stack levels used:    1
  7455 ;; Hardware stack levels required when called:    1
  7456 ;; This function calls:
  7457 ;;		_Lcd_Port
  7458 ;; This function is called by:
  7459 ;;		_Lcd_Clear
  7460 ;;		_Lcd_Set_Cursor
  7461 ;;		_Lcd_Init
  7462 ;;		_Lcd_Shift_Right
  7463 ;;		_Lcd_Shift_Left
  7464 ;; This function uses a non-reentrant model
  7465 ;;
  7466                           
  7467                           
  7468                           ;psect for function _Lcd_Cmd
  7469  1459                     _Lcd_Cmd:
  7470                           
  7471                           ;incstack = 0
  7472                           ; Regs used in _Lcd_Cmd: [wreg+status,2+status,0+pclath+cstack]
  7473                           ;Lcd_Cmd@a stored from wreg
  7474  1459  00F3               	movwf	Lcd_Cmd@a
  7475  145A                     l2210:
  7476                           
  7477                           ;Librerias.c: 141:     PORTEbits.RE0 = 0;
  7478  145A  1283               	bcf	3,5	;RP0=0, select bank0
  7479  145B  1303               	bcf	3,6	;RP1=0, select bank0
  7480  145C  1009               	bcf	9,0	;volatile
  7481  145D                     l2212:
  7482                           
  7483                           ;Librerias.c: 142:     Lcd_Port(a);
  7484  145D  0873               	movf	Lcd_Cmd@a,w
  7485  145E  120A  158A  2001  160A  118A  	fcall	_Lcd_Port
  7486  1463                     l2214:
  7487                           
  7488                           ;Librerias.c: 143:     PORTEbits.RE2 = 1;
  7489  1463  1283               	bcf	3,5	;RP0=0, select bank0
  7490  1464  1303               	bcf	3,6	;RP1=0, select bank0
  7491  1465  1509               	bsf	9,2	;volatile
  7492  1466                     l2216:
  7493                           
  7494                           ;Librerias.c: 144:     _delay((unsigned long)((4)*(8000000/4000.0)));
  7495  1466  300B               	movlw	11
  7496  1467  00F2               	movwf	??_Lcd_Cmd+1
  7497  1468  3062               	movlw	98
  7498  1469  00F1               	movwf	??_Lcd_Cmd
  7499  146A                     u3837:
  7500  146A  0BF1               	decfsz	??_Lcd_Cmd,f
  7501  146B  2C6A               	goto	u3837
  7502  146C  0BF2               	decfsz	??_Lcd_Cmd+1,f
  7503  146D  2C6A               	goto	u3837
  7504  146E  0000               	nop
  7505  146F                     l2218:
  7506                           
  7507                           ;Librerias.c: 145:     PORTEbits.RE2 = 0;
  7508  146F  1283               	bcf	3,5	;RP0=0, select bank0
  7509  1470  1303               	bcf	3,6	;RP1=0, select bank0
  7510  1471  1109               	bcf	9,2	;volatile
  7511  1472                     l179:
  7512  1472  0008               	return
  7513  1473                     __end_of_Lcd_Cmd:
  7514                           
  7515                           	psect	text21
  7516  0801                     __ptext21:	
  7517 ;; *************** function _Lcd_Port *****************
  7518 ;; Defined at:
  7519 ;;		line 136 in file "Librerias.c"
  7520 ;; Parameters:    Size  Location     Type
  7521 ;;  a               1    wreg     unsigned char 
  7522 ;; Auto vars:     Size  Location     Type
  7523 ;;  a               1    0[COMMON] unsigned char 
  7524 ;; Return value:  Size  Location     Type
  7525 ;;                  1    wreg      void 
  7526 ;; Registers used:
  7527 ;;		wreg
  7528 ;; Tracked objects:
  7529 ;;		On entry : 0/0
  7530 ;;		On exit  : 0/0
  7531 ;;		Unchanged: 0/0
  7532 ;; Data sizes:     COMMON   BANK0   BANK1   BANK3   BANK2
  7533 ;;      Params:         0       0       0       0       0
  7534 ;;      Locals:         1       0       0       0       0
  7535 ;;      Temps:          0       0       0       0       0
  7536 ;;      Totals:         1       0       0       0       0
  7537 ;;Total ram usage:        1 bytes
  7538 ;; Hardware stack levels used:    1
  7539 ;; This function calls:
  7540 ;;		Nothing
  7541 ;; This function is called by:
  7542 ;;		_Lcd_Cmd
  7543 ;;		_Lcd_Init
  7544 ;;		_Lcd_Write_Char
  7545 ;; This function uses a non-reentrant model
  7546 ;;
  7547                           
  7548                           
  7549                           ;psect for function _Lcd_Port
  7550  0801                     _Lcd_Port:
  7551                           
  7552                           ;incstack = 0
  7553                           ; Regs used in _Lcd_Port: [wreg]
  7554                           ;Lcd_Port@a stored from wreg
  7555  0801  00F0               	movwf	Lcd_Port@a
  7556  0802                     l1960:
  7557                           
  7558                           ;Librerias.c: 137:     PORTB = a;
  7559  0802  0870               	movf	Lcd_Port@a,w
  7560  0803  1283               	bcf	3,5	;RP0=0, select bank0
  7561  0804  1303               	bcf	3,6	;RP1=0, select bank0
  7562  0805  0086               	movwf	6	;volatile
  7563  0806                     l176:
  7564  0806  0008               	return
  7565  0807                     __end_of_Lcd_Port:
  7566                           
  7567                           	psect	text22
  7568  1435                     __ptext22:	
  7569 ;; *************** function _I2C_Master_Write *****************
  7570 ;; Defined at:
  7571 ;;		line 63 in file "Librerias.c"
  7572 ;; Parameters:    Size  Location     Type
  7573 ;;  d               2    0[COMMON] unsigned int 
  7574 ;; Auto vars:     Size  Location     Type
  7575 ;;		None
  7576 ;; Return value:  Size  Location     Type
  7577 ;;                  1    wreg      void 
  7578 ;; Registers used:
  7579 ;;		wreg, status,2, status,0, pclath, cstack
  7580 ;; Tracked objects:
  7581 ;;		On entry : 0/0
  7582 ;;		On exit  : 0/0
  7583 ;;		Unchanged: 0/0
  7584 ;; Data sizes:     COMMON   BANK0   BANK1   BANK3   BANK2
  7585 ;;      Params:         2       0       0       0       0
  7586 ;;      Locals:         0       0       0       0       0
  7587 ;;      Temps:          0       0       0       0       0
  7588 ;;      Totals:         2       0       0       0       0
  7589 ;;Total ram usage:        2 bytes
  7590 ;; Hardware stack levels used:    1
  7591 ;; Hardware stack levels required when called:    1
  7592 ;; This function calls:
  7593 ;;		_I2C_Master_Wait
  7594 ;; This function is called by:
  7595 ;;		_main
  7596 ;; This function uses a non-reentrant model
  7597 ;;
  7598                           
  7599                           
  7600                           ;psect for function _I2C_Master_Write
  7601  1435                     _I2C_Master_Write:
  7602  1435                     l2728:	
  7603                           ;incstack = 0
  7604                           ; Regs used in _I2C_Master_Write: [wreg+status,2+status,0+pclath+cstack]
  7605                           
  7606                           
  7607                           ;Librerias.c: 63: void I2C_Master_Write(unsigned d);Librerias.c: 64: {;Librerias.c: 65: 
      +                              I2C_Master_Wait();
  7608  1435  160A  118A  243F  160A  118A  	fcall	_I2C_Master_Wait
  7609  143A                     l2730:
  7610                           
  7611                           ;Librerias.c: 66:     SSPBUF = d;
  7612  143A  0870               	movf	I2C_Master_Write@d,w
  7613  143B  1283               	bcf	3,5	;RP0=0, select bank0
  7614  143C  1303               	bcf	3,6	;RP1=0, select bank0
  7615  143D  0093               	movwf	19	;volatile
  7616  143E                     l152:
  7617  143E  0008               	return
  7618  143F                     __end_of_I2C_Master_Write:
  7619                           
  7620                           	psect	text23
  7621  142C                     __ptext23:	
  7622 ;; *************** function _I2C_Master_Stop *****************
  7623 ;; Defined at:
  7624 ;;		line 53 in file "Librerias.c"
  7625 ;; Parameters:    Size  Location     Type
  7626 ;;		None
  7627 ;; Auto vars:     Size  Location     Type
  7628 ;;		None
  7629 ;; Return value:  Size  Location     Type
  7630 ;;                  1    wreg      void 
  7631 ;; Registers used:
  7632 ;;		wreg, status,2, status,0, pclath, cstack
  7633 ;; Tracked objects:
  7634 ;;		On entry : 0/0
  7635 ;;		On exit  : 0/0
  7636 ;;		Unchanged: 0/0
  7637 ;; Data sizes:     COMMON   BANK0   BANK1   BANK3   BANK2
  7638 ;;      Params:         0       0       0       0       0
  7639 ;;      Locals:         0       0       0       0       0
  7640 ;;      Temps:          0       0       0       0       0
  7641 ;;      Totals:         0       0       0       0       0
  7642 ;;Total ram usage:        0 bytes
  7643 ;; Hardware stack levels used:    1
  7644 ;; Hardware stack levels required when called:    1
  7645 ;; This function calls:
  7646 ;;		_I2C_Master_Wait
  7647 ;; This function is called by:
  7648 ;;		_main
  7649 ;; This function uses a non-reentrant model
  7650 ;;
  7651                           
  7652                           
  7653                           ;psect for function _I2C_Master_Stop
  7654  142C                     _I2C_Master_Stop:
  7655  142C                     l2732:	
  7656                           ;incstack = 0
  7657                           ; Regs used in _I2C_Master_Stop: [wreg+status,2+status,0+pclath+cstack]
  7658                           
  7659                           
  7660                           ;Librerias.c: 55:     I2C_Master_Wait();
  7661  142C  160A  118A  243F  160A  118A  	fcall	_I2C_Master_Wait
  7662  1431                     l2734:
  7663                           
  7664                           ;Librerias.c: 56:     SSPCON2bits.PEN = 1;
  7665  1431  1683               	bsf	3,5	;RP0=1, select bank1
  7666  1432  1303               	bcf	3,6	;RP1=0, select bank1
  7667  1433  1511               	bsf	17,2	;volatile
  7668  1434                     l149:
  7669  1434  0008               	return
  7670  1435                     __end_of_I2C_Master_Stop:
  7671                           
  7672                           	psect	text24
  7673  1423                     __ptext24:	
  7674 ;; *************** function _I2C_Master_Start *****************
  7675 ;; Defined at:
  7676 ;;		line 37 in file "Librerias.c"
  7677 ;; Parameters:    Size  Location     Type
  7678 ;;		None
  7679 ;; Auto vars:     Size  Location     Type
  7680 ;;		None
  7681 ;; Return value:  Size  Location     Type
  7682 ;;                  1    wreg      void 
  7683 ;; Registers used:
  7684 ;;		wreg, status,2, status,0, pclath, cstack
  7685 ;; Tracked objects:
  7686 ;;		On entry : 0/0
  7687 ;;		On exit  : 0/0
  7688 ;;		Unchanged: 0/0
  7689 ;; Data sizes:     COMMON   BANK0   BANK1   BANK3   BANK2
  7690 ;;      Params:         0       0       0       0       0
  7691 ;;      Locals:         0       0       0       0       0
  7692 ;;      Temps:          0       0       0       0       0
  7693 ;;      Totals:         0       0       0       0       0
  7694 ;;Total ram usage:        0 bytes
  7695 ;; Hardware stack levels used:    1
  7696 ;; Hardware stack levels required when called:    1
  7697 ;; This function calls:
  7698 ;;		_I2C_Master_Wait
  7699 ;; This function is called by:
  7700 ;;		_main
  7701 ;; This function uses a non-reentrant model
  7702 ;;
  7703                           
  7704                           
  7705                           ;psect for function _I2C_Master_Start
  7706  1423                     _I2C_Master_Start:
  7707  1423                     l2724:	
  7708                           ;incstack = 0
  7709                           ; Regs used in _I2C_Master_Start: [wreg+status,2+status,0+pclath+cstack]
  7710                           
  7711                           
  7712                           ;Librerias.c: 39:     I2C_Master_Wait();
  7713  1423  160A  118A  243F  160A  118A  	fcall	_I2C_Master_Wait
  7714  1428                     l2726:
  7715                           
  7716                           ;Librerias.c: 40:     SSPCON2bits.SEN = 1;
  7717  1428  1683               	bsf	3,5	;RP0=1, select bank1
  7718  1429  1303               	bcf	3,6	;RP1=0, select bank1
  7719  142A  1411               	bsf	17,0	;volatile
  7720  142B                     l143:
  7721  142B  0008               	return
  7722  142C                     __end_of_I2C_Master_Start:
  7723                           
  7724                           	psect	text25
  7725  152D                     __ptext25:	
  7726 ;; *************** function _I2C_Master_Read *****************
  7727 ;; Defined at:
  7728 ;;		line 72 in file "Librerias.c"
  7729 ;; Parameters:    Size  Location     Type
  7730 ;;  a               2    0[COMMON] unsigned short 
  7731 ;; Auto vars:     Size  Location     Type
  7732 ;;  temp            2    4[COMMON] unsigned short 
  7733 ;; Return value:  Size  Location     Type
  7734 ;;                  2    0[COMMON] unsigned short 
  7735 ;; Registers used:
  7736 ;;		wreg, status,2, status,0, pclath, cstack
  7737 ;; Tracked objects:
  7738 ;;		On entry : 0/0
  7739 ;;		On exit  : 0/0
  7740 ;;		Unchanged: 0/0
  7741 ;; Data sizes:     COMMON   BANK0   BANK1   BANK3   BANK2
  7742 ;;      Params:         2       0       0       0       0
  7743 ;;      Locals:         2       0       0       0       0
  7744 ;;      Temps:          2       0       0       0       0
  7745 ;;      Totals:         6       0       0       0       0
  7746 ;;Total ram usage:        6 bytes
  7747 ;; Hardware stack levels used:    1
  7748 ;; Hardware stack levels required when called:    1
  7749 ;; This function calls:
  7750 ;;		_I2C_Master_Wait
  7751 ;; This function is called by:
  7752 ;;		_main
  7753 ;; This function uses a non-reentrant model
  7754 ;;
  7755                           
  7756                           
  7757                           ;psect for function _I2C_Master_Read
  7758  152D                     _I2C_Master_Read:
  7759  152D                     l2736:	
  7760                           ;incstack = 0
  7761                           ; Regs used in _I2C_Master_Read: [wreg+status,2+status,0+pclath+cstack]
  7762                           
  7763                           
  7764                           ;Librerias.c: 72: unsigned short I2C_Master_Read(unsigned short a);Librerias.c: 73: {;Li
      +                          brerias.c: 74:     unsigned short temp;;Librerias.c: 75:     I2C_Master_Wait();
  7765  152D  160A  118A  243F  160A  118A  	fcall	_I2C_Master_Wait
  7766  1532                     l2738:
  7767                           
  7768                           ;Librerias.c: 76:     SSPCON2bits.RCEN = 1;
  7769  1532  1683               	bsf	3,5	;RP0=1, select bank1
  7770  1533  1303               	bcf	3,6	;RP1=0, select bank1
  7771  1534  1591               	bsf	17,3	;volatile
  7772                           
  7773                           ;Librerias.c: 77:     I2C_Master_Wait();
  7774  1535  160A  118A  243F  160A  118A  	fcall	_I2C_Master_Wait
  7775  153A                     l2740:
  7776                           
  7777                           ;Librerias.c: 78:     temp = SSPBUF;
  7778  153A  1283               	bcf	3,5	;RP0=0, select bank0
  7779  153B  1303               	bcf	3,6	;RP1=0, select bank0
  7780  153C  0813               	movf	19,w	;volatile
  7781  153D  00F2               	movwf	??_I2C_Master_Read
  7782  153E  01F3               	clrf	??_I2C_Master_Read+1
  7783  153F  0872               	movf	??_I2C_Master_Read,w
  7784  1540  00F4               	movwf	I2C_Master_Read@temp
  7785  1541  0873               	movf	??_I2C_Master_Read+1,w
  7786  1542  00F5               	movwf	I2C_Master_Read@temp+1
  7787  1543                     l2742:
  7788                           
  7789                           ;Librerias.c: 79:     I2C_Master_Wait();
  7790  1543  160A  118A  243F  160A  118A  	fcall	_I2C_Master_Wait
  7791  1548                     l2744:
  7792                           
  7793                           ;Librerias.c: 80:     if(a == 1){
  7794  1548  0370               	decf	I2C_Master_Read@a,w
  7795  1549  0471               	iorwf	I2C_Master_Read@a+1,w
  7796  154A  1D03               	btfss	3,2
  7797  154B  2D4D               	goto	u3631
  7798  154C  2D4E               	goto	u3630
  7799  154D                     u3631:
  7800  154D  2D52               	goto	l155
  7801  154E                     u3630:
  7802  154E                     l2746:
  7803                           
  7804                           ;Librerias.c: 81:         SSPCON2bits.ACKDT = 0;
  7805  154E  1683               	bsf	3,5	;RP0=1, select bank1
  7806  154F  1303               	bcf	3,6	;RP1=0, select bank1
  7807  1550  1291               	bcf	17,5	;volatile
  7808                           
  7809                           ;Librerias.c: 82:     }else{
  7810  1551  2D55               	goto	l156
  7811  1552                     l155:
  7812                           
  7813                           ;Librerias.c: 83:         SSPCON2bits.ACKDT = 1;
  7814  1552  1683               	bsf	3,5	;RP0=1, select bank1
  7815  1553  1303               	bcf	3,6	;RP1=0, select bank1
  7816  1554  1691               	bsf	17,5	;volatile
  7817  1555                     l156:	
  7818                           ;Librerias.c: 84:     }
  7819                           
  7820                           
  7821                           ;Librerias.c: 85:     SSPCON2bits.ACKEN = 1;
  7822  1555  1611               	bsf	17,4	;volatile
  7823  1556                     l2748:
  7824                           
  7825                           ;Librerias.c: 86:     return temp;
  7826  1556  0875               	movf	I2C_Master_Read@temp+1,w
  7827  1557  00F1               	movwf	?_I2C_Master_Read+1
  7828  1558  0874               	movf	I2C_Master_Read@temp,w
  7829  1559  00F0               	movwf	?_I2C_Master_Read
  7830  155A                     l157:
  7831  155A  0008               	return
  7832  155B                     __end_of_I2C_Master_Read:
  7833                           
  7834                           	psect	text26
  7835  143F                     __ptext26:	
  7836 ;; *************** function _I2C_Master_Wait *****************
  7837 ;; Defined at:
  7838 ;;		line 30 in file "Librerias.c"
  7839 ;; Parameters:    Size  Location     Type
  7840 ;;		None
  7841 ;; Auto vars:     Size  Location     Type
  7842 ;;		None
  7843 ;; Return value:  Size  Location     Type
  7844 ;;                  1    wreg      void 
  7845 ;; Registers used:
  7846 ;;		wreg, status,2
  7847 ;; Tracked objects:
  7848 ;;		On entry : 0/0
  7849 ;;		On exit  : 0/0
  7850 ;;		Unchanged: 0/0
  7851 ;; Data sizes:     COMMON   BANK0   BANK1   BANK3   BANK2
  7852 ;;      Params:         0       0       0       0       0
  7853 ;;      Locals:         0       0       0       0       0
  7854 ;;      Temps:          0       0       0       0       0
  7855 ;;      Totals:         0       0       0       0       0
  7856 ;;Total ram usage:        0 bytes
  7857 ;; Hardware stack levels used:    1
  7858 ;; This function calls:
  7859 ;;		Nothing
  7860 ;; This function is called by:
  7861 ;;		_I2C_Master_Start
  7862 ;;		_I2C_Master_Stop
  7863 ;;		_I2C_Master_Write
  7864 ;;		_I2C_Master_Read
  7865 ;;		_I2C_Master_RepeatedStart
  7866 ;; This function uses a non-reentrant model
  7867 ;;
  7868                           
  7869                           
  7870                           ;psect for function _I2C_Master_Wait
  7871  143F                     _I2C_Master_Wait:
  7872  143F                     l2206:	
  7873                           ;incstack = 0
  7874                           ; Regs used in _I2C_Master_Wait: [wreg+status,2]
  7875                           
  7876  143F                     l137:	
  7877                           ;Librerias.c: 32:     while ((SSPSTAT & 0x04) || (SSPCON2 & 0x1F));
  7878                           
  7879  143F  1683               	bsf	3,5	;RP0=1, select bank1
  7880  1440  1303               	bcf	3,6	;RP1=0, select bank1
  7881  1441  1914               	btfsc	20,2	;volatile
  7882  1442  2C44               	goto	u2451
  7883  1443  2C45               	goto	u2450
  7884  1444                     u2451:
  7885  1444  2C3F               	goto	l137
  7886  1445                     u2450:
  7887  1445                     l2208:
  7888  1445  0811               	movf	17,w	;volatile
  7889  1446  391F               	andlw	31
  7890  1447  1D03               	btfss	3,2
  7891  1448  2C4A               	goto	u2461
  7892  1449  2C4B               	goto	u2460
  7893  144A                     u2461:
  7894  144A  2C3F               	goto	l137
  7895  144B                     u2460:
  7896  144B                     l140:
  7897  144B  0008               	return
  7898  144C                     __end_of_I2C_Master_Wait:
  7899  007E                     btemp	set	126	;btemp
  7900  007E                     wtemp0	set	126
  7901                           
  7902                           	psect	config
  7903                           
  7904                           ;Config register CONFIG1 @ 0x2007
  7905                           ;	Oscillator Selection bits
  7906                           ;	FOSC = INTRC_NOCLKOUT, INTOSCIO oscillator: I/O function on RA6/OSC2/CLKOUT pin, I/O f
      +                          unction on RA7/OSC1/CLKIN
  7907                           ;	Watchdog Timer Enable bit
  7908                           ;	WDTE = OFF, WDT disabled and can be enabled by SWDTEN bit of the WDTCON register
  7909                           ;	Power-up Timer Enable bit
  7910                           ;	PWRTE = OFF, PWRT disabled
  7911                           ;	RE3/MCLR pin function select bit
  7912                           ;	MCLRE = OFF, RE3/MCLR pin function is digital input, MCLR internally tied to VDD
  7913                           ;	Code Protection bit
  7914                           ;	CP = OFF, Program memory code protection is disabled
  7915                           ;	Data Code Protection bit
  7916                           ;	CPD = OFF, Data memory code protection is disabled
  7917                           ;	Brown Out Reset Selection bits
  7918                           ;	BOREN = OFF, BOR disabled
  7919                           ;	Internal External Switchover bit
  7920                           ;	IESO = OFF, Internal/External Switchover mode is disabled
  7921                           ;	Fail-Safe Clock Monitor Enabled bit
  7922                           ;	FCMEN = OFF, Fail-Safe Clock Monitor is disabled
  7923                           ;	Low Voltage Programming Enable bit
  7924                           ;	LVP = OFF, RB3 pin has digital I/O, HV on MCLR must be used for programming
  7925                           ;	In-Circuit Debugger Mode bit
  7926                           ;	DEBUG = 0x1, unprogrammed default
  7927  2007                     	org	8199
  7928  2007  20D4               	dw	8404
  7929                           
  7930                           ;Config register CONFIG2 @ 0x2008
  7931                           ;	Brown-out Reset Selection bit
  7932                           ;	BOR4V = BOR40V, Brown-out Reset set to 4.0V
  7933                           ;	Flash Program Memory Self Write Enable bits
  7934                           ;	WRT = OFF, Write protection off
  7935  2008                     	org	8200
  7936  2008  3FFF               	dw	16383

Data Sizes:
    Strings     15
    Constant    0
    Data        0
    BSS         62
    Persistent  0
    Stack       0

Auto Spaces:
    Space          Size  Autos    Used
    COMMON           14     14      14
    BANK0            80     80      80
    BANK1            80     19      71
    BANK3            96      0      10
    BANK2            96      0       0

Pointer List with Targets:

    convert@data	PTR unsigned char  size(1) Largest target is 10
		 -> humedad(BANK1[10]), lcd1(BANK1[10]), 

    Lcd_Write_String@a	PTR unsigned char  size(2) Largest target is 10
		 -> STR_5(CODE[2]), STR_4(CODE[2]), humedad(BANK1[10]), lcd1(BANK1[10]), 
		 -> STR_3(CODE[4]), STR_2(CODE[4]), STR_1(CODE[5]), 


Critical Paths under _main in COMMON

    _I2C_Master_Init->___lldiv
    _convert->___wmul
    ___xxtofl->___wmul
    ___wmul->___fltol
    ___flsub->___wmul
    _Lcd_Write_String->_Lcd_Write_Char
    _Lcd_Write_Char->_Lcd_Port
    _Lcd_Set_Cursor->_Lcd_Cmd
    _Lcd_Init->_Lcd_Cmd
    _Lcd_Clear->_Lcd_Cmd
    _Lcd_Cmd->_Lcd_Port

Critical Paths under _main in BANK0

    _main->_convert
    _setup->_I2C_Master_Init
    _convert->___flmul
    ___xxtofl->___wmul
    ___flsub->___fladd
    ___fladd->___xxtofl
    ___flmul->___flsub
    ___fldiv->___xxtofl

Critical Paths under _main in BANK1

    _main->_convert

Critical Paths under _main in BANK3

    None.

Critical Paths under _main in BANK2

    None.

Call Graph Tables:

 ---------------------------------------------------------------------------------
 (Depth) Function   	        Calls       Base Space   Used Autos Params    Refs
 ---------------------------------------------------------------------------------
 (0) _main                                                 4     4      0   22534
                                             15 BANK1      4     4      0
                    _I2C_Master_Read
                   _I2C_Master_Start
                    _I2C_Master_Stop
                   _I2C_Master_Write
                          _Lcd_Clear
                           _Lcd_Init
                     _Lcd_Set_Cursor
                   _Lcd_Write_String
                            ___fladd
                            ___fldiv
                            ___flmul
                           ___xxtofl
                            _convert
                              _setup
 ---------------------------------------------------------------------------------
 (1) _setup                                                0     0      0     412
                    _I2C_Master_Init
 ---------------------------------------------------------------------------------
 (2) _I2C_Master_Init                                      8     4      4     412
                                              0 BANK0      8     4      4
                            ___lldiv
 ---------------------------------------------------------------------------------
 (3) ___lldiv                                             14     6      8     314
                                              0 COMMON    14     6      8
 ---------------------------------------------------------------------------------
 (1) _convert                                             23    17      6   12065
                                             72 BANK0      8     2      6
                                              0 BANK1     15    15      0
                            ___awdiv
                            ___fldiv
                             ___flge
                            ___flmul
                            ___flsub
                            ___fltol
                             ___wmul
                           ___xxtofl
 ---------------------------------------------------------------------------------
 (2) ___xxtofl                                            14    10      4    1006
                                              4 BANK0     14    10      4
                            ___fltol (ARG)
                             ___wmul (ARG)
 ---------------------------------------------------------------------------------
 (2) ___wmul                                               6     2      4     852
                                             11 COMMON     2     2      0
                                              0 BANK0      4     0      4
                            ___fltol (ARG)
 ---------------------------------------------------------------------------------
 (2) ___fltol                                             11     7      4     761
                                              0 COMMON    11     7      4
 ---------------------------------------------------------------------------------
 (2) ___flsub                                              8     0      8    2789
                                             38 BANK0      8     0      8
                            ___fladd
                            ___fltol (ARG)
                             ___wmul (ARG)
                           ___xxtofl (ARG)
 ---------------------------------------------------------------------------------
 (3) ___fladd                                             20    12      8    2288
                                             18 BANK0     20    12      8
                           ___xxtofl (ARG)
 ---------------------------------------------------------------------------------
 (2) ___flmul                                             26    18      8    2873
                                             46 BANK0     26    18      8
                          __Umul8_16
                            ___fldiv (ARG)
                            ___flsub (ARG)
                            ___fltol (ARG)
                           ___xxtofl (ARG)
 ---------------------------------------------------------------------------------
 (3) __Umul8_16                                            9     7      2     799
                                              0 COMMON     9     7      2
 ---------------------------------------------------------------------------------
 (2) ___flge                                              12     4      8     334
                                              0 COMMON    12     4      8
 ---------------------------------------------------------------------------------
 (2) ___fldiv                                             26    18      8    1577
                                             18 BANK0     26    18      8
                           ___xxtofl (ARG)
 ---------------------------------------------------------------------------------
 (2) ___awdiv                                              9     5      4     452
                                              0 COMMON     9     5      4
 ---------------------------------------------------------------------------------
 (1) _Lcd_Write_String                                     7     5      2     666
                                              3 COMMON     7     5      2
                     _Lcd_Write_Char
 ---------------------------------------------------------------------------------
 (2) _Lcd_Write_Char                                       2     2      0      44
                                              1 COMMON     2     2      0
                           _Lcd_Port
 ---------------------------------------------------------------------------------
 (1) _Lcd_Set_Cursor                                       4     3      1     710
                                              4 COMMON     4     3      1
                            _Lcd_Cmd
 ---------------------------------------------------------------------------------
 (1) _Lcd_Init                                             2     2      0      66
                                              4 COMMON     2     2      0
                            _Lcd_Cmd
                           _Lcd_Port
 ---------------------------------------------------------------------------------
 (1) _Lcd_Clear                                            0     0      0      44
                            _Lcd_Cmd
 ---------------------------------------------------------------------------------
 (2) _Lcd_Cmd                                              3     3      0      44
                                              1 COMMON     3     3      0
                           _Lcd_Port
 ---------------------------------------------------------------------------------
 (3) _Lcd_Port                                             1     1      0      22
                                              0 COMMON     1     1      0
 ---------------------------------------------------------------------------------
 (1) _I2C_Master_Write                                     2     0      2     554
                                              0 COMMON     2     0      2
                    _I2C_Master_Wait
 ---------------------------------------------------------------------------------
 (1) _I2C_Master_Stop                                      0     0      0       0
                    _I2C_Master_Wait
 ---------------------------------------------------------------------------------
 (1) _I2C_Master_Start                                     0     0      0       0
                    _I2C_Master_Wait
 ---------------------------------------------------------------------------------
 (1) _I2C_Master_Read                                      6     4      2     273
                                              0 COMMON     6     4      2
                    _I2C_Master_Wait
 ---------------------------------------------------------------------------------
 (2) _I2C_Master_Wait                                      0     0      0       0
 ---------------------------------------------------------------------------------
 Estimated maximum stack depth 3
 ---------------------------------------------------------------------------------

 Call Graph Graphs:

 _main (ROOT)
   _I2C_Master_Read
     _I2C_Master_Wait
   _I2C_Master_Start
     _I2C_Master_Wait
   _I2C_Master_Stop
     _I2C_Master_Wait
   _I2C_Master_Write
     _I2C_Master_Wait
   _Lcd_Clear
     _Lcd_Cmd
       _Lcd_Port
   _Lcd_Init
     _Lcd_Cmd
       _Lcd_Port
     _Lcd_Port
   _Lcd_Set_Cursor
     _Lcd_Cmd
       _Lcd_Port
   _Lcd_Write_String
     _Lcd_Write_Char
       _Lcd_Port
   ___fladd
     ___xxtofl (ARG)
       ___fltol (ARG)
       ___wmul (ARG)
         ___fltol (ARG)
   ___fldiv
     ___xxtofl (ARG)
       ___fltol (ARG)
       ___wmul (ARG)
         ___fltol (ARG)
   ___flmul
     __Umul8_16
     ___fldiv (ARG)
       ___xxtofl (ARG)
         ___fltol (ARG)
         ___wmul (ARG)
           ___fltol (ARG)
     ___flsub (ARG)
       ___fladd
         ___xxtofl (ARG)
           ___fltol (ARG)
           ___wmul (ARG)
             ___fltol (ARG)
       ___fltol (ARG)
       ___wmul (ARG)
         ___fltol (ARG)
       ___xxtofl (ARG)
         ___fltol (ARG)
         ___wmul (ARG)
           ___fltol (ARG)
     ___fltol (ARG)
     ___xxtofl (ARG)
       ___fltol (ARG)
       ___wmul (ARG)
         ___fltol (ARG)
   ___xxtofl
     ___fltol (ARG)
     ___wmul (ARG)
       ___fltol (ARG)
   _convert
     ___awdiv
     ___fldiv
       ___xxtofl (ARG)
         ___fltol (ARG)
         ___wmul (ARG)
           ___fltol (ARG)
     ___flge
     ___flmul
       __Umul8_16
       ___fldiv (ARG)
         ___xxtofl (ARG)
           ___fltol (ARG)
           ___wmul (ARG)
             ___fltol (ARG)
       ___flsub (ARG)
         ___fladd
           ___xxtofl (ARG)
             ___fltol (ARG)
             ___wmul (ARG)
               ___fltol (ARG)
         ___fltol (ARG)
         ___wmul (ARG)
           ___fltol (ARG)
         ___xxtofl (ARG)
           ___fltol (ARG)
           ___wmul (ARG)
             ___fltol (ARG)
       ___fltol (ARG)
       ___xxtofl (ARG)
         ___fltol (ARG)
         ___wmul (ARG)
           ___fltol (ARG)
     ___flsub
       ___fladd
         ___xxtofl (ARG)
           ___fltol (ARG)
           ___wmul (ARG)
             ___fltol (ARG)
       ___fltol (ARG)
       ___wmul (ARG)
         ___fltol (ARG)
       ___xxtofl (ARG)
         ___fltol (ARG)
         ___wmul (ARG)
           ___fltol (ARG)
     ___fltol
     ___wmul
       ___fltol (ARG)
     ___xxtofl
       ___fltol (ARG)
       ___wmul (ARG)
         ___fltol (ARG)
   _setup
     _I2C_Master_Init
       ___lldiv

 Address spaces:
Name               Size   Autos  Total    Cost      Usage
BITCOMMON            E      0       0       0        0.0%
EEDATA             100      0       0       0        0.0%
NULL                 0      0       0       0        0.0%
CODE                 0      0       0       0        0.0%
COMMON               E      E       E       1      100.0%
BITSFR0              0      0       0       1        0.0%
SFR0                 0      0       0       1        0.0%
BITSFR1              0      0       0       2        0.0%
SFR1                 0      0       0       2        0.0%
STACK                0      0       0       2        0.0%
ABS                  0      0      AF       3        0.0%
BITBANK0            50      0       0       4        0.0%
BITSFR3              0      0       0       4        0.0%
SFR3                 0      0       0       4        0.0%
BANK0               50     50      50       5      100.0%
BITSFR2              0      0       0       5        0.0%
SFR2                 0      0       0       5        0.0%
BITBANK1            50      0       0       6        0.0%
BANK1               50     13      47       7       88.8%
BITBANK3            60      0       0       8        0.0%
BANK3               60      0       A       9       10.4%
BITBANK2            60      0       0      10        0.0%
BANK2               60      0       0      11        0.0%
DATA                 0      0      AF      12        0.0%


Microchip Technology PIC Macro Assembler V2.31 build 20201012212115 
Symbol Table                                                                                   Mon Sep 06 01:46:01 2021

             ___fldiv@aexp 004B               ___fldiv@bexp 004A                          pc 0002  
             ___fldiv@sign 0043                         l83 14DE                         l77 0CC0  
             ___awdiv@sign 0076                         fsr 0004        ___wmul@multiplicand 0022  
      __Umul8_16@word_mpld 0076                        l200 15D4                        l140 144B  
                      l134 1592                        l143 142B                        l152 143E  
                      l232 07E9                        l137 143F                        l155 1552  
                      l156 1555                        l412 163A                        l157 155A  
                      l149 1434                        l182 1458                        l191 084B  
                      l176 0806                        l194 001A                        l179 1472  
                      l188 1496                        l700 0C44                        l550 16BE  
                      l711 0CA4                        l703 0C82                        l712 0CB0  
                      l376 1514                        l529 16A1                        l553 172A  
                      l554 1743                        l562 0094                        l378 152C  
                      l715 14BA                        l811 17FF                        l572 0094  
                      l741 099A                        l725 08A8                        l822 17C9  
                      l727 0A28                        l823 17D5                        l815 17AD  
                      l673 0B33                        l569 007F                        l809 1768  
                      l690 0BFE                        l682 0CB0                        l747 0A0C  
                      l771 0361                        l675 0B0A                        l749 0A1C  
                      l765 03F5                        l669 0A8C                        l694 0C22  
                      l784 14F3                        l777 03E9                        l786 1505  
                      _GIE 005F                        fsr0 0004                        indf 0000  
             ___flmul@aexp 0060               ___flmul@bexp 0061               ___flmul@sign 005B  
             ___flmul@temp 0066               ___flmul@prod 0062               ___fltol@exp1 007A  
                     l2000 0A4D                       l2010 0A63                       l2002 0A4E  
                     l2100 0B6F                       l2020 0A74                       l2012 0A64  
                     l2004 0A50                       l2110 0B98                       l2102 0B73  
                     l2030 0A92                       l2022 0A79                       l2014 0A6A  
                     l2006 0A58                       l2120 0C06                       l2112 0BD6  
                     l2104 0B74                       l2040 0AA6                       l2032 0A96  
                     l2024 0A81                       l2016 0A6E                       l2008 0A5D  
                     l2200 158F                       l2210 145A                       l2130 0C21  
                     l2122 0C0B                       l2114 0BDC                       l2106 0B7D  
                     l2050 0ABA                       l2042 0AAA                       l2034 0A9A  
                     l2026 0A82                       l2018 0A6F                       l2202 1590  
                     l2212 145D                       l2220 0006                       l2300 1706  
                     l2132 0C26                       l2140 0C32                       l2116 0BE1  
                     l2108 0B82                       l2060 0ACE                       l2052 0ABE  
                     l2044 0AAE                       l2036 0A9E                       l2028 0A84  
                     l2204 1591                       l2206 143F                       l2214 1463  
                     l2222 0009                       l2302 1740                       l2134 0C29  
                     l2126 0C14                       l2118 0BF0                       l2142 0C36  
                     l2070 0B0E                       l2062 0AD2                       l2054 0AC2  
                     l2046 0AB2                       l2038 0AA2                       l2310 0026  
                     l2230 1506                       l2208 1445                       l2216 1466  
                     l2224 000F                       l2400 08CE                       l2304 1742  
                     l2160 0C7E                       l2152 0C49                       l2144 0C37  
                     l2136 0C2B                       l2128 0C1D                       l2080 0B27  
                     l2072 0B17                       l2056 0AC6                       l2048 0AB6  
                     l2064 0AD6                       l2320 004D                       l2240 1528  
                     l2232 1508                       l2218 146F                       l2226 0012  
                     l2250 1645                       l2410 08F9                       l2170 0C9A  
                     l2162 0C87                       l2154 0C4E                       l2146 0C3B  
                     l2138 0C30                       l2090 0B45                       l2074 0B19  
                     l2082 0B2B                       l2066 0AD7                       l2058 0ACA  
                     l2330 005B                       l2322 004F                       l2314 002F  
                     l2234 150E                       l2228 0017                       l2260 1656  
                     l2252 1647                       l2244 163B                       l2420 091E  
                     l2412 0901                       l2404 08D7                       l2180 14E0  
                     l2500 00A7                       l2172 0C9E                       l2164 0C8C  
                     l2156 0C5C                       l2148 0C41                       l2092 0B5C  
                     l2084 0B37                       l2076 0B1D                       l2068 0AEE  
                     l2340 0084                       l2324 0053                       l2332 006D  
                     l2316 0044                       l2308 001B                       l2236 151B  
                     l2270 166E                       l2262 165C                       l2254 164B  
                     l2246 163C                       l2430 0949                       l2422 091F  
                     l2414 0903                       l2406 08E9                       l2350 084C  
                     l2190 1501                       l2182 14E2                       l2510 00C3  
                     l2502 00AC                       l2174 0CA0                       l2166 0C94  
                     l2158 0C60                       l2094 0B60                       l2086 0B3C  
                     l2078 0B1E                       l2342 0089                       l2318 0045  
                     l2238 1522                       l2272 167F                       l2264 165F  
                     l2280 1693                       l2256 1650                       l2248 1640  
                     l2440 0966                       l2416 0908                       l2424 0928  
                     l2432 094D                       l2408 08F1                       l2360 0863  
                     l2352 0853                       l2184 14E9                       l2600 0366  
                     l2520 00D8                       l2512 00C8                       l2504 00B1  
                     l2176 0CAB                       l2168 0C99                       l2096 0B64  
                     l2344 1497                       l2282 1698                       l2274 1685  
                     l2266 1666                       l2258 1654                       l2450 097E  
                     l2442 096A                       l2434 0953                       l2426 093A  
                     l2418 091A                       l2370 087B                       l2362 0868  
                     l2354 0859                       l2290 16B6                       l2186 14ED  
                     l2602 036B                       l2610 039C                       l2530 00F4  
                     l2522 00DD                       l2514 00CE                       l2506 00B9  
                     l2178 0CAF                       l2098 0B6D                       l2346 149B  
                     l2338 0074                       l2194 155B                       l2700 082B  
                     l2284 169D                       l2276 1686                       l2268 166A  
                     l2460 099F                       l2452 097F                       l2444 096B  
                     l2436 095B                       l2428 093B                       l2380 0890  
                     l2372 0880                       l2364 0870                       l2356 085D  
                     l2292 16D2                       l2188 14FC                       l2620 03CF  
                     l2612 03A9                       l2604 0379                       l2540 011F  
                     l2532 00F9                       l2524 00E5                       l2516 00D2  
                     l2508 00BB                       l2196 155F                       l2702 144C  
                     l2710 1485                       l2278 168D                       l2462 09A4  
                     l2470 09D5                       l2454 0983                       l2446 0974  
                     l2438 095D                       l2390 08B0                       l2382 0895  
                     l2374 0886                       l2366 0871                       l2358 085E  
                     l2294 16DA                       l2622 03DD                       l2614 03B4  
                     l2606 037D                       l2550 01BC                       l2542 013C  
                     l2526 00E7                       l2518 00D3                       l2198 1562  
                     l2712 148B                       l2704 1474                       l2720 15B2  
                     l2480 0A0B                       l2472 09E2                       l2464 09B2  
                     l2456 0997                       l2448 097A                       l2392 08BC  
                     l2384 089D                       l2376 088A                       l2368 0873  
                     l2296 16DE                       l2288 16A2                       l2624 03E1  
                     l2616 03C3                       l2608 0396                       l2560 021F  
                     l2552 01C5                       l2544 0158                       l2536 0102  
                     l2528 00EF                       l2640 1770                       l2632 1747  
                     l2800 05A3                       l2730 143A                       l2714 1490  
                     l2706 1479                       l2722 15B8                       l2482 0A12  
                     l2474 09F0                       l2466 09B6                       l2394 08C0  
                     l2386 089E                       l2378 088B                       l2298 1702  
                     l2626 03E2                       l2618 03CD                       l2570 02BF  
                     l2562 0238                       l2554 01D5                       l2546 0184  
                     l2538 0112                       l2650 1792                       l2634 174C  
                     l2810 05C6                       l2802 05A9                       l2740 153A  
                     l2724 1423                       l2732 142C                       l2708 147E  
                     l2716 1593                       l2484 0A16                       l2476 09FF  
                     l2468 09CF                       l2388 08A0                       l2628 03ED  
                     l2580 032D                       l2572 02E5                       l2564 0255  
                     l2556 01F2                       l2548 01A0                       l2492 0095  
                     l2660 17C3                       l2652 1796                       l2644 1779  
                     l2636 1750                       l2820 0698                       l2812 05E7  
                     l2804 05B9                       l2900 0F13                       l2742 1543  
                     l2726 1428                       l2734 1431                       l2718 1596  
                     l2486 0A18                       l2478 0A03                       l2398 08C9  
                     l2590 0345                       l2582 0331                       l2574 030D  
                     l2566 0282                       l2558 0202                       l2494 009C  
                     l2670 17F6                       l2662 17CD                       l2654 17A4  
                     l2646 177E                       l2638 1760                       l2830 06BE  
                     l2822 06A5                       l2814 05ED                       l2806 05C1  
                     l2910 0FA6                       l2902 0F1B                       l2744 1548  
                     l2736 152D                       l2728 1435                       l1960 0802  
                     l2592 0346                       l2584 0332                       l2576 0316  
                     l2568 0292                       l2496 00A2                       l2672 17F7  
                     l2664 17D7                       l2656 17B4                       l2648 178B  
                     l2840 0705                       l2832 06C3                       l2824 06A5  
                     l2816 0605                       l2808 05C1                       l2760 0412  
                     l2752 03F9                       l2680 14C2                       l2920 0FEE  
                     l2912 0FBB                       l2904 0F3B                       l2746 154E  
                     l2738 1532                       l2594 034A                       l2586 033B  
                     l2578 0324                       l2498 00A6                       l2666 17ED  
                     l2658 17BF                       l2842 07A1                       l2834 06C8  
                     l2850 07D3                       l2826 06AB                       l2818 0682  
                     l2770 045D                       l2762 0416                       l2754 040E  
                     l1970 15F9                       l1962 15D5                       l2690 14DD  
                     l2682 14CB                       l2914 0FC4                       l2906 0F45  
                     l2748 1556                       l2692 0807                       l2596 035E  
                     l2588 0341                       l2668 17F2                       l2852 07D9  
                     l2844 07C1                       l2836 06E9                       l2828 06B8  
                     l2780 048E                       l2772 0466                       l2764 0416  
                     l2756 040E                       l1980 162C                       l1972 1602  
                     l1964 15E5                       l2684 14D8                       l2676 14BB  
                     l2916 0FD9                       l2908 0F9E                       l2860 0CE6  
                     l2694 080D                       l1990 0A36                       l2846 07C9  
                     l2838 06EF                       l2790 04D5                       l2782 0493  
                     l2774 0479                       l2766 0431                       l2758 0410  
                     l1974 1614                       l1966 15E8                       l1982 1632  
                     l2686 14DB                       l2678 14BF                       l2918 0FE5  
                     l2870 0D34                       l2862 0CF2                       l2854 0CB1  
                     l2696 0816                       l1992 0A3A                       l2848 07CF  
                     l2792 0571                       l2784 0498                       l2768 0452  
                     l2776 047F                       l1976 1622                       l1968 15F5  
                     l2688 14DC                       l2880 0D86                       l2872 0D42  
                     l2864 0D17                       l2856 0CC8                       l2698 0825  
                     l1994 0A3B                       l1986 0A29                       l2794 0591  
                     l2786 04B9                       l2778 0488                       l1978 1623  
                     l2890 0DE1                       l2882 0D8F                       l2874 0D47  
                     l2866 0D26                       l2858 0CD1                       l1996 0A40  
                     l1988 0A30                       l2796 0599                       l2788 04BF  
                     l2892 0E16                       l2884 0D9D                       l2876 0D72  
                     l2868 0D2B                       l1998 0A45                       l2798 059F  
                     l2894 0E76                       l2886 0DA2                       l2878 0D81  
                     l2896 0ECC                       l2888 0DD2                       l2898 0F0B  
                     STR_1 1010                       STR_2 1015                       STR_3 1019  
                     STR_4 101D                       STR_5 101D                       u2000 0A74  
                     u2001 0A73                       u2010 0A79                       u2011 0A78  
                     u2100 0B33                       u2020 0A92                       u2101 0B32  
                     u2021 0A91                       u2110 0B37                       u2030 0A96  
                     u2111 0B36                       u2031 0A95                       u3000 099E  
                     u2200 0BC3                       u2120 0B3C                       u2040 0AEE  
                     u3001 099D                       u2201 0BC4                       u2121 0B3B  
                     u2041 0AED                       u3010 09A4                       u2210 0BE1  
                     u2202 0BC9                       u2050 0AF9                       u3011 09A3  
                     u2211 0BE0                       u2203 0BCA                       u2131 0B4E  
                     u2051 0AF7                       u3020 09B6                       u3100 00D2  
                     u2300 0C41                       u2220 0C06                       u2140 0B60  
                     u2132 0B55                       u2060 0AFA                       u3021 09B5  
                     u3101 00D1                       u2301 0C40                       u2221 0C05  
                     u2141 0B5F                       u2133 0B5C                       u2045 0AEA  
                     u3030 09C5                       u3110 00D8                       u2310 0C48  
                     u2230 0C0B                       u2150 0B64                       u2070 0B0E  
                     u3111 00D7                       u2311 0C47                       u2231 0C0A  
                     u2151 0B63                       u2071 0B0D                       u3040 09E2  
                     u3120 00DD                       u2400 0CAF                       u2320 0C4E  
                     u2160 0B73                       u2080 0B1D                       u3041 09E1  
                     u3201 01E4                       u3121 00DC                       u2401 0CAE  
                     u2321 0C4D                       u2161 0B72                       u2081 0B1C  
                     u3050 09FF                       u2410 14ED                       u3202 01EB  
                     u3130 00F4                       u2330 0C60                       u2250 0C21  
                     u3051 09FE                       u3035 09C0                       u2411 14EC  
                     u3211 0211                       u3203 01F2                       u3131 00F3  
                     u2331 0C5F                       u2251 0C20                       u3060 0A16  
                     u3212 0218                       u3140 00F9                       u2340 0C6F  
                     u2260 0C26                       u2180 0B98                       u2500 1528  
                     u3061 0A15                       u3045 09DE                       u3213 021F  
                     u3141 00F8                       u2261 0C25                       u2245 0C16  
                     u2181 0B97                       u2501 1527                       u2510 1640  
                     u2430 1501                       u3070 00A6                       u2350 0C7E  
                     u2270 0C30                       u2511 163F                       u3055 09FB  
                     u2431 1500                       u3231 0247                       u3151 014A  
                     u3071 00A5                       u2351 0C7D                       u2271 0C2F  
                     u2191 0BAF                       u2183 0B94                       u2175 0B76  
                     u2095 0B20                       u2600 1698                       u2520 164B  
                     u3400 038C                       u3320 0331                       u3232 024E  
                     u3152 0151                       u3080 00AC                       u2360 0C87  
                     u2280 0C36                       u2192 0BB0                       u2440 1572  
                     u2601 1697                       u2521 164A                       u2425 14F4  
                     u3321 0330                       u3305 030F                       u3241 0274  
                     u3233 0255                       u3225 0221                       u3161 0166  
                     u3153 0158                       u3081 00AB                       u2361 0C86  
                     u2345 0C6A                       u2281 0C35                       u2193 0BB5  
                     u2450 1445                       u2530 165C                       u2610 16B6  
                     u3410 03A9                       u3242 027B                       u3162 016D  
                     u3090 00B1                       u2370 0C8C                       u2290 0C3B  
                     u2194 0BB6                       u2451 1444                       u2531 165B  
                     u2611 16B5                       u3411 03A8                       u3315 0326  
                     u3251 02A1                       u3243 0282                       u3171 0192  
                     u3163 0174                       u3091 00B0                       u2371 0C8B  
                     u2291 0C3A                       u2195 0BBB                       u2460 144B  
                     u2620 16D2                       u3420 03C3                       u3340 0345  
                     u3260 02CB                       u3252 02A8                       u3172 0199  
                     u2380 0C99                       u2196 0BBC                       u2700 0053  
                     u3500 17B3                       u1900 15F9                       u2461 144A  
                     u2621 16D1                       u3421 03C2                       u3405 0387  
                     u3341 0344                       u3253 02AF                       u3181 01AE  
                     u3173 01A0                       u2381 0C98                       u2701 0052  
                     u3501 17B2                       u1901 15F8                       u2445 156D  
                     u2550 166E                       u2630 16DE                       u3430 03E1  
                     u3350 034A                       u3182 01B5                       u2390 0C9E  
                     u2710 005A                       u2470 150E                       u2551 166D  
                     u2631 16DD                       u3431 03E0                       u3415 03A5  
                     u3351 0349                       u3335 0334                       u3271 02D7  
                     u3183 01BC                       u2391 0C9D                       u2711 0059  
                     u2471 150D                       u3600 15A0                       u2800 0868  
                     u3360 035E                       u3280 02F3                       u3272 02DE  
                     u3520 17C3                       u3440 174C                       u1920 1614  
                     u2545 1660                       u2801 0867                       u2641 16ED  
                     u3425 03BF                       u3361 035D                       u3273 02E5  
                     u3265 02C6                       u3521 17C2                       u3441 174B  
                     u1921 1613                       u3610 15C2                       u2570 167F  
                     u2810 088A                       u2650 1706                       u2642 16EE  
                     u3370 0365                       u2730 006C                       u3530 17C9  
                     u3450 1750                       u2571 167E                       u2811 0889  
                     u2651 1705                       u2643 16F3                       u3371 0364  
                     u3291 02FF                       u3195 01BE                       u2731 006B  
                     u3531 17C8                       u3515 17B8                       u3451 174F  
                     u1915 15FB                       u3620 15D4                       u2820 0890  
                     u2644 16F4                       u3380 036B                       u3292 0306  
                     u2740 0073                       u3540 17CD                       u3460 1770  
                     u3700 06BE                       u1940 1632                       u3621 15D3  
                     u2565 166F                       u2821 088F                       u2661 1715  
                     u2645 16F9                       u3381 036A                       u3293 030D  
                     u3285 02EE                       u2741 0072                       u2725 005C  
                     u2485 1515                       u3541 17CC                       u3461 176F  
                     u3701 06BD                       u1941 1631                       u1925 1610  
                     u3630 154E                       u2590 1693                       u2910 093A  
                     u2830 0895                       u2670 1740                       u2662 1716  
                     u2646 16FA                       u3390 037D                       u1950 0A3A  
                     u3550 17E2                       u3710 0705                       u3631 154D  
                     u2591 1692                       u2575 167B                       u2911 0939  
                     u2831 0894                       u2671 173F                       u2663 171B  
                     u3391 037C                       u1951 0A39                       u2495 151C  
                     u3711 0704                       u1935 1624                       u2920 0953  
                     u2840 08B0                       u2664 171C                       u1960 0A40  
                     u2760 0084                       u2680 0026                       u3560 17F2  
                     u3480 1791                       u3720 07D9                       u3640 0431  
                     u1880 15E5                       u2585 1687                       u2921 0952  
                     u2905 0921                       u2841 08AF                       u2665 1721  
                     u1961 0A3F                       u2761 0083                       u2681 0025  
                     u3561 17F1                       u3481 1790                       u3721 07D8  
                     u3641 0430                       u1881 15E4                       u2930 095B  
                     u2850 08CE                       u2666 1722                       u1970 0A45  
                     u2770 0089                       u2690 003D                       u3570 17F6  
                     u3650 0487                       u2931 095A                       u2915 0936  
                     u2851 08CD                       u2675 173C                       u1971 0A44  
                     u2771 0088                       u2755 0076                       u3571 17F5  
                     u3555 17DD                       u3475 1783                       u3715 0701  
                     u3651 0486                       _PEIE 005E                       u3580 1479  
                     u2860 0908                       u2780 085D                       u1980 0A63  
                     u3660 048E                       u3581 1478                       u2861 0907  
                     u2781 085C                       u1981 0A62                       u3661 048D  
                     u3590 148B                       u2950 096A                       u2790 0863  
                     u1990 0A6E                       u3670 04D5                       u3807 0811  
                     u3591 148A                       u2951 0969                       u2791 0862  
                     u1991 0A6D                       u2695 0038                       u3495 17A5  
                     u3671 04D4                       u1895 15EA                       u3680 05A9  
                     u3817 0820                       u2945 095F                       u3681 05A8  
                     u3737 0D1F                       u2970 097E                       u2890 091E  
                     u3690 0605                       u3827 082F                       u2971 097D  
                     u2891 091D                       u2875 090A                       u3691 0604  
                     u3675 04D1                       u3747 0D4F                       u2980 0983  
                     u3837 146A                       u2981 0982                       u2965 096D  
                     u2885 0913                       u3757 0D7A                       u2990 0997  
                     u2991 0996                       u3695 0601                       u3767 0DAA  
                     u3777 0DDA                       u3787 0FF6                       u3797 0014  
                     _lcd1 00CA                       _lcd3 0190          ?_Lcd_Write_String 0073  
                     _dato 00BB                       _main 0CB1                       _tem1 00BF  
                     _tem2 00BE                       _temp 00B4                       btemp 007E  
                     _volt 00B0                       start 0000         ??_Lcd_Write_String 0075  
          ___fldiv@new_exp 0044            __end_of_Lcd_Cmd 1473           ?_I2C_Master_Init 0020  
         ?_I2C_Master_Read 0070           ?_I2C_Master_Wait 0070           ?_I2C_Master_Stop 0070  
            ___fltol@sign1 0079            __end_of___fladd 0CB1                      ?_main 0070  
          __end_of___fldiv 0A29            __end_of___awdiv 16A2            __end_of___flmul 03F6  
          __end_of___flsub 14BB            __end_of___fltol 0095                      _ANSEL 0188  
          __end_of___lldiv 163B            ___awdiv@divisor 0070            ___awdiv@counter 0075  
                    _PORTB 0006                      _PORTD 0008                      _PORTE 0009  
  __size_of_Lcd_Set_Cursor 0024                      _TRISB 0086                      _TRISD 0088  
                    _SSPIE 0463                      _TRISE 0089                      _SSPIF 0063  
              convert@data 00D8                convert@temp 00D4            __end_of_convert 07EA  
                    _conv0 00A4                      _conv1 00A8                      _conv3 00A0  
                    _setup 14BB                      pclath 000A                      status 0003  
                    wtemp0 007E           __end_of_Lcd_Init 084C           __end_of_Lcd_Port 0807  
          __initialization 07EA               __end_of_main 1000                     ??_main 00E3  
       __size_of_Lcd_Clear 000D          ?_I2C_Master_Start 0070          ?_I2C_Master_Write 0070  
       ??_I2C_Master_Start 0070         ??_I2C_Master_Write 0072           ___awdiv@dividend 0072  
                   ?_setup 0070                     _ANSELH 0189                  ??_Lcd_Cmd 0071  
  __size_of_Lcd_Write_Char 0016                     _SSPADD 0093                     _TRISC3 043B  
                   _TRISC4 043C                     _SSPCON 0014                     _SSPBUF 0013  
         __end_of___xxtofl 1800                     ___flge 16A2               convert@place 006C  
                ??___fladd 003A                     ___wmul 1506                  ??___fldiv 003A  
                ??___awdiv 0074                  ??___flmul 0056                  ??___flsub 007D  
                ??___fltol 0074                  ??___lldiv 0078           ___awdiv@quotient 0077  
                ??_convert 006E         __size_of__Umul8_16 0027            Lcd_Set_Cursor@a 0076  
          Lcd_Set_Cursor@b 0074                 ___flge@ff1 0070                 ___flge@ff2 0074  
             ___xxtofl@arg 002E               ___xxtofl@exp 002D               ___xxtofl@val 0024  
  __end_of__initialization 07FC          __end_of_Lcd_Clear 1459                 ___fltol@f1 0070  
           __pcstackCOMMON 0070              __end_of_setup 14DF             _Lcd_Set_Cursor 1473  
                ?_Lcd_Init 0070                  ?_Lcd_Port 0070                    ??_setup 007E  
               __pbssBANK1 00A0                 __pbssBANK3 0190          __end_of__Umul8_16 1506  
               __pmaintext 0CB1                    ?___flge 0070                    ?___wmul 0020  
__size_of_Lcd_Write_String 0042     __end_of_Lcd_Set_Cursor 1497                  ?___xxtofl 0024  
               ??_Lcd_Init 0074                 ??_Lcd_Port 0070               _datos_sensor 00B8  
                  _SSPCON2 0091                    _SSPSTAT 0094                 __stringtab 1000  
           _Lcd_Write_Char 0005                    _Lcd_Cmd 1459              convert@digits 00DF  
          __size_of___flge 00A2                    ___fladd 0A29                    ___fldiv 084C  
                  ___awdiv 163B                    ___flmul 0095                    ___flsub 1497  
                  ___fltol 001B                    ___lldiv 15D5            __size_of___wmul 0027  
                _ANSELbits 0188            ?_Lcd_Set_Cursor 0074                    __ptext1 14BB  
                  __ptext2 155B                    __ptext3 15D5                    __ptext4 03F6  
                  __ptext5 1744                    __ptext6 1506                    __ptext7 001B  
                  __ptext8 1497                    __ptext9 0A29                    _convert 03F6  
               ??___xxtofl 0028                    _humedad 00C0   __size_of_I2C_Master_Init 0038  
 __size_of_I2C_Master_Read 002E                    _var_hum 00BD   __size_of_I2C_Master_Wait 000D  
 __size_of_I2C_Master_Stop 0009                    clrloop0 141C     __end_of_Lcd_Write_Char 001B  
     end_of_initialization 07FC  __size_of_I2C_Master_Start 0009  __size_of_I2C_Master_Write 000A  
          ___lldiv@divisor 0070            ___lldiv@counter 007D           I2C_Master_Init@c 0020  
         I2C_Master_Read@a 0070                  Lcd_Port@a 0070                  _PORTEbits 0009  
              ___fladd@grs 0045              ___xxtofl@sign 002C                  _TRISCbits 0087  
              ___fldiv@grs 0046                ___fldiv@rem 003F            ?_Lcd_Write_Char 0070  
        Lcd_Write_String@a 0073          Lcd_Write_String@i 0078                ___flmul@grs 005C  
                _Lcd_Clear 144C             __end_of___flge 1744             __end_of___wmul 152D  
         _Lcd_Write_String 1593        start_initialization 07EA          __size_of_Lcd_Init 0045  
        __size_of_Lcd_Port 0006          ??_I2C_Master_Init 0024          ??_I2C_Master_Read 0072  
        ??_I2C_Master_Wait 0070          ??_I2C_Master_Stop 0070                 ?_Lcd_Clear 0070  
                 ??___flge 0078                   ??___wmul 007B                  __Umul8_16 14DF  
          Lcd_Write_Char@a 0072                  ___fladd@a 0036                  ___fladd@b 0032  
                ___fldiv@a 0032                  ___fldiv@b 0036                  ___flmul@a 0052  
                ___flmul@b 004E                  ___flsub@a 0046                  ___flsub@b 004A  
                ___latbits 0002              __pcstackBANK0 0020              __pcstackBANK1 00D4  
        __size_of___xxtofl 00BC                   ?_Lcd_Cmd 0070           _I2C_Master_Start 1423  
         _I2C_Master_Write 1435           ??_Lcd_Set_Cursor 0075                   ?___fladd 0032  
                 ?___fldiv 0032                   ?___awdiv 0070                   ?___flmul 004E  
                 ?___flsub 0046                   ?___fltol 0070                   ?___lldiv 0070  
               ?__Umul8_16 0070                  __pstrings 1000                   ?_convert 0068  
           __size_of_setup 0024             ___wmul@product 007B                  clear_ram0 141B  
                 _PIE1bits 008C                   Lcd_Cmd@a 0073                   _PIR1bits 000C  
              ??_Lcd_Clear 0074                 _ADCON0bits 001F                __stringbase 100F  
               _ADCON1bits 009F          ___wmul@multiplier 0020           ??_Lcd_Write_Char 0071  
                 _Lcd_Init 0807                   _Lcd_Port 0801        I2C_Master_Read@temp 0074  
                convert@mu 00E1   __end_of_Lcd_Write_String 15D5           __size_of_Lcd_Cmd 001A  
              ??__Umul8_16 0072           __size_of___fladd 0288           __size_of___fldiv 01DD  
         __size_of___awdiv 0067           __size_of___flmul 0361           __size_of___flsub 0024  
         __size_of___fltol 007A           __size_of___lldiv 0066         __end_of__stringtab 1010  
               _ANSELHbits 0189           __size_of_convert 03F4            _I2C_Master_Init 155B  
          _I2C_Master_Read 152D                   ___xxtofl 1744            _I2C_Master_Wait 143F  
          _I2C_Master_Stop 142C                   __ptext10 0095                   __ptext11 14DF  
                 __ptext20 1459                   __ptext12 16A2                   __ptext21 0801  
                 __ptext13 084C                   __ptext22 1435                   __ptext14 163B  
                 __ptext23 142C                   __ptext15 1593                   __ptext24 1423  
                 __ptext16 0005                   __ptext25 152D                   __ptext17 1473  
                 __ptext26 143F                   __ptext18 0807                   __ptext19 144C  
            __size_of_main 034F                   convert@a 0068                   convert@i 00DD  
                 convert@j 00D6                   convert@x 00D9   __end_of_I2C_Master_Start 142C  
 __end_of_I2C_Master_Write 143F                 _INTCONbits 000B           ___lldiv@dividend 0074  
                stringcode 100A                 _OSCCONbits 008F    __end_of_I2C_Master_Init 1593  
  __end_of_I2C_Master_Read 155B    __end_of_I2C_Master_Wait 144C    __end_of_I2C_Master_Stop 1435  
       Lcd_Set_Cursor@temp 0077     __Umul8_16@multiplicand 0070                _temperatura 00AC  
         ___lldiv@quotient 0079          I2C_Master_Write@d 0070                   stringdir 100A  
                 stringtab 1000                _SSPCON2bits 0091              ___fladd@signs 0042  
             ___fladd@aexp 0043               ___fladd@bexp 0044       __Umul8_16@multiplier 0078  
        __Umul8_16@product 0074  
