

Microchip MPLAB XC8 Assembler V2.32 build 20210201212658 
                                                                                               Mon Sep 06 11:35:04 2021

Microchip MPLAB XC8 C Compiler v2.32 (Free license) build 20210201212658 Og1 
     1                           	processor	16F887
     2                           	pagewidth 120
     3                           	opt	flic
     4                           	psect	strings,global,class=STRING,delta=2,noexec
     5                           	psect	cinit,global,class=CODE,merge=1,delta=2
     6                           	psect	bssBANK1,global,class=BANK1,space=1,delta=1,noexec
     7                           	psect	bssBANK3,global,class=BANK3,space=1,delta=1,noexec
     8                           	psect	clrtext,global,class=CODE,delta=2
     9                           	psect	cstackBANK1,global,class=BANK1,space=1,delta=1,noexec
    10                           	psect	cstackCOMMON,global,class=COMMON,space=1,delta=1,noexec
    11                           	psect	cstackBANK0,global,class=BANK0,space=1,delta=1,noexec
    12                           	psect	maintext,global,class=CODE,split=1,delta=2
    13                           	psect	text1,local,class=CODE,merge=1,delta=2
    14                           	psect	text2,local,class=CODE,merge=1,delta=2
    15                           	psect	text3,local,class=CODE,merge=1,delta=2,group=1
    16                           	psect	text4,local,class=CODE,merge=1,delta=2
    17                           	psect	text5,local,class=CODE,merge=1,delta=2,group=1
    18                           	psect	text6,local,class=CODE,merge=1,delta=2,group=1
    19                           	psect	text7,local,class=CODE,merge=1,delta=2,group=1
    20                           	psect	text8,local,class=CODE,merge=1,delta=2,group=1
    21                           	psect	text9,local,class=CODE,merge=1,delta=2,group=1
    22                           	psect	text10,local,class=CODE,merge=1,delta=2,group=1
    23                           	psect	text11,local,class=CODE,merge=1,delta=2,group=1
    24                           	psect	text12,local,class=CODE,merge=1,delta=2,group=1
    25                           	psect	text13,local,class=CODE,merge=1,delta=2,group=1
    26                           	psect	text14,local,class=CODE,merge=1,delta=2,group=1
    27                           	psect	text15,local,class=CODE,merge=1,delta=2
    28                           	psect	text16,local,class=CODE,merge=1,delta=2
    29                           	psect	text17,local,class=CODE,merge=1,delta=2
    30                           	psect	text18,local,class=CODE,merge=1,delta=2
    31                           	psect	text19,local,class=CODE,merge=1,delta=2
    32                           	psect	text20,local,class=CODE,merge=1,delta=2
    33                           	psect	text21,local,class=CODE,merge=1,delta=2
    34                           	psect	text22,local,class=CODE,merge=1,delta=2
    35                           	psect	text23,local,class=CODE,merge=1,delta=2
    36                           	psect	text24,local,class=CODE,merge=1,delta=2
    37                           	psect	text25,local,class=CODE,merge=1,delta=2
    38                           	psect	text26,local,class=CODE,merge=1,delta=2
    39                           	psect	text27,local,class=CODE,merge=1,delta=2
    40                           	psect	text28,local,class=CODE,merge=1,delta=2
    41                           	psect	config,global,abs,ovrld,class=CONFIG,space=4,delta=2,noexec
    42                           	dabs	1,0x7E,2
    43  0000                     
    44                           ; Version 2.20
    45                           ; Generated 12/02/2020 GMT
    46                           ; 
    47                           ; Copyright © 2020, Microchip Technology Inc. and its subsidiaries ("Microchip")
    48                           ; All rights reserved.
    49                           ; 
    50                           ; This software is developed by Microchip Technology Inc. and its subsidiaries ("Microch
      +                          ip").
    51                           ; 
    52                           ; Redistribution and use in source and binary forms, with or without modification, are
    53                           ; permitted provided that the following conditions are met:
    54                           ; 
    55                           ;     1. Redistributions of source code must retain the above copyright notice, this lis
      +                          t of
    56                           ;        conditions and the following disclaimer.
    57                           ; 
    58                           ;     2. Redistributions in binary form must reproduce the above copyright notice, this 
      +                          list
    59                           ;        of conditions and the following disclaimer in the documentation and/or other
    60                           ;        materials provided with the distribution.
    61                           ; 
    62                           ;     3. Microchip's name may not be used to endorse or promote products derived from th
      +                          is
    63                           ;        software without specific prior written permission.
    64                           ; 
    65                           ; THIS SOFTWARE IS PROVIDED BY MICROCHIP "AS IS" AND ANY EXPRESS OR IMPLIED WARRANTIES,
    66                           ; INCLUDING, BUT NOT LIMITED TO, THE IMPLIED WARRANTIES OF MERCHANTABILITY AND FITNESS F
      +                          OR
    67                           ; PURPOSE ARE DISCLAIMED.  IN NO EVENT SHALL MICROCHIP BE LIABLE FOR ANY DIRECT, INDIREC
      +                          T,
    68                           ; INCIDENTAL, SPECIAL, EXEMPLARY, OR CONSEQUENTIAL DAMAGES (INCLUDING BUT NOT LIMITED TO
    69                           ; PROCUREMENT OF SUBSTITUTE GOODS OR SERVICES; LOSS OF USE, DATA OR PROFITS; OR BUSINESS
    70                           ; INTERRUPTION) HOWSOEVER CAUSED AND ON ANY THEORY OF LIABILITY, WHETHER IN CONTRACT, ST
      +                          RICT
    71                           ; LIABILITY, OR TORT (INCLUDING NEGLIGENCE OR OTHERWISE) ARISING IN ANY WAY OUT OF THE U
      +                          SE OF
    72                           ; THIS SOFTWARE, EVEN IF ADVISED OF THE POSSIBILITY OF SUCH DAMAGE.
    73                           ; 
    74                           ; 
    75                           ; Code-generator required, PIC16F887 Definitions
    76                           ; 
    77                           ; SFR Addresses
    78  0000                     	;# 
    79  0001                     	;# 
    80  0002                     	;# 
    81  0003                     	;# 
    82  0004                     	;# 
    83  0005                     	;# 
    84  0006                     	;# 
    85  0007                     	;# 
    86  0008                     	;# 
    87  0009                     	;# 
    88  000A                     	;# 
    89  000B                     	;# 
    90  000C                     	;# 
    91  000D                     	;# 
    92  000E                     	;# 
    93  000E                     	;# 
    94  000F                     	;# 
    95  0010                     	;# 
    96  0011                     	;# 
    97  0012                     	;# 
    98  0013                     	;# 
    99  0014                     	;# 
   100  0015                     	;# 
   101  0015                     	;# 
   102  0016                     	;# 
   103  0017                     	;# 
   104  0018                     	;# 
   105  0019                     	;# 
   106  001A                     	;# 
   107  001B                     	;# 
   108  001B                     	;# 
   109  001C                     	;# 
   110  001D                     	;# 
   111  001E                     	;# 
   112  001F                     	;# 
   113  0081                     	;# 
   114  0085                     	;# 
   115  0086                     	;# 
   116  0087                     	;# 
   117  0088                     	;# 
   118  0089                     	;# 
   119  008C                     	;# 
   120  008D                     	;# 
   121  008E                     	;# 
   122  008F                     	;# 
   123  0090                     	;# 
   124  0091                     	;# 
   125  0092                     	;# 
   126  0093                     	;# 
   127  0093                     	;# 
   128  0093                     	;# 
   129  0094                     	;# 
   130  0095                     	;# 
   131  0096                     	;# 
   132  0097                     	;# 
   133  0098                     	;# 
   134  0099                     	;# 
   135  009A                     	;# 
   136  009B                     	;# 
   137  009C                     	;# 
   138  009D                     	;# 
   139  009E                     	;# 
   140  009F                     	;# 
   141  0105                     	;# 
   142  0107                     	;# 
   143  0108                     	;# 
   144  0109                     	;# 
   145  010C                     	;# 
   146  010C                     	;# 
   147  010D                     	;# 
   148  010E                     	;# 
   149  010F                     	;# 
   150  0185                     	;# 
   151  0187                     	;# 
   152  0188                     	;# 
   153  0189                     	;# 
   154  018C                     	;# 
   155  018D                     	;# 
   156  0000                     	;# 
   157  0001                     	;# 
   158  0002                     	;# 
   159  0003                     	;# 
   160  0004                     	;# 
   161  0005                     	;# 
   162  0006                     	;# 
   163  0007                     	;# 
   164  0008                     	;# 
   165  0009                     	;# 
   166  000A                     	;# 
   167  000B                     	;# 
   168  000C                     	;# 
   169  000D                     	;# 
   170  000E                     	;# 
   171  000E                     	;# 
   172  000F                     	;# 
   173  0010                     	;# 
   174  0011                     	;# 
   175  0012                     	;# 
   176  0013                     	;# 
   177  0014                     	;# 
   178  0015                     	;# 
   179  0015                     	;# 
   180  0016                     	;# 
   181  0017                     	;# 
   182  0018                     	;# 
   183  0019                     	;# 
   184  001A                     	;# 
   185  001B                     	;# 
   186  001B                     	;# 
   187  001C                     	;# 
   188  001D                     	;# 
   189  001E                     	;# 
   190  001F                     	;# 
   191  0081                     	;# 
   192  0085                     	;# 
   193  0086                     	;# 
   194  0087                     	;# 
   195  0088                     	;# 
   196  0089                     	;# 
   197  008C                     	;# 
   198  008D                     	;# 
   199  008E                     	;# 
   200  008F                     	;# 
   201  0090                     	;# 
   202  0091                     	;# 
   203  0092                     	;# 
   204  0093                     	;# 
   205  0093                     	;# 
   206  0093                     	;# 
   207  0094                     	;# 
   208  0095                     	;# 
   209  0096                     	;# 
   210  0097                     	;# 
   211  0098                     	;# 
   212  0099                     	;# 
   213  009A                     	;# 
   214  009B                     	;# 
   215  009C                     	;# 
   216  009D                     	;# 
   217  009E                     	;# 
   218  009F                     	;# 
   219  0105                     	;# 
   220  0107                     	;# 
   221  0108                     	;# 
   222  0109                     	;# 
   223  010C                     	;# 
   224  010C                     	;# 
   225  010D                     	;# 
   226  010E                     	;# 
   227  010F                     	;# 
   228  0185                     	;# 
   229  0187                     	;# 
   230  0188                     	;# 
   231  0189                     	;# 
   232  018C                     	;# 
   233  018D                     	;# 
   234  0000                     	;# 
   235  0001                     	;# 
   236  0002                     	;# 
   237  0003                     	;# 
   238  0004                     	;# 
   239  0005                     	;# 
   240  0006                     	;# 
   241  0007                     	;# 
   242  0008                     	;# 
   243  0009                     	;# 
   244  000A                     	;# 
   245  000B                     	;# 
   246  000C                     	;# 
   247  000D                     	;# 
   248  000E                     	;# 
   249  000E                     	;# 
   250  000F                     	;# 
   251  0010                     	;# 
   252  0011                     	;# 
   253  0012                     	;# 
   254  0013                     	;# 
   255  0014                     	;# 
   256  0015                     	;# 
   257  0015                     	;# 
   258  0016                     	;# 
   259  0017                     	;# 
   260  0018                     	;# 
   261  0019                     	;# 
   262  001A                     	;# 
   263  001B                     	;# 
   264  001B                     	;# 
   265  001C                     	;# 
   266  001D                     	;# 
   267  001E                     	;# 
   268  001F                     	;# 
   269  0081                     	;# 
   270  0085                     	;# 
   271  0086                     	;# 
   272  0087                     	;# 
   273  0088                     	;# 
   274  0089                     	;# 
   275  008C                     	;# 
   276  008D                     	;# 
   277  008E                     	;# 
   278  008F                     	;# 
   279  0090                     	;# 
   280  0091                     	;# 
   281  0092                     	;# 
   282  0093                     	;# 
   283  0093                     	;# 
   284  0093                     	;# 
   285  0094                     	;# 
   286  0095                     	;# 
   287  0096                     	;# 
   288  0097                     	;# 
   289  0098                     	;# 
   290  0099                     	;# 
   291  009A                     	;# 
   292  009B                     	;# 
   293  009C                     	;# 
   294  009D                     	;# 
   295  009E                     	;# 
   296  009F                     	;# 
   297  0105                     	;# 
   298  0107                     	;# 
   299  0108                     	;# 
   300  0109                     	;# 
   301  010C                     	;# 
   302  010C                     	;# 
   303  010D                     	;# 
   304  010E                     	;# 
   305  010F                     	;# 
   306  0185                     	;# 
   307  0187                     	;# 
   308  0188                     	;# 
   309  0189                     	;# 
   310  018C                     	;# 
   311  018D                     	;# 
   312  001A                     _RCREG	set	26
   313  0019                     _TXREG	set	25
   314  0018                     _RCSTAbits	set	24
   315  000B                     _INTCONbits	set	11
   316  001F                     _ADCON0bits	set	31
   317  0009                     _PORTEbits	set	9
   318  0013                     _SSPBUF	set	19
   319  0014                     _SSPCON	set	20
   320  0008                     _PORTD	set	8
   321  0006                     _PORTB	set	6
   322  0009                     _PORTE	set	9
   323  000C                     _PIR1bits	set	12
   324  0063                     _SSPIF	set	99
   325  005E                     _PEIE	set	94
   326  005F                     _GIE	set	95
   327  009A                     _SPBRGH	set	154
   328  0099                     _SPBRG	set	153
   329  0098                     _TXSTAbits	set	152
   330  009F                     _ADCON1bits	set	159
   331  008C                     _PIE1bits	set	140
   332  0091                     _SSPCON2bits	set	145
   333  0094                     _SSPSTAT	set	148
   334  0093                     _SSPADD	set	147
   335  0091                     _SSPCON2	set	145
   336  008F                     _OSCCONbits	set	143
   337  0089                     _TRISE	set	137
   338  0088                     _TRISD	set	136
   339  0086                     _TRISB	set	134
   340  0087                     _TRISCbits	set	135
   341  0463                     _SSPIE	set	1123
   342  043C                     _TRISC4	set	1084
   343  043B                     _TRISC3	set	1083
   344  0187                     _BAUDCTLbits	set	391
   345  0189                     _ANSELHbits	set	393
   346  0188                     _ANSELbits	set	392
   347  0189                     _ANSELH	set	393
   348  0188                     _ANSEL	set	392
   349                           
   350                           	psect	strings
   351  1000                     __pstrings:
   352  1000                     stringtab:
   353  1000                     __stringtab:
   354                           
   355                           ;	String table - string pointers are 1 byte each
   356  1000  1BFF               	btfsc	btemp+1,7
   357  1001  280A               	ljmp	stringcode
   358  1002  1383               	bcf	3,7
   359  1003  187F               	btfsc	btemp+1,0
   360  1004  1783               	bsf	3,7
   361  1005  0800               	movf	0,w
   362  1006  0A84               	incf	4,f
   363  1007  1903               	skipnz
   364  1008  0AFF               	incf	btemp+1,f
   365  1009  0008               	return
   366  100A                     stringcode:
   367  100A                     stringdir:
   368  100A  3010               	movlw	high stringdir
   369  100B  008A               	movwf	10
   370  100C  0804               	movf	4,w
   371  100D  0A84               	incf	4,f
   372  100E  0782               	addwf	2,f
   373  100F                     __stringbase:
   374  100F  3400               	retlw	0
   375  1010                     __end_of__stringtab:
   376  1010                     STR_1:
   377  1010  3454               	retlw	84	;'T'
   378  1011  3445               	retlw	69	;'E'
   379  1012  344D               	retlw	77	;'M'
   380  1013  3450               	retlw	80	;'P'
   381  1014  3400               	retlw	0
   382  1015                     STR_2:
   383  1015  3448               	retlw	72	;'H'
   384  1016  3455               	retlw	85	;'U'
   385  1017  344D               	retlw	77	;'M'
   386  1018  3400               	retlw	0
   387  1019                     STR_3:
   388  1019  3443               	retlw	67	;'C'
   389  101A  344F               	retlw	79	;'O'
   390  101B  344E               	retlw	78	;'N'
   391  101C  3400               	retlw	0
   392  101D                     STR_4:
   393  101D  3443               	retlw	67	;'C'
   394  101E  3400               	retlw	0
   395  101D                     
   396                           	psect	cinit
   397  07EA                     start_initialization:	
   398                           ; #config settings
   399                           
   400  07EA                     __initialization:
   401                           
   402                           ; Clear objects allocated to BANK1
   403  07EA  1383               	bcf	3,7	;select IRP bank0
   404  07EB  30A0               	movlw	low __pbssBANK1
   405  07EC  0084               	movwf	4
   406  07ED  30D5               	movlw	low (__pbssBANK1+53)
   407  07EE  160A  118A  23E3  120A  118A  	fcall	clear_ram0
   408                           
   409                           ; Clear objects allocated to BANK3
   410  07F3  1783               	bsf	3,7	;select IRP bank2
   411  07F4  3090               	movlw	low __pbssBANK3
   412  07F5  0084               	movwf	4
   413  07F6  309A               	movlw	low (__pbssBANK3+10)
   414  07F7  160A  118A  23E3  120A  118A  	fcall	clear_ram0
   415  07FC                     end_of_initialization:	
   416                           ;End of C runtime variable initialization code
   417                           
   418  07FC                     __end_of__initialization:
   419  07FC  0183               	clrf	3
   420  07FD  120A  118A  2875   	ljmp	_main	;jump to C main() function
   421                           
   422                           	psect	bssBANK1
   423  00A0                     __pbssBANK1:
   424  00A0                     _conv3:
   425  00A0                     	ds	4
   426  00A4                     _conv0:
   427  00A4                     	ds	4
   428  00A8                     _conv1:
   429  00A8                     	ds	4
   430  00AC                     _temperatura:
   431  00AC                     	ds	4
   432  00B0                     _volt:
   433  00B0                     	ds	4
   434  00B4                     _temp:
   435  00B4                     	ds	4
   436  00B8                     _datos_sensor:
   437  00B8                     	ds	3
   438  00BB                     _dato:
   439  00BB                     	ds	2
   440  00BD                     _ingreso:
   441  00BD                     	ds	1
   442  00BE                     _var_hum:
   443  00BE                     	ds	1
   444  00BF                     _tem2:
   445  00BF                     	ds	1
   446  00C0                     _tem1:
   447  00C0                     	ds	1
   448  00C1                     _humedad:
   449  00C1                     	ds	10
   450  00CB                     _lcd1:
   451  00CB                     	ds	10
   452                           
   453                           	psect	bssBANK3
   454  0190                     __pbssBANK3:
   455  0190                     _lcd3:
   456  0190                     	ds	10
   457                           
   458                           	psect	clrtext
   459  13E3                     clear_ram0:	
   460                           ;	Called with FSR containing the base address, and
   461                           ;	W with the last address+1
   462                           
   463  13E3  0064               	clrwdt	;clear the watchdog before getting into this loop
   464  13E4                     clrloop0:
   465  13E4  0180               	clrf	0	;clear RAM location pointed to by FSR
   466  13E5  0A84               	incf	4,f	;increment pointer
   467  13E6  0604               	xorwf	4,w	;XOR with final address
   468  13E7  1903               	btfsc	3,2	;have we reached the end yet?
   469  13E8  3400               	retlw	0	;all done for this memory range, return
   470  13E9  0604               	xorwf	4,w	;XOR again to restore value
   471  13EA  2BE4               	goto	clrloop0	;do the next byte
   472                           
   473                           	psect	cstackBANK1
   474  00D5                     __pcstackBANK1:
   475  00D5                     convert@temp:
   476                           
   477                           ; 2 bytes @ 0x0
   478  00D5                     	ds	2
   479  00D7                     convert@j:
   480                           
   481                           ; 2 bytes @ 0x2
   482  00D7                     	ds	2
   483  00D9                     convert@data:
   484                           
   485                           ; 1 bytes @ 0x4
   486  00D9                     	ds	1
   487  00DA                     convert@x:
   488                           
   489                           ; 4 bytes @ 0x5
   490  00DA                     	ds	4
   491  00DE                     convert@i:
   492                           
   493                           ; 2 bytes @ 0x9
   494  00DE                     	ds	2
   495  00E0                     convert@digits:
   496                           
   497                           ; 2 bytes @ 0xB
   498  00E0                     	ds	2
   499  00E2                     convert@mu:
   500                           
   501                           ; 2 bytes @ 0xD
   502  00E2                     	ds	2
   503  00E4                     ??_main:
   504                           
   505                           ; 1 bytes @ 0xF
   506  00E4                     	ds	4
   507                           
   508                           	psect	cstackCOMMON
   509  0070                     __pcstackCOMMON:
   510  0070                     ?___flge:
   511  0070                     ?_setup:	
   512                           ; 1 bit 
   513                           
   514  0070                     ?_Lcd_Init:	
   515                           ; 1 bytes @ 0x0
   516                           
   517  0070                     ?_Lcd_Clear:	
   518                           ; 1 bytes @ 0x0
   519                           
   520  0070                     ?_I2C_Master_Start:	
   521                           ; 1 bytes @ 0x0
   522                           
   523  0070                     ??_I2C_Master_Start:	
   524                           ; 1 bytes @ 0x0
   525                           
   526  0070                     ?_I2C_Master_Write:	
   527                           ; 1 bytes @ 0x0
   528                           
   529  0070                     ?_I2C_Master_Stop:	
   530                           ; 1 bytes @ 0x0
   531                           
   532  0070                     ??_I2C_Master_Stop:	
   533                           ; 1 bytes @ 0x0
   534                           
   535  0070                     ?_USART_Recieve:	
   536                           ; 1 bytes @ 0x0
   537                           
   538  0070                     ??_USART_Recieve:	
   539                           ; 1 bytes @ 0x0
   540                           
   541  0070                     ?_USART_Transmit:	
   542                           ; 1 bytes @ 0x0
   543                           
   544  0070                     ??_USART_Transmit:	
   545                           ; 1 bytes @ 0x0
   546                           
   547  0070                     ?_main:	
   548                           ; 1 bytes @ 0x0
   549                           
   550  0070                     ?_I2C_Master_Wait:	
   551                           ; 1 bytes @ 0x0
   552                           
   553  0070                     ??_I2C_Master_Wait:	
   554                           ; 1 bytes @ 0x0
   555                           
   556  0070                     ?_Lcd_Port:	
   557                           ; 1 bytes @ 0x0
   558                           
   559  0070                     ??_Lcd_Port:	
   560                           ; 1 bytes @ 0x0
   561                           
   562  0070                     ?_Lcd_Cmd:	
   563                           ; 1 bytes @ 0x0
   564                           
   565  0070                     ?_Lcd_Write_Char:	
   566                           ; 1 bytes @ 0x0
   567                           
   568  0070                     ?_I2C_Master_Read:	
   569                           ; 1 bytes @ 0x0
   570                           
   571  0070                     ?__Umul8_16:	
   572                           ; 2 bytes @ 0x0
   573                           
   574  0070                     ?___awdiv:	
   575                           ; 2 bytes @ 0x0
   576                           
   577  0070                     ?___lldiv:	
   578                           ; 2 bytes @ 0x0
   579                           
   580  0070                     ?___fltol:	
   581                           ; 4 bytes @ 0x0
   582                           
   583  0070                     Lcd_Port@a:	
   584                           ; 4 bytes @ 0x0
   585                           
   586  0070                     USART_Transmit@dato:	
   587                           ; 1 bytes @ 0x0
   588                           
   589  0070                     __Umul8_16@multiplicand:	
   590                           ; 1 bytes @ 0x0
   591                           
   592  0070                     I2C_Master_Write@d:	
   593                           ; 1 bytes @ 0x0
   594                           
   595  0070                     I2C_Master_Read@a:	
   596                           ; 2 bytes @ 0x0
   597                           
   598  0070                     ___awdiv@divisor:	
   599                           ; 2 bytes @ 0x0
   600                           
   601  0070                     ___lldiv@divisor:	
   602                           ; 2 bytes @ 0x0
   603                           
   604  0070                     ___flge@ff1:	
   605                           ; 4 bytes @ 0x0
   606                           
   607  0070                     ___fltol@f1:	
   608                           ; 4 bytes @ 0x0
   609                           
   610                           
   611                           ; 4 bytes @ 0x0
   612  0070                     	ds	1
   613  0071                     ??_Lcd_Cmd:
   614  0071                     ??_Lcd_Write_Char:	
   615                           ; 1 bytes @ 0x1
   616                           
   617                           
   618                           ; 1 bytes @ 0x1
   619  0071                     	ds	1
   620  0072                     ??_I2C_Master_Write:
   621  0072                     ??_I2C_Master_Read:	
   622                           ; 1 bytes @ 0x2
   623                           
   624  0072                     ??__Umul8_16:	
   625                           ; 1 bytes @ 0x2
   626                           
   627  0072                     Lcd_Write_Char@a:	
   628                           ; 1 bytes @ 0x2
   629                           
   630  0072                     ___awdiv@dividend:	
   631                           ; 1 bytes @ 0x2
   632                           
   633                           
   634                           ; 2 bytes @ 0x2
   635  0072                     	ds	1
   636  0073                     ?_Lcd_Write_String:
   637  0073                     Lcd_Cmd@a:	
   638                           ; 1 bytes @ 0x3
   639                           
   640  0073                     Lcd_Write_String@a:	
   641                           ; 1 bytes @ 0x3
   642                           
   643                           
   644                           ; 2 bytes @ 0x3
   645  0073                     	ds	1
   646  0074                     ??_Lcd_Init:
   647  0074                     ??_Lcd_Clear:	
   648                           ; 1 bytes @ 0x4
   649                           
   650  0074                     ?_Lcd_Set_Cursor:	
   651                           ; 1 bytes @ 0x4
   652                           
   653  0074                     ??___awdiv:	
   654                           ; 1 bytes @ 0x4
   655                           
   656  0074                     ??___fltol:	
   657                           ; 1 bytes @ 0x4
   658                           
   659  0074                     Lcd_Set_Cursor@b:	
   660                           ; 1 bytes @ 0x4
   661                           
   662  0074                     I2C_Master_Read@temp:	
   663                           ; 1 bytes @ 0x4
   664                           
   665  0074                     __Umul8_16@product:	
   666                           ; 2 bytes @ 0x4
   667                           
   668  0074                     ___lldiv@dividend:	
   669                           ; 2 bytes @ 0x4
   670                           
   671  0074                     ___flge@ff2:	
   672                           ; 4 bytes @ 0x4
   673                           
   674                           
   675                           ; 4 bytes @ 0x4
   676  0074                     	ds	1
   677  0075                     ??_Lcd_Set_Cursor:
   678  0075                     ??_Lcd_Write_String:	
   679                           ; 1 bytes @ 0x5
   680                           
   681  0075                     ___awdiv@counter:	
   682                           ; 1 bytes @ 0x5
   683                           
   684                           
   685                           ; 1 bytes @ 0x5
   686  0075                     	ds	1
   687  0076                     Lcd_Set_Cursor@a:
   688  0076                     ___awdiv@sign:	
   689                           ; 1 bytes @ 0x6
   690                           
   691  0076                     __Umul8_16@word_mpld:	
   692                           ; 1 bytes @ 0x6
   693                           
   694                           
   695                           ; 2 bytes @ 0x6
   696  0076                     	ds	1
   697  0077                     Lcd_Set_Cursor@temp:
   698  0077                     ___awdiv@quotient:	
   699                           ; 1 bytes @ 0x7
   700                           
   701                           
   702                           ; 2 bytes @ 0x7
   703  0077                     	ds	1
   704  0078                     ??___lldiv:
   705  0078                     ??___flge:	
   706                           ; 1 bytes @ 0x8
   707                           
   708  0078                     __Umul8_16@multiplier:	
   709                           ; 1 bytes @ 0x8
   710                           
   711  0078                     Lcd_Write_String@i:	
   712                           ; 1 bytes @ 0x8
   713                           
   714                           
   715                           ; 2 bytes @ 0x8
   716  0078                     	ds	1
   717  0079                     ___fltol@sign1:
   718  0079                     ___lldiv@quotient:	
   719                           ; 1 bytes @ 0x9
   720                           
   721                           
   722                           ; 4 bytes @ 0x9
   723  0079                     	ds	1
   724  007A                     ___fltol@exp1:
   725                           
   726                           ; 1 bytes @ 0xA
   727  007A                     	ds	1
   728  007B                     ??___wmul:
   729  007B                     ___wmul@product:	
   730                           ; 1 bytes @ 0xB
   731                           
   732                           
   733                           ; 2 bytes @ 0xB
   734  007B                     	ds	2
   735  007D                     ??___flsub:
   736  007D                     ___lldiv@counter:	
   737                           ; 1 bytes @ 0xD
   738                           
   739                           
   740                           ; 1 bytes @ 0xD
   741  007D                     	ds	1
   742  007E                     ??_setup:
   743                           
   744                           	psect	cstackBANK0
   745  0020                     __pcstackBANK0:	
   746                           ; 1 bytes @ 0xE
   747                           
   748  0020                     ?_I2C_Master_Init:
   749  0020                     ?___wmul:	
   750                           ; 1 bytes @ 0x0
   751                           
   752  0020                     ___wmul@multiplier:	
   753                           ; 2 bytes @ 0x0
   754                           
   755  0020                     I2C_Master_Init@c:	
   756                           ; 2 bytes @ 0x0
   757                           
   758                           
   759                           ; 4 bytes @ 0x0
   760  0020                     	ds	2
   761  0022                     ___wmul@multiplicand:
   762                           
   763                           ; 2 bytes @ 0x2
   764  0022                     	ds	2
   765  0024                     ??_I2C_Master_Init:
   766  0024                     ?___xxtofl:	
   767                           ; 1 bytes @ 0x4
   768                           
   769  0024                     ___xxtofl@val:	
   770                           ; 4 bytes @ 0x4
   771                           
   772                           
   773                           ; 4 bytes @ 0x4
   774  0024                     	ds	4
   775  0028                     ??___xxtofl:
   776                           
   777                           ; 1 bytes @ 0x8
   778  0028                     	ds	4
   779  002C                     ___xxtofl@sign:
   780                           
   781                           ; 1 bytes @ 0xC
   782  002C                     	ds	1
   783  002D                     ___xxtofl@exp:
   784                           
   785                           ; 1 bytes @ 0xD
   786  002D                     	ds	1
   787  002E                     ___xxtofl@arg:
   788                           
   789                           ; 4 bytes @ 0xE
   790  002E                     	ds	4
   791  0032                     ?___fladd:
   792  0032                     ?___fldiv:	
   793                           ; 4 bytes @ 0x12
   794                           
   795  0032                     ___fladd@b:	
   796                           ; 4 bytes @ 0x12
   797                           
   798  0032                     ___fldiv@a:	
   799                           ; 4 bytes @ 0x12
   800                           
   801                           
   802                           ; 4 bytes @ 0x12
   803  0032                     	ds	4
   804  0036                     ___fladd@a:
   805  0036                     ___fldiv@b:	
   806                           ; 4 bytes @ 0x16
   807                           
   808                           
   809                           ; 4 bytes @ 0x16
   810  0036                     	ds	4
   811  003A                     ??___fladd:
   812  003A                     ??___fldiv:	
   813                           ; 1 bytes @ 0x1A
   814                           
   815                           
   816                           ; 1 bytes @ 0x1A
   817  003A                     	ds	5
   818  003F                     ___fldiv@rem:
   819                           
   820                           ; 4 bytes @ 0x1F
   821  003F                     	ds	3
   822  0042                     ___fladd@signs:
   823                           
   824                           ; 1 bytes @ 0x22
   825  0042                     	ds	1
   826  0043                     ___fladd@aexp:
   827  0043                     ___fldiv@sign:	
   828                           ; 1 bytes @ 0x23
   829                           
   830                           
   831                           ; 1 bytes @ 0x23
   832  0043                     	ds	1
   833  0044                     ___fladd@bexp:
   834  0044                     ___fldiv@new_exp:	
   835                           ; 1 bytes @ 0x24
   836                           
   837                           
   838                           ; 2 bytes @ 0x24
   839  0044                     	ds	1
   840  0045                     ___fladd@grs:
   841                           
   842                           ; 1 bytes @ 0x25
   843  0045                     	ds	1
   844  0046                     ?___flsub:
   845  0046                     ___flsub@a:	
   846                           ; 4 bytes @ 0x26
   847                           
   848  0046                     ___fldiv@grs:	
   849                           ; 4 bytes @ 0x26
   850                           
   851                           
   852                           ; 4 bytes @ 0x26
   853  0046                     	ds	4
   854  004A                     ___fldiv@bexp:
   855  004A                     ___flsub@b:	
   856                           ; 1 bytes @ 0x2A
   857                           
   858                           
   859                           ; 4 bytes @ 0x2A
   860  004A                     	ds	1
   861  004B                     ___fldiv@aexp:
   862                           
   863                           ; 1 bytes @ 0x2B
   864  004B                     	ds	3
   865  004E                     ?___flmul:
   866  004E                     ___flmul@b:	
   867                           ; 4 bytes @ 0x2E
   868                           
   869                           
   870                           ; 4 bytes @ 0x2E
   871  004E                     	ds	4
   872  0052                     ___flmul@a:
   873                           
   874                           ; 4 bytes @ 0x32
   875  0052                     	ds	4
   876  0056                     ??___flmul:
   877                           
   878                           ; 1 bytes @ 0x36
   879  0056                     	ds	5
   880  005B                     ___flmul@sign:
   881                           
   882                           ; 1 bytes @ 0x3B
   883  005B                     	ds	1
   884  005C                     ___flmul@grs:
   885                           
   886                           ; 4 bytes @ 0x3C
   887  005C                     	ds	4
   888  0060                     ___flmul@aexp:
   889                           
   890                           ; 1 bytes @ 0x40
   891  0060                     	ds	1
   892  0061                     ___flmul@bexp:
   893                           
   894                           ; 1 bytes @ 0x41
   895  0061                     	ds	1
   896  0062                     ___flmul@prod:
   897                           
   898                           ; 4 bytes @ 0x42
   899  0062                     	ds	4
   900  0066                     ___flmul@temp:
   901                           
   902                           ; 2 bytes @ 0x46
   903  0066                     	ds	2
   904  0068                     ?_convert:
   905  0068                     convert@a:	
   906                           ; 1 bytes @ 0x48
   907                           
   908                           
   909                           ; 4 bytes @ 0x48
   910  0068                     	ds	4
   911  006C                     convert@place:
   912                           
   913                           ; 2 bytes @ 0x4C
   914  006C                     	ds	2
   915  006E                     ??_convert:
   916                           
   917                           ; 1 bytes @ 0x4E
   918  006E                     	ds	2
   919                           
   920                           	psect	maintext
   921  0075                     __pmaintext:	
   922 ;;
   923 ;;Main: autosize = 0, tempsize = 4, incstack = 0, save=0
   924 ;;
   925 ;; *************** function _main *****************
   926 ;; Defined at:
   927 ;;		line 81 in file "Master.c"
   928 ;; Parameters:    Size  Location     Type
   929 ;;		None
   930 ;; Auto vars:     Size  Location     Type
   931 ;;		None
   932 ;; Return value:  Size  Location     Type
   933 ;;                  1    wreg      void 
   934 ;; Registers used:
   935 ;;		wreg, fsr0l, fsr0h, status,2, status,0, btemp+1, pclath, cstack
   936 ;; Tracked objects:
   937 ;;		On entry : B00/0
   938 ;;		On exit  : 0/0
   939 ;;		Unchanged: 0/0
   940 ;; Data sizes:     COMMON   BANK0   BANK1   BANK3   BANK2
   941 ;;      Params:         0       0       0       0       0
   942 ;;      Locals:         0       0       0       0       0
   943 ;;      Temps:          0       0       4       0       0
   944 ;;      Totals:         0       0       4       0       0
   945 ;;Total ram usage:        4 bytes
   946 ;; Hardware stack levels required when called: 3
   947 ;; This function calls:
   948 ;;		_I2C_Master_Read
   949 ;;		_I2C_Master_Start
   950 ;;		_I2C_Master_Stop
   951 ;;		_I2C_Master_Write
   952 ;;		_Lcd_Clear
   953 ;;		_Lcd_Init
   954 ;;		_Lcd_Set_Cursor
   955 ;;		_Lcd_Write_String
   956 ;;		_USART_Recieve
   957 ;;		_USART_Transmit
   958 ;;		___fladd
   959 ;;		___fldiv
   960 ;;		___flmul
   961 ;;		___fltol
   962 ;;		___xxtofl
   963 ;;		_convert
   964 ;;		_setup
   965 ;; This function is called by:
   966 ;;		Startup code after reset
   967 ;; This function uses a non-reentrant model
   968 ;;
   969                           
   970                           
   971                           ;psect for function _main
   972  0075                     _main:
   973  0075                     l2944:	
   974                           ;incstack = 0
   975                           ; Regs used in _main: [wreg-fsr0h+status,2+status,0+btemp+1+pclath+cstack]
   976                           
   977                           
   978                           ;Master.c: 82:     setup();
   979  0075  160A  118A  249B  120A  118A  	fcall	_setup
   980                           
   981                           ;Master.c: 83:     Lcd_Init();
   982  007A  160A  118A  257D  120A  118A  	fcall	_Lcd_Init
   983                           
   984                           ;Master.c: 84:     Lcd_Clear();
   985  007F  160A  118A  2416  120A  118A  	fcall	_Lcd_Clear
   986  0084                     l85:	
   987                           ;Master.c: 85:     while(1){
   988                           
   989                           
   990                           ;Master.c: 87:         Lcd_Set_Cursor(1, 1);
   991  0084  01F4               	clrf	Lcd_Set_Cursor@b
   992  0085  0AF4               	incf	Lcd_Set_Cursor@b,f
   993  0086  3001               	movlw	1
   994  0087  160A  118A  2453  120A  118A  	fcall	_Lcd_Set_Cursor
   995  008C                     l2946:
   996                           
   997                           ;Master.c: 88:         Lcd_Write_String("TEMP");
   998  008C  3001               	movlw	(low ((STR_1-__stringbase)| (0+32768)))& (0+255)
   999  008D  00F3               	movwf	Lcd_Write_String@a
  1000  008E  3080               	movlw	128
  1001  008F  00F4               	movwf	Lcd_Write_String@a+1
  1002  0090  160A  118A  253B  120A  118A  	fcall	_Lcd_Write_String
  1003  0095                     l2948:
  1004                           
  1005                           ;Master.c: 89:         Lcd_Set_Cursor(1, 8);
  1006  0095  3008               	movlw	8
  1007  0096  1683               	bsf	3,5	;RP0=1, select bank1
  1008  0097  1303               	bcf	3,6	;RP1=0, select bank1
  1009  0098  00E4               	movwf	??_main^(0+128)
  1010  0099  0864               	movf	??_main^(0+128),w
  1011  009A  00F4               	movwf	Lcd_Set_Cursor@b
  1012  009B  3001               	movlw	1
  1013  009C  160A  118A  2453  120A  118A  	fcall	_Lcd_Set_Cursor
  1014                           
  1015                           ;Master.c: 90:         Lcd_Write_String("HUM");
  1016  00A1  3006               	movlw	(low ((STR_2-__stringbase)| (0+32768)))& (0+255)
  1017  00A2  00F3               	movwf	Lcd_Write_String@a
  1018  00A3  3080               	movlw	128
  1019  00A4  00F4               	movwf	Lcd_Write_String@a+1
  1020  00A5  160A  118A  253B  120A  118A  	fcall	_Lcd_Write_String
  1021  00AA                     l2950:
  1022                           
  1023                           ;Master.c: 91:         Lcd_Set_Cursor(1, 14);
  1024  00AA  300E               	movlw	14
  1025  00AB  1683               	bsf	3,5	;RP0=1, select bank1
  1026  00AC  1303               	bcf	3,6	;RP1=0, select bank1
  1027  00AD  00E4               	movwf	??_main^(0+128)
  1028  00AE  0864               	movf	??_main^(0+128),w
  1029  00AF  00F4               	movwf	Lcd_Set_Cursor@b
  1030  00B0  3001               	movlw	1
  1031  00B1  160A  118A  2453  120A  118A  	fcall	_Lcd_Set_Cursor
  1032  00B6                     l2952:
  1033                           
  1034                           ;Master.c: 92:         Lcd_Write_String("CON");
  1035  00B6  300A               	movlw	(low ((STR_3-__stringbase)| (0+32768)))& (0+255)
  1036  00B7  00F3               	movwf	Lcd_Write_String@a
  1037  00B8  3080               	movlw	128
  1038  00B9  00F4               	movwf	Lcd_Write_String@a+1
  1039  00BA  160A  118A  253B  120A  118A  	fcall	_Lcd_Write_String
  1040                           
  1041                           ;Master.c: 95:         I2C_Master_Start();
  1042  00BF  160A  118A  23EB  120A  118A  	fcall	_I2C_Master_Start
  1043                           
  1044                           ;Master.c: 96:         I2C_Master_Write(0x50);
  1045  00C4  3050               	movlw	80
  1046  00C5  00F0               	movwf	I2C_Master_Write@d
  1047  00C6  3000               	movlw	0
  1048  00C7  00F1               	movwf	I2C_Master_Write@d+1
  1049  00C8  120A  118A  2004  120A  118A  	fcall	_I2C_Master_Write
  1050                           
  1051                           ;Master.c: 97:         I2C_Master_Write(0x02);
  1052  00CD  3002               	movlw	2
  1053  00CE  00F0               	movwf	I2C_Master_Write@d
  1054  00CF  3000               	movlw	0
  1055  00D0  00F1               	movwf	I2C_Master_Write@d+1
  1056  00D1  120A  118A  2004  120A  118A  	fcall	_I2C_Master_Write
  1057                           
  1058                           ;Master.c: 98:         I2C_Master_Stop();
  1059  00D6  160A  118A  23F4  120A  118A  	fcall	_I2C_Master_Stop
  1060  00DB                     l2954:
  1061                           
  1062                           ;Master.c: 99:         _delay((unsigned long)((200)*(8000000/4000.0)));
  1063  00DB  3003               	movlw	3
  1064  00DC  1683               	bsf	3,5	;RP0=1, select bank1
  1065  00DD  1303               	bcf	3,6	;RP1=0, select bank1
  1066  00DE  00E6               	movwf	(??_main^(0+128)+2)
  1067  00DF  3008               	movlw	8
  1068  00E0  00E5               	movwf	(??_main^(0+128)+1)
  1069  00E1  3076               	movlw	118
  1070  00E2  00E4               	movwf	??_main^(0+128)
  1071  00E3                     u3817:
  1072  00E3  0BE4               	decfsz	??_main^(0+128),f
  1073  00E4  28E3               	goto	u3817
  1074  00E5  0BE5               	decfsz	(??_main^(0+128)+1),f
  1075  00E6  28E3               	goto	u3817
  1076  00E7  0BE6               	decfsz	(??_main^(0+128)+2),f
  1077  00E8  28E3               	goto	u3817
  1078  00E9  0000               	nop
  1079  00EA                     l2956:
  1080                           
  1081                           ;Master.c: 101:         I2C_Master_Start();
  1082  00EA  160A  118A  23EB  120A  118A  	fcall	_I2C_Master_Start
  1083  00EF                     l2958:
  1084                           
  1085                           ;Master.c: 102:         I2C_Master_Write(0x51);
  1086  00EF  3051               	movlw	81
  1087  00F0  00F0               	movwf	I2C_Master_Write@d
  1088  00F1  3000               	movlw	0
  1089  00F2  00F1               	movwf	I2C_Master_Write@d+1
  1090  00F3  120A  118A  2004  120A  118A  	fcall	_I2C_Master_Write
  1091  00F8                     l2960:
  1092                           
  1093                           ;Master.c: 103:         tem1 = I2C_Master_Read(0);
  1094  00F8  3000               	movlw	0
  1095  00F9  00F0               	movwf	I2C_Master_Read@a
  1096  00FA  00F1               	movwf	I2C_Master_Read@a+1
  1097  00FB  160A  118A  250D  120A  118A  	fcall	_I2C_Master_Read
  1098  0100  0870               	movf	?_I2C_Master_Read,w
  1099  0101  1683               	bsf	3,5	;RP0=1, select bank1
  1100  0102  1303               	bcf	3,6	;RP1=0, select bank1
  1101  0103  00E4               	movwf	??_main^(0+128)
  1102  0104  0864               	movf	??_main^(0+128),w
  1103  0105  00C0               	movwf	_tem1^(0+128)	;volatile
  1104  0106                     l2962:
  1105                           
  1106                           ;Master.c: 104:         I2C_Master_Stop();
  1107  0106  160A  118A  23F4  120A  118A  	fcall	_I2C_Master_Stop
  1108  010B                     l2964:
  1109                           
  1110                           ;Master.c: 105:         _delay((unsigned long)((200)*(8000000/4000.0)));
  1111  010B  3003               	movlw	3
  1112  010C  1683               	bsf	3,5	;RP0=1, select bank1
  1113  010D  1303               	bcf	3,6	;RP1=0, select bank1
  1114  010E  00E6               	movwf	(??_main^(0+128)+2)
  1115  010F  3008               	movlw	8
  1116  0110  00E5               	movwf	(??_main^(0+128)+1)
  1117  0111  3076               	movlw	118
  1118  0112  00E4               	movwf	??_main^(0+128)
  1119  0113                     u3827:
  1120  0113  0BE4               	decfsz	??_main^(0+128),f
  1121  0114  2913               	goto	u3827
  1122  0115  0BE5               	decfsz	(??_main^(0+128)+1),f
  1123  0116  2913               	goto	u3827
  1124  0117  0BE6               	decfsz	(??_main^(0+128)+2),f
  1125  0118  2913               	goto	u3827
  1126  0119  0000               	nop
  1127                           
  1128                           ;Master.c: 107:         I2C_Master_Start();
  1129  011A  160A  118A  23EB  120A  118A  	fcall	_I2C_Master_Start
  1130                           
  1131                           ;Master.c: 108:         I2C_Master_Write(0x50);
  1132  011F  3050               	movlw	80
  1133  0120  00F0               	movwf	I2C_Master_Write@d
  1134  0121  3000               	movlw	0
  1135  0122  00F1               	movwf	I2C_Master_Write@d+1
  1136  0123  120A  118A  2004  120A  118A  	fcall	_I2C_Master_Write
  1137                           
  1138                           ;Master.c: 109:         I2C_Master_Write(0x01);
  1139  0128  3001               	movlw	1
  1140  0129  00F0               	movwf	I2C_Master_Write@d
  1141  012A  3000               	movlw	0
  1142  012B  00F1               	movwf	I2C_Master_Write@d+1
  1143  012C  120A  118A  2004  120A  118A  	fcall	_I2C_Master_Write
  1144                           
  1145                           ;Master.c: 110:         I2C_Master_Stop();
  1146  0131  160A  118A  23F4  120A  118A  	fcall	_I2C_Master_Stop
  1147  0136                     l2966:
  1148                           
  1149                           ;Master.c: 111:         _delay((unsigned long)((200)*(8000000/4000.0)));
  1150  0136  3003               	movlw	3
  1151  0137  1683               	bsf	3,5	;RP0=1, select bank1
  1152  0138  1303               	bcf	3,6	;RP1=0, select bank1
  1153  0139  00E6               	movwf	(??_main^(0+128)+2)
  1154  013A  3008               	movlw	8
  1155  013B  00E5               	movwf	(??_main^(0+128)+1)
  1156  013C  3076               	movlw	118
  1157  013D  00E4               	movwf	??_main^(0+128)
  1158  013E                     u3837:
  1159  013E  0BE4               	decfsz	??_main^(0+128),f
  1160  013F  293E               	goto	u3837
  1161  0140  0BE5               	decfsz	(??_main^(0+128)+1),f
  1162  0141  293E               	goto	u3837
  1163  0142  0BE6               	decfsz	(??_main^(0+128)+2),f
  1164  0143  293E               	goto	u3837
  1165  0144  0000               	nop
  1166  0145                     l2968:
  1167                           
  1168                           ;Master.c: 113:         I2C_Master_Start();
  1169  0145  160A  118A  23EB  120A  118A  	fcall	_I2C_Master_Start
  1170  014A                     l2970:
  1171                           
  1172                           ;Master.c: 114:         I2C_Master_Write(0x51);
  1173  014A  3051               	movlw	81
  1174  014B  00F0               	movwf	I2C_Master_Write@d
  1175  014C  3000               	movlw	0
  1176  014D  00F1               	movwf	I2C_Master_Write@d+1
  1177  014E  120A  118A  2004  120A  118A  	fcall	_I2C_Master_Write
  1178  0153                     l2972:
  1179                           
  1180                           ;Master.c: 115:         tem2 = I2C_Master_Read(0);
  1181  0153  3000               	movlw	0
  1182  0154  00F0               	movwf	I2C_Master_Read@a
  1183  0155  00F1               	movwf	I2C_Master_Read@a+1
  1184  0156  160A  118A  250D  120A  118A  	fcall	_I2C_Master_Read
  1185  015B  0870               	movf	?_I2C_Master_Read,w
  1186  015C  1683               	bsf	3,5	;RP0=1, select bank1
  1187  015D  1303               	bcf	3,6	;RP1=0, select bank1
  1188  015E  00E4               	movwf	??_main^(0+128)
  1189  015F  0864               	movf	??_main^(0+128),w
  1190  0160  00BF               	movwf	_tem2^(0+128)	;volatile
  1191  0161                     l2974:
  1192                           
  1193                           ;Master.c: 116:         I2C_Master_Stop();
  1194  0161  160A  118A  23F4  120A  118A  	fcall	_I2C_Master_Stop
  1195  0166                     l2976:
  1196                           
  1197                           ;Master.c: 117:         _delay((unsigned long)((200)*(8000000/4000.0)));
  1198  0166  3003               	movlw	3
  1199  0167  1683               	bsf	3,5	;RP0=1, select bank1
  1200  0168  1303               	bcf	3,6	;RP1=0, select bank1
  1201  0169  00E6               	movwf	(??_main^(0+128)+2)
  1202  016A  3008               	movlw	8
  1203  016B  00E5               	movwf	(??_main^(0+128)+1)
  1204  016C  3076               	movlw	118
  1205  016D  00E4               	movwf	??_main^(0+128)
  1206  016E                     u3847:
  1207  016E  0BE4               	decfsz	??_main^(0+128),f
  1208  016F  296E               	goto	u3847
  1209  0170  0BE5               	decfsz	(??_main^(0+128)+1),f
  1210  0171  296E               	goto	u3847
  1211  0172  0BE6               	decfsz	(??_main^(0+128)+2),f
  1212  0173  296E               	goto	u3847
  1213  0174  0000               	nop
  1214                           
  1215                           ;Master.c: 119:          I2C_Master_Start();
  1216  0175  160A  118A  23EB  120A  118A  	fcall	_I2C_Master_Start
  1217                           
  1218                           ;Master.c: 120:          I2C_Master_Write(0x11);
  1219  017A  3011               	movlw	17
  1220  017B  00F0               	movwf	I2C_Master_Write@d
  1221  017C  3000               	movlw	0
  1222  017D  00F1               	movwf	I2C_Master_Write@d+1
  1223  017E  120A  118A  2004  120A  118A  	fcall	_I2C_Master_Write
  1224                           
  1225                           ;Master.c: 122:          var_hum = I2C_Master_Read(0);
  1226  0183  3000               	movlw	0
  1227  0184  00F0               	movwf	I2C_Master_Read@a
  1228  0185  00F1               	movwf	I2C_Master_Read@a+1
  1229  0186  160A  118A  250D  120A  118A  	fcall	_I2C_Master_Read
  1230  018B  0870               	movf	?_I2C_Master_Read,w
  1231  018C  1683               	bsf	3,5	;RP0=1, select bank1
  1232  018D  1303               	bcf	3,6	;RP1=0, select bank1
  1233  018E  00E4               	movwf	??_main^(0+128)
  1234  018F  0864               	movf	??_main^(0+128),w
  1235  0190  00BE               	movwf	_var_hum^(0+128)	;volatile
  1236                           
  1237                           ;Master.c: 123:          I2C_Master_Stop();
  1238  0191  160A  118A  23F4  120A  118A  	fcall	_I2C_Master_Stop
  1239  0196                     l2978:
  1240                           
  1241                           ;Master.c: 124:          _delay((unsigned long)((200)*(8000000/4000.0)));
  1242  0196  3003               	movlw	3
  1243  0197  1683               	bsf	3,5	;RP0=1, select bank1
  1244  0198  1303               	bcf	3,6	;RP1=0, select bank1
  1245  0199  00E6               	movwf	(??_main^(0+128)+2)
  1246  019A  3008               	movlw	8
  1247  019B  00E5               	movwf	(??_main^(0+128)+1)
  1248  019C  3076               	movlw	118
  1249  019D  00E4               	movwf	??_main^(0+128)
  1250  019E                     u3857:
  1251  019E  0BE4               	decfsz	??_main^(0+128),f
  1252  019F  299E               	goto	u3857
  1253  01A0  0BE5               	decfsz	(??_main^(0+128)+1),f
  1254  01A1  299E               	goto	u3857
  1255  01A2  0BE6               	decfsz	(??_main^(0+128)+2),f
  1256  01A3  299E               	goto	u3857
  1257  01A4  0000               	nop
  1258  01A5                     l2980:
  1259                           
  1260                           ;Master.c: 148:         temp = tem1 << 8;
  1261  01A5  1683               	bsf	3,5	;RP0=1, select bank1
  1262  01A6  1303               	bcf	3,6	;RP1=0, select bank1
  1263  01A7  0840               	movf	_tem1^(0+128),w	;volatile
  1264  01A8  00E4               	movwf	??_main^(0+128)
  1265  01A9  01E5               	clrf	(??_main^(0+128)+1)
  1266  01AA  0864               	movf	??_main^(0+128),w
  1267  01AB  00E5               	movwf	(??_main^(0+128)+1)
  1268  01AC  01E4               	clrf	??_main^(0+128)
  1269  01AD  0864               	movf	??_main^(0+128),w
  1270  01AE  1283               	bcf	3,5	;RP0=0, select bank0
  1271  01AF  1303               	bcf	3,6	;RP1=0, select bank0
  1272  01B0  00A4               	movwf	___xxtofl@val
  1273  01B1  1683               	bsf	3,5	;RP0=1, select bank1
  1274  01B2  1303               	bcf	3,6	;RP1=0, select bank1
  1275  01B3  0865               	movf	(??_main+1)^(0+128),w
  1276  01B4  1283               	bcf	3,5	;RP0=0, select bank0
  1277  01B5  1303               	bcf	3,6	;RP1=0, select bank0
  1278  01B6  00A5               	movwf	___xxtofl@val+1
  1279  01B7  3000               	movlw	0
  1280  01B8  1BA5               	btfsc	___xxtofl@val+1,7
  1281  01B9  30FF               	movlw	255
  1282  01BA  00A6               	movwf	___xxtofl@val+2
  1283  01BB  00A7               	movwf	___xxtofl@val+3
  1284  01BC  3001               	movlw	1
  1285  01BD  160A  118A  2744  120A  118A  	fcall	___xxtofl
  1286  01C2  1283               	bcf	3,5	;RP0=0, select bank0
  1287  01C3  1303               	bcf	3,6	;RP1=0, select bank0
  1288  01C4  0827               	movf	?___xxtofl+3,w
  1289  01C5  1683               	bsf	3,5	;RP0=1, select bank1
  1290  01C6  1303               	bcf	3,6	;RP1=0, select bank1
  1291  01C7  00B7               	movwf	(_temp+3)^(0+128)
  1292  01C8  1283               	bcf	3,5	;RP0=0, select bank0
  1293  01C9  1303               	bcf	3,6	;RP1=0, select bank0
  1294  01CA  0826               	movf	?___xxtofl+2,w
  1295  01CB  1683               	bsf	3,5	;RP0=1, select bank1
  1296  01CC  1303               	bcf	3,6	;RP1=0, select bank1
  1297  01CD  00B6               	movwf	(_temp+2)^(0+128)
  1298  01CE  1283               	bcf	3,5	;RP0=0, select bank0
  1299  01CF  1303               	bcf	3,6	;RP1=0, select bank0
  1300  01D0  0825               	movf	?___xxtofl+1,w
  1301  01D1  1683               	bsf	3,5	;RP0=1, select bank1
  1302  01D2  1303               	bcf	3,6	;RP1=0, select bank1
  1303  01D3  00B5               	movwf	(_temp+1)^(0+128)
  1304  01D4  1283               	bcf	3,5	;RP0=0, select bank0
  1305  01D5  1303               	bcf	3,6	;RP1=0, select bank0
  1306  01D6  0824               	movf	?___xxtofl,w
  1307  01D7  1683               	bsf	3,5	;RP0=1, select bank1
  1308  01D8  1303               	bcf	3,6	;RP1=0, select bank1
  1309  01D9  00B4               	movwf	_temp^(0+128)
  1310  01DA                     l2982:
  1311                           
  1312                           ;Master.c: 149:         temp = temp + tem2;
  1313  01DA  0837               	movf	(_temp+3)^(0+128),w
  1314  01DB  1283               	bcf	3,5	;RP0=0, select bank0
  1315  01DC  1303               	bcf	3,6	;RP1=0, select bank0
  1316  01DD  00B5               	movwf	___fladd@b+3
  1317  01DE  1683               	bsf	3,5	;RP0=1, select bank1
  1318  01DF  1303               	bcf	3,6	;RP1=0, select bank1
  1319  01E0  0836               	movf	(_temp+2)^(0+128),w
  1320  01E1  1283               	bcf	3,5	;RP0=0, select bank0
  1321  01E2  1303               	bcf	3,6	;RP1=0, select bank0
  1322  01E3  00B4               	movwf	___fladd@b+2
  1323  01E4  1683               	bsf	3,5	;RP0=1, select bank1
  1324  01E5  1303               	bcf	3,6	;RP1=0, select bank1
  1325  01E6  0835               	movf	(_temp+1)^(0+128),w
  1326  01E7  1283               	bcf	3,5	;RP0=0, select bank0
  1327  01E8  1303               	bcf	3,6	;RP1=0, select bank0
  1328  01E9  00B3               	movwf	___fladd@b+1
  1329  01EA  1683               	bsf	3,5	;RP0=1, select bank1
  1330  01EB  1303               	bcf	3,6	;RP1=0, select bank1
  1331  01EC  0834               	movf	_temp^(0+128),w
  1332  01ED  1283               	bcf	3,5	;RP0=0, select bank0
  1333  01EE  1303               	bcf	3,6	;RP1=0, select bank0
  1334  01EF  00B2               	movwf	___fladd@b
  1335  01F0  1683               	bsf	3,5	;RP0=1, select bank1
  1336  01F1  1303               	bcf	3,6	;RP1=0, select bank1
  1337  01F2  083F               	movf	_tem2^(0+128),w	;volatile
  1338  01F3  00E4               	movwf	??_main^(0+128)
  1339  01F4  01E5               	clrf	(??_main^(0+128)+1)
  1340  01F5  01E6               	clrf	(??_main^(0+128)+2)
  1341  01F6  01E7               	clrf	(??_main^(0+128)+3)
  1342  01F7  0867               	movf	(??_main+3)^(0+128),w
  1343  01F8  1283               	bcf	3,5	;RP0=0, select bank0
  1344  01F9  1303               	bcf	3,6	;RP1=0, select bank0
  1345  01FA  00A7               	movwf	___xxtofl@val+3
  1346  01FB  1683               	bsf	3,5	;RP0=1, select bank1
  1347  01FC  1303               	bcf	3,6	;RP1=0, select bank1
  1348  01FD  0866               	movf	(??_main+2)^(0+128),w
  1349  01FE  1283               	bcf	3,5	;RP0=0, select bank0
  1350  01FF  1303               	bcf	3,6	;RP1=0, select bank0
  1351  0200  00A6               	movwf	___xxtofl@val+2
  1352  0201  1683               	bsf	3,5	;RP0=1, select bank1
  1353  0202  1303               	bcf	3,6	;RP1=0, select bank1
  1354  0203  0865               	movf	(??_main+1)^(0+128),w
  1355  0204  1283               	bcf	3,5	;RP0=0, select bank0
  1356  0205  1303               	bcf	3,6	;RP1=0, select bank0
  1357  0206  00A5               	movwf	___xxtofl@val+1
  1358  0207  1683               	bsf	3,5	;RP0=1, select bank1
  1359  0208  1303               	bcf	3,6	;RP1=0, select bank1
  1360  0209  0864               	movf	??_main^(0+128),w
  1361  020A  1283               	bcf	3,5	;RP0=0, select bank0
  1362  020B  1303               	bcf	3,6	;RP1=0, select bank0
  1363  020C  00A4               	movwf	___xxtofl@val
  1364  020D  3001               	movlw	1
  1365  020E  160A  118A  2744  120A  118A  	fcall	___xxtofl
  1366  0213  1283               	bcf	3,5	;RP0=0, select bank0
  1367  0214  1303               	bcf	3,6	;RP1=0, select bank0
  1368  0215  0827               	movf	?___xxtofl+3,w
  1369  0216  00B9               	movwf	___fladd@a+3
  1370  0217  0826               	movf	?___xxtofl+2,w
  1371  0218  00B8               	movwf	___fladd@a+2
  1372  0219  0825               	movf	?___xxtofl+1,w
  1373  021A  00B7               	movwf	___fladd@a+1
  1374  021B  0824               	movf	?___xxtofl,w
  1375  021C  00B6               	movwf	___fladd@a
  1376  021D  120A  158A  2217  120A  118A  	fcall	___fladd
  1377  0222  1283               	bcf	3,5	;RP0=0, select bank0
  1378  0223  1303               	bcf	3,6	;RP1=0, select bank0
  1379  0224  0835               	movf	?___fladd+3,w
  1380  0225  1683               	bsf	3,5	;RP0=1, select bank1
  1381  0226  1303               	bcf	3,6	;RP1=0, select bank1
  1382  0227  00B7               	movwf	(_temp+3)^(0+128)
  1383  0228  1283               	bcf	3,5	;RP0=0, select bank0
  1384  0229  1303               	bcf	3,6	;RP1=0, select bank0
  1385  022A  0834               	movf	?___fladd+2,w
  1386  022B  1683               	bsf	3,5	;RP0=1, select bank1
  1387  022C  1303               	bcf	3,6	;RP1=0, select bank1
  1388  022D  00B6               	movwf	(_temp+2)^(0+128)
  1389  022E  1283               	bcf	3,5	;RP0=0, select bank0
  1390  022F  1303               	bcf	3,6	;RP1=0, select bank0
  1391  0230  0833               	movf	?___fladd+1,w
  1392  0231  1683               	bsf	3,5	;RP0=1, select bank1
  1393  0232  1303               	bcf	3,6	;RP1=0, select bank1
  1394  0233  00B5               	movwf	(_temp+1)^(0+128)
  1395  0234  1283               	bcf	3,5	;RP0=0, select bank0
  1396  0235  1303               	bcf	3,6	;RP1=0, select bank0
  1397  0236  0832               	movf	?___fladd,w
  1398  0237  1683               	bsf	3,5	;RP0=1, select bank1
  1399  0238  1303               	bcf	3,6	;RP1=0, select bank1
  1400  0239  00B4               	movwf	_temp^(0+128)
  1401  023A                     l2984:
  1402                           
  1403                           ;Master.c: 151:         volt = (temp/ (float) 1023)*5;
  1404  023A  3040               	movlw	64
  1405  023B  1283               	bcf	3,5	;RP0=0, select bank0
  1406  023C  1303               	bcf	3,6	;RP1=0, select bank0
  1407  023D  00D1               	movwf	___flmul@b+3
  1408  023E  30A0               	movlw	160
  1409  023F  00D0               	movwf	___flmul@b+2
  1410  0240  3000               	movlw	0
  1411  0241  00CF               	movwf	___flmul@b+1
  1412  0242  3000               	movlw	0
  1413  0243  00CE               	movwf	___flmul@b
  1414  0244  3044               	movlw	68
  1415  0245  00B5               	movwf	___fldiv@a+3
  1416  0246  307F               	movlw	127
  1417  0247  00B4               	movwf	___fldiv@a+2
  1418  0248  30C0               	movlw	192
  1419  0249  00B3               	movwf	___fldiv@a+1
  1420  024A  3000               	movlw	0
  1421  024B  00B2               	movwf	___fldiv@a
  1422  024C  1683               	bsf	3,5	;RP0=1, select bank1
  1423  024D  1303               	bcf	3,6	;RP1=0, select bank1
  1424  024E  0837               	movf	(_temp+3)^(0+128),w
  1425  024F  1283               	bcf	3,5	;RP0=0, select bank0
  1426  0250  1303               	bcf	3,6	;RP1=0, select bank0
  1427  0251  00B9               	movwf	___fldiv@b+3
  1428  0252  1683               	bsf	3,5	;RP0=1, select bank1
  1429  0253  1303               	bcf	3,6	;RP1=0, select bank1
  1430  0254  0836               	movf	(_temp+2)^(0+128),w
  1431  0255  1283               	bcf	3,5	;RP0=0, select bank0
  1432  0256  1303               	bcf	3,6	;RP1=0, select bank0
  1433  0257  00B8               	movwf	___fldiv@b+2
  1434  0258  1683               	bsf	3,5	;RP0=1, select bank1
  1435  0259  1303               	bcf	3,6	;RP1=0, select bank1
  1436  025A  0835               	movf	(_temp+1)^(0+128),w
  1437  025B  1283               	bcf	3,5	;RP0=0, select bank0
  1438  025C  1303               	bcf	3,6	;RP1=0, select bank0
  1439  025D  00B7               	movwf	___fldiv@b+1
  1440  025E  1683               	bsf	3,5	;RP0=1, select bank1
  1441  025F  1303               	bcf	3,6	;RP1=0, select bank1
  1442  0260  0834               	movf	_temp^(0+128),w
  1443  0261  1283               	bcf	3,5	;RP0=0, select bank0
  1444  0262  1303               	bcf	3,6	;RP1=0, select bank0
  1445  0263  00B6               	movwf	___fldiv@b
  1446  0264  120A  158A  203A  120A  118A  	fcall	___fldiv
  1447  0269  1283               	bcf	3,5	;RP0=0, select bank0
  1448  026A  1303               	bcf	3,6	;RP1=0, select bank0
  1449  026B  0835               	movf	?___fldiv+3,w
  1450  026C  00D5               	movwf	___flmul@a+3
  1451  026D  0834               	movf	?___fldiv+2,w
  1452  026E  00D4               	movwf	___flmul@a+2
  1453  026F  0833               	movf	?___fldiv+1,w
  1454  0270  00D3               	movwf	___flmul@a+1
  1455  0271  0832               	movf	?___fldiv,w
  1456  0272  00D2               	movwf	___flmul@a
  1457  0273  120A  158A  249F  120A  118A  	fcall	___flmul
  1458  0278  1283               	bcf	3,5	;RP0=0, select bank0
  1459  0279  1303               	bcf	3,6	;RP1=0, select bank0
  1460  027A  0851               	movf	?___flmul+3,w
  1461  027B  1683               	bsf	3,5	;RP0=1, select bank1
  1462  027C  1303               	bcf	3,6	;RP1=0, select bank1
  1463  027D  00B3               	movwf	(_volt+3)^(0+128)
  1464  027E  1283               	bcf	3,5	;RP0=0, select bank0
  1465  027F  1303               	bcf	3,6	;RP1=0, select bank0
  1466  0280  0850               	movf	?___flmul+2,w
  1467  0281  1683               	bsf	3,5	;RP0=1, select bank1
  1468  0282  1303               	bcf	3,6	;RP1=0, select bank1
  1469  0283  00B2               	movwf	(_volt+2)^(0+128)
  1470  0284  1283               	bcf	3,5	;RP0=0, select bank0
  1471  0285  1303               	bcf	3,6	;RP1=0, select bank0
  1472  0286  084F               	movf	?___flmul+1,w
  1473  0287  1683               	bsf	3,5	;RP0=1, select bank1
  1474  0288  1303               	bcf	3,6	;RP1=0, select bank1
  1475  0289  00B1               	movwf	(_volt+1)^(0+128)
  1476  028A  1283               	bcf	3,5	;RP0=0, select bank0
  1477  028B  1303               	bcf	3,6	;RP1=0, select bank0
  1478  028C  084E               	movf	?___flmul,w
  1479  028D  1683               	bsf	3,5	;RP0=1, select bank1
  1480  028E  1303               	bcf	3,6	;RP1=0, select bank1
  1481  028F  00B0               	movwf	_volt^(0+128)
  1482  0290                     l2986:
  1483                           
  1484                           ;Master.c: 152:         temperatura = (volt* (float) 100);
  1485  0290  3042               	movlw	66
  1486  0291  1283               	bcf	3,5	;RP0=0, select bank0
  1487  0292  1303               	bcf	3,6	;RP1=0, select bank0
  1488  0293  00D1               	movwf	___flmul@b+3
  1489  0294  30C8               	movlw	200
  1490  0295  00D0               	movwf	___flmul@b+2
  1491  0296  3000               	movlw	0
  1492  0297  00CF               	movwf	___flmul@b+1
  1493  0298  3000               	movlw	0
  1494  0299  00CE               	movwf	___flmul@b
  1495  029A  1683               	bsf	3,5	;RP0=1, select bank1
  1496  029B  1303               	bcf	3,6	;RP1=0, select bank1
  1497  029C  0833               	movf	(_volt+3)^(0+128),w
  1498  029D  1283               	bcf	3,5	;RP0=0, select bank0
  1499  029E  1303               	bcf	3,6	;RP1=0, select bank0
  1500  029F  00D5               	movwf	___flmul@a+3
  1501  02A0  1683               	bsf	3,5	;RP0=1, select bank1
  1502  02A1  1303               	bcf	3,6	;RP1=0, select bank1
  1503  02A2  0832               	movf	(_volt+2)^(0+128),w
  1504  02A3  1283               	bcf	3,5	;RP0=0, select bank0
  1505  02A4  1303               	bcf	3,6	;RP1=0, select bank0
  1506  02A5  00D4               	movwf	___flmul@a+2
  1507  02A6  1683               	bsf	3,5	;RP0=1, select bank1
  1508  02A7  1303               	bcf	3,6	;RP1=0, select bank1
  1509  02A8  0831               	movf	(_volt+1)^(0+128),w
  1510  02A9  1283               	bcf	3,5	;RP0=0, select bank0
  1511  02AA  1303               	bcf	3,6	;RP1=0, select bank0
  1512  02AB  00D3               	movwf	___flmul@a+1
  1513  02AC  1683               	bsf	3,5	;RP0=1, select bank1
  1514  02AD  1303               	bcf	3,6	;RP1=0, select bank1
  1515  02AE  0830               	movf	_volt^(0+128),w
  1516  02AF  1283               	bcf	3,5	;RP0=0, select bank0
  1517  02B0  1303               	bcf	3,6	;RP1=0, select bank0
  1518  02B1  00D2               	movwf	___flmul@a
  1519  02B2  120A  158A  249F  120A  118A  	fcall	___flmul
  1520  02B7  1283               	bcf	3,5	;RP0=0, select bank0
  1521  02B8  1303               	bcf	3,6	;RP1=0, select bank0
  1522  02B9  0851               	movf	?___flmul+3,w
  1523  02BA  1683               	bsf	3,5	;RP0=1, select bank1
  1524  02BB  1303               	bcf	3,6	;RP1=0, select bank1
  1525  02BC  00AF               	movwf	(_temperatura+3)^(0+128)
  1526  02BD  1283               	bcf	3,5	;RP0=0, select bank0
  1527  02BE  1303               	bcf	3,6	;RP1=0, select bank0
  1528  02BF  0850               	movf	?___flmul+2,w
  1529  02C0  1683               	bsf	3,5	;RP0=1, select bank1
  1530  02C1  1303               	bcf	3,6	;RP1=0, select bank1
  1531  02C2  00AE               	movwf	(_temperatura+2)^(0+128)
  1532  02C3  1283               	bcf	3,5	;RP0=0, select bank0
  1533  02C4  1303               	bcf	3,6	;RP1=0, select bank0
  1534  02C5  084F               	movf	?___flmul+1,w
  1535  02C6  1683               	bsf	3,5	;RP0=1, select bank1
  1536  02C7  1303               	bcf	3,6	;RP1=0, select bank1
  1537  02C8  00AD               	movwf	(_temperatura+1)^(0+128)
  1538  02C9  1283               	bcf	3,5	;RP0=0, select bank0
  1539  02CA  1303               	bcf	3,6	;RP1=0, select bank0
  1540  02CB  084E               	movf	?___flmul,w
  1541  02CC  1683               	bsf	3,5	;RP0=1, select bank1
  1542  02CD  1303               	bcf	3,6	;RP1=0, select bank1
  1543  02CE  00AC               	movwf	_temperatura^(0+128)
  1544  02CF                     l2988:
  1545                           
  1546                           ;Master.c: 154:         conv1 = 0;
  1547  02CF  3000               	movlw	0
  1548  02D0  00AB               	movwf	(_conv1+3)^(0+128)
  1549  02D1  3000               	movlw	0
  1550  02D2  00AA               	movwf	(_conv1+2)^(0+128)
  1551  02D3  3000               	movlw	0
  1552  02D4  00A9               	movwf	(_conv1+1)^(0+128)
  1553  02D5  3000               	movlw	0
  1554  02D6  00A8               	movwf	_conv1^(0+128)
  1555  02D7                     l2990:
  1556                           
  1557                           ;Master.c: 157:         conv1 = temperatura;
  1558  02D7  082F               	movf	(_temperatura+3)^(0+128),w
  1559  02D8  00AB               	movwf	(_conv1+3)^(0+128)
  1560  02D9  082E               	movf	(_temperatura+2)^(0+128),w
  1561  02DA  00AA               	movwf	(_conv1+2)^(0+128)
  1562  02DB  082D               	movf	(_temperatura+1)^(0+128),w
  1563  02DC  00A9               	movwf	(_conv1+1)^(0+128)
  1564  02DD  082C               	movf	_temperatura^(0+128),w
  1565  02DE  00A8               	movwf	_conv1^(0+128)
  1566  02DF                     l2992:
  1567                           
  1568                           ;Master.c: 159:         convert(lcd1, conv1, 2);
  1569  02DF  082B               	movf	(_conv1+3)^(0+128),w
  1570  02E0  1283               	bcf	3,5	;RP0=0, select bank0
  1571  02E1  1303               	bcf	3,6	;RP1=0, select bank0
  1572  02E2  00EB               	movwf	convert@a+3
  1573  02E3  1683               	bsf	3,5	;RP0=1, select bank1
  1574  02E4  1303               	bcf	3,6	;RP1=0, select bank1
  1575  02E5  082A               	movf	(_conv1+2)^(0+128),w
  1576  02E6  1283               	bcf	3,5	;RP0=0, select bank0
  1577  02E7  1303               	bcf	3,6	;RP1=0, select bank0
  1578  02E8  00EA               	movwf	convert@a+2
  1579  02E9  1683               	bsf	3,5	;RP0=1, select bank1
  1580  02EA  1303               	bcf	3,6	;RP1=0, select bank1
  1581  02EB  0829               	movf	(_conv1+1)^(0+128),w
  1582  02EC  1283               	bcf	3,5	;RP0=0, select bank0
  1583  02ED  1303               	bcf	3,6	;RP1=0, select bank0
  1584  02EE  00E9               	movwf	convert@a+1
  1585  02EF  1683               	bsf	3,5	;RP0=1, select bank1
  1586  02F0  1303               	bcf	3,6	;RP1=0, select bank1
  1587  02F1  0828               	movf	_conv1^(0+128),w
  1588  02F2  1283               	bcf	3,5	;RP0=0, select bank0
  1589  02F3  1303               	bcf	3,6	;RP1=0, select bank0
  1590  02F4  00E8               	movwf	convert@a
  1591  02F5  3002               	movlw	2
  1592  02F6  00EC               	movwf	convert@place
  1593  02F7  3000               	movlw	0
  1594  02F8  00ED               	movwf	convert@place+1
  1595  02F9  30CB               	movlw	(low (_lcd1| 0))& (0+255)
  1596  02FA  120A  118A  23F6  120A  118A  	fcall	_convert
  1597  02FF                     l2994:
  1598                           
  1599                           ;Master.c: 161:         conv0 = 0;
  1600  02FF  3000               	movlw	0
  1601  0300  1683               	bsf	3,5	;RP0=1, select bank1
  1602  0301  1303               	bcf	3,6	;RP1=0, select bank1
  1603  0302  00A7               	movwf	(_conv0+3)^(0+128)
  1604  0303  3000               	movlw	0
  1605  0304  00A6               	movwf	(_conv0+2)^(0+128)
  1606  0305  3000               	movlw	0
  1607  0306  00A5               	movwf	(_conv0+1)^(0+128)
  1608  0307  3000               	movlw	0
  1609  0308  00A4               	movwf	_conv0^(0+128)
  1610  0309                     l2996:
  1611                           
  1612                           ;Master.c: 162:         conv0 = var_hum;
  1613  0309  083E               	movf	_var_hum^(0+128),w	;volatile
  1614  030A  00E4               	movwf	??_main^(0+128)
  1615  030B  01E5               	clrf	(??_main^(0+128)+1)
  1616  030C  01E6               	clrf	(??_main^(0+128)+2)
  1617  030D  01E7               	clrf	(??_main^(0+128)+3)
  1618  030E  0867               	movf	(??_main+3)^(0+128),w
  1619  030F  1283               	bcf	3,5	;RP0=0, select bank0
  1620  0310  1303               	bcf	3,6	;RP1=0, select bank0
  1621  0311  00A7               	movwf	___xxtofl@val+3
  1622  0312  1683               	bsf	3,5	;RP0=1, select bank1
  1623  0313  1303               	bcf	3,6	;RP1=0, select bank1
  1624  0314  0866               	movf	(??_main+2)^(0+128),w
  1625  0315  1283               	bcf	3,5	;RP0=0, select bank0
  1626  0316  1303               	bcf	3,6	;RP1=0, select bank0
  1627  0317  00A6               	movwf	___xxtofl@val+2
  1628  0318  1683               	bsf	3,5	;RP0=1, select bank1
  1629  0319  1303               	bcf	3,6	;RP1=0, select bank1
  1630  031A  0865               	movf	(??_main+1)^(0+128),w
  1631  031B  1283               	bcf	3,5	;RP0=0, select bank0
  1632  031C  1303               	bcf	3,6	;RP1=0, select bank0
  1633  031D  00A5               	movwf	___xxtofl@val+1
  1634  031E  1683               	bsf	3,5	;RP0=1, select bank1
  1635  031F  1303               	bcf	3,6	;RP1=0, select bank1
  1636  0320  0864               	movf	??_main^(0+128),w
  1637  0321  1283               	bcf	3,5	;RP0=0, select bank0
  1638  0322  1303               	bcf	3,6	;RP1=0, select bank0
  1639  0323  00A4               	movwf	___xxtofl@val
  1640  0324  3000               	movlw	0
  1641  0325  160A  118A  2744  120A  118A  	fcall	___xxtofl
  1642  032A  1283               	bcf	3,5	;RP0=0, select bank0
  1643  032B  1303               	bcf	3,6	;RP1=0, select bank0
  1644  032C  0827               	movf	?___xxtofl+3,w
  1645  032D  1683               	bsf	3,5	;RP0=1, select bank1
  1646  032E  1303               	bcf	3,6	;RP1=0, select bank1
  1647  032F  00A7               	movwf	(_conv0+3)^(0+128)
  1648  0330  1283               	bcf	3,5	;RP0=0, select bank0
  1649  0331  1303               	bcf	3,6	;RP1=0, select bank0
  1650  0332  0826               	movf	?___xxtofl+2,w
  1651  0333  1683               	bsf	3,5	;RP0=1, select bank1
  1652  0334  1303               	bcf	3,6	;RP1=0, select bank1
  1653  0335  00A6               	movwf	(_conv0+2)^(0+128)
  1654  0336  1283               	bcf	3,5	;RP0=0, select bank0
  1655  0337  1303               	bcf	3,6	;RP1=0, select bank0
  1656  0338  0825               	movf	?___xxtofl+1,w
  1657  0339  1683               	bsf	3,5	;RP0=1, select bank1
  1658  033A  1303               	bcf	3,6	;RP1=0, select bank1
  1659  033B  00A5               	movwf	(_conv0+1)^(0+128)
  1660  033C  1283               	bcf	3,5	;RP0=0, select bank0
  1661  033D  1303               	bcf	3,6	;RP1=0, select bank0
  1662  033E  0824               	movf	?___xxtofl,w
  1663  033F  1683               	bsf	3,5	;RP0=1, select bank1
  1664  0340  1303               	bcf	3,6	;RP1=0, select bank1
  1665  0341  00A4               	movwf	_conv0^(0+128)
  1666                           
  1667                           ;Master.c: 164:         convert(humedad, conv0, 2);
  1668  0342  0827               	movf	(_conv0+3)^(0+128),w
  1669  0343  1283               	bcf	3,5	;RP0=0, select bank0
  1670  0344  1303               	bcf	3,6	;RP1=0, select bank0
  1671  0345  00EB               	movwf	convert@a+3
  1672  0346  1683               	bsf	3,5	;RP0=1, select bank1
  1673  0347  1303               	bcf	3,6	;RP1=0, select bank1
  1674  0348  0826               	movf	(_conv0+2)^(0+128),w
  1675  0349  1283               	bcf	3,5	;RP0=0, select bank0
  1676  034A  1303               	bcf	3,6	;RP1=0, select bank0
  1677  034B  00EA               	movwf	convert@a+2
  1678  034C  1683               	bsf	3,5	;RP0=1, select bank1
  1679  034D  1303               	bcf	3,6	;RP1=0, select bank1
  1680  034E  0825               	movf	(_conv0+1)^(0+128),w
  1681  034F  1283               	bcf	3,5	;RP0=0, select bank0
  1682  0350  1303               	bcf	3,6	;RP1=0, select bank0
  1683  0351  00E9               	movwf	convert@a+1
  1684  0352  1683               	bsf	3,5	;RP0=1, select bank1
  1685  0353  1303               	bcf	3,6	;RP1=0, select bank1
  1686  0354  0824               	movf	_conv0^(0+128),w
  1687  0355  1283               	bcf	3,5	;RP0=0, select bank0
  1688  0356  1303               	bcf	3,6	;RP1=0, select bank0
  1689  0357  00E8               	movwf	convert@a
  1690  0358  3002               	movlw	2
  1691  0359  00EC               	movwf	convert@place
  1692  035A  3000               	movlw	0
  1693  035B  00ED               	movwf	convert@place+1
  1694  035C  30C1               	movlw	(low (_humedad| 0))& (0+255)
  1695  035D  120A  118A  23F6  120A  118A  	fcall	_convert
  1696  0362                     l2998:
  1697                           
  1698                           ;Master.c: 167:         Lcd_Set_Cursor(2, 1);
  1699  0362  01F4               	clrf	Lcd_Set_Cursor@b
  1700  0363  0AF4               	incf	Lcd_Set_Cursor@b,f
  1701  0364  3002               	movlw	2
  1702  0365  160A  118A  2453  120A  118A  	fcall	_Lcd_Set_Cursor
  1703  036A                     l3000:
  1704                           
  1705                           ;Master.c: 168:         Lcd_Write_String(lcd1);
  1706  036A  30CB               	movlw	(low (_lcd1| 0))& (0+255)
  1707  036B  00F3               	movwf	Lcd_Write_String@a
  1708  036C  3000               	movlw	0
  1709  036D  00F4               	movwf	Lcd_Write_String@a+1
  1710  036E  160A  118A  253B  120A  118A  	fcall	_Lcd_Write_String
  1711                           
  1712                           ;Master.c: 169:         Lcd_Set_Cursor(2, 6);
  1713  0373  3006               	movlw	6
  1714  0374  1683               	bsf	3,5	;RP0=1, select bank1
  1715  0375  1303               	bcf	3,6	;RP1=0, select bank1
  1716  0376  00E4               	movwf	??_main^(0+128)
  1717  0377  0864               	movf	??_main^(0+128),w
  1718  0378  00F4               	movwf	Lcd_Set_Cursor@b
  1719  0379  3002               	movlw	2
  1720  037A  160A  118A  2453  120A  118A  	fcall	_Lcd_Set_Cursor
  1721  037F                     l3002:
  1722                           
  1723                           ;Master.c: 170:         Lcd_Write_String("C");
  1724  037F  300E               	movlw	(low ((STR_4-__stringbase)| (0+32768)))& (0+255)
  1725  0380  00F3               	movwf	Lcd_Write_String@a
  1726  0381  3080               	movlw	128
  1727  0382  00F4               	movwf	Lcd_Write_String@a+1
  1728  0383  160A  118A  253B  120A  118A  	fcall	_Lcd_Write_String
  1729  0388                     l3004:
  1730                           
  1731                           ;Master.c: 172:         Lcd_Set_Cursor(2, 7);
  1732  0388  3007               	movlw	7
  1733  0389  1683               	bsf	3,5	;RP0=1, select bank1
  1734  038A  1303               	bcf	3,6	;RP1=0, select bank1
  1735  038B  00E4               	movwf	??_main^(0+128)
  1736  038C  0864               	movf	??_main^(0+128),w
  1737  038D  00F4               	movwf	Lcd_Set_Cursor@b
  1738  038E  3002               	movlw	2
  1739  038F  160A  118A  2453  120A  118A  	fcall	_Lcd_Set_Cursor
  1740                           
  1741                           ;Master.c: 173:         Lcd_Write_String(humedad);
  1742  0394  30C1               	movlw	(low (_humedad| 0))& (0+255)
  1743  0395  00F3               	movwf	Lcd_Write_String@a
  1744  0396  3000               	movlw	0
  1745  0397  00F4               	movwf	Lcd_Write_String@a+1
  1746  0398  160A  118A  253B  120A  118A  	fcall	_Lcd_Write_String
  1747  039D                     l3006:
  1748                           
  1749                           ;Master.c: 174:         Lcd_Set_Cursor(2, 11);
  1750  039D  300B               	movlw	11
  1751  039E  1683               	bsf	3,5	;RP0=1, select bank1
  1752  039F  1303               	bcf	3,6	;RP1=0, select bank1
  1753  03A0  00E4               	movwf	??_main^(0+128)
  1754  03A1  0864               	movf	??_main^(0+128),w
  1755  03A2  00F4               	movwf	Lcd_Set_Cursor@b
  1756  03A3  3002               	movlw	2
  1757  03A4  160A  118A  2453  120A  118A  	fcall	_Lcd_Set_Cursor
  1758  03A9                     l3008:
  1759                           
  1760                           ;Master.c: 175:         Lcd_Write_String("C");
  1761  03A9  300E               	movlw	(low ((STR_4-__stringbase)| (0+32768)))& (0+255)
  1762  03AA  00F3               	movwf	Lcd_Write_String@a
  1763  03AB  3080               	movlw	128
  1764  03AC  00F4               	movwf	Lcd_Write_String@a+1
  1765  03AD  160A  118A  253B  120A  118A  	fcall	_Lcd_Write_String
  1766  03B2                     l3010:
  1767                           
  1768                           ;Master.c: 203:         if (PIR1bits.RCIF == 1){
  1769  03B2  1283               	bcf	3,5	;RP0=0, select bank0
  1770  03B3  1303               	bcf	3,6	;RP1=0, select bank0
  1771  03B4  1E8C               	btfss	12,5	;volatile
  1772  03B5  2BB7               	goto	u3781
  1773  03B6  2BB8               	goto	u3780
  1774  03B7                     u3781:
  1775  03B7  2BE1               	goto	l3018
  1776  03B8                     u3780:
  1777  03B8                     l3012:
  1778                           
  1779                           ;Master.c: 204:             ingreso = USART_Recieve();
  1780  03B8  160A  118A  23D9  120A  118A  	fcall	_USART_Recieve
  1781  03BD  1683               	bsf	3,5	;RP0=1, select bank1
  1782  03BE  1303               	bcf	3,6	;RP1=0, select bank1
  1783  03BF  00E4               	movwf	??_main^(0+128)
  1784  03C0  0864               	movf	??_main^(0+128),w
  1785  03C1  00BD               	movwf	_ingreso^(0+128)
  1786  03C2                     l3014:
  1787                           
  1788                           ;Master.c: 206:             if(ingreso == 's'){
  1789  03C2  3073               	movlw	115
  1790  03C3  063D               	xorwf	_ingreso^(0+128),w
  1791  03C4  1D03               	btfss	3,2
  1792  03C5  2BC7               	goto	u3791
  1793  03C6  2BC8               	goto	u3790
  1794  03C7                     u3791:
  1795  03C7  2BE1               	goto	l3018
  1796  03C8                     u3790:
  1797  03C8                     l3016:
  1798                           
  1799                           ;Master.c: 207:                 USART_Transmit(temperatura);
  1800  03C8  082F               	movf	(_temperatura+3)^(0+128),w
  1801  03C9  00F3               	movwf	___fltol@f1+3
  1802  03CA  082E               	movf	(_temperatura+2)^(0+128),w
  1803  03CB  00F2               	movwf	___fltol@f1+2
  1804  03CC  082D               	movf	(_temperatura+1)^(0+128),w
  1805  03CD  00F1               	movwf	___fltol@f1+1
  1806  03CE  082C               	movf	_temperatura^(0+128),w
  1807  03CF  00F0               	movwf	___fltol@f1
  1808  03D0  160A  118A  2628  120A  118A  	fcall	___fltol
  1809  03D5  0870               	movf	?___fltol,w
  1810  03D6  160A  118A  23FD  120A  118A  	fcall	_USART_Transmit
  1811                           
  1812                           ;Master.c: 208:                 USART_Transmit(humedad);
  1813  03DB  30C1               	movlw	(low _humedad)& (0+255)
  1814  03DC  160A  118A  23FD  120A  118A  	fcall	_USART_Transmit
  1815  03E1                     l3018:
  1816                           
  1817                           ;Master.c: 212:         ingreso = 0;
  1818  03E1  1683               	bsf	3,5	;RP0=1, select bank1
  1819  03E2  1303               	bcf	3,6	;RP1=0, select bank1
  1820  03E3  01BD               	clrf	_ingreso^(0+128)
  1821  03E4                     l3020:
  1822                           
  1823                           ;Master.c: 213:         _delay((unsigned long)((500)*(8000000/4000.0)));
  1824  03E4  3006               	movlw	6
  1825  03E5  1683               	bsf	3,5	;RP0=1, select bank1
  1826  03E6  1303               	bcf	3,6	;RP1=0, select bank1
  1827  03E7  00E6               	movwf	(??_main^(0+128)+2)
  1828  03E8  3013               	movlw	19
  1829  03E9  00E5               	movwf	(??_main^(0+128)+1)
  1830  03EA  30AD               	movlw	173
  1831  03EB  00E4               	movwf	??_main^(0+128)
  1832  03EC                     u3867:
  1833  03EC  0BE4               	decfsz	??_main^(0+128),f
  1834  03ED  2BEC               	goto	u3867
  1835  03EE  0BE5               	decfsz	(??_main^(0+128)+1),f
  1836  03EF  2BEC               	goto	u3867
  1837  03F0  0BE6               	decfsz	(??_main^(0+128)+2),f
  1838  03F1  2BEC               	goto	u3867
  1839  03F2  2884               	goto	l85
  1840  03F3  120A  118A  2800   	ljmp	start
  1841  03F6                     __end_of_main:
  1842                           
  1843                           	psect	text1
  1844  149B                     __ptext1:	
  1845 ;; *************** function _setup *****************
  1846 ;; Defined at:
  1847 ;;		line 221 in file "Master.c"
  1848 ;; Parameters:    Size  Location     Type
  1849 ;;		None
  1850 ;; Auto vars:     Size  Location     Type
  1851 ;;		None
  1852 ;; Return value:  Size  Location     Type
  1853 ;;                  1    wreg      void 
  1854 ;; Registers used:
  1855 ;;		wreg, status,2, status,0, pclath, cstack
  1856 ;; Tracked objects:
  1857 ;;		On entry : 0/0
  1858 ;;		On exit  : 0/0
  1859 ;;		Unchanged: 0/0
  1860 ;; Data sizes:     COMMON   BANK0   BANK1   BANK3   BANK2
  1861 ;;      Params:         0       0       0       0       0
  1862 ;;      Locals:         0       0       0       0       0
  1863 ;;      Temps:          0       0       0       0       0
  1864 ;;      Totals:         0       0       0       0       0
  1865 ;;Total ram usage:        0 bytes
  1866 ;; Hardware stack levels used: 1
  1867 ;; Hardware stack levels required when called: 2
  1868 ;; This function calls:
  1869 ;;		_I2C_Master_Init
  1870 ;; This function is called by:
  1871 ;;		_main
  1872 ;; This function uses a non-reentrant model
  1873 ;;
  1874                           
  1875                           
  1876                           ;psect for function _setup
  1877  149B                     _setup:
  1878  149B                     l2758:	
  1879                           ;incstack = 0
  1880                           ; Regs used in _setup: [wreg+status,2+status,0+pclath+cstack]
  1881                           
  1882                           
  1883                           ;Master.c: 222:     ANSEL = 0x00;
  1884  149B  1683               	bsf	3,5	;RP0=1, select bank3
  1885  149C  1703               	bsf	3,6	;RP1=1, select bank3
  1886  149D  0188               	clrf	8	;volatile
  1887                           
  1888                           ;Master.c: 223:     ANSELH = 0x00;
  1889  149E  0189               	clrf	9	;volatile
  1890  149F                     l2760:
  1891                           
  1892                           ;Master.c: 225:     TRISCbits.TRISC0 = 0;
  1893  149F  1683               	bsf	3,5	;RP0=1, select bank1
  1894  14A0  1303               	bcf	3,6	;RP1=0, select bank1
  1895  14A1  1007               	bcf	7,0	;volatile
  1896  14A2                     l2762:
  1897                           
  1898                           ;Master.c: 226:     TRISCbits.TRISC1 = 0;
  1899  14A2  1087               	bcf	7,1	;volatile
  1900                           
  1901                           ;Master.c: 227:     TRISB = 0x00;
  1902  14A3  0186               	clrf	6	;volatile
  1903                           
  1904                           ;Master.c: 228:     TRISD = 0x00;
  1905  14A4  0188               	clrf	8	;volatile
  1906                           
  1907                           ;Master.c: 229:     TRISE = 0x00;
  1908  14A5  0189               	clrf	9	;volatile
  1909                           
  1910                           ;Master.c: 230:     PORTE = 0x00;
  1911  14A6  1283               	bcf	3,5	;RP0=0, select bank0
  1912  14A7  1303               	bcf	3,6	;RP1=0, select bank0
  1913  14A8  0189               	clrf	9	;volatile
  1914                           
  1915                           ;Master.c: 231:     PORTB = 0x00;
  1916  14A9  0186               	clrf	6	;volatile
  1917                           
  1918                           ;Master.c: 232:     PORTD = 0x00;
  1919  14AA  0188               	clrf	8	;volatile
  1920  14AB                     l2764:
  1921                           
  1922                           ;Master.c: 233:     I2C_Master_Init(100000);
  1923  14AB  3000               	movlw	0
  1924  14AC  00A3               	movwf	I2C_Master_Init@c+3
  1925  14AD  3001               	movlw	1
  1926  14AE  00A2               	movwf	I2C_Master_Init@c+2
  1927  14AF  3086               	movlw	134
  1928  14B0  00A1               	movwf	I2C_Master_Init@c+1
  1929  14B1  30A0               	movlw	160
  1930  14B2  00A0               	movwf	I2C_Master_Init@c
  1931  14B3  120A  158A  2002  160A  118A  	fcall	_I2C_Master_Init
  1932  14B8                     l2766:
  1933                           
  1934                           ;Master.c: 239:     OSCCONbits.IRCF2 = 1;
  1935  14B8  1683               	bsf	3,5	;RP0=1, select bank1
  1936  14B9  1303               	bcf	3,6	;RP1=0, select bank1
  1937  14BA  170F               	bsf	15,6	;volatile
  1938  14BB                     l2768:
  1939                           
  1940                           ;Master.c: 240:     OSCCONbits.IRCF1 = 1;
  1941  14BB  168F               	bsf	15,5	;volatile
  1942  14BC                     l2770:
  1943                           
  1944                           ;Master.c: 241:     OSCCONbits.IRCF0 = 1;
  1945  14BC  160F               	bsf	15,4	;volatile
  1946  14BD                     l2772:
  1947                           
  1948                           ;Master.c: 242:     OSCCONbits.SCS = 1;
  1949  14BD  140F               	bsf	15,0	;volatile
  1950  14BE                     l93:
  1951  14BE  0008               	return
  1952  14BF                     __end_of_setup:
  1953                           
  1954                           	psect	text2
  1955  0802                     __ptext2:	
  1956 ;; *************** function _I2C_Master_Init *****************
  1957 ;; Defined at:
  1958 ;;		line 14 in file "Librerias.c"
  1959 ;; Parameters:    Size  Location     Type
  1960 ;;  c               4    0[BANK0 ] const unsigned long 
  1961 ;; Auto vars:     Size  Location     Type
  1962 ;;		None
  1963 ;; Return value:  Size  Location     Type
  1964 ;;                  1    wreg      void 
  1965 ;; Registers used:
  1966 ;;		wreg, status,2, status,0, pclath, cstack
  1967 ;; Tracked objects:
  1968 ;;		On entry : 0/0
  1969 ;;		On exit  : 0/0
  1970 ;;		Unchanged: 0/0
  1971 ;; Data sizes:     COMMON   BANK0   BANK1   BANK3   BANK2
  1972 ;;      Params:         0       4       0       0       0
  1973 ;;      Locals:         0       0       0       0       0
  1974 ;;      Temps:          0       4       0       0       0
  1975 ;;      Totals:         0       8       0       0       0
  1976 ;;Total ram usage:        8 bytes
  1977 ;; Hardware stack levels used: 1
  1978 ;; Hardware stack levels required when called: 1
  1979 ;; This function calls:
  1980 ;;		___lldiv
  1981 ;; This function is called by:
  1982 ;;		_setup
  1983 ;; This function uses a non-reentrant model
  1984 ;;
  1985                           
  1986                           
  1987                           ;psect for function _I2C_Master_Init
  1988  0802                     _I2C_Master_Init:
  1989  0802                     l2276:	
  1990                           ;incstack = 0
  1991                           ; Regs used in _I2C_Master_Init: [wreg+status,2+status,0+pclath+cstack]
  1992                           
  1993                           
  1994                           ;Librerias.c: 14: void I2C_Master_Init(const unsigned long c);Librerias.c: 15: {;Libreri
      +                          as.c: 16:     SSPCON = 0b00101000;
  1995  0802  3028               	movlw	40
  1996  0803  1283               	bcf	3,5	;RP0=0, select bank0
  1997  0804  1303               	bcf	3,6	;RP1=0, select bank0
  1998  0805  0094               	movwf	20	;volatile
  1999  0806                     l2278:
  2000                           
  2001                           ;Librerias.c: 17:     SSPCON2 = 0;
  2002  0806  1683               	bsf	3,5	;RP0=1, select bank1
  2003  0807  1303               	bcf	3,6	;RP1=0, select bank1
  2004  0808  0191               	clrf	17	;volatile
  2005  0809                     l2280:
  2006                           
  2007                           ;Librerias.c: 18:     SSPADD = (8000000/(4*c))-1;
  2008  0809  1283               	bcf	3,5	;RP0=0, select bank0
  2009  080A  1303               	bcf	3,6	;RP1=0, select bank0
  2010  080B  0820               	movf	I2C_Master_Init@c,w
  2011  080C  00A4               	movwf	??_I2C_Master_Init
  2012  080D  0821               	movf	I2C_Master_Init@c+1,w
  2013  080E  00A5               	movwf	??_I2C_Master_Init+1
  2014  080F  0822               	movf	I2C_Master_Init@c+2,w
  2015  0810  00A6               	movwf	??_I2C_Master_Init+2
  2016  0811  0823               	movf	I2C_Master_Init@c+3,w
  2017  0812  00A7               	movwf	??_I2C_Master_Init+3
  2018  0813  3002               	movlw	2
  2019  0814                     u2485:
  2020  0814  1003               	clrc
  2021  0815  0DA4               	rlf	??_I2C_Master_Init,f
  2022  0816  0DA5               	rlf	??_I2C_Master_Init+1,f
  2023  0817  0DA6               	rlf	??_I2C_Master_Init+2,f
  2024  0818  0DA7               	rlf	??_I2C_Master_Init+3,f
  2025  0819                     u2480:
  2026  0819  3EFF               	addlw	-1
  2027  081A  1D03               	skipz
  2028  081B  2814               	goto	u2485
  2029  081C  0827               	movf	??_I2C_Master_Init+3,w
  2030  081D  00F3               	movwf	___lldiv@divisor+3
  2031  081E  0826               	movf	??_I2C_Master_Init+2,w
  2032  081F  00F2               	movwf	___lldiv@divisor+2
  2033  0820  0825               	movf	??_I2C_Master_Init+1,w
  2034  0821  00F1               	movwf	___lldiv@divisor+1
  2035  0822  0824               	movf	??_I2C_Master_Init,w
  2036  0823  00F0               	movwf	___lldiv@divisor
  2037  0824  3000               	movlw	0
  2038  0825  00F7               	movwf	___lldiv@dividend+3
  2039  0826  307A               	movlw	122
  2040  0827  00F6               	movwf	___lldiv@dividend+2
  2041  0828  3012               	movlw	18
  2042  0829  00F5               	movwf	___lldiv@dividend+1
  2043  082A  3000               	movlw	0
  2044  082B  00F4               	movwf	___lldiv@dividend
  2045  082C  160A  118A  25C2  120A  158A  	fcall	___lldiv
  2046  0831  0870               	movf	?___lldiv,w
  2047  0832  3EFF               	addlw	255
  2048  0833  1683               	bsf	3,5	;RP0=1, select bank1
  2049  0834  1303               	bcf	3,6	;RP1=0, select bank1
  2050  0835  0093               	movwf	19	;volatile
  2051  0836                     l2282:
  2052                           
  2053                           ;Librerias.c: 19:     SSPSTAT = 0;
  2054  0836  0194               	clrf	20	;volatile
  2055  0837                     l2284:
  2056                           
  2057                           ;Librerias.c: 20:     TRISCbits.TRISC3 = 1;
  2058  0837  1587               	bsf	7,3	;volatile
  2059  0838                     l2286:
  2060                           
  2061                           ;Librerias.c: 21:     TRISCbits.TRISC4 = 1;
  2062  0838  1607               	bsf	7,4	;volatile
  2063  0839                     l158:
  2064  0839  0008               	return
  2065  083A                     __end_of_I2C_Master_Init:
  2066                           
  2067                           	psect	text3
  2068  15C2                     __ptext3:	
  2069 ;; *************** function ___lldiv *****************
  2070 ;; Defined at:
  2071 ;;		line 5 in file "C:\Program Files\Microchip\xc8\v2.32\pic\sources\c90\common\__lldiv.c"
  2072 ;; Parameters:    Size  Location     Type
  2073 ;;  divisor         4    0[COMMON] unsigned long 
  2074 ;;  dividend        4    4[COMMON] unsigned long 
  2075 ;; Auto vars:     Size  Location     Type
  2076 ;;  quotient        4    9[COMMON] unsigned long 
  2077 ;;  counter         1   13[COMMON] unsigned char 
  2078 ;; Return value:  Size  Location     Type
  2079 ;;                  4    0[COMMON] unsigned long 
  2080 ;; Registers used:
  2081 ;;		wreg, status,2, status,0
  2082 ;; Tracked objects:
  2083 ;;		On entry : 0/0
  2084 ;;		On exit  : 0/0
  2085 ;;		Unchanged: 0/0
  2086 ;; Data sizes:     COMMON   BANK0   BANK1   BANK3   BANK2
  2087 ;;      Params:         8       0       0       0       0
  2088 ;;      Locals:         5       0       0       0       0
  2089 ;;      Temps:          1       0       0       0       0
  2090 ;;      Totals:        14       0       0       0       0
  2091 ;;Total ram usage:       14 bytes
  2092 ;; Hardware stack levels used: 1
  2093 ;; This function calls:
  2094 ;;		Nothing
  2095 ;; This function is called by:
  2096 ;;		_I2C_Master_Init
  2097 ;; This function uses a non-reentrant model
  2098 ;;
  2099                           
  2100                           
  2101                           ;psect for function ___lldiv
  2102  15C2                     ___lldiv:
  2103  15C2                     l2044:	
  2104                           ;incstack = 0
  2105                           ; Regs used in ___lldiv: [wreg+status,2+status,0]
  2106                           
  2107  15C2  3000               	movlw	0
  2108  15C3  00FC               	movwf	___lldiv@quotient+3
  2109  15C4  3000               	movlw	0
  2110  15C5  00FB               	movwf	___lldiv@quotient+2
  2111  15C6  3000               	movlw	0
  2112  15C7  00FA               	movwf	___lldiv@quotient+1
  2113  15C8  3000               	movlw	0
  2114  15C9  00F9               	movwf	___lldiv@quotient
  2115  15CA  0873               	movf	___lldiv@divisor+3,w
  2116  15CB  0472               	iorwf	___lldiv@divisor+2,w
  2117  15CC  0471               	iorwf	___lldiv@divisor+1,w
  2118  15CD  0470               	iorwf	___lldiv@divisor,w
  2119  15CE  1903               	skipnz
  2120  15CF  2DD1               	goto	u1921
  2121  15D0  2DD2               	goto	u1920
  2122  15D1                     u1921:
  2123  15D1  2E1F               	goto	l2064
  2124  15D2                     u1920:
  2125  15D2                     l2046:
  2126  15D2  01FD               	clrf	___lldiv@counter
  2127  15D3  0AFD               	incf	___lldiv@counter,f
  2128  15D4  2DE2               	goto	l2050
  2129  15D5                     l2048:
  2130  15D5  3001               	movlw	1
  2131  15D6  00F8               	movwf	??___lldiv
  2132  15D7                     u1935:
  2133  15D7  1003               	clrc
  2134  15D8  0DF0               	rlf	___lldiv@divisor,f
  2135  15D9  0DF1               	rlf	___lldiv@divisor+1,f
  2136  15DA  0DF2               	rlf	___lldiv@divisor+2,f
  2137  15DB  0DF3               	rlf	___lldiv@divisor+3,f
  2138  15DC  0BF8               	decfsz	??___lldiv,f
  2139  15DD  2DD7               	goto	u1935
  2140  15DE  3001               	movlw	1
  2141  15DF  00F8               	movwf	??___lldiv
  2142  15E0  0878               	movf	??___lldiv,w
  2143  15E1  07FD               	addwf	___lldiv@counter,f
  2144  15E2                     l2050:
  2145  15E2  1FF3               	btfss	___lldiv@divisor+3,7
  2146  15E3  2DE5               	goto	u1941
  2147  15E4  2DE6               	goto	u1940
  2148  15E5                     u1941:
  2149  15E5  2DD5               	goto	l2048
  2150  15E6                     u1940:
  2151  15E6                     l2052:
  2152  15E6  3001               	movlw	1
  2153  15E7  00F8               	movwf	??___lldiv
  2154  15E8                     u1955:
  2155  15E8  1003               	clrc
  2156  15E9  0DF9               	rlf	___lldiv@quotient,f
  2157  15EA  0DFA               	rlf	___lldiv@quotient+1,f
  2158  15EB  0DFB               	rlf	___lldiv@quotient+2,f
  2159  15EC  0DFC               	rlf	___lldiv@quotient+3,f
  2160  15ED  0BF8               	decfsz	??___lldiv,f
  2161  15EE  2DE8               	goto	u1955
  2162  15EF                     l2054:
  2163  15EF  0873               	movf	___lldiv@divisor+3,w
  2164  15F0  0277               	subwf	___lldiv@dividend+3,w
  2165  15F1  1D03               	skipz
  2166  15F2  2DFD               	goto	u1965
  2167  15F3  0872               	movf	___lldiv@divisor+2,w
  2168  15F4  0276               	subwf	___lldiv@dividend+2,w
  2169  15F5  1D03               	skipz
  2170  15F6  2DFD               	goto	u1965
  2171  15F7  0871               	movf	___lldiv@divisor+1,w
  2172  15F8  0275               	subwf	___lldiv@dividend+1,w
  2173  15F9  1D03               	skipz
  2174  15FA  2DFD               	goto	u1965
  2175  15FB  0870               	movf	___lldiv@divisor,w
  2176  15FC  0274               	subwf	___lldiv@dividend,w
  2177  15FD                     u1965:
  2178  15FD  1C03               	skipc
  2179  15FE  2E00               	goto	u1961
  2180  15FF  2E01               	goto	u1960
  2181  1600                     u1961:
  2182  1600  2E10               	goto	l2060
  2183  1601                     u1960:
  2184  1601                     l2056:
  2185  1601  0870               	movf	___lldiv@divisor,w
  2186  1602  02F4               	subwf	___lldiv@dividend,f
  2187  1603  0871               	movf	___lldiv@divisor+1,w
  2188  1604  1C03               	skipc
  2189  1605  0F71               	incfsz	___lldiv@divisor+1,w
  2190  1606  02F5               	subwf	___lldiv@dividend+1,f
  2191  1607  0872               	movf	___lldiv@divisor+2,w
  2192  1608  1C03               	skipc
  2193  1609  0F72               	incfsz	___lldiv@divisor+2,w
  2194  160A  02F6               	subwf	___lldiv@dividend+2,f
  2195  160B  0873               	movf	___lldiv@divisor+3,w
  2196  160C  1C03               	skipc
  2197  160D  0F73               	incfsz	___lldiv@divisor+3,w
  2198  160E  02F7               	subwf	___lldiv@dividend+3,f
  2199  160F                     l2058:
  2200  160F  1479               	bsf	___lldiv@quotient,0
  2201  1610                     l2060:
  2202  1610  3001               	movlw	1
  2203  1611                     u1975:
  2204  1611  1003               	clrc
  2205  1612  0CF3               	rrf	___lldiv@divisor+3,f
  2206  1613  0CF2               	rrf	___lldiv@divisor+2,f
  2207  1614  0CF1               	rrf	___lldiv@divisor+1,f
  2208  1615  0CF0               	rrf	___lldiv@divisor,f
  2209  1616  3EFF               	addlw	-1
  2210  1617  1D03               	skipz
  2211  1618  2E11               	goto	u1975
  2212  1619                     l2062:
  2213  1619  3001               	movlw	1
  2214  161A  02FD               	subwf	___lldiv@counter,f
  2215  161B  1D03               	btfss	3,2
  2216  161C  2E1E               	goto	u1981
  2217  161D  2E1F               	goto	u1980
  2218  161E                     u1981:
  2219  161E  2DE6               	goto	l2052
  2220  161F                     u1980:
  2221  161F                     l2064:
  2222  161F  087C               	movf	___lldiv@quotient+3,w
  2223  1620  00F3               	movwf	?___lldiv+3
  2224  1621  087B               	movf	___lldiv@quotient+2,w
  2225  1622  00F2               	movwf	?___lldiv+2
  2226  1623  087A               	movf	___lldiv@quotient+1,w
  2227  1624  00F1               	movwf	?___lldiv+1
  2228  1625  0879               	movf	___lldiv@quotient,w
  2229  1626  00F0               	movwf	?___lldiv
  2230  1627                     l454:
  2231  1627  0008               	return
  2232  1628                     __end_of___lldiv:
  2233                           
  2234                           	psect	text4
  2235  03F6                     __ptext4:	
  2236 ;; *************** function _convert *****************
  2237 ;; Defined at:
  2238 ;;		line 202 in file "Librerias.c"
  2239 ;; Parameters:    Size  Location     Type
  2240 ;;  data            1    wreg     PTR unsigned char 
  2241 ;;		 -> humedad(10), lcd1(10), 
  2242 ;;  a               4   72[BANK0 ] float 
  2243 ;;  place           2   76[BANK0 ] int 
  2244 ;; Auto vars:     Size  Location     Type
  2245 ;;  data            1    4[BANK1 ] PTR unsigned char 
  2246 ;;		 -> humedad(10), lcd1(10), 
  2247 ;;  x               4    5[BANK1 ] float 
  2248 ;;  mu              2   13[BANK1 ] int 
  2249 ;;  digits          2   11[BANK1 ] int 
  2250 ;;  i               2    9[BANK1 ] int 
  2251 ;;  j               2    2[BANK1 ] int 
  2252 ;;  temp            2    0[BANK1 ] int 
  2253 ;; Return value:  Size  Location     Type
  2254 ;;                  1    wreg      void 
  2255 ;; Registers used:
  2256 ;;		wreg, fsr0l, fsr0h, status,2, status,0, btemp+1, pclath, cstack
  2257 ;; Tracked objects:
  2258 ;;		On entry : 0/0
  2259 ;;		On exit  : 0/0
  2260 ;;		Unchanged: 0/0
  2261 ;; Data sizes:     COMMON   BANK0   BANK1   BANK3   BANK2
  2262 ;;      Params:         0       6       0       0       0
  2263 ;;      Locals:         0       0      15       0       0
  2264 ;;      Temps:          0       2       0       0       0
  2265 ;;      Totals:         0       8      15       0       0
  2266 ;;Total ram usage:       23 bytes
  2267 ;; Hardware stack levels used: 1
  2268 ;; Hardware stack levels required when called: 2
  2269 ;; This function calls:
  2270 ;;		___awdiv
  2271 ;;		___fldiv
  2272 ;;		___flge
  2273 ;;		___flmul
  2274 ;;		___flsub
  2275 ;;		___fltol
  2276 ;;		___wmul
  2277 ;;		___xxtofl
  2278 ;; This function is called by:
  2279 ;;		_main
  2280 ;; This function uses a non-reentrant model
  2281 ;;
  2282                           
  2283                           
  2284                           ;psect for function _convert
  2285  03F6                     _convert:
  2286                           
  2287                           ;incstack = 0
  2288                           ; Regs used in _convert: [wreg-fsr0h+status,2+status,0+btemp+1+pclath+cstack]
  2289                           ;convert@data stored from wreg
  2290  03F6  1683               	bsf	3,5	;RP0=1, select bank1
  2291  03F7  1303               	bcf	3,6	;RP1=0, select bank1
  2292  03F8  00D9               	movwf	convert@data^(0+128)
  2293  03F9                     l2834:
  2294                           
  2295                           ;Librerias.c: 202: void convert(char *data,float a, int place);Librerias.c: 203: {;Libre
      +                          rias.c: 204:      int temp=a;
  2296  03F9  1283               	bcf	3,5	;RP0=0, select bank0
  2297  03FA  1303               	bcf	3,6	;RP1=0, select bank0
  2298  03FB  086B               	movf	convert@a+3,w
  2299  03FC  00F3               	movwf	___fltol@f1+3
  2300  03FD  086A               	movf	convert@a+2,w
  2301  03FE  00F2               	movwf	___fltol@f1+2
  2302  03FF  0869               	movf	convert@a+1,w
  2303  0400  00F1               	movwf	___fltol@f1+1
  2304  0401  0868               	movf	convert@a,w
  2305  0402  00F0               	movwf	___fltol@f1
  2306  0403  160A  118A  2628  120A  118A  	fcall	___fltol
  2307  0408  0871               	movf	?___fltol+1,w
  2308  0409  1683               	bsf	3,5	;RP0=1, select bank1
  2309  040A  1303               	bcf	3,6	;RP1=0, select bank1
  2310  040B  00D6               	movwf	(convert@temp+1)^(0+128)
  2311  040C  0870               	movf	?___fltol,w
  2312  040D  00D5               	movwf	convert@temp^(0+128)
  2313  040E                     l2836:
  2314  040E                     l2838:
  2315                           
  2316                           ;Librerias.c: 206:      int digits=0;
  2317  040E  01E0               	clrf	convert@digits^(0+128)
  2318  040F  01E1               	clrf	(convert@digits+1)^(0+128)
  2319  0410                     l2840:
  2320                           
  2321                           ;Librerias.c: 207:      int i=0,mu=1;
  2322  0410  01DE               	clrf	convert@i^(0+128)
  2323  0411  01DF               	clrf	(convert@i+1)^(0+128)
  2324  0412                     l2842:
  2325  0412  3001               	movlw	1
  2326  0413  00E2               	movwf	convert@mu^(0+128)
  2327  0414  3000               	movlw	0
  2328  0415  00E3               	movwf	(convert@mu^(0+128)+1)
  2329  0416                     l2844:
  2330  0416                     l2846:
  2331                           
  2332                           ;Librerias.c: 209:      if(a<0)
  2333  0416  1283               	bcf	3,5	;RP0=0, select bank0
  2334  0417  1303               	bcf	3,6	;RP1=0, select bank0
  2335  0418  086B               	movf	convert@a+3,w
  2336  0419  00F3               	movwf	___flge@ff1+3
  2337  041A  086A               	movf	convert@a+2,w
  2338  041B  00F2               	movwf	___flge@ff1+2
  2339  041C  0869               	movf	convert@a+1,w
  2340  041D  00F1               	movwf	___flge@ff1+1
  2341  041E  0868               	movf	convert@a,w
  2342  041F  00F0               	movwf	___flge@ff1
  2343  0420  3000               	movlw	0
  2344  0421  00F7               	movwf	___flge@ff2+3
  2345  0422  3000               	movlw	0
  2346  0423  00F6               	movwf	___flge@ff2+2
  2347  0424  3000               	movlw	0
  2348  0425  00F5               	movwf	___flge@ff2+1
  2349  0426  3000               	movlw	0
  2350  0427  00F4               	movwf	___flge@ff2
  2351  0428  160A  118A  26A2  120A  118A  	fcall	___flge
  2352  042D  1803               	btfsc	3,0
  2353  042E  2C30               	goto	u3681
  2354  042F  2C31               	goto	u3680
  2355  0430                     u3681:
  2356  0430  2C7F               	goto	l2858
  2357  0431                     u3680:
  2358  0431                     l2848:
  2359                           
  2360                           ;Librerias.c: 210:      {;Librerias.c: 211:             a=a*-1;
  2361  0431  30BF               	movlw	191
  2362  0432  1283               	bcf	3,5	;RP0=0, select bank0
  2363  0433  1303               	bcf	3,6	;RP1=0, select bank0
  2364  0434  00D1               	movwf	___flmul@b+3
  2365  0435  3080               	movlw	128
  2366  0436  00D0               	movwf	___flmul@b+2
  2367  0437  3000               	movlw	0
  2368  0438  00CF               	movwf	___flmul@b+1
  2369  0439  3000               	movlw	0
  2370  043A  00CE               	movwf	___flmul@b
  2371  043B  086B               	movf	convert@a+3,w
  2372  043C  00D5               	movwf	___flmul@a+3
  2373  043D  086A               	movf	convert@a+2,w
  2374  043E  00D4               	movwf	___flmul@a+2
  2375  043F  0869               	movf	convert@a+1,w
  2376  0440  00D3               	movwf	___flmul@a+1
  2377  0441  0868               	movf	convert@a,w
  2378  0442  00D2               	movwf	___flmul@a
  2379  0443  120A  158A  249F  120A  118A  	fcall	___flmul
  2380  0448  1283               	bcf	3,5	;RP0=0, select bank0
  2381  0449  1303               	bcf	3,6	;RP1=0, select bank0
  2382  044A  0851               	movf	?___flmul+3,w
  2383  044B  00EB               	movwf	convert@a+3
  2384  044C  0850               	movf	?___flmul+2,w
  2385  044D  00EA               	movwf	convert@a+2
  2386  044E  084F               	movf	?___flmul+1,w
  2387  044F  00E9               	movwf	convert@a+1
  2388  0450  084E               	movf	?___flmul,w
  2389  0451  00E8               	movwf	convert@a
  2390  0452                     l2850:
  2391                           
  2392                           ;Librerias.c: 212:             data[i]='-';
  2393  0452  302D               	movlw	45
  2394  0453  00EE               	movwf	??_convert
  2395  0454  1683               	bsf	3,5	;RP0=1, select bank1
  2396  0455  1303               	bcf	3,6	;RP1=0, select bank1
  2397  0456  0859               	movf	convert@data^(0+128),w
  2398  0457  0084               	movwf	4
  2399  0458  1283               	bcf	3,5	;RP0=0, select bank0
  2400  0459  1303               	bcf	3,6	;RP1=0, select bank0
  2401  045A  086E               	movf	??_convert,w
  2402  045B  1383               	bcf	3,7	;select IRP bank0
  2403  045C  0080               	movwf	0
  2404  045D                     l2852:
  2405                           
  2406                           ;Librerias.c: 213:             i++;
  2407  045D  3001               	movlw	1
  2408  045E  1683               	bsf	3,5	;RP0=1, select bank1
  2409  045F  1303               	bcf	3,6	;RP1=0, select bank1
  2410  0460  07DE               	addwf	convert@i^(0+128),f
  2411  0461  1803               	skipnc
  2412  0462  0ADF               	incf	(convert@i+1)^(0+128),f
  2413  0463  3000               	movlw	0
  2414  0464  07DF               	addwf	(convert@i+1)^(0+128),f
  2415  0465  2C7F               	goto	l2858
  2416  0466                     l2854:
  2417                           
  2418                           ;Librerias.c: 217:      {;Librerias.c: 218:          temp=temp/10;
  2419  0466  300A               	movlw	10
  2420  0467  00F0               	movwf	___awdiv@divisor
  2421  0468  3000               	movlw	0
  2422  0469  00F1               	movwf	___awdiv@divisor+1
  2423  046A  0856               	movf	(convert@temp+1)^(0+128),w
  2424  046B  00F3               	movwf	___awdiv@dividend+1
  2425  046C  0855               	movf	convert@temp^(0+128),w
  2426  046D  00F2               	movwf	___awdiv@dividend
  2427  046E  120A  118A  200E  120A  118A  	fcall	___awdiv
  2428  0473  0871               	movf	?___awdiv+1,w
  2429  0474  1683               	bsf	3,5	;RP0=1, select bank1
  2430  0475  1303               	bcf	3,6	;RP1=0, select bank1
  2431  0476  00D6               	movwf	(convert@temp+1)^(0+128)
  2432  0477  0870               	movf	?___awdiv,w
  2433  0478  00D5               	movwf	convert@temp^(0+128)
  2434  0479                     l2856:
  2435                           
  2436                           ;Librerias.c: 219:          digits++;
  2437  0479  3001               	movlw	1
  2438  047A  07E0               	addwf	convert@digits^(0+128),f
  2439  047B  1803               	skipnc
  2440  047C  0AE1               	incf	(convert@digits+1)^(0+128),f
  2441  047D  3000               	movlw	0
  2442  047E  07E1               	addwf	(convert@digits+1)^(0+128),f
  2443  047F                     l2858:
  2444                           
  2445                           ;Librerias.c: 216:      while(temp!=0)
  2446  047F  1683               	bsf	3,5	;RP0=1, select bank1
  2447  0480  1303               	bcf	3,6	;RP1=0, select bank1
  2448  0481  0855               	movf	convert@temp^(0+128),w
  2449  0482  0456               	iorwf	(convert@temp+1)^(0+128),w
  2450  0483  1D03               	btfss	3,2
  2451  0484  2C86               	goto	u3691
  2452  0485  2C87               	goto	u3690
  2453  0486                     u3691:
  2454  0486  2C66               	goto	l2854
  2455  0487                     u3690:
  2456  0487  2DA3               	goto	l2882
  2457  0488                     l2860:
  2458                           
  2459                           ;Librerias.c: 222:      {;Librerias.c: 223:          if(digits==1)mu=1;
  2460  0488  0360               	decf	convert@digits^(0+128),w
  2461  0489  0461               	iorwf	(convert@digits+1)^(0+128),w
  2462  048A  1D03               	btfss	3,2
  2463  048B  2C8D               	goto	u3701
  2464  048C  2C8E               	goto	u3700
  2465  048D                     u3701:
  2466  048D  2C93               	goto	l2864
  2467  048E                     u3700:
  2468  048E                     l2862:
  2469  048E  3001               	movlw	1
  2470  048F  00E2               	movwf	convert@mu^(0+128)
  2471  0490  3000               	movlw	0
  2472  0491  00E3               	movwf	(convert@mu^(0+128)+1)
  2473  0492  2CD5               	goto	l2872
  2474  0493                     l2864:
  2475  0493  3002               	movlw	2
  2476  0494  00D7               	movwf	convert@j^(0+128)
  2477  0495  3000               	movlw	0
  2478  0496  00D8               	movwf	(convert@j^(0+128)+1)
  2479  0497  2CBF               	goto	l2870
  2480  0498                     l2866:
  2481  0498  1683               	bsf	3,5	;RP0=1, select bank1
  2482  0499  1303               	bcf	3,6	;RP1=0, select bank1
  2483  049A  0863               	movf	(convert@mu+1)^(0+128),w
  2484  049B  1283               	bcf	3,5	;RP0=0, select bank0
  2485  049C  1303               	bcf	3,6	;RP1=0, select bank0
  2486  049D  00A1               	movwf	___wmul@multiplier+1
  2487  049E  1683               	bsf	3,5	;RP0=1, select bank1
  2488  049F  1303               	bcf	3,6	;RP1=0, select bank1
  2489  04A0  0862               	movf	convert@mu^(0+128),w
  2490  04A1  1283               	bcf	3,5	;RP0=0, select bank0
  2491  04A2  1303               	bcf	3,6	;RP1=0, select bank0
  2492  04A3  00A0               	movwf	___wmul@multiplier
  2493  04A4  300A               	movlw	10
  2494  04A5  00A2               	movwf	___wmul@multiplicand
  2495  04A6  3000               	movlw	0
  2496  04A7  00A3               	movwf	___wmul@multiplicand+1
  2497  04A8  160A  118A  24E6  120A  118A  	fcall	___wmul
  2498  04AD  1283               	bcf	3,5	;RP0=0, select bank0
  2499  04AE  1303               	bcf	3,6	;RP1=0, select bank0
  2500  04AF  0821               	movf	?___wmul+1,w
  2501  04B0  1683               	bsf	3,5	;RP0=1, select bank1
  2502  04B1  1303               	bcf	3,6	;RP1=0, select bank1
  2503  04B2  00E3               	movwf	(convert@mu+1)^(0+128)
  2504  04B3  1283               	bcf	3,5	;RP0=0, select bank0
  2505  04B4  1303               	bcf	3,6	;RP1=0, select bank0
  2506  04B5  0820               	movf	?___wmul,w
  2507  04B6  1683               	bsf	3,5	;RP0=1, select bank1
  2508  04B7  1303               	bcf	3,6	;RP1=0, select bank1
  2509  04B8  00E2               	movwf	convert@mu^(0+128)
  2510  04B9                     l2868:
  2511  04B9  3001               	movlw	1
  2512  04BA  07D7               	addwf	convert@j^(0+128),f
  2513  04BB  1803               	skipnc
  2514  04BC  0AD8               	incf	(convert@j+1)^(0+128),f
  2515  04BD  3000               	movlw	0
  2516  04BE  07D8               	addwf	(convert@j+1)^(0+128),f
  2517  04BF                     l2870:
  2518  04BF  0861               	movf	(convert@digits+1)^(0+128),w
  2519  04C0  3A80               	xorlw	128
  2520  04C1  1283               	bcf	3,5	;RP0=0, select bank0
  2521  04C2  1303               	bcf	3,6	;RP1=0, select bank0
  2522  04C3  00EE               	movwf	??_convert
  2523  04C4  1683               	bsf	3,5	;RP0=1, select bank1
  2524  04C5  1303               	bcf	3,6	;RP1=0, select bank1
  2525  04C6  0858               	movf	(convert@j+1)^(0+128),w
  2526  04C7  3A80               	xorlw	128
  2527  04C8  1283               	bcf	3,5	;RP0=0, select bank0
  2528  04C9  1303               	bcf	3,6	;RP1=0, select bank0
  2529  04CA  026E               	subwf	??_convert,w
  2530  04CB  1D03               	skipz
  2531  04CC  2CD1               	goto	u3715
  2532  04CD  1683               	bsf	3,5	;RP0=1, select bank1
  2533  04CE  1303               	bcf	3,6	;RP1=0, select bank1
  2534  04CF  0857               	movf	convert@j^(0+128),w
  2535  04D0  0260               	subwf	convert@digits^(0+128),w
  2536  04D1                     u3715:
  2537  04D1  1803               	skipnc
  2538  04D2  2CD4               	goto	u3711
  2539  04D3  2CD5               	goto	u3710
  2540  04D4                     u3711:
  2541  04D4  2C98               	goto	l2866
  2542  04D5                     u3710:
  2543  04D5                     l2872:
  2544                           
  2545                           ;Librerias.c: 226:          x=a/mu;
  2546  04D5  1683               	bsf	3,5	;RP0=1, select bank1
  2547  04D6  1303               	bcf	3,6	;RP1=0, select bank1
  2548  04D7  0862               	movf	convert@mu^(0+128),w
  2549  04D8  1283               	bcf	3,5	;RP0=0, select bank0
  2550  04D9  1303               	bcf	3,6	;RP1=0, select bank0
  2551  04DA  00A4               	movwf	___xxtofl@val
  2552  04DB  1683               	bsf	3,5	;RP0=1, select bank1
  2553  04DC  1303               	bcf	3,6	;RP1=0, select bank1
  2554  04DD  0863               	movf	(convert@mu+1)^(0+128),w
  2555  04DE  1283               	bcf	3,5	;RP0=0, select bank0
  2556  04DF  1303               	bcf	3,6	;RP1=0, select bank0
  2557  04E0  00A5               	movwf	___xxtofl@val+1
  2558  04E1  3000               	movlw	0
  2559  04E2  1BA5               	btfsc	___xxtofl@val+1,7
  2560  04E3  30FF               	movlw	255
  2561  04E4  00A6               	movwf	___xxtofl@val+2
  2562  04E5  00A7               	movwf	___xxtofl@val+3
  2563  04E6  3001               	movlw	1
  2564  04E7  160A  118A  2744  120A  118A  	fcall	___xxtofl
  2565  04EC  1283               	bcf	3,5	;RP0=0, select bank0
  2566  04ED  1303               	bcf	3,6	;RP1=0, select bank0
  2567  04EE  0827               	movf	?___xxtofl+3,w
  2568  04EF  00B5               	movwf	___fldiv@a+3
  2569  04F0  0826               	movf	?___xxtofl+2,w
  2570  04F1  00B4               	movwf	___fldiv@a+2
  2571  04F2  0825               	movf	?___xxtofl+1,w
  2572  04F3  00B3               	movwf	___fldiv@a+1
  2573  04F4  0824               	movf	?___xxtofl,w
  2574  04F5  00B2               	movwf	___fldiv@a
  2575  04F6  086B               	movf	convert@a+3,w
  2576  04F7  00B9               	movwf	___fldiv@b+3
  2577  04F8  086A               	movf	convert@a+2,w
  2578  04F9  00B8               	movwf	___fldiv@b+2
  2579  04FA  0869               	movf	convert@a+1,w
  2580  04FB  00B7               	movwf	___fldiv@b+1
  2581  04FC  0868               	movf	convert@a,w
  2582  04FD  00B6               	movwf	___fldiv@b
  2583  04FE  120A  158A  203A  120A  118A  	fcall	___fldiv
  2584  0503  1283               	bcf	3,5	;RP0=0, select bank0
  2585  0504  1303               	bcf	3,6	;RP1=0, select bank0
  2586  0505  0835               	movf	?___fldiv+3,w
  2587  0506  1683               	bsf	3,5	;RP0=1, select bank1
  2588  0507  1303               	bcf	3,6	;RP1=0, select bank1
  2589  0508  00DD               	movwf	(convert@x+3)^(0+128)
  2590  0509  1283               	bcf	3,5	;RP0=0, select bank0
  2591  050A  1303               	bcf	3,6	;RP1=0, select bank0
  2592  050B  0834               	movf	?___fldiv+2,w
  2593  050C  1683               	bsf	3,5	;RP0=1, select bank1
  2594  050D  1303               	bcf	3,6	;RP1=0, select bank1
  2595  050E  00DC               	movwf	(convert@x+2)^(0+128)
  2596  050F  1283               	bcf	3,5	;RP0=0, select bank0
  2597  0510  1303               	bcf	3,6	;RP1=0, select bank0
  2598  0511  0833               	movf	?___fldiv+1,w
  2599  0512  1683               	bsf	3,5	;RP0=1, select bank1
  2600  0513  1303               	bcf	3,6	;RP1=0, select bank1
  2601  0514  00DB               	movwf	(convert@x+1)^(0+128)
  2602  0515  1283               	bcf	3,5	;RP0=0, select bank0
  2603  0516  1303               	bcf	3,6	;RP1=0, select bank0
  2604  0517  0832               	movf	?___fldiv,w
  2605  0518  1683               	bsf	3,5	;RP0=1, select bank1
  2606  0519  1303               	bcf	3,6	;RP1=0, select bank1
  2607  051A  00DA               	movwf	convert@x^(0+128)
  2608                           
  2609                           ;Librerias.c: 227:          a=a-((int)x*mu);
  2610  051B  0863               	movf	(convert@mu+1)^(0+128),w
  2611  051C  1283               	bcf	3,5	;RP0=0, select bank0
  2612  051D  1303               	bcf	3,6	;RP1=0, select bank0
  2613  051E  00A3               	movwf	___wmul@multiplicand+1
  2614  051F  1683               	bsf	3,5	;RP0=1, select bank1
  2615  0520  1303               	bcf	3,6	;RP1=0, select bank1
  2616  0521  0862               	movf	convert@mu^(0+128),w
  2617  0522  1283               	bcf	3,5	;RP0=0, select bank0
  2618  0523  1303               	bcf	3,6	;RP1=0, select bank0
  2619  0524  00A2               	movwf	___wmul@multiplicand
  2620  0525  1683               	bsf	3,5	;RP0=1, select bank1
  2621  0526  1303               	bcf	3,6	;RP1=0, select bank1
  2622  0527  085D               	movf	(convert@x+3)^(0+128),w
  2623  0528  00F3               	movwf	___fltol@f1+3
  2624  0529  085C               	movf	(convert@x+2)^(0+128),w
  2625  052A  00F2               	movwf	___fltol@f1+2
  2626  052B  085B               	movf	(convert@x+1)^(0+128),w
  2627  052C  00F1               	movwf	___fltol@f1+1
  2628  052D  085A               	movf	convert@x^(0+128),w
  2629  052E  00F0               	movwf	___fltol@f1
  2630  052F  160A  118A  2628  120A  118A  	fcall	___fltol
  2631  0534  0871               	movf	?___fltol+1,w
  2632  0535  1283               	bcf	3,5	;RP0=0, select bank0
  2633  0536  1303               	bcf	3,6	;RP1=0, select bank0
  2634  0537  00A1               	movwf	___wmul@multiplier+1
  2635  0538  0870               	movf	?___fltol,w
  2636  0539  00A0               	movwf	___wmul@multiplier
  2637  053A  160A  118A  24E6  120A  118A  	fcall	___wmul
  2638  053F  1283               	bcf	3,5	;RP0=0, select bank0
  2639  0540  1303               	bcf	3,6	;RP1=0, select bank0
  2640  0541  0820               	movf	?___wmul,w
  2641  0542  00A4               	movwf	___xxtofl@val
  2642  0543  0821               	movf	?___wmul+1,w
  2643  0544  00A5               	movwf	___xxtofl@val+1
  2644  0545  3000               	movlw	0
  2645  0546  1BA5               	btfsc	___xxtofl@val+1,7
  2646  0547  30FF               	movlw	255
  2647  0548  00A6               	movwf	___xxtofl@val+2
  2648  0549  00A7               	movwf	___xxtofl@val+3
  2649  054A  3001               	movlw	1
  2650  054B  160A  118A  2744  120A  118A  	fcall	___xxtofl
  2651  0550  1283               	bcf	3,5	;RP0=0, select bank0
  2652  0551  1303               	bcf	3,6	;RP1=0, select bank0
  2653  0552  0827               	movf	?___xxtofl+3,w
  2654  0553  00C9               	movwf	___flsub@a+3
  2655  0554  0826               	movf	?___xxtofl+2,w
  2656  0555  00C8               	movwf	___flsub@a+2
  2657  0556  0825               	movf	?___xxtofl+1,w
  2658  0557  00C7               	movwf	___flsub@a+1
  2659  0558  0824               	movf	?___xxtofl,w
  2660  0559  00C6               	movwf	___flsub@a
  2661  055A  086B               	movf	convert@a+3,w
  2662  055B  00CD               	movwf	___flsub@b+3
  2663  055C  086A               	movf	convert@a+2,w
  2664  055D  00CC               	movwf	___flsub@b+2
  2665  055E  0869               	movf	convert@a+1,w
  2666  055F  00CB               	movwf	___flsub@b+1
  2667  0560  0868               	movf	convert@a,w
  2668  0561  00CA               	movwf	___flsub@b
  2669  0562  160A  118A  2477  120A  118A  	fcall	___flsub
  2670  0567  1283               	bcf	3,5	;RP0=0, select bank0
  2671  0568  1303               	bcf	3,6	;RP1=0, select bank0
  2672  0569  0849               	movf	?___flsub+3,w
  2673  056A  00EB               	movwf	convert@a+3
  2674  056B  0848               	movf	?___flsub+2,w
  2675  056C  00EA               	movwf	convert@a+2
  2676  056D  0847               	movf	?___flsub+1,w
  2677  056E  00E9               	movwf	convert@a+1
  2678  056F  0846               	movf	?___flsub,w
  2679  0570  00E8               	movwf	convert@a
  2680  0571                     l2874:
  2681                           
  2682                           ;Librerias.c: 228:          data[i]=0x30+((int)x);
  2683  0571  1683               	bsf	3,5	;RP0=1, select bank1
  2684  0572  1303               	bcf	3,6	;RP1=0, select bank1
  2685  0573  085D               	movf	(convert@x+3)^(0+128),w
  2686  0574  00F3               	movwf	___fltol@f1+3
  2687  0575  085C               	movf	(convert@x+2)^(0+128),w
  2688  0576  00F2               	movwf	___fltol@f1+2
  2689  0577  085B               	movf	(convert@x+1)^(0+128),w
  2690  0578  00F1               	movwf	___fltol@f1+1
  2691  0579  085A               	movf	convert@x^(0+128),w
  2692  057A  00F0               	movwf	___fltol@f1
  2693  057B  160A  118A  2628  120A  118A  	fcall	___fltol
  2694  0580  0870               	movf	?___fltol,w
  2695  0581  3E30               	addlw	48
  2696  0582  1283               	bcf	3,5	;RP0=0, select bank0
  2697  0583  1303               	bcf	3,6	;RP1=0, select bank0
  2698  0584  00EE               	movwf	??_convert
  2699  0585  1683               	bsf	3,5	;RP0=1, select bank1
  2700  0586  1303               	bcf	3,6	;RP1=0, select bank1
  2701  0587  085E               	movf	convert@i^(0+128),w
  2702  0588  0759               	addwf	convert@data^(0+128),w
  2703  0589  1283               	bcf	3,5	;RP0=0, select bank0
  2704  058A  1303               	bcf	3,6	;RP1=0, select bank0
  2705  058B  00EF               	movwf	??_convert+1
  2706  058C  086F               	movf	??_convert+1,w
  2707  058D  0084               	movwf	4
  2708  058E  086E               	movf	??_convert,w
  2709  058F  1383               	bcf	3,7	;select IRP bank0
  2710  0590  0080               	movwf	0
  2711  0591                     l2876:
  2712                           
  2713                           ;Librerias.c: 229:          i++;
  2714  0591  3001               	movlw	1
  2715  0592  1683               	bsf	3,5	;RP0=1, select bank1
  2716  0593  1303               	bcf	3,6	;RP1=0, select bank1
  2717  0594  07DE               	addwf	convert@i^(0+128),f
  2718  0595  1803               	skipnc
  2719  0596  0ADF               	incf	(convert@i+1)^(0+128),f
  2720  0597  3000               	movlw	0
  2721  0598  07DF               	addwf	(convert@i+1)^(0+128),f
  2722  0599                     l2878:
  2723                           
  2724                           ;Librerias.c: 230:          digits--;
  2725  0599  30FF               	movlw	255
  2726  059A  07E0               	addwf	convert@digits^(0+128),f
  2727  059B  1803               	skipnc
  2728  059C  0AE1               	incf	(convert@digits+1)^(0+128),f
  2729  059D  30FF               	movlw	255
  2730  059E  07E1               	addwf	(convert@digits+1)^(0+128),f
  2731  059F                     l2880:
  2732                           
  2733                           ;Librerias.c: 231:          mu=1;
  2734  059F  3001               	movlw	1
  2735  05A0  00E2               	movwf	convert@mu^(0+128)
  2736  05A1  3000               	movlw	0
  2737  05A2  00E3               	movwf	(convert@mu^(0+128)+1)
  2738  05A3                     l2882:
  2739                           
  2740                           ;Librerias.c: 221:      while(digits!=0)
  2741  05A3  0860               	movf	convert@digits^(0+128),w
  2742  05A4  0461               	iorwf	(convert@digits+1)^(0+128),w
  2743  05A5  1D03               	btfss	3,2
  2744  05A6  2DA8               	goto	u3721
  2745  05A7  2DA9               	goto	u3720
  2746  05A8                     u3721:
  2747  05A8  2C88               	goto	l2860
  2748  05A9                     u3720:
  2749  05A9                     l2884:
  2750                           
  2751                           ;Librerias.c: 234:      data[i]='.';
  2752  05A9  302E               	movlw	46
  2753  05AA  1283               	bcf	3,5	;RP0=0, select bank0
  2754  05AB  1303               	bcf	3,6	;RP1=0, select bank0
  2755  05AC  00EE               	movwf	??_convert
  2756  05AD  1683               	bsf	3,5	;RP0=1, select bank1
  2757  05AE  1303               	bcf	3,6	;RP1=0, select bank1
  2758  05AF  085E               	movf	convert@i^(0+128),w
  2759  05B0  0759               	addwf	convert@data^(0+128),w
  2760  05B1  1283               	bcf	3,5	;RP0=0, select bank0
  2761  05B2  1303               	bcf	3,6	;RP1=0, select bank0
  2762  05B3  00EF               	movwf	??_convert+1
  2763  05B4  086F               	movf	??_convert+1,w
  2764  05B5  0084               	movwf	4
  2765  05B6  086E               	movf	??_convert,w
  2766  05B7  1383               	bcf	3,7	;select IRP bank0
  2767  05B8  0080               	movwf	0
  2768  05B9                     l2886:
  2769                           
  2770                           ;Librerias.c: 235:      i++;
  2771  05B9  3001               	movlw	1
  2772  05BA  1683               	bsf	3,5	;RP0=1, select bank1
  2773  05BB  1303               	bcf	3,6	;RP1=0, select bank1
  2774  05BC  07DE               	addwf	convert@i^(0+128),f
  2775  05BD  1803               	skipnc
  2776  05BE  0ADF               	incf	(convert@i+1)^(0+128),f
  2777  05BF  3000               	movlw	0
  2778  05C0  07DF               	addwf	(convert@i+1)^(0+128),f
  2779  05C1                     l2888:
  2780  05C1                     l2890:
  2781                           
  2782                           ;Librerias.c: 237:      for(j=1;j<=place;j++)mu=mu*10;
  2783  05C1  3001               	movlw	1
  2784  05C2  00D7               	movwf	convert@j^(0+128)
  2785  05C3  3000               	movlw	0
  2786  05C4  00D8               	movwf	(convert@j^(0+128)+1)
  2787  05C5  2DED               	goto	l2896
  2788  05C6                     l2892:
  2789  05C6  1683               	bsf	3,5	;RP0=1, select bank1
  2790  05C7  1303               	bcf	3,6	;RP1=0, select bank1
  2791  05C8  0863               	movf	(convert@mu+1)^(0+128),w
  2792  05C9  1283               	bcf	3,5	;RP0=0, select bank0
  2793  05CA  1303               	bcf	3,6	;RP1=0, select bank0
  2794  05CB  00A1               	movwf	___wmul@multiplier+1
  2795  05CC  1683               	bsf	3,5	;RP0=1, select bank1
  2796  05CD  1303               	bcf	3,6	;RP1=0, select bank1
  2797  05CE  0862               	movf	convert@mu^(0+128),w
  2798  05CF  1283               	bcf	3,5	;RP0=0, select bank0
  2799  05D0  1303               	bcf	3,6	;RP1=0, select bank0
  2800  05D1  00A0               	movwf	___wmul@multiplier
  2801  05D2  300A               	movlw	10
  2802  05D3  00A2               	movwf	___wmul@multiplicand
  2803  05D4  3000               	movlw	0
  2804  05D5  00A3               	movwf	___wmul@multiplicand+1
  2805  05D6  160A  118A  24E6  120A  118A  	fcall	___wmul
  2806  05DB  1283               	bcf	3,5	;RP0=0, select bank0
  2807  05DC  1303               	bcf	3,6	;RP1=0, select bank0
  2808  05DD  0821               	movf	?___wmul+1,w
  2809  05DE  1683               	bsf	3,5	;RP0=1, select bank1
  2810  05DF  1303               	bcf	3,6	;RP1=0, select bank1
  2811  05E0  00E3               	movwf	(convert@mu+1)^(0+128)
  2812  05E1  1283               	bcf	3,5	;RP0=0, select bank0
  2813  05E2  1303               	bcf	3,6	;RP1=0, select bank0
  2814  05E3  0820               	movf	?___wmul,w
  2815  05E4  1683               	bsf	3,5	;RP0=1, select bank1
  2816  05E5  1303               	bcf	3,6	;RP1=0, select bank1
  2817  05E6  00E2               	movwf	convert@mu^(0+128)
  2818  05E7                     l2894:
  2819  05E7  3001               	movlw	1
  2820  05E8  07D7               	addwf	convert@j^(0+128),f
  2821  05E9  1803               	skipnc
  2822  05EA  0AD8               	incf	(convert@j+1)^(0+128),f
  2823  05EB  3000               	movlw	0
  2824  05EC  07D8               	addwf	(convert@j+1)^(0+128),f
  2825  05ED                     l2896:
  2826  05ED  1283               	bcf	3,5	;RP0=0, select bank0
  2827  05EE  1303               	bcf	3,6	;RP1=0, select bank0
  2828  05EF  086D               	movf	convert@place+1,w
  2829  05F0  3A80               	xorlw	128
  2830  05F1  00EE               	movwf	??_convert
  2831  05F2  1683               	bsf	3,5	;RP0=1, select bank1
  2832  05F3  1303               	bcf	3,6	;RP1=0, select bank1
  2833  05F4  0858               	movf	(convert@j+1)^(0+128),w
  2834  05F5  3A80               	xorlw	128
  2835  05F6  1283               	bcf	3,5	;RP0=0, select bank0
  2836  05F7  1303               	bcf	3,6	;RP1=0, select bank0
  2837  05F8  026E               	subwf	??_convert,w
  2838  05F9  1D03               	skipz
  2839  05FA  2E01               	goto	u3735
  2840  05FB  1683               	bsf	3,5	;RP0=1, select bank1
  2841  05FC  1303               	bcf	3,6	;RP1=0, select bank1
  2842  05FD  0857               	movf	convert@j^(0+128),w
  2843  05FE  1283               	bcf	3,5	;RP0=0, select bank0
  2844  05FF  1303               	bcf	3,6	;RP1=0, select bank0
  2845  0600  026C               	subwf	convert@place,w
  2846  0601                     u3735:
  2847  0601  1803               	skipnc
  2848  0602  2E04               	goto	u3731
  2849  0603  2E05               	goto	u3730
  2850  0604                     u3731:
  2851  0604  2DC6               	goto	l2892
  2852  0605                     u3730:
  2853  0605                     l2898:
  2854                           
  2855                           ;Librerias.c: 238:      x=(a-(int)a)*mu;
  2856  0605  1683               	bsf	3,5	;RP0=1, select bank1
  2857  0606  1303               	bcf	3,6	;RP1=0, select bank1
  2858  0607  0862               	movf	convert@mu^(0+128),w
  2859  0608  1283               	bcf	3,5	;RP0=0, select bank0
  2860  0609  1303               	bcf	3,6	;RP1=0, select bank0
  2861  060A  00A4               	movwf	___xxtofl@val
  2862  060B  1683               	bsf	3,5	;RP0=1, select bank1
  2863  060C  1303               	bcf	3,6	;RP1=0, select bank1
  2864  060D  0863               	movf	(convert@mu+1)^(0+128),w
  2865  060E  1283               	bcf	3,5	;RP0=0, select bank0
  2866  060F  1303               	bcf	3,6	;RP1=0, select bank0
  2867  0610  00A5               	movwf	___xxtofl@val+1
  2868  0611  3000               	movlw	0
  2869  0612  1BA5               	btfsc	___xxtofl@val+1,7
  2870  0613  30FF               	movlw	255
  2871  0614  00A6               	movwf	___xxtofl@val+2
  2872  0615  00A7               	movwf	___xxtofl@val+3
  2873  0616  3001               	movlw	1
  2874  0617  160A  118A  2744  120A  118A  	fcall	___xxtofl
  2875  061C  1283               	bcf	3,5	;RP0=0, select bank0
  2876  061D  1303               	bcf	3,6	;RP1=0, select bank0
  2877  061E  0827               	movf	?___xxtofl+3,w
  2878  061F  00D1               	movwf	___flmul@b+3
  2879  0620  0826               	movf	?___xxtofl+2,w
  2880  0621  00D0               	movwf	___flmul@b+2
  2881  0622  0825               	movf	?___xxtofl+1,w
  2882  0623  00CF               	movwf	___flmul@b+1
  2883  0624  0824               	movf	?___xxtofl,w
  2884  0625  00CE               	movwf	___flmul@b
  2885  0626  086B               	movf	convert@a+3,w
  2886  0627  00F3               	movwf	___fltol@f1+3
  2887  0628  086A               	movf	convert@a+2,w
  2888  0629  00F2               	movwf	___fltol@f1+2
  2889  062A  0869               	movf	convert@a+1,w
  2890  062B  00F1               	movwf	___fltol@f1+1
  2891  062C  0868               	movf	convert@a,w
  2892  062D  00F0               	movwf	___fltol@f1
  2893  062E  160A  118A  2628  120A  118A  	fcall	___fltol
  2894  0633  0870               	movf	?___fltol,w
  2895  0634  1283               	bcf	3,5	;RP0=0, select bank0
  2896  0635  1303               	bcf	3,6	;RP1=0, select bank0
  2897  0636  00A4               	movwf	___xxtofl@val
  2898  0637  0871               	movf	?___fltol+1,w
  2899  0638  00A5               	movwf	___xxtofl@val+1
  2900  0639  3000               	movlw	0
  2901  063A  1BA5               	btfsc	___xxtofl@val+1,7
  2902  063B  30FF               	movlw	255
  2903  063C  00A6               	movwf	___xxtofl@val+2
  2904  063D  00A7               	movwf	___xxtofl@val+3
  2905  063E  3001               	movlw	1
  2906  063F  160A  118A  2744  120A  118A  	fcall	___xxtofl
  2907  0644  1283               	bcf	3,5	;RP0=0, select bank0
  2908  0645  1303               	bcf	3,6	;RP1=0, select bank0
  2909  0646  0827               	movf	?___xxtofl+3,w
  2910  0647  00C9               	movwf	___flsub@a+3
  2911  0648  0826               	movf	?___xxtofl+2,w
  2912  0649  00C8               	movwf	___flsub@a+2
  2913  064A  0825               	movf	?___xxtofl+1,w
  2914  064B  00C7               	movwf	___flsub@a+1
  2915  064C  0824               	movf	?___xxtofl,w
  2916  064D  00C6               	movwf	___flsub@a
  2917  064E  086B               	movf	convert@a+3,w
  2918  064F  00CD               	movwf	___flsub@b+3
  2919  0650  086A               	movf	convert@a+2,w
  2920  0651  00CC               	movwf	___flsub@b+2
  2921  0652  0869               	movf	convert@a+1,w
  2922  0653  00CB               	movwf	___flsub@b+1
  2923  0654  0868               	movf	convert@a,w
  2924  0655  00CA               	movwf	___flsub@b
  2925  0656  160A  118A  2477  120A  118A  	fcall	___flsub
  2926  065B  1283               	bcf	3,5	;RP0=0, select bank0
  2927  065C  1303               	bcf	3,6	;RP1=0, select bank0
  2928  065D  0849               	movf	?___flsub+3,w
  2929  065E  00D5               	movwf	___flmul@a+3
  2930  065F  0848               	movf	?___flsub+2,w
  2931  0660  00D4               	movwf	___flmul@a+2
  2932  0661  0847               	movf	?___flsub+1,w
  2933  0662  00D3               	movwf	___flmul@a+1
  2934  0663  0846               	movf	?___flsub,w
  2935  0664  00D2               	movwf	___flmul@a
  2936  0665  120A  158A  249F  120A  118A  	fcall	___flmul
  2937  066A  1283               	bcf	3,5	;RP0=0, select bank0
  2938  066B  1303               	bcf	3,6	;RP1=0, select bank0
  2939  066C  0851               	movf	?___flmul+3,w
  2940  066D  1683               	bsf	3,5	;RP0=1, select bank1
  2941  066E  1303               	bcf	3,6	;RP1=0, select bank1
  2942  066F  00DD               	movwf	(convert@x+3)^(0+128)
  2943  0670  1283               	bcf	3,5	;RP0=0, select bank0
  2944  0671  1303               	bcf	3,6	;RP1=0, select bank0
  2945  0672  0850               	movf	?___flmul+2,w
  2946  0673  1683               	bsf	3,5	;RP0=1, select bank1
  2947  0674  1303               	bcf	3,6	;RP1=0, select bank1
  2948  0675  00DC               	movwf	(convert@x+2)^(0+128)
  2949  0676  1283               	bcf	3,5	;RP0=0, select bank0
  2950  0677  1303               	bcf	3,6	;RP1=0, select bank0
  2951  0678  084F               	movf	?___flmul+1,w
  2952  0679  1683               	bsf	3,5	;RP0=1, select bank1
  2953  067A  1303               	bcf	3,6	;RP1=0, select bank1
  2954  067B  00DB               	movwf	(convert@x+1)^(0+128)
  2955  067C  1283               	bcf	3,5	;RP0=0, select bank0
  2956  067D  1303               	bcf	3,6	;RP1=0, select bank0
  2957  067E  084E               	movf	?___flmul,w
  2958  067F  1683               	bsf	3,5	;RP0=1, select bank1
  2959  0680  1303               	bcf	3,6	;RP1=0, select bank1
  2960  0681  00DA               	movwf	convert@x^(0+128)
  2961  0682                     l2900:
  2962                           
  2963                           ;Librerias.c: 239:      a=x;
  2964  0682  085D               	movf	(convert@x+3)^(0+128),w
  2965  0683  1283               	bcf	3,5	;RP0=0, select bank0
  2966  0684  1303               	bcf	3,6	;RP1=0, select bank0
  2967  0685  00EB               	movwf	convert@a+3
  2968  0686  1683               	bsf	3,5	;RP0=1, select bank1
  2969  0687  1303               	bcf	3,6	;RP1=0, select bank1
  2970  0688  085C               	movf	(convert@x+2)^(0+128),w
  2971  0689  1283               	bcf	3,5	;RP0=0, select bank0
  2972  068A  1303               	bcf	3,6	;RP1=0, select bank0
  2973  068B  00EA               	movwf	convert@a+2
  2974  068C  1683               	bsf	3,5	;RP0=1, select bank1
  2975  068D  1303               	bcf	3,6	;RP1=0, select bank1
  2976  068E  085B               	movf	(convert@x+1)^(0+128),w
  2977  068F  1283               	bcf	3,5	;RP0=0, select bank0
  2978  0690  1303               	bcf	3,6	;RP1=0, select bank0
  2979  0691  00E9               	movwf	convert@a+1
  2980  0692  1683               	bsf	3,5	;RP0=1, select bank1
  2981  0693  1303               	bcf	3,6	;RP1=0, select bank1
  2982  0694  085A               	movf	convert@x^(0+128),w
  2983  0695  1283               	bcf	3,5	;RP0=0, select bank0
  2984  0696  1303               	bcf	3,6	;RP1=0, select bank0
  2985  0697  00E8               	movwf	convert@a
  2986  0698                     l2902:
  2987  0698  086B               	movf	convert@a+3,w
  2988  0699  00F3               	movwf	___fltol@f1+3
  2989  069A  086A               	movf	convert@a+2,w
  2990  069B  00F2               	movwf	___fltol@f1+2
  2991  069C  0869               	movf	convert@a+1,w
  2992  069D  00F1               	movwf	___fltol@f1+1
  2993  069E  0868               	movf	convert@a,w
  2994  069F  00F0               	movwf	___fltol@f1
  2995  06A0  160A  118A  2628  120A  118A  	fcall	___fltol
  2996  06A5                     l2904:
  2997  06A5                     l2906:
  2998                           
  2999                           ;Librerias.c: 242:      mu=1;
  3000  06A5  3001               	movlw	1
  3001  06A6  1683               	bsf	3,5	;RP0=1, select bank1
  3002  06A7  1303               	bcf	3,6	;RP1=0, select bank1
  3003  06A8  00E2               	movwf	convert@mu^(0+128)
  3004  06A9  3000               	movlw	0
  3005  06AA  00E3               	movwf	(convert@mu^(0+128)+1)
  3006  06AB                     l2908:
  3007                           
  3008                           ;Librerias.c: 243:      digits=place;
  3009  06AB  1283               	bcf	3,5	;RP0=0, select bank0
  3010  06AC  1303               	bcf	3,6	;RP1=0, select bank0
  3011  06AD  086D               	movf	convert@place+1,w
  3012  06AE  1683               	bsf	3,5	;RP0=1, select bank1
  3013  06AF  1303               	bcf	3,6	;RP1=0, select bank1
  3014  06B0  00E1               	movwf	(convert@digits+1)^(0+128)
  3015  06B1  1283               	bcf	3,5	;RP0=0, select bank0
  3016  06B2  1303               	bcf	3,6	;RP1=0, select bank0
  3017  06B3  086C               	movf	convert@place,w
  3018  06B4  1683               	bsf	3,5	;RP0=1, select bank1
  3019  06B5  1303               	bcf	3,6	;RP1=0, select bank1
  3020  06B6  00E0               	movwf	convert@digits^(0+128)
  3021                           
  3022                           ;Librerias.c: 244:      while(digits!=0)
  3023  06B7  2FD3               	goto	l2932
  3024  06B8                     l2910:
  3025                           
  3026                           ;Librerias.c: 245:      {;Librerias.c: 246:          if(digits==1)mu=1;
  3027  06B8  0360               	decf	convert@digits^(0+128),w
  3028  06B9  0461               	iorwf	(convert@digits+1)^(0+128),w
  3029  06BA  1D03               	btfss	3,2
  3030  06BB  2EBD               	goto	u3741
  3031  06BC  2EBE               	goto	u3740
  3032  06BD                     u3741:
  3033  06BD  2EC3               	goto	l2914
  3034  06BE                     u3740:
  3035  06BE                     l2912:
  3036  06BE  3001               	movlw	1
  3037  06BF  00E2               	movwf	convert@mu^(0+128)
  3038  06C0  3000               	movlw	0
  3039  06C1  00E3               	movwf	(convert@mu^(0+128)+1)
  3040  06C2  2F05               	goto	l2922
  3041  06C3                     l2914:
  3042  06C3  3002               	movlw	2
  3043  06C4  00D7               	movwf	convert@j^(0+128)
  3044  06C5  3000               	movlw	0
  3045  06C6  00D8               	movwf	(convert@j^(0+128)+1)
  3046  06C7  2EEF               	goto	l2920
  3047  06C8                     l2916:
  3048  06C8  1683               	bsf	3,5	;RP0=1, select bank1
  3049  06C9  1303               	bcf	3,6	;RP1=0, select bank1
  3050  06CA  0863               	movf	(convert@mu+1)^(0+128),w
  3051  06CB  1283               	bcf	3,5	;RP0=0, select bank0
  3052  06CC  1303               	bcf	3,6	;RP1=0, select bank0
  3053  06CD  00A1               	movwf	___wmul@multiplier+1
  3054  06CE  1683               	bsf	3,5	;RP0=1, select bank1
  3055  06CF  1303               	bcf	3,6	;RP1=0, select bank1
  3056  06D0  0862               	movf	convert@mu^(0+128),w
  3057  06D1  1283               	bcf	3,5	;RP0=0, select bank0
  3058  06D2  1303               	bcf	3,6	;RP1=0, select bank0
  3059  06D3  00A0               	movwf	___wmul@multiplier
  3060  06D4  300A               	movlw	10
  3061  06D5  00A2               	movwf	___wmul@multiplicand
  3062  06D6  3000               	movlw	0
  3063  06D7  00A3               	movwf	___wmul@multiplicand+1
  3064  06D8  160A  118A  24E6  120A  118A  	fcall	___wmul
  3065  06DD  1283               	bcf	3,5	;RP0=0, select bank0
  3066  06DE  1303               	bcf	3,6	;RP1=0, select bank0
  3067  06DF  0821               	movf	?___wmul+1,w
  3068  06E0  1683               	bsf	3,5	;RP0=1, select bank1
  3069  06E1  1303               	bcf	3,6	;RP1=0, select bank1
  3070  06E2  00E3               	movwf	(convert@mu+1)^(0+128)
  3071  06E3  1283               	bcf	3,5	;RP0=0, select bank0
  3072  06E4  1303               	bcf	3,6	;RP1=0, select bank0
  3073  06E5  0820               	movf	?___wmul,w
  3074  06E6  1683               	bsf	3,5	;RP0=1, select bank1
  3075  06E7  1303               	bcf	3,6	;RP1=0, select bank1
  3076  06E8  00E2               	movwf	convert@mu^(0+128)
  3077  06E9                     l2918:
  3078  06E9  3001               	movlw	1
  3079  06EA  07D7               	addwf	convert@j^(0+128),f
  3080  06EB  1803               	skipnc
  3081  06EC  0AD8               	incf	(convert@j+1)^(0+128),f
  3082  06ED  3000               	movlw	0
  3083  06EE  07D8               	addwf	(convert@j+1)^(0+128),f
  3084  06EF                     l2920:
  3085  06EF  0861               	movf	(convert@digits+1)^(0+128),w
  3086  06F0  3A80               	xorlw	128
  3087  06F1  1283               	bcf	3,5	;RP0=0, select bank0
  3088  06F2  1303               	bcf	3,6	;RP1=0, select bank0
  3089  06F3  00EE               	movwf	??_convert
  3090  06F4  1683               	bsf	3,5	;RP0=1, select bank1
  3091  06F5  1303               	bcf	3,6	;RP1=0, select bank1
  3092  06F6  0858               	movf	(convert@j+1)^(0+128),w
  3093  06F7  3A80               	xorlw	128
  3094  06F8  1283               	bcf	3,5	;RP0=0, select bank0
  3095  06F9  1303               	bcf	3,6	;RP1=0, select bank0
  3096  06FA  026E               	subwf	??_convert,w
  3097  06FB  1D03               	skipz
  3098  06FC  2F01               	goto	u3755
  3099  06FD  1683               	bsf	3,5	;RP0=1, select bank1
  3100  06FE  1303               	bcf	3,6	;RP1=0, select bank1
  3101  06FF  0857               	movf	convert@j^(0+128),w
  3102  0700  0260               	subwf	convert@digits^(0+128),w
  3103  0701                     u3755:
  3104  0701  1803               	skipnc
  3105  0702  2F04               	goto	u3751
  3106  0703  2F05               	goto	u3750
  3107  0704                     u3751:
  3108  0704  2EC8               	goto	l2916
  3109  0705                     u3750:
  3110  0705                     l2922:
  3111                           
  3112                           ;Librerias.c: 249:          x=a/mu;
  3113  0705  1683               	bsf	3,5	;RP0=1, select bank1
  3114  0706  1303               	bcf	3,6	;RP1=0, select bank1
  3115  0707  0862               	movf	convert@mu^(0+128),w
  3116  0708  1283               	bcf	3,5	;RP0=0, select bank0
  3117  0709  1303               	bcf	3,6	;RP1=0, select bank0
  3118  070A  00A4               	movwf	___xxtofl@val
  3119  070B  1683               	bsf	3,5	;RP0=1, select bank1
  3120  070C  1303               	bcf	3,6	;RP1=0, select bank1
  3121  070D  0863               	movf	(convert@mu+1)^(0+128),w
  3122  070E  1283               	bcf	3,5	;RP0=0, select bank0
  3123  070F  1303               	bcf	3,6	;RP1=0, select bank0
  3124  0710  00A5               	movwf	___xxtofl@val+1
  3125  0711  3000               	movlw	0
  3126  0712  1BA5               	btfsc	___xxtofl@val+1,7
  3127  0713  30FF               	movlw	255
  3128  0714  00A6               	movwf	___xxtofl@val+2
  3129  0715  00A7               	movwf	___xxtofl@val+3
  3130  0716  3001               	movlw	1
  3131  0717  160A  118A  2744  120A  118A  	fcall	___xxtofl
  3132  071C  1283               	bcf	3,5	;RP0=0, select bank0
  3133  071D  1303               	bcf	3,6	;RP1=0, select bank0
  3134  071E  0827               	movf	?___xxtofl+3,w
  3135  071F  00B5               	movwf	___fldiv@a+3
  3136  0720  0826               	movf	?___xxtofl+2,w
  3137  0721  00B4               	movwf	___fldiv@a+2
  3138  0722  0825               	movf	?___xxtofl+1,w
  3139  0723  00B3               	movwf	___fldiv@a+1
  3140  0724  0824               	movf	?___xxtofl,w
  3141  0725  00B2               	movwf	___fldiv@a
  3142  0726  086B               	movf	convert@a+3,w
  3143  0727  00B9               	movwf	___fldiv@b+3
  3144  0728  086A               	movf	convert@a+2,w
  3145  0729  00B8               	movwf	___fldiv@b+2
  3146  072A  0869               	movf	convert@a+1,w
  3147  072B  00B7               	movwf	___fldiv@b+1
  3148  072C  0868               	movf	convert@a,w
  3149  072D  00B6               	movwf	___fldiv@b
  3150  072E  120A  158A  203A  120A  118A  	fcall	___fldiv
  3151  0733  1283               	bcf	3,5	;RP0=0, select bank0
  3152  0734  1303               	bcf	3,6	;RP1=0, select bank0
  3153  0735  0835               	movf	?___fldiv+3,w
  3154  0736  1683               	bsf	3,5	;RP0=1, select bank1
  3155  0737  1303               	bcf	3,6	;RP1=0, select bank1
  3156  0738  00DD               	movwf	(convert@x+3)^(0+128)
  3157  0739  1283               	bcf	3,5	;RP0=0, select bank0
  3158  073A  1303               	bcf	3,6	;RP1=0, select bank0
  3159  073B  0834               	movf	?___fldiv+2,w
  3160  073C  1683               	bsf	3,5	;RP0=1, select bank1
  3161  073D  1303               	bcf	3,6	;RP1=0, select bank1
  3162  073E  00DC               	movwf	(convert@x+2)^(0+128)
  3163  073F  1283               	bcf	3,5	;RP0=0, select bank0
  3164  0740  1303               	bcf	3,6	;RP1=0, select bank0
  3165  0741  0833               	movf	?___fldiv+1,w
  3166  0742  1683               	bsf	3,5	;RP0=1, select bank1
  3167  0743  1303               	bcf	3,6	;RP1=0, select bank1
  3168  0744  00DB               	movwf	(convert@x+1)^(0+128)
  3169  0745  1283               	bcf	3,5	;RP0=0, select bank0
  3170  0746  1303               	bcf	3,6	;RP1=0, select bank0
  3171  0747  0832               	movf	?___fldiv,w
  3172  0748  1683               	bsf	3,5	;RP0=1, select bank1
  3173  0749  1303               	bcf	3,6	;RP1=0, select bank1
  3174  074A  00DA               	movwf	convert@x^(0+128)
  3175                           
  3176                           ;Librerias.c: 250:          a=a-((int)x*mu);
  3177  074B  0863               	movf	(convert@mu+1)^(0+128),w
  3178  074C  1283               	bcf	3,5	;RP0=0, select bank0
  3179  074D  1303               	bcf	3,6	;RP1=0, select bank0
  3180  074E  00A3               	movwf	___wmul@multiplicand+1
  3181  074F  1683               	bsf	3,5	;RP0=1, select bank1
  3182  0750  1303               	bcf	3,6	;RP1=0, select bank1
  3183  0751  0862               	movf	convert@mu^(0+128),w
  3184  0752  1283               	bcf	3,5	;RP0=0, select bank0
  3185  0753  1303               	bcf	3,6	;RP1=0, select bank0
  3186  0754  00A2               	movwf	___wmul@multiplicand
  3187  0755  1683               	bsf	3,5	;RP0=1, select bank1
  3188  0756  1303               	bcf	3,6	;RP1=0, select bank1
  3189  0757  085D               	movf	(convert@x+3)^(0+128),w
  3190  0758  00F3               	movwf	___fltol@f1+3
  3191  0759  085C               	movf	(convert@x+2)^(0+128),w
  3192  075A  00F2               	movwf	___fltol@f1+2
  3193  075B  085B               	movf	(convert@x+1)^(0+128),w
  3194  075C  00F1               	movwf	___fltol@f1+1
  3195  075D  085A               	movf	convert@x^(0+128),w
  3196  075E  00F0               	movwf	___fltol@f1
  3197  075F  160A  118A  2628  120A  118A  	fcall	___fltol
  3198  0764  0871               	movf	?___fltol+1,w
  3199  0765  1283               	bcf	3,5	;RP0=0, select bank0
  3200  0766  1303               	bcf	3,6	;RP1=0, select bank0
  3201  0767  00A1               	movwf	___wmul@multiplier+1
  3202  0768  0870               	movf	?___fltol,w
  3203  0769  00A0               	movwf	___wmul@multiplier
  3204  076A  160A  118A  24E6  120A  118A  	fcall	___wmul
  3205  076F  1283               	bcf	3,5	;RP0=0, select bank0
  3206  0770  1303               	bcf	3,6	;RP1=0, select bank0
  3207  0771  0820               	movf	?___wmul,w
  3208  0772  00A4               	movwf	___xxtofl@val
  3209  0773  0821               	movf	?___wmul+1,w
  3210  0774  00A5               	movwf	___xxtofl@val+1
  3211  0775  3000               	movlw	0
  3212  0776  1BA5               	btfsc	___xxtofl@val+1,7
  3213  0777  30FF               	movlw	255
  3214  0778  00A6               	movwf	___xxtofl@val+2
  3215  0779  00A7               	movwf	___xxtofl@val+3
  3216  077A  3001               	movlw	1
  3217  077B  160A  118A  2744  120A  118A  	fcall	___xxtofl
  3218  0780  1283               	bcf	3,5	;RP0=0, select bank0
  3219  0781  1303               	bcf	3,6	;RP1=0, select bank0
  3220  0782  0827               	movf	?___xxtofl+3,w
  3221  0783  00C9               	movwf	___flsub@a+3
  3222  0784  0826               	movf	?___xxtofl+2,w
  3223  0785  00C8               	movwf	___flsub@a+2
  3224  0786  0825               	movf	?___xxtofl+1,w
  3225  0787  00C7               	movwf	___flsub@a+1
  3226  0788  0824               	movf	?___xxtofl,w
  3227  0789  00C6               	movwf	___flsub@a
  3228  078A  086B               	movf	convert@a+3,w
  3229  078B  00CD               	movwf	___flsub@b+3
  3230  078C  086A               	movf	convert@a+2,w
  3231  078D  00CC               	movwf	___flsub@b+2
  3232  078E  0869               	movf	convert@a+1,w
  3233  078F  00CB               	movwf	___flsub@b+1
  3234  0790  0868               	movf	convert@a,w
  3235  0791  00CA               	movwf	___flsub@b
  3236  0792  160A  118A  2477  120A  118A  	fcall	___flsub
  3237  0797  1283               	bcf	3,5	;RP0=0, select bank0
  3238  0798  1303               	bcf	3,6	;RP1=0, select bank0
  3239  0799  0849               	movf	?___flsub+3,w
  3240  079A  00EB               	movwf	convert@a+3
  3241  079B  0848               	movf	?___flsub+2,w
  3242  079C  00EA               	movwf	convert@a+2
  3243  079D  0847               	movf	?___flsub+1,w
  3244  079E  00E9               	movwf	convert@a+1
  3245  079F  0846               	movf	?___flsub,w
  3246  07A0  00E8               	movwf	convert@a
  3247  07A1                     l2924:
  3248                           
  3249                           ;Librerias.c: 251:          data[i]=0x30+((int)x);
  3250  07A1  1683               	bsf	3,5	;RP0=1, select bank1
  3251  07A2  1303               	bcf	3,6	;RP1=0, select bank1
  3252  07A3  085D               	movf	(convert@x+3)^(0+128),w
  3253  07A4  00F3               	movwf	___fltol@f1+3
  3254  07A5  085C               	movf	(convert@x+2)^(0+128),w
  3255  07A6  00F2               	movwf	___fltol@f1+2
  3256  07A7  085B               	movf	(convert@x+1)^(0+128),w
  3257  07A8  00F1               	movwf	___fltol@f1+1
  3258  07A9  085A               	movf	convert@x^(0+128),w
  3259  07AA  00F0               	movwf	___fltol@f1
  3260  07AB  160A  118A  2628  120A  118A  	fcall	___fltol
  3261  07B0  0870               	movf	?___fltol,w
  3262  07B1  3E30               	addlw	48
  3263  07B2  1283               	bcf	3,5	;RP0=0, select bank0
  3264  07B3  1303               	bcf	3,6	;RP1=0, select bank0
  3265  07B4  00EE               	movwf	??_convert
  3266  07B5  1683               	bsf	3,5	;RP0=1, select bank1
  3267  07B6  1303               	bcf	3,6	;RP1=0, select bank1
  3268  07B7  085E               	movf	convert@i^(0+128),w
  3269  07B8  0759               	addwf	convert@data^(0+128),w
  3270  07B9  1283               	bcf	3,5	;RP0=0, select bank0
  3271  07BA  1303               	bcf	3,6	;RP1=0, select bank0
  3272  07BB  00EF               	movwf	??_convert+1
  3273  07BC  086F               	movf	??_convert+1,w
  3274  07BD  0084               	movwf	4
  3275  07BE  086E               	movf	??_convert,w
  3276  07BF  1383               	bcf	3,7	;select IRP bank0
  3277  07C0  0080               	movwf	0
  3278  07C1                     l2926:
  3279                           
  3280                           ;Librerias.c: 252:          i++;
  3281  07C1  3001               	movlw	1
  3282  07C2  1683               	bsf	3,5	;RP0=1, select bank1
  3283  07C3  1303               	bcf	3,6	;RP1=0, select bank1
  3284  07C4  07DE               	addwf	convert@i^(0+128),f
  3285  07C5  1803               	skipnc
  3286  07C6  0ADF               	incf	(convert@i+1)^(0+128),f
  3287  07C7  3000               	movlw	0
  3288  07C8  07DF               	addwf	(convert@i+1)^(0+128),f
  3289  07C9                     l2928:
  3290                           
  3291                           ;Librerias.c: 253:          digits--;
  3292  07C9  30FF               	movlw	255
  3293  07CA  07E0               	addwf	convert@digits^(0+128),f
  3294  07CB  1803               	skipnc
  3295  07CC  0AE1               	incf	(convert@digits+1)^(0+128),f
  3296  07CD  30FF               	movlw	255
  3297  07CE  07E1               	addwf	(convert@digits+1)^(0+128),f
  3298  07CF                     l2930:
  3299                           
  3300                           ;Librerias.c: 254:          mu=1;
  3301  07CF  3001               	movlw	1
  3302  07D0  00E2               	movwf	convert@mu^(0+128)
  3303  07D1  3000               	movlw	0
  3304  07D2  00E3               	movwf	(convert@mu^(0+128)+1)
  3305  07D3                     l2932:
  3306                           
  3307                           ;Librerias.c: 244:      while(digits!=0)
  3308  07D3  0860               	movf	convert@digits^(0+128),w
  3309  07D4  0461               	iorwf	(convert@digits+1)^(0+128),w
  3310  07D5  1D03               	btfss	3,2
  3311  07D6  2FD8               	goto	u3761
  3312  07D7  2FD9               	goto	u3760
  3313  07D8                     u3761:
  3314  07D8  2EB8               	goto	l2910
  3315  07D9                     u3760:
  3316  07D9                     l2934:
  3317                           
  3318                           ;Librerias.c: 257:     data[i]='\n';
  3319  07D9  300A               	movlw	10
  3320  07DA  1283               	bcf	3,5	;RP0=0, select bank0
  3321  07DB  1303               	bcf	3,6	;RP1=0, select bank0
  3322  07DC  00EE               	movwf	??_convert
  3323  07DD  1683               	bsf	3,5	;RP0=1, select bank1
  3324  07DE  1303               	bcf	3,6	;RP1=0, select bank1
  3325  07DF  085E               	movf	convert@i^(0+128),w
  3326  07E0  0759               	addwf	convert@data^(0+128),w
  3327  07E1  1283               	bcf	3,5	;RP0=0, select bank0
  3328  07E2  1303               	bcf	3,6	;RP1=0, select bank0
  3329  07E3  00EF               	movwf	??_convert+1
  3330  07E4  086F               	movf	??_convert+1,w
  3331  07E5  0084               	movwf	4
  3332  07E6  086E               	movf	??_convert,w
  3333  07E7  1383               	bcf	3,7	;select IRP bank0
  3334  07E8  0080               	movwf	0
  3335  07E9                     l256:
  3336  07E9  0008               	return
  3337  07EA                     __end_of_convert:
  3338                           
  3339                           	psect	text5
  3340  1744                     __ptext5:	
  3341 ;; *************** function ___xxtofl *****************
  3342 ;; Defined at:
  3343 ;;		line 10 in file "C:\Program Files\Microchip\xc8\v2.32\pic\sources\c90\common\xxtofl.c"
  3344 ;; Parameters:    Size  Location     Type
  3345 ;;  sign            1    wreg     unsigned char 
  3346 ;;  val             4    4[BANK0 ] long 
  3347 ;; Auto vars:     Size  Location     Type
  3348 ;;  sign            1   12[BANK0 ] unsigned char 
  3349 ;;  arg             4   14[BANK0 ] unsigned long 
  3350 ;;  exp             1   13[BANK0 ] unsigned char 
  3351 ;; Return value:  Size  Location     Type
  3352 ;;                  4    4[BANK0 ] unsigned char 
  3353 ;; Registers used:
  3354 ;;		wreg, status,2, status,0
  3355 ;; Tracked objects:
  3356 ;;		On entry : 0/0
  3357 ;;		On exit  : 0/0
  3358 ;;		Unchanged: 0/0
  3359 ;; Data sizes:     COMMON   BANK0   BANK1   BANK3   BANK2
  3360 ;;      Params:         0       4       0       0       0
  3361 ;;      Locals:         0       6       0       0       0
  3362 ;;      Temps:          0       4       0       0       0
  3363 ;;      Totals:         0      14       0       0       0
  3364 ;;Total ram usage:       14 bytes
  3365 ;; Hardware stack levels used: 1
  3366 ;; This function calls:
  3367 ;;		Nothing
  3368 ;; This function is called by:
  3369 ;;		_main
  3370 ;;		_convert
  3371 ;; This function uses a non-reentrant model
  3372 ;;
  3373                           
  3374                           
  3375                           ;psect for function ___xxtofl
  3376  1744                     ___xxtofl:
  3377                           
  3378                           ;incstack = 0
  3379                           ; Regs used in ___xxtofl: [wreg+status,2+status,0]
  3380                           ;___xxtofl@sign stored from wreg
  3381  1744  1283               	bcf	3,5	;RP0=0, select bank0
  3382  1745  1303               	bcf	3,6	;RP1=0, select bank0
  3383  1746  00AC               	movwf	___xxtofl@sign
  3384  1747                     l2714:
  3385  1747  082C               	movf	___xxtofl@sign,w
  3386  1748  1903               	btfsc	3,2
  3387  1749  2F4B               	goto	u3481
  3388  174A  2F4C               	goto	u3480
  3389  174B                     u3481:
  3390  174B  2F60               	goto	l2720
  3391  174C                     u3480:
  3392  174C                     l2716:
  3393  174C  1FA7               	btfss	___xxtofl@val+3,7
  3394  174D  2F4F               	goto	u3491
  3395  174E  2F50               	goto	u3490
  3396  174F                     u3491:
  3397  174F  2F60               	goto	l2720
  3398  1750                     u3490:
  3399  1750                     l2718:
  3400  1750  0924               	comf	___xxtofl@val,w
  3401  1751  00AE               	movwf	___xxtofl@arg
  3402  1752  0925               	comf	___xxtofl@val+1,w
  3403  1753  00AF               	movwf	___xxtofl@arg+1
  3404  1754  0926               	comf	___xxtofl@val+2,w
  3405  1755  00B0               	movwf	___xxtofl@arg+2
  3406  1756  0927               	comf	___xxtofl@val+3,w
  3407  1757  00B1               	movwf	___xxtofl@arg+3
  3408  1758  0AAE               	incf	___xxtofl@arg,f
  3409  1759  1903               	skipnz
  3410  175A  0AAF               	incf	___xxtofl@arg+1,f
  3411  175B  1903               	skipnz
  3412  175C  0AB0               	incf	___xxtofl@arg+2,f
  3413  175D  1903               	skipnz
  3414  175E  0AB1               	incf	___xxtofl@arg+3,f
  3415  175F  2F68               	goto	l851
  3416  1760                     l2720:
  3417  1760  0827               	movf	___xxtofl@val+3,w
  3418  1761  00B1               	movwf	___xxtofl@arg+3
  3419  1762  0826               	movf	___xxtofl@val+2,w
  3420  1763  00B0               	movwf	___xxtofl@arg+2
  3421  1764  0825               	movf	___xxtofl@val+1,w
  3422  1765  00AF               	movwf	___xxtofl@arg+1
  3423  1766  0824               	movf	___xxtofl@val,w
  3424  1767  00AE               	movwf	___xxtofl@arg
  3425  1768                     l851:
  3426  1768  0827               	movf	___xxtofl@val+3,w
  3427  1769  0426               	iorwf	___xxtofl@val+2,w
  3428  176A  0425               	iorwf	___xxtofl@val+1,w
  3429  176B  0424               	iorwf	___xxtofl@val,w
  3430  176C  1D03               	skipz
  3431  176D  2F6F               	goto	u3501
  3432  176E  2F70               	goto	u3500
  3433  176F                     u3501:
  3434  176F  2F79               	goto	l2726
  3435  1770                     u3500:
  3436  1770                     l2722:
  3437  1770  3000               	movlw	0
  3438  1771  00A7               	movwf	?___xxtofl+3
  3439  1772  3000               	movlw	0
  3440  1773  00A6               	movwf	?___xxtofl+2
  3441  1774  3000               	movlw	0
  3442  1775  00A5               	movwf	?___xxtofl+1
  3443  1776  3000               	movlw	0
  3444  1777  00A4               	movwf	?___xxtofl
  3445  1778  2FFF               	goto	l853
  3446  1779                     l2726:
  3447  1779  3096               	movlw	150
  3448  177A  00A8               	movwf	??___xxtofl
  3449  177B  0828               	movf	??___xxtofl,w
  3450  177C  00AD               	movwf	___xxtofl@exp
  3451  177D  2F8B               	goto	l2730
  3452  177E                     l2728:
  3453  177E  3001               	movlw	1
  3454  177F  00A8               	movwf	??___xxtofl
  3455  1780  0828               	movf	??___xxtofl,w
  3456  1781  07AD               	addwf	___xxtofl@exp,f
  3457  1782  3001               	movlw	1
  3458  1783                     u3515:
  3459  1783  1003               	clrc
  3460  1784  0CB1               	rrf	___xxtofl@arg+3,f
  3461  1785  0CB0               	rrf	___xxtofl@arg+2,f
  3462  1786  0CAF               	rrf	___xxtofl@arg+1,f
  3463  1787  0CAE               	rrf	___xxtofl@arg,f
  3464  1788  3EFF               	addlw	-1
  3465  1789  1D03               	skipz
  3466  178A  2F83               	goto	u3515
  3467  178B                     l2730:
  3468  178B  30FE               	movlw	254
  3469  178C  0531               	andwf	___xxtofl@arg+3,w
  3470  178D  1D03               	btfss	3,2
  3471  178E  2F90               	goto	u3521
  3472  178F  2F91               	goto	u3520
  3473  1790                     u3521:
  3474  1790  2F7E               	goto	l2728
  3475  1791                     u3520:
  3476  1791  2FAD               	goto	l857
  3477  1792                     l2732:
  3478  1792  3001               	movlw	1
  3479  1793  00A8               	movwf	??___xxtofl
  3480  1794  0828               	movf	??___xxtofl,w
  3481  1795  07AD               	addwf	___xxtofl@exp,f
  3482  1796                     l2734:
  3483  1796  3001               	movlw	1
  3484  1797  07AE               	addwf	___xxtofl@arg,f
  3485  1798  3000               	movlw	0
  3486  1799  1803               	skipnc
  3487  179A  3001               	movlw	1
  3488  179B  07AF               	addwf	___xxtofl@arg+1,f
  3489  179C  3000               	movlw	0
  3490  179D  1803               	skipnc
  3491  179E  3001               	movlw	1
  3492  179F  07B0               	addwf	___xxtofl@arg+2,f
  3493  17A0  3000               	movlw	0
  3494  17A1  1803               	skipnc
  3495  17A2  3001               	movlw	1
  3496  17A3  07B1               	addwf	___xxtofl@arg+3,f
  3497  17A4                     l2736:
  3498  17A4  3001               	movlw	1
  3499  17A5                     u3535:
  3500  17A5  1003               	clrc
  3501  17A6  0CB1               	rrf	___xxtofl@arg+3,f
  3502  17A7  0CB0               	rrf	___xxtofl@arg+2,f
  3503  17A8  0CAF               	rrf	___xxtofl@arg+1,f
  3504  17A9  0CAE               	rrf	___xxtofl@arg,f
  3505  17AA  3EFF               	addlw	-1
  3506  17AB  1D03               	skipz
  3507  17AC  2FA5               	goto	u3535
  3508  17AD                     l857:
  3509  17AD  30FF               	movlw	255
  3510  17AE  0531               	andwf	___xxtofl@arg+3,w
  3511  17AF  1D03               	btfss	3,2
  3512  17B0  2FB2               	goto	u3541
  3513  17B1  2FB3               	goto	u3540
  3514  17B2                     u3541:
  3515  17B2  2F92               	goto	l2732
  3516  17B3                     u3540:
  3517  17B3  2FBF               	goto	l2740
  3518  17B4                     l2738:
  3519  17B4  3001               	movlw	1
  3520  17B5  02AD               	subwf	___xxtofl@exp,f
  3521  17B6  3001               	movlw	1
  3522  17B7  00A8               	movwf	??___xxtofl
  3523  17B8                     u3555:
  3524  17B8  1003               	clrc
  3525  17B9  0DAE               	rlf	___xxtofl@arg,f
  3526  17BA  0DAF               	rlf	___xxtofl@arg+1,f
  3527  17BB  0DB0               	rlf	___xxtofl@arg+2,f
  3528  17BC  0DB1               	rlf	___xxtofl@arg+3,f
  3529  17BD  0BA8               	decfsz	??___xxtofl,f
  3530  17BE  2FB8               	goto	u3555
  3531  17BF                     l2740:
  3532  17BF  1BB0               	btfsc	___xxtofl@arg+2,7
  3533  17C0  2FC2               	goto	u3561
  3534  17C1  2FC3               	goto	u3560
  3535  17C2                     u3561:
  3536  17C2  2FC9               	goto	l864
  3537  17C3                     u3560:
  3538  17C3                     l2742:
  3539  17C3  3002               	movlw	2
  3540  17C4  022D               	subwf	___xxtofl@exp,w
  3541  17C5  1803               	skipnc
  3542  17C6  2FC8               	goto	u3571
  3543  17C7  2FC9               	goto	u3570
  3544  17C8                     u3571:
  3545  17C8  2FB4               	goto	l2738
  3546  17C9                     u3570:
  3547  17C9                     l864:
  3548  17C9  182D               	btfsc	___xxtofl@exp,0
  3549  17CA  2FCC               	goto	u3581
  3550  17CB  2FCD               	goto	u3580
  3551  17CC                     u3581:
  3552  17CC  2FD5               	goto	l865
  3553  17CD                     u3580:
  3554  17CD                     l2744:
  3555  17CD  30FF               	movlw	255
  3556  17CE  05AE               	andwf	___xxtofl@arg,f
  3557  17CF  30FF               	movlw	255
  3558  17D0  05AF               	andwf	___xxtofl@arg+1,f
  3559  17D1  307F               	movlw	127
  3560  17D2  05B0               	andwf	___xxtofl@arg+2,f
  3561  17D3  30FF               	movlw	255
  3562  17D4  05B1               	andwf	___xxtofl@arg+3,f
  3563  17D5                     l865:
  3564  17D5  1003               	clrc
  3565  17D6  0CAD               	rrf	___xxtofl@exp,f
  3566  17D7                     l2746:
  3567  17D7  082D               	movf	___xxtofl@exp,w
  3568  17D8  00A8               	movwf	??___xxtofl
  3569  17D9  01A9               	clrf	??___xxtofl+1
  3570  17DA  01AA               	clrf	??___xxtofl+2
  3571  17DB  01AB               	clrf	??___xxtofl+3
  3572  17DC  3018               	movlw	24
  3573  17DD                     u3595:
  3574  17DD  1003               	clrc
  3575  17DE  0DA8               	rlf	??___xxtofl,f
  3576  17DF  0DA9               	rlf	??___xxtofl+1,f
  3577  17E0  0DAA               	rlf	??___xxtofl+2,f
  3578  17E1  0DAB               	rlf	??___xxtofl+3,f
  3579  17E2                     u3590:
  3580  17E2  3EFF               	addlw	-1
  3581  17E3  1D03               	skipz
  3582  17E4  2FDD               	goto	u3595
  3583  17E5  0828               	movf	??___xxtofl,w
  3584  17E6  04AE               	iorwf	___xxtofl@arg,f
  3585  17E7  0829               	movf	??___xxtofl+1,w
  3586  17E8  04AF               	iorwf	___xxtofl@arg+1,f
  3587  17E9  082A               	movf	??___xxtofl+2,w
  3588  17EA  04B0               	iorwf	___xxtofl@arg+2,f
  3589  17EB  082B               	movf	??___xxtofl+3,w
  3590  17EC  04B1               	iorwf	___xxtofl@arg+3,f
  3591  17ED                     l2748:
  3592  17ED  082C               	movf	___xxtofl@sign,w
  3593  17EE  1903               	btfsc	3,2
  3594  17EF  2FF1               	goto	u3601
  3595  17F0  2FF2               	goto	u3600
  3596  17F1                     u3601:
  3597  17F1  2FF7               	goto	l2754
  3598  17F2                     u3600:
  3599  17F2                     l2750:
  3600  17F2  1FA7               	btfss	___xxtofl@val+3,7
  3601  17F3  2FF5               	goto	u3611
  3602  17F4  2FF6               	goto	u3610
  3603  17F5                     u3611:
  3604  17F5  2FF7               	goto	l2754
  3605  17F6                     u3610:
  3606  17F6                     l2752:
  3607  17F6  17B1               	bsf	___xxtofl@arg+3,7
  3608  17F7                     l2754:
  3609  17F7  0831               	movf	___xxtofl@arg+3,w
  3610  17F8  00A7               	movwf	?___xxtofl+3
  3611  17F9  0830               	movf	___xxtofl@arg+2,w
  3612  17FA  00A6               	movwf	?___xxtofl+2
  3613  17FB  082F               	movf	___xxtofl@arg+1,w
  3614  17FC  00A5               	movwf	?___xxtofl+1
  3615  17FD  082E               	movf	___xxtofl@arg,w
  3616  17FE  00A4               	movwf	?___xxtofl
  3617  17FF                     l853:
  3618  17FF  0008               	return
  3619  1800                     __end_of___xxtofl:
  3620                           
  3621                           	psect	text6
  3622  14E6                     __ptext6:	
  3623 ;; *************** function ___wmul *****************
  3624 ;; Defined at:
  3625 ;;		line 15 in file "C:\Program Files\Microchip\xc8\v2.32\pic\sources\c90\common\Umul16.c"
  3626 ;; Parameters:    Size  Location     Type
  3627 ;;  multiplier      2    0[BANK0 ] unsigned int 
  3628 ;;  multiplicand    2    2[BANK0 ] unsigned int 
  3629 ;; Auto vars:     Size  Location     Type
  3630 ;;  product         2   11[COMMON] unsigned int 
  3631 ;; Return value:  Size  Location     Type
  3632 ;;                  2    0[BANK0 ] unsigned int 
  3633 ;; Registers used:
  3634 ;;		wreg, status,2, status,0
  3635 ;; Tracked objects:
  3636 ;;		On entry : 0/0
  3637 ;;		On exit  : 0/0
  3638 ;;		Unchanged: 0/0
  3639 ;; Data sizes:     COMMON   BANK0   BANK1   BANK3   BANK2
  3640 ;;      Params:         0       4       0       0       0
  3641 ;;      Locals:         2       0       0       0       0
  3642 ;;      Temps:          0       0       0       0       0
  3643 ;;      Totals:         2       4       0       0       0
  3644 ;;Total ram usage:        6 bytes
  3645 ;; Hardware stack levels used: 1
  3646 ;; This function calls:
  3647 ;;		Nothing
  3648 ;; This function is called by:
  3649 ;;		_convert
  3650 ;; This function uses a non-reentrant model
  3651 ;;
  3652                           
  3653                           
  3654                           ;psect for function ___wmul
  3655  14E6                     ___wmul:
  3656  14E6                     l2312:	
  3657                           ;incstack = 0
  3658                           ; Regs used in ___wmul: [wreg+status,2+status,0]
  3659                           
  3660  14E6  01FB               	clrf	___wmul@product
  3661  14E7  01FC               	clrf	___wmul@product+1
  3662  14E8                     l2314:
  3663  14E8  1283               	bcf	3,5	;RP0=0, select bank0
  3664  14E9  1303               	bcf	3,6	;RP1=0, select bank0
  3665  14EA  1C20               	btfss	___wmul@multiplier,0
  3666  14EB  2CED               	goto	u2511
  3667  14EC  2CEE               	goto	u2510
  3668  14ED                     u2511:
  3669  14ED  2CF4               	goto	l418
  3670  14EE                     u2510:
  3671  14EE                     l2316:
  3672  14EE  0822               	movf	___wmul@multiplicand,w
  3673  14EF  07FB               	addwf	___wmul@product,f
  3674  14F0  1803               	skipnc
  3675  14F1  0AFC               	incf	___wmul@product+1,f
  3676  14F2  0823               	movf	___wmul@multiplicand+1,w
  3677  14F3  07FC               	addwf	___wmul@product+1,f
  3678  14F4                     l418:
  3679  14F4  3001               	movlw	1
  3680  14F5                     u2525:
  3681  14F5  1003               	clrc
  3682  14F6  0DA2               	rlf	___wmul@multiplicand,f
  3683  14F7  0DA3               	rlf	___wmul@multiplicand+1,f
  3684  14F8  3EFF               	addlw	-1
  3685  14F9  1D03               	skipz
  3686  14FA  2CF5               	goto	u2525
  3687  14FB                     l2318:
  3688  14FB  3001               	movlw	1
  3689  14FC                     u2535:
  3690  14FC  1003               	clrc
  3691  14FD  0CA1               	rrf	___wmul@multiplier+1,f
  3692  14FE  0CA0               	rrf	___wmul@multiplier,f
  3693  14FF  3EFF               	addlw	-1
  3694  1500  1D03               	skipz
  3695  1501  2CFC               	goto	u2535
  3696  1502                     l2320:
  3697  1502  0820               	movf	___wmul@multiplier,w
  3698  1503  0421               	iorwf	___wmul@multiplier+1,w
  3699  1504  1D03               	btfss	3,2
  3700  1505  2D07               	goto	u2541
  3701  1506  2D08               	goto	u2540
  3702  1507                     u2541:
  3703  1507  2CE8               	goto	l2314
  3704  1508                     u2540:
  3705  1508                     l2322:
  3706  1508  087C               	movf	___wmul@product+1,w
  3707  1509  00A1               	movwf	?___wmul+1
  3708  150A  087B               	movf	___wmul@product,w
  3709  150B  00A0               	movwf	?___wmul
  3710  150C                     l420:
  3711  150C  0008               	return
  3712  150D                     __end_of___wmul:
  3713                           
  3714                           	psect	text7
  3715  1628                     __ptext7:	
  3716 ;; *************** function ___fltol *****************
  3717 ;; Defined at:
  3718 ;;		line 43 in file "C:\Program Files\Microchip\xc8\v2.32\pic\sources\c90\common\fltol.c"
  3719 ;; Parameters:    Size  Location     Type
  3720 ;;  f1              4    0[COMMON] unsigned int 
  3721 ;; Auto vars:     Size  Location     Type
  3722 ;;  exp1            1   10[COMMON] unsigned char 
  3723 ;;  sign1           1    9[COMMON] unsigned char 
  3724 ;; Return value:  Size  Location     Type
  3725 ;;                  4    0[COMMON] long 
  3726 ;; Registers used:
  3727 ;;		wreg, status,2, status,0
  3728 ;; Tracked objects:
  3729 ;;		On entry : 0/0
  3730 ;;		On exit  : 0/0
  3731 ;;		Unchanged: 0/0
  3732 ;; Data sizes:     COMMON   BANK0   BANK1   BANK3   BANK2
  3733 ;;      Params:         4       0       0       0       0
  3734 ;;      Locals:         2       0       0       0       0
  3735 ;;      Temps:          5       0       0       0       0
  3736 ;;      Totals:        11       0       0       0       0
  3737 ;;Total ram usage:       11 bytes
  3738 ;; Hardware stack levels used: 1
  3739 ;; This function calls:
  3740 ;;		Nothing
  3741 ;; This function is called by:
  3742 ;;		_main
  3743 ;;		_convert
  3744 ;; This function uses a non-reentrant model
  3745 ;;
  3746                           
  3747                           
  3748                           ;psect for function ___fltol
  3749  1628                     ___fltol:
  3750  1628                     l2390:	
  3751                           ;incstack = 0
  3752                           ; Regs used in ___fltol: [wreg+status,2+status,0]
  3753                           
  3754  1628  1003               	clrc
  3755  1629  0D72               	rlf	___fltol@f1+2,w
  3756  162A  0D73               	rlf	___fltol@f1+3,w
  3757  162B  00F4               	movwf	??___fltol
  3758  162C  0874               	movf	??___fltol,w
  3759  162D  00FA               	movwf	___fltol@exp1
  3760  162E  087A               	movf	___fltol@exp1,w
  3761  162F  1D03               	btfss	3,2
  3762  1630  2E32               	goto	u2721
  3763  1631  2E33               	goto	u2720
  3764  1632                     u2721:
  3765  1632  2E3C               	goto	l2396
  3766  1633                     u2720:
  3767  1633                     l2392:
  3768  1633  3000               	movlw	0
  3769  1634  00F3               	movwf	?___fltol+3
  3770  1635  3000               	movlw	0
  3771  1636  00F2               	movwf	?___fltol+2
  3772  1637  3000               	movlw	0
  3773  1638  00F1               	movwf	?___fltol+1
  3774  1639  3000               	movlw	0
  3775  163A  00F0               	movwf	?___fltol
  3776  163B  2EA1               	goto	l604
  3777  163C                     l2396:
  3778  163C  0870               	movf	___fltol@f1,w
  3779  163D  00F4               	movwf	??___fltol
  3780  163E  0871               	movf	___fltol@f1+1,w
  3781  163F  00F5               	movwf	??___fltol+1
  3782  1640  0872               	movf	___fltol@f1+2,w
  3783  1641  00F6               	movwf	??___fltol+2
  3784  1642  0873               	movf	___fltol@f1+3,w
  3785  1643  00F7               	movwf	??___fltol+3
  3786  1644  301F               	movlw	31
  3787  1645                     u2735:
  3788  1645  1003               	clrc
  3789  1646  0CF7               	rrf	??___fltol+3,f
  3790  1647  0CF6               	rrf	??___fltol+2,f
  3791  1648  0CF5               	rrf	??___fltol+1,f
  3792  1649  0CF4               	rrf	??___fltol,f
  3793  164A                     u2730:
  3794  164A  3EFF               	addlw	-1
  3795  164B  1D03               	skipz
  3796  164C  2E45               	goto	u2735
  3797  164D  0874               	movf	??___fltol,w
  3798  164E  00F8               	movwf	??___fltol+4
  3799  164F  0878               	movf	??___fltol+4,w
  3800  1650  00F9               	movwf	___fltol@sign1
  3801  1651                     l2398:
  3802  1651  17F2               	bsf	___fltol@f1+2,7
  3803  1652                     l2400:
  3804  1652  30FF               	movlw	255
  3805  1653  05F0               	andwf	___fltol@f1,f
  3806  1654  30FF               	movlw	255
  3807  1655  05F1               	andwf	___fltol@f1+1,f
  3808  1656  30FF               	movlw	255
  3809  1657  05F2               	andwf	___fltol@f1+2,f
  3810  1658  3000               	movlw	0
  3811  1659  05F3               	andwf	___fltol@f1+3,f
  3812  165A                     l2402:
  3813  165A  3096               	movlw	150
  3814  165B  02FA               	subwf	___fltol@exp1,f
  3815  165C                     l2404:
  3816  165C  1FFA               	btfss	___fltol@exp1,7
  3817  165D  2E5F               	goto	u2741
  3818  165E  2E60               	goto	u2740
  3819  165F                     u2741:
  3820  165F  2E7A               	goto	l2414
  3821  1660                     u2740:
  3822  1660                     l2406:
  3823  1660  087A               	movf	___fltol@exp1,w
  3824  1661  3A80               	xorlw	128
  3825  1662  3E97               	addlw	151
  3826  1663  1803               	skipnc
  3827  1664  2E66               	goto	u2751
  3828  1665  2E67               	goto	u2750
  3829  1666                     u2751:
  3830  1666  2E68               	goto	l2412
  3831  1667                     u2750:
  3832  1667  2E33               	goto	l2392
  3833  1668                     l2412:
  3834  1668  3001               	movlw	1
  3835  1669                     u2765:
  3836  1669  1003               	clrc
  3837  166A  0CF3               	rrf	___fltol@f1+3,f
  3838  166B  0CF2               	rrf	___fltol@f1+2,f
  3839  166C  0CF1               	rrf	___fltol@f1+1,f
  3840  166D  0CF0               	rrf	___fltol@f1,f
  3841  166E  3EFF               	addlw	-1
  3842  166F  1D03               	skipz
  3843  1670  2E69               	goto	u2765
  3844  1671  3001               	movlw	1
  3845  1672  00F4               	movwf	??___fltol
  3846  1673  0874               	movf	??___fltol,w
  3847  1674  07FA               	addwf	___fltol@exp1,f
  3848  1675  1D03               	btfss	3,2
  3849  1676  2E78               	goto	u2771
  3850  1677  2E79               	goto	u2770
  3851  1678                     u2771:
  3852  1678  2E68               	goto	l2412
  3853  1679                     u2770:
  3854  1679  2E91               	goto	l2422
  3855  167A                     l2414:
  3856  167A  3020               	movlw	32
  3857  167B  027A               	subwf	___fltol@exp1,w
  3858  167C  1C03               	skipc
  3859  167D  2E7F               	goto	u2781
  3860  167E  2E80               	goto	u2780
  3861  167F                     u2781:
  3862  167F  2E8C               	goto	l611
  3863  1680                     u2780:
  3864  1680  2E33               	goto	l2392
  3865  1681                     l2420:
  3866  1681  3001               	movlw	1
  3867  1682  00F4               	movwf	??___fltol
  3868  1683                     u2795:
  3869  1683  1003               	clrc
  3870  1684  0DF0               	rlf	___fltol@f1,f
  3871  1685  0DF1               	rlf	___fltol@f1+1,f
  3872  1686  0DF2               	rlf	___fltol@f1+2,f
  3873  1687  0DF3               	rlf	___fltol@f1+3,f
  3874  1688  0BF4               	decfsz	??___fltol,f
  3875  1689  2E83               	goto	u2795
  3876  168A  3001               	movlw	1
  3877  168B  02FA               	subwf	___fltol@exp1,f
  3878  168C                     l611:
  3879  168C  087A               	movf	___fltol@exp1,w
  3880  168D  1D03               	btfss	3,2
  3881  168E  2E90               	goto	u2801
  3882  168F  2E91               	goto	u2800
  3883  1690                     u2801:
  3884  1690  2E81               	goto	l2420
  3885  1691                     u2800:
  3886  1691                     l2422:
  3887  1691  0879               	movf	___fltol@sign1,w
  3888  1692  1903               	btfsc	3,2
  3889  1693  2E95               	goto	u2811
  3890  1694  2E96               	goto	u2810
  3891  1695                     u2811:
  3892  1695  2EA1               	goto	l614
  3893  1696                     u2810:
  3894  1696                     l2424:
  3895  1696  09F0               	comf	___fltol@f1,f
  3896  1697  09F1               	comf	___fltol@f1+1,f
  3897  1698  09F2               	comf	___fltol@f1+2,f
  3898  1699  09F3               	comf	___fltol@f1+3,f
  3899  169A  0AF0               	incf	___fltol@f1,f
  3900  169B  1903               	skipnz
  3901  169C  0AF1               	incf	___fltol@f1+1,f
  3902  169D  1903               	skipnz
  3903  169E  0AF2               	incf	___fltol@f1+2,f
  3904  169F  1903               	skipnz
  3905  16A0  0AF3               	incf	___fltol@f1+3,f
  3906  16A1                     l614:
  3907  16A1                     l604:
  3908  16A1  0008               	return
  3909  16A2                     __end_of___fltol:
  3910                           
  3911                           	psect	text8
  3912  1477                     __ptext8:	
  3913 ;; *************** function ___flsub *****************
  3914 ;; Defined at:
  3915 ;;		line 242 in file "C:\Program Files\Microchip\xc8\v2.32\pic\sources\c90\common\sprcadd.c"
  3916 ;; Parameters:    Size  Location     Type
  3917 ;;  a               4   38[BANK0 ] long 
  3918 ;;  b               4   42[BANK0 ] long 
  3919 ;; Auto vars:     Size  Location     Type
  3920 ;;		None
  3921 ;; Return value:  Size  Location     Type
  3922 ;;                  4   38[BANK0 ] long 
  3923 ;; Registers used:
  3924 ;;		wreg, status,2, status,0, btemp+1, pclath, cstack
  3925 ;; Tracked objects:
  3926 ;;		On entry : 0/0
  3927 ;;		On exit  : 0/0
  3928 ;;		Unchanged: 0/0
  3929 ;; Data sizes:     COMMON   BANK0   BANK1   BANK3   BANK2
  3930 ;;      Params:         0       8       0       0       0
  3931 ;;      Locals:         0       0       0       0       0
  3932 ;;      Temps:          0       0       0       0       0
  3933 ;;      Totals:         0       8       0       0       0
  3934 ;;Total ram usage:        8 bytes
  3935 ;; Hardware stack levels used: 1
  3936 ;; Hardware stack levels required when called: 1
  3937 ;; This function calls:
  3938 ;;		___fladd
  3939 ;; This function is called by:
  3940 ;;		_convert
  3941 ;; This function uses a non-reentrant model
  3942 ;;
  3943                           
  3944                           
  3945                           ;psect for function ___flsub
  3946  1477                     ___flsub:
  3947  1477                     l2426:	
  3948                           ;incstack = 0
  3949                           ; Regs used in ___flsub: [wreg+status,2+status,0+btemp+1+pclath+cstack]
  3950                           
  3951  1477  3080               	movlw	128
  3952  1478  1283               	bcf	3,5	;RP0=0, select bank0
  3953  1479  1303               	bcf	3,6	;RP1=0, select bank0
  3954  147A  06C9               	xorwf	___flsub@a+3,f
  3955  147B                     l2428:
  3956  147B  084D               	movf	___flsub@b+3,w
  3957  147C  00B5               	movwf	___fladd@b+3
  3958  147D  084C               	movf	___flsub@b+2,w
  3959  147E  00B4               	movwf	___fladd@b+2
  3960  147F  084B               	movf	___flsub@b+1,w
  3961  1480  00B3               	movwf	___fladd@b+1
  3962  1481  084A               	movf	___flsub@b,w
  3963  1482  00B2               	movwf	___fladd@b
  3964  1483  0849               	movf	___flsub@a+3,w
  3965  1484  00B9               	movwf	___fladd@a+3
  3966  1485  0848               	movf	___flsub@a+2,w
  3967  1486  00B8               	movwf	___fladd@a+2
  3968  1487  0847               	movf	___flsub@a+1,w
  3969  1488  00B7               	movwf	___fladd@a+1
  3970  1489  0846               	movf	___flsub@a,w
  3971  148A  00B6               	movwf	___fladd@a
  3972  148B  120A  158A  2217  160A  118A  	fcall	___fladd
  3973  1490  1283               	bcf	3,5	;RP0=0, select bank0
  3974  1491  1303               	bcf	3,6	;RP1=0, select bank0
  3975  1492  0835               	movf	?___fladd+3,w
  3976  1493  00C9               	movwf	?___flsub+3
  3977  1494  0834               	movf	?___fladd+2,w
  3978  1495  00C8               	movwf	?___flsub+2
  3979  1496  0833               	movf	?___fladd+1,w
  3980  1497  00C7               	movwf	?___flsub+1
  3981  1498  0832               	movf	?___fladd,w
  3982  1499  00C6               	movwf	?___flsub
  3983  149A                     l757:
  3984  149A  0008               	return
  3985  149B                     __end_of___flsub:
  3986                           
  3987                           	psect	text9
  3988  0A17                     __ptext9:	
  3989 ;; *************** function ___fladd *****************
  3990 ;; Defined at:
  3991 ;;		line 10 in file "C:\Program Files\Microchip\xc8\v2.32\pic\sources\c90\common\sprcadd.c"
  3992 ;; Parameters:    Size  Location     Type
  3993 ;;  b               4   18[BANK0 ] long 
  3994 ;;  a               4   22[BANK0 ] long 
  3995 ;; Auto vars:     Size  Location     Type
  3996 ;;  grs             1   37[BANK0 ] unsigned char 
  3997 ;;  bexp            1   36[BANK0 ] unsigned char 
  3998 ;;  aexp            1   35[BANK0 ] unsigned char 
  3999 ;;  signs           1   34[BANK0 ] unsigned char 
  4000 ;; Return value:  Size  Location     Type
  4001 ;;                  4   18[BANK0 ] unsigned char 
  4002 ;; Registers used:
  4003 ;;		wreg, status,2, status,0, btemp+1
  4004 ;; Tracked objects:
  4005 ;;		On entry : 0/0
  4006 ;;		On exit  : 0/0
  4007 ;;		Unchanged: 0/0
  4008 ;; Data sizes:     COMMON   BANK0   BANK1   BANK3   BANK2
  4009 ;;      Params:         0       8       0       0       0
  4010 ;;      Locals:         0       4       0       0       0
  4011 ;;      Temps:          0       8       0       0       0
  4012 ;;      Totals:         0      20       0       0       0
  4013 ;;Total ram usage:       20 bytes
  4014 ;; Hardware stack levels used: 1
  4015 ;; This function calls:
  4016 ;;		Nothing
  4017 ;; This function is called by:
  4018 ;;		_main
  4019 ;;		___flsub
  4020 ;; This function uses a non-reentrant model
  4021 ;;
  4022                           
  4023                           
  4024                           ;psect for function ___fladd
  4025  0A17                     ___fladd:
  4026  0A17                     l2068:	
  4027                           ;incstack = 0
  4028                           ; Regs used in ___fladd: [wreg+status,2+status,0+btemp+1]
  4029                           
  4030  0A17  1283               	bcf	3,5	;RP0=0, select bank0
  4031  0A18  1303               	bcf	3,6	;RP1=0, select bank0
  4032  0A19  0835               	movf	___fladd@b+3,w
  4033  0A1A  3980               	andlw	128
  4034  0A1B  00BA               	movwf	??___fladd
  4035  0A1C  083A               	movf	??___fladd,w
  4036  0A1D  00C2               	movwf	___fladd@signs
  4037  0A1E                     l2070:
  4038  0A1E  0835               	movf	___fladd@b+3,w
  4039  0A1F  00BA               	movwf	??___fladd
  4040  0A20  073A               	addwf	??___fladd,w
  4041  0A21  00BB               	movwf	??___fladd+1
  4042  0A22  083B               	movf	??___fladd+1,w
  4043  0A23  00C4               	movwf	___fladd@bexp
  4044  0A24                     l2072:
  4045  0A24  1FB4               	btfss	___fladd@b+2,7
  4046  0A25  2A27               	goto	u1991
  4047  0A26  2A28               	goto	u1990
  4048  0A27                     u1991:
  4049  0A27  2A29               	goto	l2076
  4050  0A28                     u1990:
  4051  0A28                     l2074:
  4052  0A28  1444               	bsf	___fladd@bexp,0
  4053  0A29                     l2076:
  4054  0A29  0844               	movf	___fladd@bexp,w
  4055  0A2A  1903               	btfsc	3,2
  4056  0A2B  2A2D               	goto	u2001
  4057  0A2C  2A2E               	goto	u2000
  4058  0A2D                     u2001:
  4059  0A2D  2A3E               	goto	l2086
  4060  0A2E                     u2000:
  4061  0A2E                     l2078:
  4062  0A2E  0A44               	incf	___fladd@bexp,w
  4063  0A2F  1D03               	btfss	3,2
  4064  0A30  2A32               	goto	u2011
  4065  0A31  2A33               	goto	u2010
  4066  0A32                     u2011:
  4067  0A32  2A3B               	goto	l2082
  4068  0A33                     u2010:
  4069  0A33                     l2080:
  4070  0A33  3000               	movlw	0
  4071  0A34  00B5               	movwf	___fladd@b+3
  4072  0A35  3000               	movlw	0
  4073  0A36  00B4               	movwf	___fladd@b+2
  4074  0A37  3000               	movlw	0
  4075  0A38  00B3               	movwf	___fladd@b+1
  4076  0A39  3000               	movlw	0
  4077  0A3A  00B2               	movwf	___fladd@b
  4078  0A3B                     l2082:
  4079  0A3B  17B4               	bsf	___fladd@b+2,7
  4080  0A3C                     l2084:
  4081  0A3C  01B5               	clrf	___fladd@b+3
  4082  0A3D  2A46               	goto	l2088
  4083  0A3E                     l2086:
  4084  0A3E  3000               	movlw	0
  4085  0A3F  00B5               	movwf	___fladd@b+3
  4086  0A40  3000               	movlw	0
  4087  0A41  00B4               	movwf	___fladd@b+2
  4088  0A42  3000               	movlw	0
  4089  0A43  00B3               	movwf	___fladd@b+1
  4090  0A44  3000               	movlw	0
  4091  0A45  00B2               	movwf	___fladd@b
  4092  0A46                     l2088:
  4093  0A46  0839               	movf	___fladd@a+3,w
  4094  0A47  3980               	andlw	128
  4095  0A48  00BA               	movwf	??___fladd
  4096  0A49  083A               	movf	??___fladd,w
  4097  0A4A  00C3               	movwf	___fladd@aexp
  4098  0A4B                     l2090:
  4099  0A4B  0843               	movf	___fladd@aexp,w
  4100  0A4C  0642               	xorwf	___fladd@signs,w
  4101  0A4D  1903               	skipnz
  4102  0A4E  2A50               	goto	u2021
  4103  0A4F  2A51               	goto	u2020
  4104  0A50                     u2021:
  4105  0A50  2A52               	goto	l2094
  4106  0A51                     u2020:
  4107  0A51                     l2092:
  4108  0A51  1742               	bsf	___fladd@signs,6
  4109  0A52                     l2094:
  4110  0A52  0839               	movf	___fladd@a+3,w
  4111  0A53  00BA               	movwf	??___fladd
  4112  0A54  073A               	addwf	??___fladd,w
  4113  0A55  00BB               	movwf	??___fladd+1
  4114  0A56  083B               	movf	??___fladd+1,w
  4115  0A57  00C3               	movwf	___fladd@aexp
  4116  0A58                     l2096:
  4117  0A58  1FB8               	btfss	___fladd@a+2,7
  4118  0A59  2A5B               	goto	u2031
  4119  0A5A  2A5C               	goto	u2030
  4120  0A5B                     u2031:
  4121  0A5B  2A5D               	goto	l2100
  4122  0A5C                     u2030:
  4123  0A5C                     l2098:
  4124  0A5C  1443               	bsf	___fladd@aexp,0
  4125  0A5D                     l2100:
  4126  0A5D  0843               	movf	___fladd@aexp,w
  4127  0A5E  1903               	btfsc	3,2
  4128  0A5F  2A61               	goto	u2041
  4129  0A60  2A62               	goto	u2040
  4130  0A61                     u2041:
  4131  0A61  2A72               	goto	l2110
  4132  0A62                     u2040:
  4133  0A62                     l2102:
  4134  0A62  0A43               	incf	___fladd@aexp,w
  4135  0A63  1D03               	btfss	3,2
  4136  0A64  2A66               	goto	u2051
  4137  0A65  2A67               	goto	u2050
  4138  0A66                     u2051:
  4139  0A66  2A6F               	goto	l2106
  4140  0A67                     u2050:
  4141  0A67                     l2104:
  4142  0A67  3000               	movlw	0
  4143  0A68  00B9               	movwf	___fladd@a+3
  4144  0A69  3000               	movlw	0
  4145  0A6A  00B8               	movwf	___fladd@a+2
  4146  0A6B  3000               	movlw	0
  4147  0A6C  00B7               	movwf	___fladd@a+1
  4148  0A6D  3000               	movlw	0
  4149  0A6E  00B6               	movwf	___fladd@a
  4150  0A6F                     l2106:
  4151  0A6F  17B8               	bsf	___fladd@a+2,7
  4152  0A70                     l2108:
  4153  0A70  01B9               	clrf	___fladd@a+3
  4154  0A71  2A7A               	goto	l711
  4155  0A72                     l2110:
  4156  0A72  3000               	movlw	0
  4157  0A73  00B9               	movwf	___fladd@a+3
  4158  0A74  3000               	movlw	0
  4159  0A75  00B8               	movwf	___fladd@a+2
  4160  0A76  3000               	movlw	0
  4161  0A77  00B7               	movwf	___fladd@a+1
  4162  0A78  3000               	movlw	0
  4163  0A79  00B6               	movwf	___fladd@a
  4164  0A7A                     l711:
  4165  0A7A  0844               	movf	___fladd@bexp,w
  4166  0A7B  0243               	subwf	___fladd@aexp,w
  4167  0A7C  1803               	skipnc
  4168  0A7D  2A7F               	goto	u2061
  4169  0A7E  2A80               	goto	u2060
  4170  0A7F                     u2061:
  4171  0A7F  2AC4               	goto	l2146
  4172  0A80                     u2060:
  4173  0A80                     l2112:
  4174  0A80  1F42               	btfss	___fladd@signs,6
  4175  0A81  2A83               	goto	u2071
  4176  0A82  2A84               	goto	u2070
  4177  0A83                     u2071:
  4178  0A83  2A88               	goto	l2116
  4179  0A84                     u2070:
  4180  0A84                     l2114:
  4181  0A84  3080               	movlw	128
  4182  0A85  00BA               	movwf	??___fladd
  4183  0A86  083A               	movf	??___fladd,w
  4184  0A87  06C2               	xorwf	___fladd@signs,f
  4185  0A88                     l2116:
  4186  0A88  0844               	movf	___fladd@bexp,w
  4187  0A89  00BA               	movwf	??___fladd
  4188  0A8A  083A               	movf	??___fladd,w
  4189  0A8B  00C5               	movwf	___fladd@grs
  4190  0A8C                     l2118:
  4191  0A8C  0843               	movf	___fladd@aexp,w
  4192  0A8D  00BA               	movwf	??___fladd
  4193  0A8E  083A               	movf	??___fladd,w
  4194  0A8F  00C4               	movwf	___fladd@bexp
  4195  0A90                     l2120:
  4196  0A90  0845               	movf	___fladd@grs,w
  4197  0A91  00BA               	movwf	??___fladd
  4198  0A92  083A               	movf	??___fladd,w
  4199  0A93  00C3               	movwf	___fladd@aexp
  4200  0A94                     l2122:
  4201  0A94  0832               	movf	___fladd@b,w
  4202  0A95  00BA               	movwf	??___fladd
  4203  0A96  083A               	movf	??___fladd,w
  4204  0A97  00C5               	movwf	___fladd@grs
  4205  0A98                     l2124:
  4206  0A98  0836               	movf	___fladd@a,w
  4207  0A99  00BA               	movwf	??___fladd
  4208  0A9A  083A               	movf	??___fladd,w
  4209  0A9B  00B2               	movwf	___fladd@b
  4210  0A9C                     l2126:
  4211  0A9C  0845               	movf	___fladd@grs,w
  4212  0A9D  00BA               	movwf	??___fladd
  4213  0A9E  083A               	movf	??___fladd,w
  4214  0A9F  00B6               	movwf	___fladd@a
  4215  0AA0                     l2128:
  4216  0AA0  0833               	movf	___fladd@b+1,w
  4217  0AA1  00BA               	movwf	??___fladd
  4218  0AA2  083A               	movf	??___fladd,w
  4219  0AA3  00C5               	movwf	___fladd@grs
  4220  0AA4                     l2130:
  4221  0AA4  0837               	movf	___fladd@a+1,w
  4222  0AA5  00BA               	movwf	??___fladd
  4223  0AA6  083A               	movf	??___fladd,w
  4224  0AA7  00B3               	movwf	___fladd@b+1
  4225  0AA8                     l2132:
  4226  0AA8  0845               	movf	___fladd@grs,w
  4227  0AA9  00BA               	movwf	??___fladd
  4228  0AAA  083A               	movf	??___fladd,w
  4229  0AAB  00B7               	movwf	___fladd@a+1
  4230  0AAC                     l2134:
  4231  0AAC  0834               	movf	___fladd@b+2,w
  4232  0AAD  00BA               	movwf	??___fladd
  4233  0AAE  083A               	movf	??___fladd,w
  4234  0AAF  00C5               	movwf	___fladd@grs
  4235  0AB0                     l2136:
  4236  0AB0  0838               	movf	___fladd@a+2,w
  4237  0AB1  00BA               	movwf	??___fladd
  4238  0AB2  083A               	movf	??___fladd,w
  4239  0AB3  00B4               	movwf	___fladd@b+2
  4240  0AB4                     l2138:
  4241  0AB4  0845               	movf	___fladd@grs,w
  4242  0AB5  00BA               	movwf	??___fladd
  4243  0AB6  083A               	movf	??___fladd,w
  4244  0AB7  00B8               	movwf	___fladd@a+2
  4245  0AB8                     l2140:
  4246  0AB8  0835               	movf	___fladd@b+3,w
  4247  0AB9  00BA               	movwf	??___fladd
  4248  0ABA  083A               	movf	??___fladd,w
  4249  0ABB  00C5               	movwf	___fladd@grs
  4250  0ABC                     l2142:
  4251  0ABC  0839               	movf	___fladd@a+3,w
  4252  0ABD  00BA               	movwf	??___fladd
  4253  0ABE  083A               	movf	??___fladd,w
  4254  0ABF  00B5               	movwf	___fladd@b+3
  4255  0AC0                     l2144:
  4256  0AC0  0845               	movf	___fladd@grs,w
  4257  0AC1  00BA               	movwf	??___fladd
  4258  0AC2  083A               	movf	??___fladd,w
  4259  0AC3  00B9               	movwf	___fladd@a+3
  4260  0AC4                     l2146:
  4261  0AC4  01C5               	clrf	___fladd@grs
  4262  0AC5                     l2148:
  4263  0AC5  0843               	movf	___fladd@aexp,w
  4264  0AC6  00BA               	movwf	??___fladd
  4265  0AC7  01BB               	clrf	??___fladd+1
  4266  0AC8  083B               	movf	??___fladd+1,w
  4267  0AC9  00BD               	movwf	??___fladd+3
  4268  0ACA  0844               	movf	___fladd@bexp,w
  4269  0ACB  023A               	subwf	??___fladd,w
  4270  0ACC  00BC               	movwf	??___fladd+2
  4271  0ACD  1C03               	skipc
  4272  0ACE  03BD               	decf	??___fladd+3,f
  4273  0ACF  083D               	movf	??___fladd+3,w
  4274  0AD0  3A80               	xorlw	128
  4275  0AD1  00FF               	movwf	btemp+1
  4276  0AD2  3080               	movlw	128
  4277  0AD3  027F               	subwf	btemp+1,w
  4278  0AD4  1D03               	skipz
  4279  0AD5  2AD8               	goto	u2085
  4280  0AD6  301A               	movlw	26
  4281  0AD7  023C               	subwf	??___fladd+2,w
  4282  0AD8                     u2085:
  4283  0AD8  1C03               	skipc
  4284  0AD9  2ADB               	goto	u2081
  4285  0ADA  2ADC               	goto	u2080
  4286  0ADB                     u2081:
  4287  0ADB  2B19               	goto	l2164
  4288  0ADC                     u2080:
  4289  0ADC                     l2150:
  4290  0ADC  1283               	bcf	3,5	;RP0=0, select bank0
  4291  0ADD  1303               	bcf	3,6	;RP1=0, select bank0
  4292  0ADE  0835               	movf	___fladd@b+3,w
  4293  0ADF  0434               	iorwf	___fladd@b+2,w
  4294  0AE0  0433               	iorwf	___fladd@b+1,w
  4295  0AE1  0432               	iorwf	___fladd@b,w
  4296  0AE2  1D03               	skipz
  4297  0AE3  2AE5               	goto	u2091
  4298  0AE4  2AE7               	goto	u2090
  4299  0AE5                     u2091:
  4300  0AE5  3001               	movlw	1
  4301  0AE6  2AE8               	goto	u2100
  4302  0AE7                     u2090:
  4303  0AE7  3000               	movlw	0
  4304  0AE8                     u2100:
  4305  0AE8  00BA               	movwf	??___fladd
  4306  0AE9  083A               	movf	??___fladd,w
  4307  0AEA  00C5               	movwf	___fladd@grs
  4308  0AEB  3000               	movlw	0
  4309  0AEC  00B5               	movwf	___fladd@b+3
  4310  0AED  3000               	movlw	0
  4311  0AEE  00B4               	movwf	___fladd@b+2
  4312  0AEF  3000               	movlw	0
  4313  0AF0  00B3               	movwf	___fladd@b+1
  4314  0AF1  3000               	movlw	0
  4315  0AF2  00B2               	movwf	___fladd@b
  4316  0AF3  0843               	movf	___fladd@aexp,w
  4317  0AF4  00BA               	movwf	??___fladd
  4318  0AF5  083A               	movf	??___fladd,w
  4319  0AF6  00C4               	movwf	___fladd@bexp
  4320  0AF7  2B21               	goto	l715
  4321  0AF8                     l717:
  4322  0AF8  1C45               	btfss	___fladd@grs,0
  4323  0AF9  2AFB               	goto	u2111
  4324  0AFA  2AFC               	goto	u2110
  4325  0AFB                     u2111:
  4326  0AFB  2B05               	goto	l2154
  4327  0AFC                     u2110:
  4328  0AFC                     l2152:
  4329  0AFC  0845               	movf	___fladd@grs,w
  4330  0AFD  00BA               	movwf	??___fladd
  4331  0AFE  1003               	clrc
  4332  0AFF  0C3A               	rrf	??___fladd,w
  4333  0B00  3801               	iorlw	1
  4334  0B01  00BB               	movwf	??___fladd+1
  4335  0B02  083B               	movf	??___fladd+1,w
  4336  0B03  00C5               	movwf	___fladd@grs
  4337  0B04  2B07               	goto	l2156
  4338  0B05                     l2154:
  4339  0B05  1003               	clrc
  4340  0B06  0CC5               	rrf	___fladd@grs,f
  4341  0B07                     l2156:
  4342  0B07  1C32               	btfss	___fladd@b,0
  4343  0B08  2B0A               	goto	u2121
  4344  0B09  2B0B               	goto	u2120
  4345  0B0A                     u2121:
  4346  0B0A  2B0C               	goto	l2160
  4347  0B0B                     u2120:
  4348  0B0B                     l2158:
  4349  0B0B  17C5               	bsf	___fladd@grs,7
  4350  0B0C                     l2160:
  4351  0B0C  3001               	movlw	1
  4352  0B0D  00BA               	movwf	??___fladd
  4353  0B0E                     u2135:
  4354  0B0E  0D35               	rlf	___fladd@b+3,w
  4355  0B0F  0CB5               	rrf	___fladd@b+3,f
  4356  0B10  0CB4               	rrf	___fladd@b+2,f
  4357  0B11  0CB3               	rrf	___fladd@b+1,f
  4358  0B12  0CB2               	rrf	___fladd@b,f
  4359  0B13  0BBA               	decfsz	??___fladd& (0+127),f
  4360  0B14  2B0E               	goto	u2135
  4361  0B15                     l2162:
  4362  0B15  3001               	movlw	1
  4363  0B16  00BA               	movwf	??___fladd
  4364  0B17  083A               	movf	??___fladd,w
  4365  0B18  07C4               	addwf	___fladd@bexp,f
  4366  0B19                     l2164:
  4367  0B19  1283               	bcf	3,5	;RP0=0, select bank0
  4368  0B1A  1303               	bcf	3,6	;RP1=0, select bank0
  4369  0B1B  0843               	movf	___fladd@aexp,w
  4370  0B1C  0244               	subwf	___fladd@bexp,w
  4371  0B1D  1C03               	skipc
  4372  0B1E  2B20               	goto	u2141
  4373  0B1F  2B21               	goto	u2140
  4374  0B20                     u2141:
  4375  0B20  2AF8               	goto	l717
  4376  0B21                     u2140:
  4377  0B21                     l715:
  4378  0B21  1B42               	btfsc	___fladd@signs,6
  4379  0B22  2B24               	goto	u2151
  4380  0B23  2B25               	goto	u2150
  4381  0B24                     u2151:
  4382  0B24  2B70               	goto	l2190
  4383  0B25                     u2150:
  4384  0B25                     l2166:
  4385  0B25  0844               	movf	___fladd@bexp,w
  4386  0B26  1D03               	btfss	3,2
  4387  0B27  2B29               	goto	u2161
  4388  0B28  2B2A               	goto	u2160
  4389  0B29                     u2161:
  4390  0B29  2B33               	goto	l2172
  4391  0B2A                     u2160:
  4392  0B2A                     l2168:
  4393  0B2A  3000               	movlw	0
  4394  0B2B  00B5               	movwf	?___fladd+3
  4395  0B2C  3000               	movlw	0
  4396  0B2D  00B4               	movwf	?___fladd+2
  4397  0B2E  3000               	movlw	0
  4398  0B2F  00B3               	movwf	?___fladd+1
  4399  0B30  3000               	movlw	0
  4400  0B31  00B2               	movwf	?___fladd
  4401  0B32  2C9E               	goto	l724
  4402  0B33                     l2172:
  4403  0B33  0836               	movf	___fladd@a,w
  4404  0B34  07B2               	addwf	___fladd@b,f
  4405  0B35  0837               	movf	___fladd@a+1,w
  4406  0B36  1103               	clrz
  4407  0B37  1803               	skipnc
  4408  0B38  3E01               	addlw	1
  4409  0B39  1903               	skipnz
  4410  0B3A  2B3C               	goto	u2171
  4411  0B3B  07B3               	addwf	___fladd@b+1,f
  4412  0B3C                     u2171:
  4413  0B3C  0838               	movf	___fladd@a+2,w
  4414  0B3D  1103               	clrz
  4415  0B3E  1803               	skipnc
  4416  0B3F  3E01               	addlw	1
  4417  0B40  1903               	skipnz
  4418  0B41  2B43               	goto	u2172
  4419  0B42  07B4               	addwf	___fladd@b+2,f
  4420  0B43                     u2172:
  4421  0B43  0839               	movf	___fladd@a+3,w
  4422  0B44  1103               	clrz
  4423  0B45  1803               	skipnc
  4424  0B46  3E01               	addlw	1
  4425  0B47  1903               	skipnz
  4426  0B48  2B4A               	goto	u2173
  4427  0B49  07B5               	addwf	___fladd@b+3,f
  4428  0B4A                     u2173:
  4429  0B4A                     l2174:
  4430  0B4A  1C35               	btfss	___fladd@b+3,0
  4431  0B4B  2B4D               	goto	u2181
  4432  0B4C  2B4E               	goto	u2180
  4433  0B4D                     u2181:
  4434  0B4D  2C24               	goto	l2224
  4435  0B4E                     u2180:
  4436  0B4E                     l2176:
  4437  0B4E  1C45               	btfss	___fladd@grs,0
  4438  0B4F  2B51               	goto	u2191
  4439  0B50  2B52               	goto	u2190
  4440  0B51                     u2191:
  4441  0B51  2B5B               	goto	l2180
  4442  0B52                     u2190:
  4443  0B52                     l2178:
  4444  0B52  0845               	movf	___fladd@grs,w
  4445  0B53  00BA               	movwf	??___fladd
  4446  0B54  1003               	clrc
  4447  0B55  0C3A               	rrf	??___fladd,w
  4448  0B56  3801               	iorlw	1
  4449  0B57  00BB               	movwf	??___fladd+1
  4450  0B58  083B               	movf	??___fladd+1,w
  4451  0B59  00C5               	movwf	___fladd@grs
  4452  0B5A  2B5D               	goto	l2182
  4453  0B5B                     l2180:
  4454  0B5B  1003               	clrc
  4455  0B5C  0CC5               	rrf	___fladd@grs,f
  4456  0B5D                     l2182:
  4457  0B5D  1C32               	btfss	___fladd@b,0
  4458  0B5E  2B60               	goto	u2201
  4459  0B5F  2B61               	goto	u2200
  4460  0B60                     u2201:
  4461  0B60  2B62               	goto	l2186
  4462  0B61                     u2200:
  4463  0B61                     l2184:
  4464  0B61  17C5               	bsf	___fladd@grs,7
  4465  0B62                     l2186:
  4466  0B62  3001               	movlw	1
  4467  0B63  00BA               	movwf	??___fladd
  4468  0B64                     u2215:
  4469  0B64  0D35               	rlf	___fladd@b+3,w
  4470  0B65  0CB5               	rrf	___fladd@b+3,f
  4471  0B66  0CB4               	rrf	___fladd@b+2,f
  4472  0B67  0CB3               	rrf	___fladd@b+1,f
  4473  0B68  0CB2               	rrf	___fladd@b,f
  4474  0B69  0BBA               	decfsz	??___fladd& (0+127),f
  4475  0B6A  2B64               	goto	u2215
  4476  0B6B                     l2188:
  4477  0B6B  3001               	movlw	1
  4478  0B6C  00BA               	movwf	??___fladd
  4479  0B6D  083A               	movf	??___fladd,w
  4480  0B6E  07C4               	addwf	___fladd@bexp,f
  4481  0B6F  2C24               	goto	l2224
  4482  0B70                     l2190:
  4483  0B70  0835               	movf	___fladd@b+3,w
  4484  0B71  3A80               	xorlw	128
  4485  0B72  00FF               	movwf	btemp+1
  4486  0B73  0839               	movf	___fladd@a+3,w
  4487  0B74  3A80               	xorlw	128
  4488  0B75  027F               	subwf	btemp+1,w
  4489  0B76  1D03               	skipz
  4490  0B77  2B82               	goto	u2223
  4491  0B78  0838               	movf	___fladd@a+2,w
  4492  0B79  0234               	subwf	___fladd@b+2,w
  4493  0B7A  1D03               	skipz
  4494  0B7B  2B82               	goto	u2223
  4495  0B7C  0837               	movf	___fladd@a+1,w
  4496  0B7D  0233               	subwf	___fladd@b+1,w
  4497  0B7E  1D03               	skipz
  4498  0B7F  2B82               	goto	u2223
  4499  0B80  0836               	movf	___fladd@a,w
  4500  0B81  0232               	subwf	___fladd@b,w
  4501  0B82                     u2223:
  4502  0B82  1803               	skipnc
  4503  0B83  2B85               	goto	u2221
  4504  0B84  2B86               	goto	u2220
  4505  0B85                     u2221:
  4506  0B85  2BDE               	goto	l2200
  4507  0B86                     u2220:
  4508  0B86                     l2192:
  4509  0B86  30FF               	movlw	255
  4510  0B87  00BA               	movwf	??___fladd
  4511  0B88  30FF               	movlw	255
  4512  0B89  00BB               	movwf	??___fladd+1
  4513  0B8A  30FF               	movlw	255
  4514  0B8B  00BC               	movwf	??___fladd+2
  4515  0B8C  30FF               	movlw	255
  4516  0B8D  00BD               	movwf	??___fladd+3
  4517  0B8E  0836               	movf	___fladd@a,w
  4518  0B8F  00BE               	movwf	??___fladd+4
  4519  0B90  0837               	movf	___fladd@a+1,w
  4520  0B91  00BF               	movwf	??___fladd+5
  4521  0B92  0838               	movf	___fladd@a+2,w
  4522  0B93  00C0               	movwf	??___fladd+6
  4523  0B94  0839               	movf	___fladd@a+3,w
  4524  0B95  00C1               	movwf	??___fladd+7
  4525  0B96  0832               	movf	___fladd@b,w
  4526  0B97  02BE               	subwf	??___fladd+4,f
  4527  0B98  0833               	movf	___fladd@b+1,w
  4528  0B99  1C03               	skipc
  4529  0B9A  0F33               	incfsz	___fladd@b+1,w
  4530  0B9B  2B9D               	goto	u2231
  4531  0B9C  2B9E               	goto	u2232
  4532  0B9D                     u2231:
  4533  0B9D  02BF               	subwf	??___fladd+5,f
  4534  0B9E                     u2232:
  4535  0B9E  0834               	movf	___fladd@b+2,w
  4536  0B9F  1C03               	skipc
  4537  0BA0  0F34               	incfsz	___fladd@b+2,w
  4538  0BA1  2BA3               	goto	u2233
  4539  0BA2  2BA4               	goto	u2234
  4540  0BA3                     u2233:
  4541  0BA3  02C0               	subwf	??___fladd+6,f
  4542  0BA4                     u2234:
  4543  0BA4  0835               	movf	___fladd@b+3,w
  4544  0BA5  1C03               	skipc
  4545  0BA6  0F35               	incfsz	___fladd@b+3,w
  4546  0BA7  2BA9               	goto	u2235
  4547  0BA8  2BAA               	goto	u2236
  4548  0BA9                     u2235:
  4549  0BA9  02C1               	subwf	??___fladd+7,f
  4550  0BAA                     u2236:
  4551  0BAA  083E               	movf	??___fladd+4,w
  4552  0BAB  07BA               	addwf	??___fladd,f
  4553  0BAC  083F               	movf	??___fladd+5,w
  4554  0BAD  1803               	skipnc
  4555  0BAE  0F3F               	incfsz	??___fladd+5,w
  4556  0BAF  2BB1               	goto	u2240
  4557  0BB0  2BB2               	goto	u2241
  4558  0BB1                     u2240:
  4559  0BB1  07BB               	addwf	??___fladd+1,f
  4560  0BB2                     u2241:
  4561  0BB2  0840               	movf	??___fladd+6,w
  4562  0BB3  1803               	skipnc
  4563  0BB4  0F40               	incfsz	??___fladd+6,w
  4564  0BB5  2BB7               	goto	u2242
  4565  0BB6  2BB8               	goto	u2243
  4566  0BB7                     u2242:
  4567  0BB7  07BC               	addwf	??___fladd+2,f
  4568  0BB8                     u2243:
  4569  0BB8  0841               	movf	??___fladd+7,w
  4570  0BB9  1803               	skipnc
  4571  0BBA  0A41               	incf	??___fladd+7,w
  4572  0BBB  07BD               	addwf	??___fladd+3,f
  4573  0BBC  083D               	movf	??___fladd+3,w
  4574  0BBD  00B5               	movwf	___fladd@b+3
  4575  0BBE  083C               	movf	??___fladd+2,w
  4576  0BBF  00B4               	movwf	___fladd@b+2
  4577  0BC0  083B               	movf	??___fladd+1,w
  4578  0BC1  00B3               	movwf	___fladd@b+1
  4579  0BC2  083A               	movf	??___fladd,w
  4580  0BC3  00B2               	movwf	___fladd@b
  4581  0BC4                     l2194:
  4582  0BC4  3080               	movlw	128
  4583  0BC5  00BA               	movwf	??___fladd
  4584  0BC6  083A               	movf	??___fladd,w
  4585  0BC7  06C2               	xorwf	___fladd@signs,f
  4586  0BC8  09C5               	comf	___fladd@grs,f
  4587  0BC9  0AC5               	incf	___fladd@grs,f
  4588  0BCA                     l2196:
  4589  0BCA  0845               	movf	___fladd@grs,w
  4590  0BCB  1D03               	btfss	3,2
  4591  0BCC  2BCE               	goto	u2251
  4592  0BCD  2BCF               	goto	u2250
  4593  0BCE                     u2251:
  4594  0BCE  2BEC               	goto	l732
  4595  0BCF                     u2250:
  4596  0BCF                     l2198:
  4597  0BCF  3001               	movlw	1
  4598  0BD0  07B2               	addwf	___fladd@b,f
  4599  0BD1  3000               	movlw	0
  4600  0BD2  1803               	skipnc
  4601  0BD3  3001               	movlw	1
  4602  0BD4  07B3               	addwf	___fladd@b+1,f
  4603  0BD5  3000               	movlw	0
  4604  0BD6  1803               	skipnc
  4605  0BD7  3001               	movlw	1
  4606  0BD8  07B4               	addwf	___fladd@b+2,f
  4607  0BD9  3000               	movlw	0
  4608  0BDA  1803               	skipnc
  4609  0BDB  3001               	movlw	1
  4610  0BDC  07B5               	addwf	___fladd@b+3,f
  4611  0BDD  2BEC               	goto	l732
  4612  0BDE                     l2200:
  4613  0BDE  0836               	movf	___fladd@a,w
  4614  0BDF  02B2               	subwf	___fladd@b,f
  4615  0BE0  0837               	movf	___fladd@a+1,w
  4616  0BE1  1C03               	skipc
  4617  0BE2  0F37               	incfsz	___fladd@a+1,w
  4618  0BE3  02B3               	subwf	___fladd@b+1,f
  4619  0BE4  0838               	movf	___fladd@a+2,w
  4620  0BE5  1C03               	skipc
  4621  0BE6  0F38               	incfsz	___fladd@a+2,w
  4622  0BE7  02B4               	subwf	___fladd@b+2,f
  4623  0BE8  0839               	movf	___fladd@a+3,w
  4624  0BE9  1C03               	skipc
  4625  0BEA  0F39               	incfsz	___fladd@a+3,w
  4626  0BEB  02B5               	subwf	___fladd@b+3,f
  4627  0BEC                     l732:
  4628  0BEC  0835               	movf	___fladd@b+3,w
  4629  0BED  0434               	iorwf	___fladd@b+2,w
  4630  0BEE  0433               	iorwf	___fladd@b+1,w
  4631  0BEF  0432               	iorwf	___fladd@b,w
  4632  0BF0  1D03               	skipz
  4633  0BF1  2BF3               	goto	u2261
  4634  0BF2  2BF4               	goto	u2260
  4635  0BF3                     u2261:
  4636  0BF3  2C20               	goto	l2222
  4637  0BF4                     u2260:
  4638  0BF4                     l2202:
  4639  0BF4  0845               	movf	___fladd@grs,w
  4640  0BF5  1D03               	btfss	3,2
  4641  0BF6  2BF8               	goto	u2271
  4642  0BF7  2BF9               	goto	u2270
  4643  0BF8                     u2271:
  4644  0BF8  2C20               	goto	l2222
  4645  0BF9                     u2270:
  4646  0BF9                     l2204:
  4647  0BF9  3000               	movlw	0
  4648  0BFA  00B5               	movwf	?___fladd+3
  4649  0BFB  3000               	movlw	0
  4650  0BFC  00B4               	movwf	?___fladd+2
  4651  0BFD  3000               	movlw	0
  4652  0BFE  00B3               	movwf	?___fladd+1
  4653  0BFF  3000               	movlw	0
  4654  0C00  00B2               	movwf	?___fladd
  4655  0C01  2C9E               	goto	l724
  4656  0C02                     l2208:
  4657  0C02  3001               	movlw	1
  4658  0C03  00BA               	movwf	??___fladd
  4659  0C04                     u2285:
  4660  0C04  1003               	clrc
  4661  0C05  0DB2               	rlf	___fladd@b,f
  4662  0C06  0DB3               	rlf	___fladd@b+1,f
  4663  0C07  0DB4               	rlf	___fladd@b+2,f
  4664  0C08  0DB5               	rlf	___fladd@b+3,f
  4665  0C09  0BBA               	decfsz	??___fladd,f
  4666  0C0A  2C04               	goto	u2285
  4667  0C0B                     l2210:
  4668  0C0B  1FC5               	btfss	___fladd@grs,7
  4669  0C0C  2C0E               	goto	u2291
  4670  0C0D  2C0F               	goto	u2290
  4671  0C0E                     u2291:
  4672  0C0E  2C10               	goto	l736
  4673  0C0F                     u2290:
  4674  0C0F                     l2212:
  4675  0C0F  1432               	bsf	___fladd@b,0
  4676  0C10                     l736:
  4677  0C10  1C45               	btfss	___fladd@grs,0
  4678  0C11  2C13               	goto	u2301
  4679  0C12  2C14               	goto	u2300
  4680  0C13                     u2301:
  4681  0C13  2C17               	goto	l2216
  4682  0C14                     u2300:
  4683  0C14                     l2214:
  4684  0C14  1403               	setc
  4685  0C15  0DC5               	rlf	___fladd@grs,f
  4686  0C16  2C19               	goto	l2218
  4687  0C17                     l2216:
  4688  0C17  1003               	clrc
  4689  0C18  0DC5               	rlf	___fladd@grs,f
  4690  0C19                     l2218:
  4691  0C19  0844               	movf	___fladd@bexp,w
  4692  0C1A  1903               	btfsc	3,2
  4693  0C1B  2C1D               	goto	u2311
  4694  0C1C  2C1E               	goto	u2310
  4695  0C1D                     u2311:
  4696  0C1D  2C20               	goto	l2222
  4697  0C1E                     u2310:
  4698  0C1E                     l2220:
  4699  0C1E  3001               	movlw	1
  4700  0C1F  02C4               	subwf	___fladd@bexp,f
  4701  0C20                     l2222:
  4702  0C20  1FB4               	btfss	___fladd@b+2,7
  4703  0C21  2C23               	goto	u2321
  4704  0C22  2C24               	goto	u2320
  4705  0C23                     u2321:
  4706  0C23  2C02               	goto	l2208
  4707  0C24                     u2320:
  4708  0C24                     l2224:
  4709  0C24  01C3               	clrf	___fladd@aexp
  4710  0C25                     l2226:
  4711  0C25  1FC5               	btfss	___fladd@grs,7
  4712  0C26  2C28               	goto	u2331
  4713  0C27  2C29               	goto	u2330
  4714  0C28                     u2331:
  4715  0C28  2C37               	goto	l2234
  4716  0C29                     u2330:
  4717  0C29                     l2228:
  4718  0C29  0845               	movf	___fladd@grs,w
  4719  0C2A  397F               	andlw	127
  4720  0C2B  1903               	btfsc	3,2
  4721  0C2C  2C2E               	goto	u2341
  4722  0C2D  2C2F               	goto	u2340
  4723  0C2E                     u2341:
  4724  0C2E  2C32               	goto	l742
  4725  0C2F                     u2340:
  4726  0C2F                     l2230:
  4727  0C2F  01C3               	clrf	___fladd@aexp
  4728  0C30  0AC3               	incf	___fladd@aexp,f
  4729  0C31  2C37               	goto	l2234
  4730  0C32                     l742:
  4731  0C32  1C32               	btfss	___fladd@b,0
  4732  0C33  2C35               	goto	u2351
  4733  0C34  2C36               	goto	u2350
  4734  0C35                     u2351:
  4735  0C35  2C37               	goto	l2234
  4736  0C36                     u2350:
  4737  0C36  2C2F               	goto	l2230
  4738  0C37                     l2234:
  4739  0C37  0843               	movf	___fladd@aexp,w
  4740  0C38  1903               	btfsc	3,2
  4741  0C39  2C3B               	goto	u2361
  4742  0C3A  2C3C               	goto	u2360
  4743  0C3B                     u2361:
  4744  0C3B  2C70               	goto	l745
  4745  0C3C                     u2360:
  4746  0C3C                     l2236:
  4747  0C3C  3001               	movlw	1
  4748  0C3D  07B2               	addwf	___fladd@b,f
  4749  0C3E  3000               	movlw	0
  4750  0C3F  1803               	skipnc
  4751  0C40  3001               	movlw	1
  4752  0C41  07B3               	addwf	___fladd@b+1,f
  4753  0C42  3000               	movlw	0
  4754  0C43  1803               	skipnc
  4755  0C44  3001               	movlw	1
  4756  0C45  07B4               	addwf	___fladd@b+2,f
  4757  0C46  3000               	movlw	0
  4758  0C47  1803               	skipnc
  4759  0C48  3001               	movlw	1
  4760  0C49  07B5               	addwf	___fladd@b+3,f
  4761  0C4A                     l2238:
  4762  0C4A  1C35               	btfss	___fladd@b+3,0
  4763  0C4B  2C4D               	goto	u2371
  4764  0C4C  2C4E               	goto	u2370
  4765  0C4D                     u2371:
  4766  0C4D  2C70               	goto	l745
  4767  0C4E                     u2370:
  4768  0C4E                     l2240:
  4769  0C4E  0832               	movf	___fladd@b,w
  4770  0C4F  00BA               	movwf	??___fladd
  4771  0C50  0833               	movf	___fladd@b+1,w
  4772  0C51  00BB               	movwf	??___fladd+1
  4773  0C52  0834               	movf	___fladd@b+2,w
  4774  0C53  00BC               	movwf	??___fladd+2
  4775  0C54  0835               	movf	___fladd@b+3,w
  4776  0C55  00BD               	movwf	??___fladd+3
  4777  0C56  3001               	movlw	1
  4778  0C57  00BE               	movwf	??___fladd+4
  4779  0C58                     u2385:
  4780  0C58  0D3D               	rlf	??___fladd+3,w
  4781  0C59  0CBD               	rrf	??___fladd+3,f
  4782  0C5A  0CBC               	rrf	??___fladd+2,f
  4783  0C5B  0CBB               	rrf	??___fladd+1,f
  4784  0C5C  0CBA               	rrf	??___fladd,f
  4785  0C5D                     u2380:
  4786  0C5D  0BBE               	decfsz	??___fladd+4,f
  4787  0C5E  2C58               	goto	u2385
  4788  0C5F  083D               	movf	??___fladd+3,w
  4789  0C60  00B5               	movwf	___fladd@b+3
  4790  0C61  083C               	movf	??___fladd+2,w
  4791  0C62  00B4               	movwf	___fladd@b+2
  4792  0C63  083B               	movf	??___fladd+1,w
  4793  0C64  00B3               	movwf	___fladd@b+1
  4794  0C65  083A               	movf	??___fladd,w
  4795  0C66  00B2               	movwf	___fladd@b
  4796  0C67  0A44               	incf	___fladd@bexp,w
  4797  0C68  1903               	btfsc	3,2
  4798  0C69  2C6B               	goto	u2391
  4799  0C6A  2C6C               	goto	u2390
  4800  0C6B                     u2391:
  4801  0C6B  2C70               	goto	l745
  4802  0C6C                     u2390:
  4803  0C6C                     l2242:
  4804  0C6C  3001               	movlw	1
  4805  0C6D  00BA               	movwf	??___fladd
  4806  0C6E  083A               	movf	??___fladd,w
  4807  0C6F  07C4               	addwf	___fladd@bexp,f
  4808  0C70                     l745:
  4809  0C70  0A44               	incf	___fladd@bexp,w
  4810  0C71  1903               	btfsc	3,2
  4811  0C72  2C74               	goto	u2401
  4812  0C73  2C75               	goto	u2400
  4813  0C74                     u2401:
  4814  0C74  2C7A               	goto	l2246
  4815  0C75                     u2400:
  4816  0C75                     l2244:
  4817  0C75  0844               	movf	___fladd@bexp,w
  4818  0C76  1D03               	btfss	3,2
  4819  0C77  2C79               	goto	u2411
  4820  0C78  2C7A               	goto	u2410
  4821  0C79                     u2411:
  4822  0C79  2C88               	goto	l2252
  4823  0C7A                     u2410:
  4824  0C7A                     l2246:
  4825  0C7A  3000               	movlw	0
  4826  0C7B  00B5               	movwf	___fladd@b+3
  4827  0C7C  3000               	movlw	0
  4828  0C7D  00B4               	movwf	___fladd@b+2
  4829  0C7E  3000               	movlw	0
  4830  0C7F  00B3               	movwf	___fladd@b+1
  4831  0C80  3000               	movlw	0
  4832  0C81  00B2               	movwf	___fladd@b
  4833  0C82                     l2248:
  4834  0C82  0844               	movf	___fladd@bexp,w
  4835  0C83  1D03               	btfss	3,2
  4836  0C84  2C86               	goto	u2421
  4837  0C85  2C87               	goto	u2420
  4838  0C86                     u2421:
  4839  0C86  2C88               	goto	l2252
  4840  0C87                     u2420:
  4841  0C87                     l2250:
  4842  0C87  01C2               	clrf	___fladd@signs
  4843  0C88                     l2252:
  4844  0C88  1C44               	btfss	___fladd@bexp,0
  4845  0C89  2C8B               	goto	u2431
  4846  0C8A  2C8C               	goto	u2430
  4847  0C8B                     u2431:
  4848  0C8B  2C8E               	goto	l2256
  4849  0C8C                     u2430:
  4850  0C8C                     l2254:
  4851  0C8C  17B4               	bsf	___fladd@b+2,7
  4852  0C8D  2C92               	goto	l753
  4853  0C8E                     l2256:
  4854  0C8E  307F               	movlw	127
  4855  0C8F  00BA               	movwf	??___fladd
  4856  0C90  083A               	movf	??___fladd,w
  4857  0C91  05B4               	andwf	___fladd@b+2,f
  4858  0C92                     l753:
  4859  0C92  0844               	movf	___fladd@bexp,w
  4860  0C93  00BA               	movwf	??___fladd
  4861  0C94  1003               	clrc
  4862  0C95  0C3A               	rrf	??___fladd,w
  4863  0C96  00BB               	movwf	??___fladd+1
  4864  0C97  083B               	movf	??___fladd+1,w
  4865  0C98  00B5               	movwf	___fladd@b+3
  4866  0C99                     l2258:
  4867  0C99  1FC2               	btfss	___fladd@signs,7
  4868  0C9A  2C9C               	goto	u2441
  4869  0C9B  2C9D               	goto	u2440
  4870  0C9C                     u2441:
  4871  0C9C  2C9E               	goto	l754
  4872  0C9D                     u2440:
  4873  0C9D                     l2260:
  4874  0C9D  17B5               	bsf	___fladd@b+3,7
  4875  0C9E                     l754:
  4876  0C9E                     l724:
  4877  0C9E  0008               	return
  4878  0C9F                     __end_of___fladd:
  4879                           
  4880                           	psect	text10
  4881  0C9F                     __ptext10:	
  4882 ;; *************** function ___flmul *****************
  4883 ;; Defined at:
  4884 ;;		line 8 in file "C:\Program Files\Microchip\xc8\v2.32\pic\sources\c90\common\sprcmul.c"
  4885 ;; Parameters:    Size  Location     Type
  4886 ;;  b               4   46[BANK0 ] unsigned char 
  4887 ;;  a               4   50[BANK0 ] unsigned char 
  4888 ;; Auto vars:     Size  Location     Type
  4889 ;;  prod            4   66[BANK0 ] struct .
  4890 ;;  grs             4   60[BANK0 ] unsigned long 
  4891 ;;  temp            2   70[BANK0 ] struct .
  4892 ;;  bexp            1   65[BANK0 ] unsigned char 
  4893 ;;  aexp            1   64[BANK0 ] unsigned char 
  4894 ;;  sign            1   59[BANK0 ] unsigned char 
  4895 ;; Return value:  Size  Location     Type
  4896 ;;                  4   46[BANK0 ] unsigned char 
  4897 ;; Registers used:
  4898 ;;		wreg, status,2, status,0, btemp+1, pclath, cstack
  4899 ;; Tracked objects:
  4900 ;;		On entry : 0/0
  4901 ;;		On exit  : 0/0
  4902 ;;		Unchanged: 0/0
  4903 ;; Data sizes:     COMMON   BANK0   BANK1   BANK3   BANK2
  4904 ;;      Params:         0       8       0       0       0
  4905 ;;      Locals:         0      13       0       0       0
  4906 ;;      Temps:          0       5       0       0       0
  4907 ;;      Totals:         0      26       0       0       0
  4908 ;;Total ram usage:       26 bytes
  4909 ;; Hardware stack levels used: 1
  4910 ;; Hardware stack levels required when called: 1
  4911 ;; This function calls:
  4912 ;;		__Umul8_16
  4913 ;; This function is called by:
  4914 ;;		_main
  4915 ;;		_convert
  4916 ;; This function uses a non-reentrant model
  4917 ;;
  4918                           
  4919                           
  4920                           ;psect for function ___flmul
  4921  0C9F                     ___flmul:
  4922  0C9F                     l2574:	
  4923                           ;incstack = 0
  4924                           ; Regs used in ___flmul: [wreg+status,2+status,0+btemp+1+pclath+cstack]
  4925                           
  4926  0C9F  1283               	bcf	3,5	;RP0=0, select bank0
  4927  0CA0  1303               	bcf	3,6	;RP1=0, select bank0
  4928  0CA1  0851               	movf	___flmul@b+3,w
  4929  0CA2  3980               	andlw	128
  4930  0CA3  00D6               	movwf	??___flmul
  4931  0CA4  0856               	movf	??___flmul,w
  4932  0CA5  00DB               	movwf	___flmul@sign
  4933  0CA6                     l2576:
  4934  0CA6  0851               	movf	___flmul@b+3,w
  4935  0CA7  00D6               	movwf	??___flmul
  4936  0CA8  0756               	addwf	??___flmul,w
  4937  0CA9  00D7               	movwf	??___flmul+1
  4938  0CAA  0857               	movf	??___flmul+1,w
  4939  0CAB  00E1               	movwf	___flmul@bexp
  4940  0CAC                     l2578:
  4941  0CAC  1FD0               	btfss	___flmul@b+2,7
  4942  0CAD  2CAF               	goto	u3111
  4943  0CAE  2CB0               	goto	u3110
  4944  0CAF                     u3111:
  4945  0CAF  2CB1               	goto	l2582
  4946  0CB0                     u3110:
  4947  0CB0                     l2580:
  4948  0CB0  1461               	bsf	___flmul@bexp,0
  4949  0CB1                     l2582:
  4950  0CB1  0861               	movf	___flmul@bexp,w
  4951  0CB2  1903               	btfsc	3,2
  4952  0CB3  2CB5               	goto	u3121
  4953  0CB4  2CB6               	goto	u3120
  4954  0CB5                     u3121:
  4955  0CB5  2CC5               	goto	l2590
  4956  0CB6                     u3120:
  4957  0CB6                     l2584:
  4958  0CB6  0A61               	incf	___flmul@bexp,w
  4959  0CB7  1D03               	btfss	3,2
  4960  0CB8  2CBA               	goto	u3131
  4961  0CB9  2CBB               	goto	u3130
  4962  0CBA                     u3131:
  4963  0CBA  2CC3               	goto	l2588
  4964  0CBB                     u3130:
  4965  0CBB                     l2586:
  4966  0CBB  3000               	movlw	0
  4967  0CBC  00D1               	movwf	___flmul@b+3
  4968  0CBD  3000               	movlw	0
  4969  0CBE  00D0               	movwf	___flmul@b+2
  4970  0CBF  3000               	movlw	0
  4971  0CC0  00CF               	movwf	___flmul@b+1
  4972  0CC1  3000               	movlw	0
  4973  0CC2  00CE               	movwf	___flmul@b
  4974  0CC3                     l2588:
  4975  0CC3  17D0               	bsf	___flmul@b+2,7
  4976  0CC4  2CCD               	goto	l2592
  4977  0CC5                     l2590:
  4978  0CC5  3000               	movlw	0
  4979  0CC6  00D1               	movwf	___flmul@b+3
  4980  0CC7  3000               	movlw	0
  4981  0CC8  00D0               	movwf	___flmul@b+2
  4982  0CC9  3000               	movlw	0
  4983  0CCA  00CF               	movwf	___flmul@b+1
  4984  0CCB  3000               	movlw	0
  4985  0CCC  00CE               	movwf	___flmul@b
  4986  0CCD                     l2592:
  4987  0CCD  0855               	movf	___flmul@a+3,w
  4988  0CCE  3980               	andlw	128
  4989  0CCF  00D6               	movwf	??___flmul
  4990  0CD0  0856               	movf	??___flmul,w
  4991  0CD1  06DB               	xorwf	___flmul@sign,f
  4992  0CD2                     l2594:
  4993  0CD2  0855               	movf	___flmul@a+3,w
  4994  0CD3  00D6               	movwf	??___flmul
  4995  0CD4  0756               	addwf	??___flmul,w
  4996  0CD5  00D7               	movwf	??___flmul+1
  4997  0CD6  0857               	movf	??___flmul+1,w
  4998  0CD7  00E0               	movwf	___flmul@aexp
  4999  0CD8                     l2596:
  5000  0CD8  1FD4               	btfss	___flmul@a+2,7
  5001  0CD9  2CDB               	goto	u3141
  5002  0CDA  2CDC               	goto	u3140
  5003  0CDB                     u3141:
  5004  0CDB  2CDD               	goto	l2600
  5005  0CDC                     u3140:
  5006  0CDC                     l2598:
  5007  0CDC  1460               	bsf	___flmul@aexp,0
  5008  0CDD                     l2600:
  5009  0CDD  0860               	movf	___flmul@aexp,w
  5010  0CDE  1903               	btfsc	3,2
  5011  0CDF  2CE1               	goto	u3151
  5012  0CE0  2CE2               	goto	u3150
  5013  0CE1                     u3151:
  5014  0CE1  2CF1               	goto	l2608
  5015  0CE2                     u3150:
  5016  0CE2                     l2602:
  5017  0CE2  0A60               	incf	___flmul@aexp,w
  5018  0CE3  1D03               	btfss	3,2
  5019  0CE4  2CE6               	goto	u3161
  5020  0CE5  2CE7               	goto	u3160
  5021  0CE6                     u3161:
  5022  0CE6  2CEF               	goto	l2606
  5023  0CE7                     u3160:
  5024  0CE7                     l2604:
  5025  0CE7  3000               	movlw	0
  5026  0CE8  00D5               	movwf	___flmul@a+3
  5027  0CE9  3000               	movlw	0
  5028  0CEA  00D4               	movwf	___flmul@a+2
  5029  0CEB  3000               	movlw	0
  5030  0CEC  00D3               	movwf	___flmul@a+1
  5031  0CED  3000               	movlw	0
  5032  0CEE  00D2               	movwf	___flmul@a
  5033  0CEF                     l2606:
  5034  0CEF  17D4               	bsf	___flmul@a+2,7
  5035  0CF0  2CF9               	goto	l2610
  5036  0CF1                     l2608:
  5037  0CF1  3000               	movlw	0
  5038  0CF2  00D5               	movwf	___flmul@a+3
  5039  0CF3  3000               	movlw	0
  5040  0CF4  00D4               	movwf	___flmul@a+2
  5041  0CF5  3000               	movlw	0
  5042  0CF6  00D3               	movwf	___flmul@a+1
  5043  0CF7  3000               	movlw	0
  5044  0CF8  00D2               	movwf	___flmul@a
  5045  0CF9                     l2610:
  5046  0CF9  0860               	movf	___flmul@aexp,w
  5047  0CFA  1903               	btfsc	3,2
  5048  0CFB  2CFD               	goto	u3171
  5049  0CFC  2CFE               	goto	u3170
  5050  0CFD                     u3171:
  5051  0CFD  2D03               	goto	l2614
  5052  0CFE                     u3170:
  5053  0CFE                     l2612:
  5054  0CFE  0861               	movf	___flmul@bexp,w
  5055  0CFF  1D03               	btfss	3,2
  5056  0D00  2D02               	goto	u3181
  5057  0D01  2D03               	goto	u3180
  5058  0D02                     u3181:
  5059  0D02  2D0C               	goto	l2618
  5060  0D03                     u3180:
  5061  0D03                     l2614:
  5062  0D03  3000               	movlw	0
  5063  0D04  00D1               	movwf	?___flmul+3
  5064  0D05  3000               	movlw	0
  5065  0D06  00D0               	movwf	?___flmul+2
  5066  0D07  3000               	movlw	0
  5067  0D08  00CF               	movwf	?___flmul+1
  5068  0D09  3000               	movlw	0
  5069  0D0A  00CE               	movwf	?___flmul
  5070  0D0B  2FFF               	goto	l807
  5071  0D0C                     l2618:
  5072  0D0C  084E               	movf	___flmul@b,w
  5073  0D0D  00D6               	movwf	??___flmul
  5074  0D0E  0856               	movf	??___flmul,w
  5075  0D0F  00F0               	movwf	__Umul8_16@multiplicand
  5076  0D10  0854               	movf	___flmul@a+2,w
  5077  0D11  160A  118A  24BF  120A  158A  	fcall	__Umul8_16
  5078  0D16  0871               	movf	?__Umul8_16+1,w
  5079  0D17  1283               	bcf	3,5	;RP0=0, select bank0
  5080  0D18  1303               	bcf	3,6	;RP1=0, select bank0
  5081  0D19  00E7               	movwf	___flmul@temp+1
  5082  0D1A  0870               	movf	?__Umul8_16,w
  5083  0D1B  00E6               	movwf	___flmul@temp
  5084  0D1C                     l2620:
  5085  0D1C  0866               	movf	___flmul@temp,w
  5086  0D1D  00D6               	movwf	??___flmul
  5087  0D1E  01D7               	clrf	??___flmul+1
  5088  0D1F  01D8               	clrf	??___flmul+2
  5089  0D20  01D9               	clrf	??___flmul+3
  5090  0D21  0859               	movf	??___flmul+3,w
  5091  0D22  00DF               	movwf	___flmul@grs+3
  5092  0D23  0858               	movf	??___flmul+2,w
  5093  0D24  00DE               	movwf	___flmul@grs+2
  5094  0D25  0857               	movf	??___flmul+1,w
  5095  0D26  00DD               	movwf	___flmul@grs+1
  5096  0D27  0856               	movf	??___flmul,w
  5097  0D28  00DC               	movwf	___flmul@grs
  5098  0D29                     l2622:
  5099  0D29  0867               	movf	___flmul@temp+1,w
  5100  0D2A  00D6               	movwf	??___flmul
  5101  0D2B  01D7               	clrf	??___flmul+1
  5102  0D2C  01D8               	clrf	??___flmul+2
  5103  0D2D  01D9               	clrf	??___flmul+3
  5104  0D2E  0859               	movf	??___flmul+3,w
  5105  0D2F  00E5               	movwf	___flmul@prod+3
  5106  0D30  0858               	movf	??___flmul+2,w
  5107  0D31  00E4               	movwf	___flmul@prod+2
  5108  0D32  0857               	movf	??___flmul+1,w
  5109  0D33  00E3               	movwf	___flmul@prod+1
  5110  0D34  0856               	movf	??___flmul,w
  5111  0D35  00E2               	movwf	___flmul@prod
  5112  0D36  084F               	movf	___flmul@b+1,w
  5113  0D37  00D6               	movwf	??___flmul
  5114  0D38  0856               	movf	??___flmul,w
  5115  0D39  00F0               	movwf	__Umul8_16@multiplicand
  5116  0D3A  0853               	movf	___flmul@a+1,w
  5117  0D3B  160A  118A  24BF  120A  158A  	fcall	__Umul8_16
  5118  0D40  0871               	movf	?__Umul8_16+1,w
  5119  0D41  1283               	bcf	3,5	;RP0=0, select bank0
  5120  0D42  1303               	bcf	3,6	;RP1=0, select bank0
  5121  0D43  00E7               	movwf	___flmul@temp+1
  5122  0D44  0870               	movf	?__Umul8_16,w
  5123  0D45  00E6               	movwf	___flmul@temp
  5124  0D46                     l2624:
  5125  0D46  0866               	movf	___flmul@temp,w
  5126  0D47  00D6               	movwf	??___flmul
  5127  0D48  01D7               	clrf	??___flmul+1
  5128  0D49  01D8               	clrf	??___flmul+2
  5129  0D4A  01D9               	clrf	??___flmul+3
  5130  0D4B  0856               	movf	??___flmul,w
  5131  0D4C  07DC               	addwf	___flmul@grs,f
  5132  0D4D  0857               	movf	??___flmul+1,w
  5133  0D4E  1103               	clrz
  5134  0D4F  1803               	skipnc
  5135  0D50  3E01               	addlw	1
  5136  0D51  1903               	skipnz
  5137  0D52  2D54               	goto	u3191
  5138  0D53  07DD               	addwf	___flmul@grs+1,f
  5139  0D54                     u3191:
  5140  0D54  0858               	movf	??___flmul+2,w
  5141  0D55  1103               	clrz
  5142  0D56  1803               	skipnc
  5143  0D57  3E01               	addlw	1
  5144  0D58  1903               	skipnz
  5145  0D59  2D5B               	goto	u3192
  5146  0D5A  07DE               	addwf	___flmul@grs+2,f
  5147  0D5B                     u3192:
  5148  0D5B  0859               	movf	??___flmul+3,w
  5149  0D5C  1103               	clrz
  5150  0D5D  1803               	skipnc
  5151  0D5E  3E01               	addlw	1
  5152  0D5F  1903               	skipnz
  5153  0D60  2D62               	goto	u3193
  5154  0D61  07DF               	addwf	___flmul@grs+3,f
  5155  0D62                     u3193:
  5156  0D62                     l2626:
  5157  0D62  0867               	movf	___flmul@temp+1,w
  5158  0D63  00D6               	movwf	??___flmul
  5159  0D64  01D7               	clrf	??___flmul+1
  5160  0D65  01D8               	clrf	??___flmul+2
  5161  0D66  01D9               	clrf	??___flmul+3
  5162  0D67  0856               	movf	??___flmul,w
  5163  0D68  07E2               	addwf	___flmul@prod,f
  5164  0D69  0857               	movf	??___flmul+1,w
  5165  0D6A  1103               	clrz
  5166  0D6B  1803               	skipnc
  5167  0D6C  3E01               	addlw	1
  5168  0D6D  1903               	skipnz
  5169  0D6E  2D70               	goto	u3201
  5170  0D6F  07E3               	addwf	___flmul@prod+1,f
  5171  0D70                     u3201:
  5172  0D70  0858               	movf	??___flmul+2,w
  5173  0D71  1103               	clrz
  5174  0D72  1803               	skipnc
  5175  0D73  3E01               	addlw	1
  5176  0D74  1903               	skipnz
  5177  0D75  2D77               	goto	u3202
  5178  0D76  07E4               	addwf	___flmul@prod+2,f
  5179  0D77                     u3202:
  5180  0D77  0859               	movf	??___flmul+3,w
  5181  0D78  1103               	clrz
  5182  0D79  1803               	skipnc
  5183  0D7A  3E01               	addlw	1
  5184  0D7B  1903               	skipnz
  5185  0D7C  2D7E               	goto	u3203
  5186  0D7D  07E5               	addwf	___flmul@prod+3,f
  5187  0D7E                     u3203:
  5188  0D7E  0850               	movf	___flmul@b+2,w
  5189  0D7F  00D6               	movwf	??___flmul
  5190  0D80  0856               	movf	??___flmul,w
  5191  0D81  00F0               	movwf	__Umul8_16@multiplicand
  5192  0D82  0852               	movf	___flmul@a,w
  5193  0D83  160A  118A  24BF  120A  158A  	fcall	__Umul8_16
  5194  0D88  0871               	movf	?__Umul8_16+1,w
  5195  0D89  1283               	bcf	3,5	;RP0=0, select bank0
  5196  0D8A  1303               	bcf	3,6	;RP1=0, select bank0
  5197  0D8B  00E7               	movwf	___flmul@temp+1
  5198  0D8C  0870               	movf	?__Umul8_16,w
  5199  0D8D  00E6               	movwf	___flmul@temp
  5200  0D8E                     l2628:
  5201  0D8E  0866               	movf	___flmul@temp,w
  5202  0D8F  00D6               	movwf	??___flmul
  5203  0D90  01D7               	clrf	??___flmul+1
  5204  0D91  01D8               	clrf	??___flmul+2
  5205  0D92  01D9               	clrf	??___flmul+3
  5206  0D93  0856               	movf	??___flmul,w
  5207  0D94  07DC               	addwf	___flmul@grs,f
  5208  0D95  0857               	movf	??___flmul+1,w
  5209  0D96  1103               	clrz
  5210  0D97  1803               	skipnc
  5211  0D98  3E01               	addlw	1
  5212  0D99  1903               	skipnz
  5213  0D9A  2D9C               	goto	u3211
  5214  0D9B  07DD               	addwf	___flmul@grs+1,f
  5215  0D9C                     u3211:
  5216  0D9C  0858               	movf	??___flmul+2,w
  5217  0D9D  1103               	clrz
  5218  0D9E  1803               	skipnc
  5219  0D9F  3E01               	addlw	1
  5220  0DA0  1903               	skipnz
  5221  0DA1  2DA3               	goto	u3212
  5222  0DA2  07DE               	addwf	___flmul@grs+2,f
  5223  0DA3                     u3212:
  5224  0DA3  0859               	movf	??___flmul+3,w
  5225  0DA4  1103               	clrz
  5226  0DA5  1803               	skipnc
  5227  0DA6  3E01               	addlw	1
  5228  0DA7  1903               	skipnz
  5229  0DA8  2DAA               	goto	u3213
  5230  0DA9  07DF               	addwf	___flmul@grs+3,f
  5231  0DAA                     u3213:
  5232  0DAA                     l2630:
  5233  0DAA  0867               	movf	___flmul@temp+1,w
  5234  0DAB  00D6               	movwf	??___flmul
  5235  0DAC  01D7               	clrf	??___flmul+1
  5236  0DAD  01D8               	clrf	??___flmul+2
  5237  0DAE  01D9               	clrf	??___flmul+3
  5238  0DAF  0856               	movf	??___flmul,w
  5239  0DB0  07E2               	addwf	___flmul@prod,f
  5240  0DB1  0857               	movf	??___flmul+1,w
  5241  0DB2  1103               	clrz
  5242  0DB3  1803               	skipnc
  5243  0DB4  3E01               	addlw	1
  5244  0DB5  1903               	skipnz
  5245  0DB6  2DB8               	goto	u3221
  5246  0DB7  07E3               	addwf	___flmul@prod+1,f
  5247  0DB8                     u3221:
  5248  0DB8  0858               	movf	??___flmul+2,w
  5249  0DB9  1103               	clrz
  5250  0DBA  1803               	skipnc
  5251  0DBB  3E01               	addlw	1
  5252  0DBC  1903               	skipnz
  5253  0DBD  2DBF               	goto	u3222
  5254  0DBE  07E4               	addwf	___flmul@prod+2,f
  5255  0DBF                     u3222:
  5256  0DBF  0859               	movf	??___flmul+3,w
  5257  0DC0  1103               	clrz
  5258  0DC1  1803               	skipnc
  5259  0DC2  3E01               	addlw	1
  5260  0DC3  1903               	skipnz
  5261  0DC4  2DC6               	goto	u3223
  5262  0DC5  07E5               	addwf	___flmul@prod+3,f
  5263  0DC6                     u3223:
  5264  0DC6                     l2632:
  5265  0DC6  3008               	movlw	8
  5266  0DC7  00D6               	movwf	??___flmul
  5267  0DC8                     u3235:
  5268  0DC8  1003               	clrc
  5269  0DC9  0DDC               	rlf	___flmul@grs,f
  5270  0DCA  0DDD               	rlf	___flmul@grs+1,f
  5271  0DCB  0DDE               	rlf	___flmul@grs+2,f
  5272  0DCC  0DDF               	rlf	___flmul@grs+3,f
  5273  0DCD  0BD6               	decfsz	??___flmul,f
  5274  0DCE  2DC8               	goto	u3235
  5275  0DCF                     l2634:
  5276  0DCF  084F               	movf	___flmul@b+1,w
  5277  0DD0  00D6               	movwf	??___flmul
  5278  0DD1  0856               	movf	??___flmul,w
  5279  0DD2  00F0               	movwf	__Umul8_16@multiplicand
  5280  0DD3  0852               	movf	___flmul@a,w
  5281  0DD4  160A  118A  24BF  120A  158A  	fcall	__Umul8_16
  5282  0DD9  0871               	movf	?__Umul8_16+1,w
  5283  0DDA  1283               	bcf	3,5	;RP0=0, select bank0
  5284  0DDB  1303               	bcf	3,6	;RP1=0, select bank0
  5285  0DDC  00E7               	movwf	___flmul@temp+1
  5286  0DDD  0870               	movf	?__Umul8_16,w
  5287  0DDE  00E6               	movwf	___flmul@temp
  5288  0DDF                     l2636:
  5289  0DDF  0866               	movf	___flmul@temp,w
  5290  0DE0  00D6               	movwf	??___flmul
  5291  0DE1  0867               	movf	___flmul@temp+1,w
  5292  0DE2  00D7               	movwf	??___flmul+1
  5293  0DE3  01D8               	clrf	??___flmul+2
  5294  0DE4  01D9               	clrf	??___flmul+3
  5295  0DE5  0856               	movf	??___flmul,w
  5296  0DE6  07DC               	addwf	___flmul@grs,f
  5297  0DE7  0857               	movf	??___flmul+1,w
  5298  0DE8  1103               	clrz
  5299  0DE9  1803               	skipnc
  5300  0DEA  3E01               	addlw	1
  5301  0DEB  1903               	skipnz
  5302  0DEC  2DEE               	goto	u3241
  5303  0DED  07DD               	addwf	___flmul@grs+1,f
  5304  0DEE                     u3241:
  5305  0DEE  0858               	movf	??___flmul+2,w
  5306  0DEF  1103               	clrz
  5307  0DF0  1803               	skipnc
  5308  0DF1  3E01               	addlw	1
  5309  0DF2  1903               	skipnz
  5310  0DF3  2DF5               	goto	u3242
  5311  0DF4  07DE               	addwf	___flmul@grs+2,f
  5312  0DF5                     u3242:
  5313  0DF5  0859               	movf	??___flmul+3,w
  5314  0DF6  1103               	clrz
  5315  0DF7  1803               	skipnc
  5316  0DF8  3E01               	addlw	1
  5317  0DF9  1903               	skipnz
  5318  0DFA  2DFC               	goto	u3243
  5319  0DFB  07DF               	addwf	___flmul@grs+3,f
  5320  0DFC                     u3243:
  5321  0DFC                     l2638:
  5322  0DFC  084E               	movf	___flmul@b,w
  5323  0DFD  00D6               	movwf	??___flmul
  5324  0DFE  0856               	movf	??___flmul,w
  5325  0DFF  00F0               	movwf	__Umul8_16@multiplicand
  5326  0E00  0853               	movf	___flmul@a+1,w
  5327  0E01  160A  118A  24BF  120A  158A  	fcall	__Umul8_16
  5328  0E06  0871               	movf	?__Umul8_16+1,w
  5329  0E07  1283               	bcf	3,5	;RP0=0, select bank0
  5330  0E08  1303               	bcf	3,6	;RP1=0, select bank0
  5331  0E09  00E7               	movwf	___flmul@temp+1
  5332  0E0A  0870               	movf	?__Umul8_16,w
  5333  0E0B  00E6               	movwf	___flmul@temp
  5334  0E0C                     l2640:
  5335  0E0C  0866               	movf	___flmul@temp,w
  5336  0E0D  00D6               	movwf	??___flmul
  5337  0E0E  0867               	movf	___flmul@temp+1,w
  5338  0E0F  00D7               	movwf	??___flmul+1
  5339  0E10  01D8               	clrf	??___flmul+2
  5340  0E11  01D9               	clrf	??___flmul+3
  5341  0E12  0856               	movf	??___flmul,w
  5342  0E13  07DC               	addwf	___flmul@grs,f
  5343  0E14  0857               	movf	??___flmul+1,w
  5344  0E15  1103               	clrz
  5345  0E16  1803               	skipnc
  5346  0E17  3E01               	addlw	1
  5347  0E18  1903               	skipnz
  5348  0E19  2E1B               	goto	u3251
  5349  0E1A  07DD               	addwf	___flmul@grs+1,f
  5350  0E1B                     u3251:
  5351  0E1B  0858               	movf	??___flmul+2,w
  5352  0E1C  1103               	clrz
  5353  0E1D  1803               	skipnc
  5354  0E1E  3E01               	addlw	1
  5355  0E1F  1903               	skipnz
  5356  0E20  2E22               	goto	u3252
  5357  0E21  07DE               	addwf	___flmul@grs+2,f
  5358  0E22                     u3252:
  5359  0E22  0859               	movf	??___flmul+3,w
  5360  0E23  1103               	clrz
  5361  0E24  1803               	skipnc
  5362  0E25  3E01               	addlw	1
  5363  0E26  1903               	skipnz
  5364  0E27  2E29               	goto	u3253
  5365  0E28  07DF               	addwf	___flmul@grs+3,f
  5366  0E29                     u3253:
  5367  0E29                     l2642:
  5368  0E29  3008               	movlw	8
  5369  0E2A  00D6               	movwf	??___flmul
  5370  0E2B                     u3265:
  5371  0E2B  1003               	clrc
  5372  0E2C  0DDC               	rlf	___flmul@grs,f
  5373  0E2D  0DDD               	rlf	___flmul@grs+1,f
  5374  0E2E  0DDE               	rlf	___flmul@grs+2,f
  5375  0E2F  0DDF               	rlf	___flmul@grs+3,f
  5376  0E30  0BD6               	decfsz	??___flmul,f
  5377  0E31  2E2B               	goto	u3265
  5378  0E32  084E               	movf	___flmul@b,w
  5379  0E33  00D6               	movwf	??___flmul
  5380  0E34  0856               	movf	??___flmul,w
  5381  0E35  00F0               	movwf	__Umul8_16@multiplicand
  5382  0E36  0852               	movf	___flmul@a,w
  5383  0E37  160A  118A  24BF  120A  158A  	fcall	__Umul8_16
  5384  0E3C  0871               	movf	?__Umul8_16+1,w
  5385  0E3D  1283               	bcf	3,5	;RP0=0, select bank0
  5386  0E3E  1303               	bcf	3,6	;RP1=0, select bank0
  5387  0E3F  00E7               	movwf	___flmul@temp+1
  5388  0E40  0870               	movf	?__Umul8_16,w
  5389  0E41  00E6               	movwf	___flmul@temp
  5390  0E42                     l2644:
  5391  0E42  0866               	movf	___flmul@temp,w
  5392  0E43  00D6               	movwf	??___flmul
  5393  0E44  0867               	movf	___flmul@temp+1,w
  5394  0E45  00D7               	movwf	??___flmul+1
  5395  0E46  01D8               	clrf	??___flmul+2
  5396  0E47  01D9               	clrf	??___flmul+3
  5397  0E48  0856               	movf	??___flmul,w
  5398  0E49  07DC               	addwf	___flmul@grs,f
  5399  0E4A  0857               	movf	??___flmul+1,w
  5400  0E4B  1103               	clrz
  5401  0E4C  1803               	skipnc
  5402  0E4D  3E01               	addlw	1
  5403  0E4E  1903               	skipnz
  5404  0E4F  2E51               	goto	u3271
  5405  0E50  07DD               	addwf	___flmul@grs+1,f
  5406  0E51                     u3271:
  5407  0E51  0858               	movf	??___flmul+2,w
  5408  0E52  1103               	clrz
  5409  0E53  1803               	skipnc
  5410  0E54  3E01               	addlw	1
  5411  0E55  1903               	skipnz
  5412  0E56  2E58               	goto	u3272
  5413  0E57  07DE               	addwf	___flmul@grs+2,f
  5414  0E58                     u3272:
  5415  0E58  0859               	movf	??___flmul+3,w
  5416  0E59  1103               	clrz
  5417  0E5A  1803               	skipnc
  5418  0E5B  3E01               	addlw	1
  5419  0E5C  1903               	skipnz
  5420  0E5D  2E5F               	goto	u3273
  5421  0E5E  07DF               	addwf	___flmul@grs+3,f
  5422  0E5F                     u3273:
  5423  0E5F                     l2646:
  5424  0E5F  084F               	movf	___flmul@b+1,w
  5425  0E60  00D6               	movwf	??___flmul
  5426  0E61  0856               	movf	??___flmul,w
  5427  0E62  00F0               	movwf	__Umul8_16@multiplicand
  5428  0E63  0854               	movf	___flmul@a+2,w
  5429  0E64  160A  118A  24BF  120A  158A  	fcall	__Umul8_16
  5430  0E69  0871               	movf	?__Umul8_16+1,w
  5431  0E6A  1283               	bcf	3,5	;RP0=0, select bank0
  5432  0E6B  1303               	bcf	3,6	;RP1=0, select bank0
  5433  0E6C  00E7               	movwf	___flmul@temp+1
  5434  0E6D  0870               	movf	?__Umul8_16,w
  5435  0E6E  00E6               	movwf	___flmul@temp
  5436  0E6F  0866               	movf	___flmul@temp,w
  5437  0E70  00D6               	movwf	??___flmul
  5438  0E71  0867               	movf	___flmul@temp+1,w
  5439  0E72  00D7               	movwf	??___flmul+1
  5440  0E73  01D8               	clrf	??___flmul+2
  5441  0E74  01D9               	clrf	??___flmul+3
  5442  0E75  0856               	movf	??___flmul,w
  5443  0E76  07E2               	addwf	___flmul@prod,f
  5444  0E77  0857               	movf	??___flmul+1,w
  5445  0E78  1103               	clrz
  5446  0E79  1803               	skipnc
  5447  0E7A  3E01               	addlw	1
  5448  0E7B  1903               	skipnz
  5449  0E7C  2E7E               	goto	u3281
  5450  0E7D  07E3               	addwf	___flmul@prod+1,f
  5451  0E7E                     u3281:
  5452  0E7E  0858               	movf	??___flmul+2,w
  5453  0E7F  1103               	clrz
  5454  0E80  1803               	skipnc
  5455  0E81  3E01               	addlw	1
  5456  0E82  1903               	skipnz
  5457  0E83  2E85               	goto	u3282
  5458  0E84  07E4               	addwf	___flmul@prod+2,f
  5459  0E85                     u3282:
  5460  0E85  0859               	movf	??___flmul+3,w
  5461  0E86  1103               	clrz
  5462  0E87  1803               	skipnc
  5463  0E88  3E01               	addlw	1
  5464  0E89  1903               	skipnz
  5465  0E8A  2E8C               	goto	u3283
  5466  0E8B  07E5               	addwf	___flmul@prod+3,f
  5467  0E8C                     u3283:
  5468  0E8C                     l2648:
  5469  0E8C  0850               	movf	___flmul@b+2,w
  5470  0E8D  00D6               	movwf	??___flmul
  5471  0E8E  0856               	movf	??___flmul,w
  5472  0E8F  00F0               	movwf	__Umul8_16@multiplicand
  5473  0E90  0853               	movf	___flmul@a+1,w
  5474  0E91  160A  118A  24BF  120A  158A  	fcall	__Umul8_16
  5475  0E96  0871               	movf	?__Umul8_16+1,w
  5476  0E97  1283               	bcf	3,5	;RP0=0, select bank0
  5477  0E98  1303               	bcf	3,6	;RP1=0, select bank0
  5478  0E99  00E7               	movwf	___flmul@temp+1
  5479  0E9A  0870               	movf	?__Umul8_16,w
  5480  0E9B  00E6               	movwf	___flmul@temp
  5481  0E9C                     l2650:
  5482  0E9C  0866               	movf	___flmul@temp,w
  5483  0E9D  00D6               	movwf	??___flmul
  5484  0E9E  0867               	movf	___flmul@temp+1,w
  5485  0E9F  00D7               	movwf	??___flmul+1
  5486  0EA0  01D8               	clrf	??___flmul+2
  5487  0EA1  01D9               	clrf	??___flmul+3
  5488  0EA2  0856               	movf	??___flmul,w
  5489  0EA3  07E2               	addwf	___flmul@prod,f
  5490  0EA4  0857               	movf	??___flmul+1,w
  5491  0EA5  1103               	clrz
  5492  0EA6  1803               	skipnc
  5493  0EA7  3E01               	addlw	1
  5494  0EA8  1903               	skipnz
  5495  0EA9  2EAB               	goto	u3291
  5496  0EAA  07E3               	addwf	___flmul@prod+1,f
  5497  0EAB                     u3291:
  5498  0EAB  0858               	movf	??___flmul+2,w
  5499  0EAC  1103               	clrz
  5500  0EAD  1803               	skipnc
  5501  0EAE  3E01               	addlw	1
  5502  0EAF  1903               	skipnz
  5503  0EB0  2EB2               	goto	u3292
  5504  0EB1  07E4               	addwf	___flmul@prod+2,f
  5505  0EB2                     u3292:
  5506  0EB2  0859               	movf	??___flmul+3,w
  5507  0EB3  1103               	clrz
  5508  0EB4  1803               	skipnc
  5509  0EB5  3E01               	addlw	1
  5510  0EB6  1903               	skipnz
  5511  0EB7  2EB9               	goto	u3293
  5512  0EB8  07E5               	addwf	___flmul@prod+3,f
  5513  0EB9                     u3293:
  5514  0EB9  0850               	movf	___flmul@b+2,w
  5515  0EBA  00D6               	movwf	??___flmul
  5516  0EBB  0856               	movf	??___flmul,w
  5517  0EBC  00F0               	movwf	__Umul8_16@multiplicand
  5518  0EBD  0854               	movf	___flmul@a+2,w
  5519  0EBE  160A  118A  24BF  120A  158A  	fcall	__Umul8_16
  5520  0EC3  0871               	movf	?__Umul8_16+1,w
  5521  0EC4  1283               	bcf	3,5	;RP0=0, select bank0
  5522  0EC5  1303               	bcf	3,6	;RP1=0, select bank0
  5523  0EC6  00E7               	movwf	___flmul@temp+1
  5524  0EC7  0870               	movf	?__Umul8_16,w
  5525  0EC8  00E6               	movwf	___flmul@temp
  5526  0EC9                     l2652:
  5527  0EC9  0866               	movf	___flmul@temp,w
  5528  0ECA  00D6               	movwf	??___flmul
  5529  0ECB  0867               	movf	___flmul@temp+1,w
  5530  0ECC  00D7               	movwf	??___flmul+1
  5531  0ECD  01D8               	clrf	??___flmul+2
  5532  0ECE  01D9               	clrf	??___flmul+3
  5533  0ECF  3008               	movlw	8
  5534  0ED0                     u3305:
  5535  0ED0  1003               	clrc
  5536  0ED1  0DD6               	rlf	??___flmul,f
  5537  0ED2  0DD7               	rlf	??___flmul+1,f
  5538  0ED3  0DD8               	rlf	??___flmul+2,f
  5539  0ED4  0DD9               	rlf	??___flmul+3,f
  5540  0ED5                     u3300:
  5541  0ED5  3EFF               	addlw	-1
  5542  0ED6  1D03               	skipz
  5543  0ED7  2ED0               	goto	u3305
  5544  0ED8  0856               	movf	??___flmul,w
  5545  0ED9  07E2               	addwf	___flmul@prod,f
  5546  0EDA  0857               	movf	??___flmul+1,w
  5547  0EDB  1103               	clrz
  5548  0EDC  1803               	skipnc
  5549  0EDD  3E01               	addlw	1
  5550  0EDE  1903               	skipnz
  5551  0EDF  2EE1               	goto	u3311
  5552  0EE0  07E3               	addwf	___flmul@prod+1,f
  5553  0EE1                     u3311:
  5554  0EE1  0858               	movf	??___flmul+2,w
  5555  0EE2  1103               	clrz
  5556  0EE3  1803               	skipnc
  5557  0EE4  3E01               	addlw	1
  5558  0EE5  1903               	skipnz
  5559  0EE6  2EE8               	goto	u3312
  5560  0EE7  07E4               	addwf	___flmul@prod+2,f
  5561  0EE8                     u3312:
  5562  0EE8  0859               	movf	??___flmul+3,w
  5563  0EE9  1103               	clrz
  5564  0EEA  1803               	skipnc
  5565  0EEB  3E01               	addlw	1
  5566  0EEC  1903               	skipnz
  5567  0EED  2EEF               	goto	u3313
  5568  0EEE  07E5               	addwf	___flmul@prod+3,f
  5569  0EEF                     u3313:
  5570  0EEF                     l2654:
  5571  0EEF  085C               	movf	___flmul@grs,w
  5572  0EF0  00D6               	movwf	??___flmul
  5573  0EF1  085D               	movf	___flmul@grs+1,w
  5574  0EF2  00D7               	movwf	??___flmul+1
  5575  0EF3  085E               	movf	___flmul@grs+2,w
  5576  0EF4  00D8               	movwf	??___flmul+2
  5577  0EF5  085F               	movf	___flmul@grs+3,w
  5578  0EF6  00D9               	movwf	??___flmul+3
  5579  0EF7  3018               	movlw	24
  5580  0EF8                     u3325:
  5581  0EF8  1003               	clrc
  5582  0EF9  0CD9               	rrf	??___flmul+3,f
  5583  0EFA  0CD8               	rrf	??___flmul+2,f
  5584  0EFB  0CD7               	rrf	??___flmul+1,f
  5585  0EFC  0CD6               	rrf	??___flmul,f
  5586  0EFD                     u3320:
  5587  0EFD  3EFF               	addlw	-1
  5588  0EFE  1D03               	skipz
  5589  0EFF  2EF8               	goto	u3325
  5590  0F00  0856               	movf	??___flmul,w
  5591  0F01  07E2               	addwf	___flmul@prod,f
  5592  0F02  0857               	movf	??___flmul+1,w
  5593  0F03  1103               	clrz
  5594  0F04  1803               	skipnc
  5595  0F05  3E01               	addlw	1
  5596  0F06  1903               	skipnz
  5597  0F07  2F09               	goto	u3331
  5598  0F08  07E3               	addwf	___flmul@prod+1,f
  5599  0F09                     u3331:
  5600  0F09  0858               	movf	??___flmul+2,w
  5601  0F0A  1103               	clrz
  5602  0F0B  1803               	skipnc
  5603  0F0C  3E01               	addlw	1
  5604  0F0D  1903               	skipnz
  5605  0F0E  2F10               	goto	u3332
  5606  0F0F  07E4               	addwf	___flmul@prod+2,f
  5607  0F10                     u3332:
  5608  0F10  0859               	movf	??___flmul+3,w
  5609  0F11  1103               	clrz
  5610  0F12  1803               	skipnc
  5611  0F13  3E01               	addlw	1
  5612  0F14  1903               	skipnz
  5613  0F15  2F17               	goto	u3333
  5614  0F16  07E5               	addwf	___flmul@prod+3,f
  5615  0F17                     u3333:
  5616  0F17                     l2656:
  5617  0F17  3008               	movlw	8
  5618  0F18  00D6               	movwf	??___flmul
  5619  0F19                     u3345:
  5620  0F19  1003               	clrc
  5621  0F1A  0DDC               	rlf	___flmul@grs,f
  5622  0F1B  0DDD               	rlf	___flmul@grs+1,f
  5623  0F1C  0DDE               	rlf	___flmul@grs+2,f
  5624  0F1D  0DDF               	rlf	___flmul@grs+3,f
  5625  0F1E  0BD6               	decfsz	??___flmul,f
  5626  0F1F  2F19               	goto	u3345
  5627  0F20                     l2658:
  5628  0F20  0861               	movf	___flmul@bexp,w
  5629  0F21  0760               	addwf	___flmul@aexp,w
  5630  0F22  00D6               	movwf	??___flmul
  5631  0F23  01D7               	clrf	??___flmul+1
  5632  0F24  0DD7               	rlf	??___flmul+1,f
  5633  0F25  0856               	movf	??___flmul,w
  5634  0F26  3E82               	addlw	130
  5635  0F27  00E6               	movwf	___flmul@temp
  5636  0F28  0857               	movf	??___flmul+1,w
  5637  0F29  1803               	skipnc
  5638  0F2A  3E01               	addlw	1
  5639  0F2B  3EFF               	addlw	255
  5640  0F2C  00E7               	movwf	___flmul@temp+1
  5641  0F2D  2F4B               	goto	l2670
  5642  0F2E                     l2660:
  5643  0F2E  3001               	movlw	1
  5644  0F2F  00D6               	movwf	??___flmul
  5645  0F30                     u3355:
  5646  0F30  1003               	clrc
  5647  0F31  0DE2               	rlf	___flmul@prod,f
  5648  0F32  0DE3               	rlf	___flmul@prod+1,f
  5649  0F33  0DE4               	rlf	___flmul@prod+2,f
  5650  0F34  0DE5               	rlf	___flmul@prod+3,f
  5651  0F35  0BD6               	decfsz	??___flmul,f
  5652  0F36  2F30               	goto	u3355
  5653  0F37                     l2662:
  5654  0F37  1FDF               	btfss	___flmul@grs+3,7
  5655  0F38  2F3A               	goto	u3361
  5656  0F39  2F3B               	goto	u3360
  5657  0F3A                     u3361:
  5658  0F3A  2F3C               	goto	l2666
  5659  0F3B                     u3360:
  5660  0F3B                     l2664:
  5661  0F3B  1462               	bsf	___flmul@prod,0
  5662  0F3C                     l2666:
  5663  0F3C  3001               	movlw	1
  5664  0F3D  00D6               	movwf	??___flmul
  5665  0F3E                     u3375:
  5666  0F3E  1003               	clrc
  5667  0F3F  0DDC               	rlf	___flmul@grs,f
  5668  0F40  0DDD               	rlf	___flmul@grs+1,f
  5669  0F41  0DDE               	rlf	___flmul@grs+2,f
  5670  0F42  0DDF               	rlf	___flmul@grs+3,f
  5671  0F43  0BD6               	decfsz	??___flmul,f
  5672  0F44  2F3E               	goto	u3375
  5673  0F45                     l2668:
  5674  0F45  30FF               	movlw	255
  5675  0F46  07E6               	addwf	___flmul@temp,f
  5676  0F47  1803               	skipnc
  5677  0F48  0AE7               	incf	___flmul@temp+1,f
  5678  0F49  30FF               	movlw	255
  5679  0F4A  07E7               	addwf	___flmul@temp+1,f
  5680  0F4B                     l2670:
  5681  0F4B  1FE4               	btfss	___flmul@prod+2,7
  5682  0F4C  2F4E               	goto	u3381
  5683  0F4D  2F4F               	goto	u3380
  5684  0F4E                     u3381:
  5685  0F4E  2F2E               	goto	l2660
  5686  0F4F                     u3380:
  5687  0F4F                     l2672:
  5688  0F4F  01E0               	clrf	___flmul@aexp
  5689  0F50                     l2674:
  5690  0F50  1FDF               	btfss	___flmul@grs+3,7
  5691  0F51  2F53               	goto	u3391
  5692  0F52  2F54               	goto	u3390
  5693  0F53                     u3391:
  5694  0F53  2F70               	goto	l2682
  5695  0F54                     u3390:
  5696  0F54                     l2676:
  5697  0F54  30FF               	movlw	255
  5698  0F55  055C               	andwf	___flmul@grs,w
  5699  0F56  00D6               	movwf	??___flmul
  5700  0F57  30FF               	movlw	255
  5701  0F58  055D               	andwf	___flmul@grs+1,w
  5702  0F59  00D7               	movwf	??___flmul+1
  5703  0F5A  30FF               	movlw	255
  5704  0F5B  055E               	andwf	___flmul@grs+2,w
  5705  0F5C  00D8               	movwf	??___flmul+2
  5706  0F5D  307F               	movlw	127
  5707  0F5E  055F               	andwf	___flmul@grs+3,w
  5708  0F5F  00D9               	movwf	??___flmul+3
  5709  0F60  0859               	movf	??___flmul+3,w
  5710  0F61  0458               	iorwf	??___flmul+2,w
  5711  0F62  0457               	iorwf	??___flmul+1,w
  5712  0F63  0456               	iorwf	??___flmul,w
  5713  0F64  1903               	skipnz
  5714  0F65  2F67               	goto	u3401
  5715  0F66  2F68               	goto	u3400
  5716  0F67                     u3401:
  5717  0F67  2F6B               	goto	l813
  5718  0F68                     u3400:
  5719  0F68                     l2678:
  5720  0F68  01E0               	clrf	___flmul@aexp
  5721  0F69  0AE0               	incf	___flmul@aexp,f
  5722  0F6A  2F70               	goto	l2682
  5723  0F6B                     l813:
  5724  0F6B  1C62               	btfss	___flmul@prod,0
  5725  0F6C  2F6E               	goto	u3411
  5726  0F6D  2F6F               	goto	u3410
  5727  0F6E                     u3411:
  5728  0F6E  2F70               	goto	l2682
  5729  0F6F                     u3410:
  5730  0F6F  2F68               	goto	l2678
  5731  0F70                     l2682:
  5732  0F70  0860               	movf	___flmul@aexp,w
  5733  0F71  1903               	btfsc	3,2
  5734  0F72  2F74               	goto	u3421
  5735  0F73  2F75               	goto	u3420
  5736  0F74                     u3421:
  5737  0F74  2FA6               	goto	l2692
  5738  0F75                     u3420:
  5739  0F75                     l2684:
  5740  0F75  3001               	movlw	1
  5741  0F76  07E2               	addwf	___flmul@prod,f
  5742  0F77  3000               	movlw	0
  5743  0F78  1803               	skipnc
  5744  0F79  3001               	movlw	1
  5745  0F7A  07E3               	addwf	___flmul@prod+1,f
  5746  0F7B  3000               	movlw	0
  5747  0F7C  1803               	skipnc
  5748  0F7D  3001               	movlw	1
  5749  0F7E  07E4               	addwf	___flmul@prod+2,f
  5750  0F7F  3000               	movlw	0
  5751  0F80  1803               	skipnc
  5752  0F81  3001               	movlw	1
  5753  0F82  07E5               	addwf	___flmul@prod+3,f
  5754  0F83                     l2686:
  5755  0F83  1C65               	btfss	___flmul@prod+3,0
  5756  0F84  2F86               	goto	u3431
  5757  0F85  2F87               	goto	u3430
  5758  0F86                     u3431:
  5759  0F86  2FA6               	goto	l2692
  5760  0F87                     u3430:
  5761  0F87                     l2688:
  5762  0F87  0862               	movf	___flmul@prod,w
  5763  0F88  00D6               	movwf	??___flmul
  5764  0F89  0863               	movf	___flmul@prod+1,w
  5765  0F8A  00D7               	movwf	??___flmul+1
  5766  0F8B  0864               	movf	___flmul@prod+2,w
  5767  0F8C  00D8               	movwf	??___flmul+2
  5768  0F8D  0865               	movf	___flmul@prod+3,w
  5769  0F8E  00D9               	movwf	??___flmul+3
  5770  0F8F  3001               	movlw	1
  5771  0F90  00DA               	movwf	??___flmul+4
  5772  0F91                     u3445:
  5773  0F91  0D59               	rlf	??___flmul+3,w
  5774  0F92  0CD9               	rrf	??___flmul+3,f
  5775  0F93  0CD8               	rrf	??___flmul+2,f
  5776  0F94  0CD7               	rrf	??___flmul+1,f
  5777  0F95  0CD6               	rrf	??___flmul,f
  5778  0F96                     u3440:
  5779  0F96  0BDA               	decfsz	??___flmul+4,f
  5780  0F97  2F91               	goto	u3445
  5781  0F98  0859               	movf	??___flmul+3,w
  5782  0F99  00E5               	movwf	___flmul@prod+3
  5783  0F9A  0858               	movf	??___flmul+2,w
  5784  0F9B  00E4               	movwf	___flmul@prod+2
  5785  0F9C  0857               	movf	??___flmul+1,w
  5786  0F9D  00E3               	movwf	___flmul@prod+1
  5787  0F9E  0856               	movf	??___flmul,w
  5788  0F9F  00E2               	movwf	___flmul@prod
  5789  0FA0                     l2690:
  5790  0FA0  3001               	movlw	1
  5791  0FA1  07E6               	addwf	___flmul@temp,f
  5792  0FA2  1803               	skipnc
  5793  0FA3  0AE7               	incf	___flmul@temp+1,f
  5794  0FA4  3000               	movlw	0
  5795  0FA5  07E7               	addwf	___flmul@temp+1,f
  5796  0FA6                     l2692:
  5797  0FA6  0867               	movf	___flmul@temp+1,w
  5798  0FA7  3A80               	xorlw	128
  5799  0FA8  00FF               	movwf	btemp+1
  5800  0FA9  3080               	movlw	128
  5801  0FAA  027F               	subwf	btemp+1,w
  5802  0FAB  1D03               	skipz
  5803  0FAC  2FAF               	goto	u3455
  5804  0FAD  30FF               	movlw	255
  5805  0FAE  0266               	subwf	___flmul@temp,w
  5806  0FAF                     u3455:
  5807  0FAF  1C03               	skipc
  5808  0FB0  2FB2               	goto	u3451
  5809  0FB1  2FB3               	goto	u3450
  5810  0FB2                     u3451:
  5811  0FB2  2FBE               	goto	l2696
  5812  0FB3                     u3450:
  5813  0FB3                     l2694:
  5814  0FB3  307F               	movlw	127
  5815  0FB4  1283               	bcf	3,5	;RP0=0, select bank0
  5816  0FB5  1303               	bcf	3,6	;RP1=0, select bank0
  5817  0FB6  00E5               	movwf	___flmul@prod+3
  5818  0FB7  3080               	movlw	128
  5819  0FB8  00E4               	movwf	___flmul@prod+2
  5820  0FB9  3000               	movlw	0
  5821  0FBA  00E3               	movwf	___flmul@prod+1
  5822  0FBB  3000               	movlw	0
  5823  0FBC  00E2               	movwf	___flmul@prod
  5824  0FBD  2FF3               	goto	l819
  5825  0FBE                     l2696:
  5826  0FBE  1283               	bcf	3,5	;RP0=0, select bank0
  5827  0FBF  1303               	bcf	3,6	;RP1=0, select bank0
  5828  0FC0  0867               	movf	___flmul@temp+1,w
  5829  0FC1  3A80               	xorlw	128
  5830  0FC2  00FF               	movwf	btemp+1
  5831  0FC3  3080               	movlw	128
  5832  0FC4  027F               	subwf	btemp+1,w
  5833  0FC5  1D03               	skipz
  5834  0FC6  2FC9               	goto	u3465
  5835  0FC7  3001               	movlw	1
  5836  0FC8  0266               	subwf	___flmul@temp,w
  5837  0FC9                     u3465:
  5838  0FC9  1803               	skipnc
  5839  0FCA  2FCC               	goto	u3461
  5840  0FCB  2FCD               	goto	u3460
  5841  0FCC                     u3461:
  5842  0FCC  2FD9               	goto	l2702
  5843  0FCD                     u3460:
  5844  0FCD                     l2698:
  5845  0FCD  3000               	movlw	0
  5846  0FCE  1283               	bcf	3,5	;RP0=0, select bank0
  5847  0FCF  1303               	bcf	3,6	;RP1=0, select bank0
  5848  0FD0  00E5               	movwf	___flmul@prod+3
  5849  0FD1  3000               	movlw	0
  5850  0FD2  00E4               	movwf	___flmul@prod+2
  5851  0FD3  3000               	movlw	0
  5852  0FD4  00E3               	movwf	___flmul@prod+1
  5853  0FD5  3000               	movlw	0
  5854  0FD6  00E2               	movwf	___flmul@prod
  5855  0FD7                     l2700:
  5856  0FD7  01DB               	clrf	___flmul@sign
  5857  0FD8  2FF3               	goto	l819
  5858  0FD9                     l2702:
  5859  0FD9  1283               	bcf	3,5	;RP0=0, select bank0
  5860  0FDA  1303               	bcf	3,6	;RP1=0, select bank0
  5861  0FDB  0866               	movf	___flmul@temp,w
  5862  0FDC  00D6               	movwf	??___flmul
  5863  0FDD  0856               	movf	??___flmul,w
  5864  0FDE  00E1               	movwf	___flmul@bexp
  5865  0FDF  30FF               	movlw	255
  5866  0FE0  05E2               	andwf	___flmul@prod,f
  5867  0FE1  30FF               	movlw	255
  5868  0FE2  05E3               	andwf	___flmul@prod+1,f
  5869  0FE3  307F               	movlw	127
  5870  0FE4  05E4               	andwf	___flmul@prod+2,f
  5871  0FE5  3000               	movlw	0
  5872  0FE6  05E5               	andwf	___flmul@prod+3,f
  5873  0FE7                     l2704:
  5874  0FE7  1C61               	btfss	___flmul@bexp,0
  5875  0FE8  2FEA               	goto	u3471
  5876  0FE9  2FEB               	goto	u3470
  5877  0FEA                     u3471:
  5878  0FEA  2FEC               	goto	l2708
  5879  0FEB                     u3470:
  5880  0FEB                     l2706:
  5881  0FEB  17E4               	bsf	___flmul@prod+2,7
  5882  0FEC                     l2708:
  5883  0FEC  0861               	movf	___flmul@bexp,w
  5884  0FED  00D6               	movwf	??___flmul
  5885  0FEE  1003               	clrc
  5886  0FEF  0C56               	rrf	??___flmul,w
  5887  0FF0  00D7               	movwf	??___flmul+1
  5888  0FF1  0857               	movf	??___flmul+1,w
  5889  0FF2  00E5               	movwf	___flmul@prod+3
  5890  0FF3                     l819:
  5891  0FF3  085B               	movf	___flmul@sign,w
  5892  0FF4  00D6               	movwf	??___flmul
  5893  0FF5  0856               	movf	??___flmul,w
  5894  0FF6  04E5               	iorwf	___flmul@prod+3,f
  5895  0FF7                     l2710:
  5896  0FF7  0865               	movf	___flmul@prod+3,w
  5897  0FF8  00D1               	movwf	?___flmul+3
  5898  0FF9  0864               	movf	___flmul@prod+2,w
  5899  0FFA  00D0               	movwf	?___flmul+2
  5900  0FFB  0863               	movf	___flmul@prod+1,w
  5901  0FFC  00CF               	movwf	?___flmul+1
  5902  0FFD  0862               	movf	___flmul@prod,w
  5903  0FFE  00CE               	movwf	?___flmul
  5904  0FFF                     l807:
  5905  0FFF  0008               	return
  5906  1000                     __end_of___flmul:
  5907                           
  5908                           	psect	text11
  5909  14BF                     __ptext11:	
  5910 ;; *************** function __Umul8_16 *****************
  5911 ;; Defined at:
  5912 ;;		line 4 in file "C:\Program Files\Microchip\xc8\v2.32\pic\sources\c90\common\Umul8_16.c"
  5913 ;; Parameters:    Size  Location     Type
  5914 ;;  multiplier      1    wreg     unsigned char 
  5915 ;;  multiplicand    1    0[COMMON] unsigned char 
  5916 ;; Auto vars:     Size  Location     Type
  5917 ;;  multiplier      1    8[COMMON] unsigned char 
  5918 ;;  word_mpld       2    6[COMMON] unsigned int 
  5919 ;;  product         2    4[COMMON] unsigned int 
  5920 ;; Return value:  Size  Location     Type
  5921 ;;                  2    0[COMMON] unsigned int 
  5922 ;; Registers used:
  5923 ;;		wreg, status,2, status,0
  5924 ;; Tracked objects:
  5925 ;;		On entry : 0/0
  5926 ;;		On exit  : 0/0
  5927 ;;		Unchanged: 0/0
  5928 ;; Data sizes:     COMMON   BANK0   BANK1   BANK3   BANK2
  5929 ;;      Params:         2       0       0       0       0
  5930 ;;      Locals:         5       0       0       0       0
  5931 ;;      Temps:          2       0       0       0       0
  5932 ;;      Totals:         9       0       0       0       0
  5933 ;;Total ram usage:        9 bytes
  5934 ;; Hardware stack levels used: 1
  5935 ;; This function calls:
  5936 ;;		Nothing
  5937 ;; This function is called by:
  5938 ;;		___flmul
  5939 ;; This function uses a non-reentrant model
  5940 ;;
  5941                           
  5942                           
  5943                           ;psect for function __Umul8_16
  5944  14BF                     __Umul8_16:
  5945                           
  5946                           ;incstack = 0
  5947                           ; Regs used in __Umul8_16: [wreg+status,2+status,0]
  5948                           ;__Umul8_16@multiplier stored from wreg
  5949  14BF  00F8               	movwf	__Umul8_16@multiplier
  5950  14C0                     l2262:
  5951  14C0  01F4               	clrf	__Umul8_16@product
  5952  14C1  01F5               	clrf	__Umul8_16@product+1
  5953  14C2                     l2264:
  5954  14C2  0870               	movf	__Umul8_16@multiplicand,w
  5955  14C3  00F2               	movwf	??__Umul8_16
  5956  14C4  01F3               	clrf	??__Umul8_16+1
  5957  14C5  0872               	movf	??__Umul8_16,w
  5958  14C6  00F6               	movwf	__Umul8_16@word_mpld
  5959  14C7  0873               	movf	??__Umul8_16+1,w
  5960  14C8  00F7               	movwf	__Umul8_16@word_mpld+1
  5961  14C9                     l2266:
  5962  14C9  1C78               	btfss	__Umul8_16@multiplier,0
  5963  14CA  2CCC               	goto	u2451
  5964  14CB  2CCD               	goto	u2450
  5965  14CC                     u2451:
  5966  14CC  2CD3               	goto	l826
  5967  14CD                     u2450:
  5968  14CD                     l2268:
  5969  14CD  0876               	movf	__Umul8_16@word_mpld,w
  5970  14CE  07F4               	addwf	__Umul8_16@product,f
  5971  14CF  1803               	skipnc
  5972  14D0  0AF5               	incf	__Umul8_16@product+1,f
  5973  14D1  0877               	movf	__Umul8_16@word_mpld+1,w
  5974  14D2  07F5               	addwf	__Umul8_16@product+1,f
  5975  14D3                     l826:
  5976  14D3  3001               	movlw	1
  5977  14D4                     u2465:
  5978  14D4  1003               	clrc
  5979  14D5  0DF6               	rlf	__Umul8_16@word_mpld,f
  5980  14D6  0DF7               	rlf	__Umul8_16@word_mpld+1,f
  5981  14D7  3EFF               	addlw	-1
  5982  14D8  1D03               	skipz
  5983  14D9  2CD4               	goto	u2465
  5984  14DA  1003               	clrc
  5985  14DB  0CF8               	rrf	__Umul8_16@multiplier,f
  5986  14DC                     l2270:
  5987  14DC  0878               	movf	__Umul8_16@multiplier,w
  5988  14DD  1D03               	btfss	3,2
  5989  14DE  2CE0               	goto	u2471
  5990  14DF  2CE1               	goto	u2470
  5991  14E0                     u2471:
  5992  14E0  2CC9               	goto	l2266
  5993  14E1                     u2470:
  5994  14E1                     l2272:
  5995  14E1  0875               	movf	__Umul8_16@product+1,w
  5996  14E2  00F1               	movwf	?__Umul8_16+1
  5997  14E3  0874               	movf	__Umul8_16@product,w
  5998  14E4  00F0               	movwf	?__Umul8_16
  5999  14E5                     l828:
  6000  14E5  0008               	return
  6001  14E6                     __end_of__Umul8_16:
  6002                           
  6003                           	psect	text12
  6004  16A2                     __ptext12:	
  6005 ;; *************** function ___flge *****************
  6006 ;; Defined at:
  6007 ;;		line 4 in file "C:\Program Files\Microchip\xc8\v2.32\pic\sources\c90\common\flge.c"
  6008 ;; Parameters:    Size  Location     Type
  6009 ;;  ff1             4    0[COMMON] unsigned int 
  6010 ;;  ff2             4    4[COMMON] unsigned int 
  6011 ;; Auto vars:     Size  Location     Type
  6012 ;;		None
  6013 ;; Return value:  Size  Location     Type
  6014 ;;		None               void
  6015 ;; Registers used:
  6016 ;;		wreg, status,2, status,0
  6017 ;; Tracked objects:
  6018 ;;		On entry : 0/0
  6019 ;;		On exit  : 0/0
  6020 ;;		Unchanged: 0/0
  6021 ;; Data sizes:     COMMON   BANK0   BANK1   BANK3   BANK2
  6022 ;;      Params:         8       0       0       0       0
  6023 ;;      Locals:         0       0       0       0       0
  6024 ;;      Temps:          4       0       0       0       0
  6025 ;;      Totals:        12       0       0       0       0
  6026 ;;Total ram usage:       12 bytes
  6027 ;; Hardware stack levels used: 1
  6028 ;; This function calls:
  6029 ;;		Nothing
  6030 ;; This function is called by:
  6031 ;;		_convert
  6032 ;; This function uses a non-reentrant model
  6033 ;;
  6034                           
  6035                           
  6036                           ;psect for function ___flge
  6037  16A2                     ___flge:
  6038  16A2                     l2370:	
  6039                           ;incstack = 0
  6040                           ; Regs used in ___flge: [wreg+status,2+status,0]
  6041                           
  6042  16A2  3000               	movlw	0
  6043  16A3  0570               	andwf	___flge@ff1,w
  6044  16A4  00F8               	movwf	??___flge
  6045  16A5  3000               	movlw	0
  6046  16A6  0571               	andwf	___flge@ff1+1,w
  6047  16A7  00F9               	movwf	??___flge+1
  6048  16A8  3080               	movlw	128
  6049  16A9  0572               	andwf	___flge@ff1+2,w
  6050  16AA  00FA               	movwf	??___flge+2
  6051  16AB  307F               	movlw	127
  6052  16AC  0573               	andwf	___flge@ff1+3,w
  6053  16AD  00FB               	movwf	??___flge+3
  6054  16AE  087B               	movf	??___flge+3,w
  6055  16AF  047A               	iorwf	??___flge+2,w
  6056  16B0  0479               	iorwf	??___flge+1,w
  6057  16B1  0478               	iorwf	??___flge,w
  6058  16B2  1D03               	skipz
  6059  16B3  2EB5               	goto	u2651
  6060  16B4  2EB6               	goto	u2650
  6061  16B5                     u2651:
  6062  16B5  2EBE               	goto	l592
  6063  16B6                     u2650:
  6064  16B6                     l2372:
  6065  16B6  3000               	movlw	0
  6066  16B7  00F3               	movwf	___flge@ff1+3
  6067  16B8  3000               	movlw	0
  6068  16B9  00F2               	movwf	___flge@ff1+2
  6069  16BA  3000               	movlw	0
  6070  16BB  00F1               	movwf	___flge@ff1+1
  6071  16BC  3000               	movlw	0
  6072  16BD  00F0               	movwf	___flge@ff1
  6073  16BE                     l592:
  6074  16BE  3000               	movlw	0
  6075  16BF  0574               	andwf	___flge@ff2,w
  6076  16C0  00F8               	movwf	??___flge
  6077  16C1  3000               	movlw	0
  6078  16C2  0575               	andwf	___flge@ff2+1,w
  6079  16C3  00F9               	movwf	??___flge+1
  6080  16C4  3080               	movlw	128
  6081  16C5  0576               	andwf	___flge@ff2+2,w
  6082  16C6  00FA               	movwf	??___flge+2
  6083  16C7  307F               	movlw	127
  6084  16C8  0577               	andwf	___flge@ff2+3,w
  6085  16C9  00FB               	movwf	??___flge+3
  6086  16CA  087B               	movf	??___flge+3,w
  6087  16CB  047A               	iorwf	??___flge+2,w
  6088  16CC  0479               	iorwf	??___flge+1,w
  6089  16CD  0478               	iorwf	??___flge,w
  6090  16CE  1D03               	skipz
  6091  16CF  2ED1               	goto	u2661
  6092  16D0  2ED2               	goto	u2660
  6093  16D1                     u2661:
  6094  16D1  2EDA               	goto	l2376
  6095  16D2                     u2660:
  6096  16D2                     l2374:
  6097  16D2  3000               	movlw	0
  6098  16D3  00F7               	movwf	___flge@ff2+3
  6099  16D4  3000               	movlw	0
  6100  16D5  00F6               	movwf	___flge@ff2+2
  6101  16D6  3000               	movlw	0
  6102  16D7  00F5               	movwf	___flge@ff2+1
  6103  16D8  3000               	movlw	0
  6104  16D9  00F4               	movwf	___flge@ff2
  6105  16DA                     l2376:
  6106  16DA  1FF3               	btfss	___flge@ff1+3,7
  6107  16DB  2EDD               	goto	u2671
  6108  16DC  2EDE               	goto	u2670
  6109  16DD                     u2671:
  6110  16DD  2F02               	goto	l2380
  6111  16DE                     u2670:
  6112  16DE                     l2378:
  6113  16DE  3000               	movlw	0
  6114  16DF  00F8               	movwf	??___flge
  6115  16E0  3000               	movlw	0
  6116  16E1  00F9               	movwf	??___flge+1
  6117  16E2  3000               	movlw	0
  6118  16E3  00FA               	movwf	??___flge+2
  6119  16E4  3080               	movlw	128
  6120  16E5  00FB               	movwf	??___flge+3
  6121  16E6  0870               	movf	___flge@ff1,w
  6122  16E7  02F8               	subwf	??___flge,f
  6123  16E8  0871               	movf	___flge@ff1+1,w
  6124  16E9  1C03               	skipc
  6125  16EA  0F71               	incfsz	___flge@ff1+1,w
  6126  16EB  2EED               	goto	u2681
  6127  16EC  2EEE               	goto	u2682
  6128  16ED                     u2681:
  6129  16ED  02F9               	subwf	??___flge+1,f
  6130  16EE                     u2682:
  6131  16EE  0872               	movf	___flge@ff1+2,w
  6132  16EF  1C03               	skipc
  6133  16F0  0F72               	incfsz	___flge@ff1+2,w
  6134  16F1  2EF3               	goto	u2683
  6135  16F2  2EF4               	goto	u2684
  6136  16F3                     u2683:
  6137  16F3  02FA               	subwf	??___flge+2,f
  6138  16F4                     u2684:
  6139  16F4  0873               	movf	___flge@ff1+3,w
  6140  16F5  1C03               	skipc
  6141  16F6  0F73               	incfsz	___flge@ff1+3,w
  6142  16F7  2EF9               	goto	u2685
  6143  16F8  2EFA               	goto	u2686
  6144  16F9                     u2685:
  6145  16F9  02FB               	subwf	??___flge+3,f
  6146  16FA                     u2686:
  6147  16FA  087B               	movf	??___flge+3,w
  6148  16FB  00F3               	movwf	___flge@ff1+3
  6149  16FC  087A               	movf	??___flge+2,w
  6150  16FD  00F2               	movwf	___flge@ff1+2
  6151  16FE  0879               	movf	??___flge+1,w
  6152  16FF  00F1               	movwf	___flge@ff1+1
  6153  1700  0878               	movf	??___flge,w
  6154  1701  00F0               	movwf	___flge@ff1
  6155  1702                     l2380:
  6156  1702  1FF7               	btfss	___flge@ff2+3,7
  6157  1703  2F05               	goto	u2691
  6158  1704  2F06               	goto	u2690
  6159  1705                     u2691:
  6160  1705  2F2A               	goto	l595
  6161  1706                     u2690:
  6162  1706                     l2382:
  6163  1706  3000               	movlw	0
  6164  1707  00F8               	movwf	??___flge
  6165  1708  3000               	movlw	0
  6166  1709  00F9               	movwf	??___flge+1
  6167  170A  3000               	movlw	0
  6168  170B  00FA               	movwf	??___flge+2
  6169  170C  3080               	movlw	128
  6170  170D  00FB               	movwf	??___flge+3
  6171  170E  0874               	movf	___flge@ff2,w
  6172  170F  02F8               	subwf	??___flge,f
  6173  1710  0875               	movf	___flge@ff2+1,w
  6174  1711  1C03               	skipc
  6175  1712  0F75               	incfsz	___flge@ff2+1,w
  6176  1713  2F15               	goto	u2701
  6177  1714  2F16               	goto	u2702
  6178  1715                     u2701:
  6179  1715  02F9               	subwf	??___flge+1,f
  6180  1716                     u2702:
  6181  1716  0876               	movf	___flge@ff2+2,w
  6182  1717  1C03               	skipc
  6183  1718  0F76               	incfsz	___flge@ff2+2,w
  6184  1719  2F1B               	goto	u2703
  6185  171A  2F1C               	goto	u2704
  6186  171B                     u2703:
  6187  171B  02FA               	subwf	??___flge+2,f
  6188  171C                     u2704:
  6189  171C  0877               	movf	___flge@ff2+3,w
  6190  171D  1C03               	skipc
  6191  171E  0F77               	incfsz	___flge@ff2+3,w
  6192  171F  2F21               	goto	u2705
  6193  1720  2F22               	goto	u2706
  6194  1721                     u2705:
  6195  1721  02FB               	subwf	??___flge+3,f
  6196  1722                     u2706:
  6197  1722  087B               	movf	??___flge+3,w
  6198  1723  00F7               	movwf	___flge@ff2+3
  6199  1724  087A               	movf	??___flge+2,w
  6200  1725  00F6               	movwf	___flge@ff2+2
  6201  1726  0879               	movf	??___flge+1,w
  6202  1727  00F5               	movwf	___flge@ff2+1
  6203  1728  0878               	movf	??___flge,w
  6204  1729  00F4               	movwf	___flge@ff2
  6205  172A                     l595:
  6206  172A  3080               	movlw	128
  6207  172B  06F3               	xorwf	___flge@ff1+3,f
  6208  172C  3080               	movlw	128
  6209  172D  06F7               	xorwf	___flge@ff2+3,f
  6210  172E  0877               	movf	___flge@ff2+3,w
  6211  172F  0273               	subwf	___flge@ff1+3,w
  6212  1730  1D03               	skipz
  6213  1731  2F3C               	goto	u2715
  6214  1732  0876               	movf	___flge@ff2+2,w
  6215  1733  0272               	subwf	___flge@ff1+2,w
  6216  1734  1D03               	skipz
  6217  1735  2F3C               	goto	u2715
  6218  1736  0875               	movf	___flge@ff2+1,w
  6219  1737  0271               	subwf	___flge@ff1+1,w
  6220  1738  1D03               	skipz
  6221  1739  2F3C               	goto	u2715
  6222  173A  0874               	movf	___flge@ff2,w
  6223  173B  0270               	subwf	___flge@ff1,w
  6224  173C                     u2715:
  6225  173C  1803               	skipnc
  6226  173D  2F3F               	goto	u2711
  6227  173E  2F40               	goto	u2710
  6228  173F                     u2711:
  6229  173F  2F42               	goto	l2386
  6230  1740                     u2710:
  6231  1740                     l2384:
  6232  1740  1003               	clrc
  6233  1741  2F43               	goto	l596
  6234  1742                     l2386:
  6235  1742  1403               	setc
  6236  1743                     l596:
  6237  1743  0008               	return
  6238  1744                     __end_of___flge:
  6239                           
  6240                           	psect	text13
  6241  083A                     __ptext13:	
  6242 ;; *************** function ___fldiv *****************
  6243 ;; Defined at:
  6244 ;;		line 8 in file "C:\Program Files\Microchip\xc8\v2.32\pic\sources\c90\common\sprcdiv.c"
  6245 ;; Parameters:    Size  Location     Type
  6246 ;;  a               4   18[BANK0 ] unsigned int 
  6247 ;;  b               4   22[BANK0 ] unsigned int 
  6248 ;; Auto vars:     Size  Location     Type
  6249 ;;  grs             4   38[BANK0 ] unsigned long 
  6250 ;;  rem             4   31[BANK0 ] unsigned long 
  6251 ;;  new_exp         2   36[BANK0 ] int 
  6252 ;;  aexp            1   43[BANK0 ] unsigned char 
  6253 ;;  bexp            1   42[BANK0 ] unsigned char 
  6254 ;;  sign            1   35[BANK0 ] unsigned char 
  6255 ;; Return value:  Size  Location     Type
  6256 ;;                  4   18[BANK0 ] unsigned char 
  6257 ;; Registers used:
  6258 ;;		wreg, status,2, status,0, btemp+1
  6259 ;; Tracked objects:
  6260 ;;		On entry : 0/0
  6261 ;;		On exit  : 0/0
  6262 ;;		Unchanged: 0/0
  6263 ;; Data sizes:     COMMON   BANK0   BANK1   BANK3   BANK2
  6264 ;;      Params:         0       8       0       0       0
  6265 ;;      Locals:         0      13       0       0       0
  6266 ;;      Temps:          0       5       0       0       0
  6267 ;;      Totals:         0      26       0       0       0
  6268 ;;Total ram usage:       26 bytes
  6269 ;; Hardware stack levels used: 1
  6270 ;; This function calls:
  6271 ;;		Nothing
  6272 ;; This function is called by:
  6273 ;;		_main
  6274 ;;		_convert
  6275 ;; This function uses a non-reentrant model
  6276 ;;
  6277                           
  6278                           
  6279                           ;psect for function ___fldiv
  6280  083A                     ___fldiv:
  6281  083A                     l2432:	
  6282                           ;incstack = 0
  6283                           ; Regs used in ___fldiv: [wreg+status,2+status,0+btemp+1]
  6284                           
  6285  083A  1283               	bcf	3,5	;RP0=0, select bank0
  6286  083B  1303               	bcf	3,6	;RP1=0, select bank0
  6287  083C  0839               	movf	___fldiv@b+3,w
  6288  083D  3980               	andlw	128
  6289  083E  00BA               	movwf	??___fldiv
  6290  083F  083A               	movf	??___fldiv,w
  6291  0840  00C3               	movwf	___fldiv@sign
  6292  0841                     l2434:
  6293  0841  0839               	movf	___fldiv@b+3,w
  6294  0842  00BA               	movwf	??___fldiv
  6295  0843  073A               	addwf	??___fldiv,w
  6296  0844  00BB               	movwf	??___fldiv+1
  6297  0845  083B               	movf	??___fldiv+1,w
  6298  0846  00CA               	movwf	___fldiv@bexp
  6299  0847                     l2436:
  6300  0847  1FB8               	btfss	___fldiv@b+2,7
  6301  0848  284A               	goto	u2821
  6302  0849  284B               	goto	u2820
  6303  084A                     u2821:
  6304  084A  284C               	goto	l2440
  6305  084B                     u2820:
  6306  084B                     l2438:
  6307  084B  144A               	bsf	___fldiv@bexp,0
  6308  084C                     l2440:
  6309  084C  084A               	movf	___fldiv@bexp,w
  6310  084D  1903               	btfsc	3,2
  6311  084E  2850               	goto	u2831
  6312  084F  2851               	goto	u2830
  6313  0850                     u2831:
  6314  0850  2861               	goto	l2450
  6315  0851                     u2830:
  6316  0851                     l2442:
  6317  0851  0A4A               	incf	___fldiv@bexp,w
  6318  0852  1D03               	btfss	3,2
  6319  0853  2855               	goto	u2841
  6320  0854  2856               	goto	u2840
  6321  0855                     u2841:
  6322  0855  285E               	goto	l2446
  6323  0856                     u2840:
  6324  0856                     l2444:
  6325  0856  3000               	movlw	0
  6326  0857  00B9               	movwf	___fldiv@b+3
  6327  0858  3000               	movlw	0
  6328  0859  00B8               	movwf	___fldiv@b+2
  6329  085A  3000               	movlw	0
  6330  085B  00B7               	movwf	___fldiv@b+1
  6331  085C  3000               	movlw	0
  6332  085D  00B6               	movwf	___fldiv@b
  6333  085E                     l2446:
  6334  085E  17B8               	bsf	___fldiv@b+2,7
  6335  085F                     l2448:
  6336  085F  01B9               	clrf	___fldiv@b+3
  6337  0860  2869               	goto	l2452
  6338  0861                     l2450:
  6339  0861  3000               	movlw	0
  6340  0862  00B9               	movwf	___fldiv@b+3
  6341  0863  3000               	movlw	0
  6342  0864  00B8               	movwf	___fldiv@b+2
  6343  0865  3000               	movlw	0
  6344  0866  00B7               	movwf	___fldiv@b+1
  6345  0867  3000               	movlw	0
  6346  0868  00B6               	movwf	___fldiv@b
  6347  0869                     l2452:
  6348  0869  0835               	movf	___fldiv@a+3,w
  6349  086A  3980               	andlw	128
  6350  086B  00BA               	movwf	??___fldiv
  6351  086C  083A               	movf	??___fldiv,w
  6352  086D  06C3               	xorwf	___fldiv@sign,f
  6353  086E                     l2454:
  6354  086E  0835               	movf	___fldiv@a+3,w
  6355  086F  00BA               	movwf	??___fldiv
  6356  0870  073A               	addwf	??___fldiv,w
  6357  0871  00BB               	movwf	??___fldiv+1
  6358  0872  083B               	movf	??___fldiv+1,w
  6359  0873  00CB               	movwf	___fldiv@aexp
  6360  0874                     l2456:
  6361  0874  1FB4               	btfss	___fldiv@a+2,7
  6362  0875  2877               	goto	u2851
  6363  0876  2878               	goto	u2850
  6364  0877                     u2851:
  6365  0877  2879               	goto	l2460
  6366  0878                     u2850:
  6367  0878                     l2458:
  6368  0878  144B               	bsf	___fldiv@aexp,0
  6369  0879                     l2460:
  6370  0879  084B               	movf	___fldiv@aexp,w
  6371  087A  1903               	btfsc	3,2
  6372  087B  287D               	goto	u2861
  6373  087C  287E               	goto	u2860
  6374  087D                     u2861:
  6375  087D  288E               	goto	l2470
  6376  087E                     u2860:
  6377  087E                     l2462:
  6378  087E  0A4B               	incf	___fldiv@aexp,w
  6379  087F  1D03               	btfss	3,2
  6380  0880  2882               	goto	u2871
  6381  0881  2883               	goto	u2870
  6382  0882                     u2871:
  6383  0882  288B               	goto	l2466
  6384  0883                     u2870:
  6385  0883                     l2464:
  6386  0883  3000               	movlw	0
  6387  0884  00B5               	movwf	___fldiv@a+3
  6388  0885  3000               	movlw	0
  6389  0886  00B4               	movwf	___fldiv@a+2
  6390  0887  3000               	movlw	0
  6391  0888  00B3               	movwf	___fldiv@a+1
  6392  0889  3000               	movlw	0
  6393  088A  00B2               	movwf	___fldiv@a
  6394  088B                     l2466:
  6395  088B  17B4               	bsf	___fldiv@a+2,7
  6396  088C                     l2468:
  6397  088C  01B5               	clrf	___fldiv@a+3
  6398  088D  2896               	goto	l767
  6399  088E                     l2470:
  6400  088E  3000               	movlw	0
  6401  088F  00B5               	movwf	___fldiv@a+3
  6402  0890  3000               	movlw	0
  6403  0891  00B4               	movwf	___fldiv@a+2
  6404  0892  3000               	movlw	0
  6405  0893  00B3               	movwf	___fldiv@a+1
  6406  0894  3000               	movlw	0
  6407  0895  00B2               	movwf	___fldiv@a
  6408  0896                     l767:
  6409  0896  0835               	movf	___fldiv@a+3,w
  6410  0897  0434               	iorwf	___fldiv@a+2,w
  6411  0898  0433               	iorwf	___fldiv@a+1,w
  6412  0899  0432               	iorwf	___fldiv@a,w
  6413  089A  1D03               	skipz
  6414  089B  289D               	goto	u2881
  6415  089C  289E               	goto	u2880
  6416  089D                     u2881:
  6417  089D  28B7               	goto	l2480
  6418  089E                     u2880:
  6419  089E                     l2472:
  6420  089E  3000               	movlw	0
  6421  089F  00B9               	movwf	___fldiv@b+3
  6422  08A0  3000               	movlw	0
  6423  08A1  00B8               	movwf	___fldiv@b+2
  6424  08A2  3000               	movlw	0
  6425  08A3  00B7               	movwf	___fldiv@b+1
  6426  08A4  3000               	movlw	0
  6427  08A5  00B6               	movwf	___fldiv@b
  6428  08A6  3080               	movlw	128
  6429  08A7  04B8               	iorwf	___fldiv@b+2,f
  6430  08A8  307F               	movlw	127
  6431  08A9  04B9               	iorwf	___fldiv@b+3,f
  6432  08AA                     l2474:
  6433  08AA  0843               	movf	___fldiv@sign,w
  6434  08AB  00BA               	movwf	??___fldiv
  6435  08AC  083A               	movf	??___fldiv,w
  6436  08AD  04B9               	iorwf	___fldiv@b+3,f
  6437  08AE                     l2476:
  6438  08AE  0839               	movf	___fldiv@b+3,w
  6439  08AF  00B5               	movwf	?___fldiv+3
  6440  08B0  0838               	movf	___fldiv@b+2,w
  6441  08B1  00B4               	movwf	?___fldiv+2
  6442  08B2  0837               	movf	___fldiv@b+1,w
  6443  08B3  00B3               	movwf	?___fldiv+1
  6444  08B4  0836               	movf	___fldiv@b,w
  6445  08B5  00B2               	movwf	?___fldiv
  6446  08B6  2A16               	goto	l769
  6447  08B7                     l2480:
  6448  08B7  084A               	movf	___fldiv@bexp,w
  6449  08B8  1D03               	btfss	3,2
  6450  08B9  28BB               	goto	u2891
  6451  08BA  28BC               	goto	u2890
  6452  08BB                     u2891:
  6453  08BB  28C5               	goto	l2486
  6454  08BC                     u2890:
  6455  08BC                     l2482:
  6456  08BC  3000               	movlw	0
  6457  08BD  00B5               	movwf	?___fldiv+3
  6458  08BE  3000               	movlw	0
  6459  08BF  00B4               	movwf	?___fldiv+2
  6460  08C0  3000               	movlw	0
  6461  08C1  00B3               	movwf	?___fldiv+1
  6462  08C2  3000               	movlw	0
  6463  08C3  00B2               	movwf	?___fldiv
  6464  08C4  2A16               	goto	l769
  6465  08C5                     l2486:
  6466  08C5  084A               	movf	___fldiv@bexp,w
  6467  08C6  00BA               	movwf	??___fldiv
  6468  08C7  01BB               	clrf	??___fldiv+1
  6469  08C8  083B               	movf	??___fldiv+1,w
  6470  08C9  00BD               	movwf	??___fldiv+3
  6471  08CA  084B               	movf	___fldiv@aexp,w
  6472  08CB  023A               	subwf	??___fldiv,w
  6473  08CC  00BC               	movwf	??___fldiv+2
  6474  08CD  1C03               	skipc
  6475  08CE  03BD               	decf	??___fldiv+3,f
  6476  08CF  083C               	movf	??___fldiv+2,w
  6477  08D0  3E7F               	addlw	127
  6478  08D1  00C4               	movwf	___fldiv@new_exp
  6479  08D2  083D               	movf	??___fldiv+3,w
  6480  08D3  1803               	skipnc
  6481  08D4  3E01               	addlw	1
  6482  08D5  3E00               	addlw	0
  6483  08D6  00C5               	movwf	___fldiv@new_exp+1
  6484  08D7                     l2488:
  6485  08D7  0839               	movf	___fldiv@b+3,w
  6486  08D8  00C2               	movwf	___fldiv@rem+3
  6487  08D9  0838               	movf	___fldiv@b+2,w
  6488  08DA  00C1               	movwf	___fldiv@rem+2
  6489  08DB  0837               	movf	___fldiv@b+1,w
  6490  08DC  00C0               	movwf	___fldiv@rem+1
  6491  08DD  0836               	movf	___fldiv@b,w
  6492  08DE  00BF               	movwf	___fldiv@rem
  6493  08DF                     l2490:
  6494  08DF  3000               	movlw	0
  6495  08E0  00B9               	movwf	___fldiv@b+3
  6496  08E1  3000               	movlw	0
  6497  08E2  00B8               	movwf	___fldiv@b+2
  6498  08E3  3000               	movlw	0
  6499  08E4  00B7               	movwf	___fldiv@b+1
  6500  08E5  3000               	movlw	0
  6501  08E6  00B6               	movwf	___fldiv@b
  6502  08E7                     l2492:
  6503  08E7  3000               	movlw	0
  6504  08E8  00C9               	movwf	___fldiv@grs+3
  6505  08E9  3000               	movlw	0
  6506  08EA  00C8               	movwf	___fldiv@grs+2
  6507  08EB  3000               	movlw	0
  6508  08EC  00C7               	movwf	___fldiv@grs+1
  6509  08ED  3000               	movlw	0
  6510  08EE  00C6               	movwf	___fldiv@grs
  6511  08EF                     l2494:
  6512  08EF  01CB               	clrf	___fldiv@aexp
  6513  08F0  293B               	goto	l2514
  6514  08F1                     l2496:
  6515  08F1  084B               	movf	___fldiv@aexp,w
  6516  08F2  1903               	btfsc	3,2
  6517  08F3  28F5               	goto	u2901
  6518  08F4  28F6               	goto	u2900
  6519  08F5                     u2901:
  6520  08F5  2916               	goto	l2506
  6521  08F6                     u2900:
  6522  08F6                     l2498:
  6523  08F6  3001               	movlw	1
  6524  08F7  00BA               	movwf	??___fldiv
  6525  08F8                     u2915:
  6526  08F8  1003               	clrc
  6527  08F9  0DBF               	rlf	___fldiv@rem,f
  6528  08FA  0DC0               	rlf	___fldiv@rem+1,f
  6529  08FB  0DC1               	rlf	___fldiv@rem+2,f
  6530  08FC  0DC2               	rlf	___fldiv@rem+3,f
  6531  08FD  0BBA               	decfsz	??___fldiv,f
  6532  08FE  28F8               	goto	u2915
  6533  08FF  3001               	movlw	1
  6534  0900  00BA               	movwf	??___fldiv
  6535  0901                     u2925:
  6536  0901  1003               	clrc
  6537  0902  0DB6               	rlf	___fldiv@b,f
  6538  0903  0DB7               	rlf	___fldiv@b+1,f
  6539  0904  0DB8               	rlf	___fldiv@b+2,f
  6540  0905  0DB9               	rlf	___fldiv@b+3,f
  6541  0906  0BBA               	decfsz	??___fldiv,f
  6542  0907  2901               	goto	u2925
  6543  0908                     l2500:
  6544  0908  1FC9               	btfss	___fldiv@grs+3,7
  6545  0909  290B               	goto	u2931
  6546  090A  290C               	goto	u2930
  6547  090B                     u2931:
  6548  090B  290D               	goto	l2504
  6549  090C                     u2930:
  6550  090C                     l2502:
  6551  090C  1436               	bsf	___fldiv@b,0
  6552  090D                     l2504:
  6553  090D  3001               	movlw	1
  6554  090E  00BA               	movwf	??___fldiv
  6555  090F                     u2945:
  6556  090F  1003               	clrc
  6557  0910  0DC6               	rlf	___fldiv@grs,f
  6558  0911  0DC7               	rlf	___fldiv@grs+1,f
  6559  0912  0DC8               	rlf	___fldiv@grs+2,f
  6560  0913  0DC9               	rlf	___fldiv@grs+3,f
  6561  0914  0BBA               	decfsz	??___fldiv,f
  6562  0915  290F               	goto	u2945
  6563  0916                     l2506:
  6564  0916  0835               	movf	___fldiv@a+3,w
  6565  0917  0242               	subwf	___fldiv@rem+3,w
  6566  0918  1D03               	skipz
  6567  0919  2924               	goto	u2955
  6568  091A  0834               	movf	___fldiv@a+2,w
  6569  091B  0241               	subwf	___fldiv@rem+2,w
  6570  091C  1D03               	skipz
  6571  091D  2924               	goto	u2955
  6572  091E  0833               	movf	___fldiv@a+1,w
  6573  091F  0240               	subwf	___fldiv@rem+1,w
  6574  0920  1D03               	skipz
  6575  0921  2924               	goto	u2955
  6576  0922  0832               	movf	___fldiv@a,w
  6577  0923  023F               	subwf	___fldiv@rem,w
  6578  0924                     u2955:
  6579  0924  1C03               	skipc
  6580  0925  2927               	goto	u2951
  6581  0926  2928               	goto	u2950
  6582  0927                     u2951:
  6583  0927  2937               	goto	l2512
  6584  0928                     u2950:
  6585  0928                     l2508:
  6586  0928  1749               	bsf	___fldiv@grs+3,6
  6587  0929                     l2510:
  6588  0929  0832               	movf	___fldiv@a,w
  6589  092A  02BF               	subwf	___fldiv@rem,f
  6590  092B  0833               	movf	___fldiv@a+1,w
  6591  092C  1C03               	skipc
  6592  092D  0F33               	incfsz	___fldiv@a+1,w
  6593  092E  02C0               	subwf	___fldiv@rem+1,f
  6594  092F  0834               	movf	___fldiv@a+2,w
  6595  0930  1C03               	skipc
  6596  0931  0F34               	incfsz	___fldiv@a+2,w
  6597  0932  02C1               	subwf	___fldiv@rem+2,f
  6598  0933  0835               	movf	___fldiv@a+3,w
  6599  0934  1C03               	skipc
  6600  0935  0F35               	incfsz	___fldiv@a+3,w
  6601  0936  02C2               	subwf	___fldiv@rem+3,f
  6602  0937                     l2512:
  6603  0937  3001               	movlw	1
  6604  0938  00BA               	movwf	??___fldiv
  6605  0939  083A               	movf	??___fldiv,w
  6606  093A  07CB               	addwf	___fldiv@aexp,f
  6607  093B                     l2514:
  6608  093B  301A               	movlw	26
  6609  093C  024B               	subwf	___fldiv@aexp,w
  6610  093D  1C03               	skipc
  6611  093E  2940               	goto	u2961
  6612  093F  2941               	goto	u2960
  6613  0940                     u2961:
  6614  0940  28F1               	goto	l2496
  6615  0941                     u2960:
  6616  0941                     l2516:
  6617  0941  0842               	movf	___fldiv@rem+3,w
  6618  0942  0441               	iorwf	___fldiv@rem+2,w
  6619  0943  0440               	iorwf	___fldiv@rem+1,w
  6620  0944  043F               	iorwf	___fldiv@rem,w
  6621  0945  1903               	skipnz
  6622  0946  2948               	goto	u2971
  6623  0947  2949               	goto	u2970
  6624  0948                     u2971:
  6625  0948  2968               	goto	l2530
  6626  0949                     u2970:
  6627  0949                     l2518:
  6628  0949  1446               	bsf	___fldiv@grs,0
  6629  094A  2968               	goto	l2530
  6630  094B                     l2520:
  6631  094B  3001               	movlw	1
  6632  094C  00BA               	movwf	??___fldiv
  6633  094D                     u2985:
  6634  094D  1003               	clrc
  6635  094E  0DB6               	rlf	___fldiv@b,f
  6636  094F  0DB7               	rlf	___fldiv@b+1,f
  6637  0950  0DB8               	rlf	___fldiv@b+2,f
  6638  0951  0DB9               	rlf	___fldiv@b+3,f
  6639  0952  0BBA               	decfsz	??___fldiv,f
  6640  0953  294D               	goto	u2985
  6641  0954                     l2522:
  6642  0954  1FC9               	btfss	___fldiv@grs+3,7
  6643  0955  2957               	goto	u2991
  6644  0956  2958               	goto	u2990
  6645  0957                     u2991:
  6646  0957  2959               	goto	l2526
  6647  0958                     u2990:
  6648  0958                     l2524:
  6649  0958  1436               	bsf	___fldiv@b,0
  6650  0959                     l2526:
  6651  0959  3001               	movlw	1
  6652  095A  00BA               	movwf	??___fldiv
  6653  095B                     u3005:
  6654  095B  1003               	clrc
  6655  095C  0DC6               	rlf	___fldiv@grs,f
  6656  095D  0DC7               	rlf	___fldiv@grs+1,f
  6657  095E  0DC8               	rlf	___fldiv@grs+2,f
  6658  095F  0DC9               	rlf	___fldiv@grs+3,f
  6659  0960  0BBA               	decfsz	??___fldiv,f
  6660  0961  295B               	goto	u3005
  6661  0962                     l2528:
  6662  0962  30FF               	movlw	255
  6663  0963  07C4               	addwf	___fldiv@new_exp,f
  6664  0964  1803               	skipnc
  6665  0965  0AC5               	incf	___fldiv@new_exp+1,f
  6666  0966  30FF               	movlw	255
  6667  0967  07C5               	addwf	___fldiv@new_exp+1,f
  6668  0968                     l2530:
  6669  0968  1FB8               	btfss	___fldiv@b+2,7
  6670  0969  296B               	goto	u3011
  6671  096A  296C               	goto	u3010
  6672  096B                     u3011:
  6673  096B  294B               	goto	l2520
  6674  096C                     u3010:
  6675  096C                     l2532:
  6676  096C  01CB               	clrf	___fldiv@aexp
  6677  096D                     l2534:
  6678  096D  1FC9               	btfss	___fldiv@grs+3,7
  6679  096E  2970               	goto	u3021
  6680  096F  2971               	goto	u3020
  6681  0970                     u3021:
  6682  0970  298D               	goto	l2542
  6683  0971                     u3020:
  6684  0971                     l2536:
  6685  0971  30FF               	movlw	255
  6686  0972  0546               	andwf	___fldiv@grs,w
  6687  0973  00BA               	movwf	??___fldiv
  6688  0974  30FF               	movlw	255
  6689  0975  0547               	andwf	___fldiv@grs+1,w
  6690  0976  00BB               	movwf	??___fldiv+1
  6691  0977  30FF               	movlw	255
  6692  0978  0548               	andwf	___fldiv@grs+2,w
  6693  0979  00BC               	movwf	??___fldiv+2
  6694  097A  307F               	movlw	127
  6695  097B  0549               	andwf	___fldiv@grs+3,w
  6696  097C  00BD               	movwf	??___fldiv+3
  6697  097D  083D               	movf	??___fldiv+3,w
  6698  097E  043C               	iorwf	??___fldiv+2,w
  6699  097F  043B               	iorwf	??___fldiv+1,w
  6700  0980  043A               	iorwf	??___fldiv,w
  6701  0981  1903               	skipnz
  6702  0982  2984               	goto	u3031
  6703  0983  2985               	goto	u3030
  6704  0984                     u3031:
  6705  0984  2988               	goto	l783
  6706  0985                     u3030:
  6707  0985                     l2538:
  6708  0985  01CB               	clrf	___fldiv@aexp
  6709  0986  0ACB               	incf	___fldiv@aexp,f
  6710  0987  298D               	goto	l2542
  6711  0988                     l783:
  6712  0988  1C36               	btfss	___fldiv@b,0
  6713  0989  298B               	goto	u3041
  6714  098A  298C               	goto	u3040
  6715  098B                     u3041:
  6716  098B  298D               	goto	l2542
  6717  098C                     u3040:
  6718  098C  2985               	goto	l2538
  6719  098D                     l2542:
  6720  098D  084B               	movf	___fldiv@aexp,w
  6721  098E  1903               	btfsc	3,2
  6722  098F  2991               	goto	u3051
  6723  0990  2992               	goto	u3050
  6724  0991                     u3051:
  6725  0991  29C3               	goto	l2552
  6726  0992                     u3050:
  6727  0992                     l2544:
  6728  0992  3001               	movlw	1
  6729  0993  07B6               	addwf	___fldiv@b,f
  6730  0994  3000               	movlw	0
  6731  0995  1803               	skipnc
  6732  0996  3001               	movlw	1
  6733  0997  07B7               	addwf	___fldiv@b+1,f
  6734  0998  3000               	movlw	0
  6735  0999  1803               	skipnc
  6736  099A  3001               	movlw	1
  6737  099B  07B8               	addwf	___fldiv@b+2,f
  6738  099C  3000               	movlw	0
  6739  099D  1803               	skipnc
  6740  099E  3001               	movlw	1
  6741  099F  07B9               	addwf	___fldiv@b+3,f
  6742  09A0                     l2546:
  6743  09A0  1C39               	btfss	___fldiv@b+3,0
  6744  09A1  29A3               	goto	u3061
  6745  09A2  29A4               	goto	u3060
  6746  09A3                     u3061:
  6747  09A3  29C3               	goto	l2552
  6748  09A4                     u3060:
  6749  09A4                     l2548:
  6750  09A4  0836               	movf	___fldiv@b,w
  6751  09A5  00BA               	movwf	??___fldiv
  6752  09A6  0837               	movf	___fldiv@b+1,w
  6753  09A7  00BB               	movwf	??___fldiv+1
  6754  09A8  0838               	movf	___fldiv@b+2,w
  6755  09A9  00BC               	movwf	??___fldiv+2
  6756  09AA  0839               	movf	___fldiv@b+3,w
  6757  09AB  00BD               	movwf	??___fldiv+3
  6758  09AC  3001               	movlw	1
  6759  09AD  00BE               	movwf	??___fldiv+4
  6760  09AE                     u3075:
  6761  09AE  0D3D               	rlf	??___fldiv+3,w
  6762  09AF  0CBD               	rrf	??___fldiv+3,f
  6763  09B0  0CBC               	rrf	??___fldiv+2,f
  6764  09B1  0CBB               	rrf	??___fldiv+1,f
  6765  09B2  0CBA               	rrf	??___fldiv,f
  6766  09B3                     u3070:
  6767  09B3  0BBE               	decfsz	??___fldiv+4,f
  6768  09B4  29AE               	goto	u3075
  6769  09B5  083D               	movf	??___fldiv+3,w
  6770  09B6  00B9               	movwf	___fldiv@b+3
  6771  09B7  083C               	movf	??___fldiv+2,w
  6772  09B8  00B8               	movwf	___fldiv@b+2
  6773  09B9  083B               	movf	??___fldiv+1,w
  6774  09BA  00B7               	movwf	___fldiv@b+1
  6775  09BB  083A               	movf	??___fldiv,w
  6776  09BC  00B6               	movwf	___fldiv@b
  6777  09BD                     l2550:
  6778  09BD  3001               	movlw	1
  6779  09BE  07C4               	addwf	___fldiv@new_exp,f
  6780  09BF  1803               	skipnc
  6781  09C0  0AC5               	incf	___fldiv@new_exp+1,f
  6782  09C1  3000               	movlw	0
  6783  09C2  07C5               	addwf	___fldiv@new_exp+1,f
  6784  09C3                     l2552:
  6785  09C3  0845               	movf	___fldiv@new_exp+1,w
  6786  09C4  3A80               	xorlw	128
  6787  09C5  00FF               	movwf	btemp+1
  6788  09C6  3080               	movlw	128
  6789  09C7  027F               	subwf	btemp+1,w
  6790  09C8  1D03               	skipz
  6791  09C9  29CC               	goto	u3085
  6792  09CA  30FF               	movlw	255
  6793  09CB  0244               	subwf	___fldiv@new_exp,w
  6794  09CC                     u3085:
  6795  09CC  1C03               	skipc
  6796  09CD  29CF               	goto	u3081
  6797  09CE  29D0               	goto	u3080
  6798  09CF                     u3081:
  6799  09CF  29DE               	goto	l2556
  6800  09D0                     u3080:
  6801  09D0                     l2554:
  6802  09D0  30FF               	movlw	255
  6803  09D1  1283               	bcf	3,5	;RP0=0, select bank0
  6804  09D2  1303               	bcf	3,6	;RP1=0, select bank0
  6805  09D3  00C4               	movwf	___fldiv@new_exp
  6806  09D4  3000               	movlw	0
  6807  09D5  00C5               	movwf	___fldiv@new_exp+1
  6808  09D6  3000               	movlw	0
  6809  09D7  00B9               	movwf	___fldiv@b+3
  6810  09D8  3000               	movlw	0
  6811  09D9  00B8               	movwf	___fldiv@b+2
  6812  09DA  3000               	movlw	0
  6813  09DB  00B7               	movwf	___fldiv@b+1
  6814  09DC  3000               	movlw	0
  6815  09DD  00B6               	movwf	___fldiv@b
  6816  09DE                     l2556:
  6817  09DE  1283               	bcf	3,5	;RP0=0, select bank0
  6818  09DF  1303               	bcf	3,6	;RP1=0, select bank0
  6819  09E0  0845               	movf	___fldiv@new_exp+1,w
  6820  09E1  3A80               	xorlw	128
  6821  09E2  00FF               	movwf	btemp+1
  6822  09E3  3080               	movlw	128
  6823  09E4  027F               	subwf	btemp+1,w
  6824  09E5  1D03               	skipz
  6825  09E6  29E9               	goto	u3095
  6826  09E7  3001               	movlw	1
  6827  09E8  0244               	subwf	___fldiv@new_exp,w
  6828  09E9                     u3095:
  6829  09E9  1803               	skipnc
  6830  09EA  29EC               	goto	u3091
  6831  09EB  29ED               	goto	u3090
  6832  09EC                     u3091:
  6833  09EC  29FA               	goto	l789
  6834  09ED                     u3090:
  6835  09ED                     l2558:
  6836  09ED  1283               	bcf	3,5	;RP0=0, select bank0
  6837  09EE  1303               	bcf	3,6	;RP1=0, select bank0
  6838  09EF  01C4               	clrf	___fldiv@new_exp
  6839  09F0  01C5               	clrf	___fldiv@new_exp+1
  6840  09F1                     l2560:
  6841  09F1  3000               	movlw	0
  6842  09F2  00B9               	movwf	___fldiv@b+3
  6843  09F3  3000               	movlw	0
  6844  09F4  00B8               	movwf	___fldiv@b+2
  6845  09F5  3000               	movlw	0
  6846  09F6  00B7               	movwf	___fldiv@b+1
  6847  09F7  3000               	movlw	0
  6848  09F8  00B6               	movwf	___fldiv@b
  6849  09F9                     l2562:
  6850  09F9  01C3               	clrf	___fldiv@sign
  6851  09FA                     l789:
  6852  09FA  1283               	bcf	3,5	;RP0=0, select bank0
  6853  09FB  1303               	bcf	3,6	;RP1=0, select bank0
  6854  09FC  0844               	movf	___fldiv@new_exp,w
  6855  09FD  00BA               	movwf	??___fldiv
  6856  09FE  083A               	movf	??___fldiv,w
  6857  09FF  00CA               	movwf	___fldiv@bexp
  6858  0A00                     l2564:
  6859  0A00  1C4A               	btfss	___fldiv@bexp,0
  6860  0A01  2A03               	goto	u3101
  6861  0A02  2A04               	goto	u3100
  6862  0A03                     u3101:
  6863  0A03  2A06               	goto	l2568
  6864  0A04                     u3100:
  6865  0A04                     l2566:
  6866  0A04  17B8               	bsf	___fldiv@b+2,7
  6867  0A05  2A0A               	goto	l791
  6868  0A06                     l2568:
  6869  0A06  307F               	movlw	127
  6870  0A07  00BA               	movwf	??___fldiv
  6871  0A08  083A               	movf	??___fldiv,w
  6872  0A09  05B8               	andwf	___fldiv@b+2,f
  6873  0A0A                     l791:
  6874  0A0A  084A               	movf	___fldiv@bexp,w
  6875  0A0B  00BA               	movwf	??___fldiv
  6876  0A0C  1003               	clrc
  6877  0A0D  0C3A               	rrf	??___fldiv,w
  6878  0A0E  00BB               	movwf	??___fldiv+1
  6879  0A0F  083B               	movf	??___fldiv+1,w
  6880  0A10  00B9               	movwf	___fldiv@b+3
  6881  0A11  0843               	movf	___fldiv@sign,w
  6882  0A12  00BA               	movwf	??___fldiv
  6883  0A13  083A               	movf	??___fldiv,w
  6884  0A14  04B9               	iorwf	___fldiv@b+3,f
  6885  0A15  28AE               	goto	l2476
  6886  0A16                     l769:
  6887  0A16  0008               	return
  6888  0A17                     __end_of___fldiv:
  6889                           
  6890                           	psect	text14
  6891  000E                     __ptext14:	
  6892 ;; *************** function ___awdiv *****************
  6893 ;; Defined at:
  6894 ;;		line 5 in file "C:\Program Files\Microchip\xc8\v2.32\pic\sources\c90\common\awdiv.c"
  6895 ;; Parameters:    Size  Location     Type
  6896 ;;  divisor         2    0[COMMON] int 
  6897 ;;  dividend        2    2[COMMON] int 
  6898 ;; Auto vars:     Size  Location     Type
  6899 ;;  quotient        2    7[COMMON] int 
  6900 ;;  sign            1    6[COMMON] unsigned char 
  6901 ;;  counter         1    5[COMMON] unsigned char 
  6902 ;; Return value:  Size  Location     Type
  6903 ;;                  2    0[COMMON] int 
  6904 ;; Registers used:
  6905 ;;		wreg, status,2, status,0
  6906 ;; Tracked objects:
  6907 ;;		On entry : 0/0
  6908 ;;		On exit  : 0/0
  6909 ;;		Unchanged: 0/0
  6910 ;; Data sizes:     COMMON   BANK0   BANK1   BANK3   BANK2
  6911 ;;      Params:         4       0       0       0       0
  6912 ;;      Locals:         4       0       0       0       0
  6913 ;;      Temps:          1       0       0       0       0
  6914 ;;      Totals:         9       0       0       0       0
  6915 ;;Total ram usage:        9 bytes
  6916 ;; Hardware stack levels used: 1
  6917 ;; This function calls:
  6918 ;;		Nothing
  6919 ;; This function is called by:
  6920 ;;		_convert
  6921 ;; This function uses a non-reentrant model
  6922 ;;
  6923                           
  6924                           
  6925                           ;psect for function ___awdiv
  6926  000E                     ___awdiv:
  6927  000E                     l2326:	
  6928                           ;incstack = 0
  6929                           ; Regs used in ___awdiv: [wreg+status,2+status,0]
  6930                           
  6931  000E  01F6               	clrf	___awdiv@sign
  6932  000F                     l2328:
  6933  000F  1FF1               	btfss	___awdiv@divisor+1,7
  6934  0010  2812               	goto	u2551
  6935  0011  2813               	goto	u2550
  6936  0012                     u2551:
  6937  0012  281A               	goto	l2334
  6938  0013                     u2550:
  6939  0013                     l2330:
  6940  0013  09F0               	comf	___awdiv@divisor,f
  6941  0014  09F1               	comf	___awdiv@divisor+1,f
  6942  0015  0AF0               	incf	___awdiv@divisor,f
  6943  0016  1903               	skipnz
  6944  0017  0AF1               	incf	___awdiv@divisor+1,f
  6945  0018                     l2332:
  6946  0018  01F6               	clrf	___awdiv@sign
  6947  0019  0AF6               	incf	___awdiv@sign,f
  6948  001A                     l2334:
  6949  001A  1FF3               	btfss	___awdiv@dividend+1,7
  6950  001B  281D               	goto	u2561
  6951  001C  281E               	goto	u2560
  6952  001D                     u2561:
  6953  001D  2827               	goto	l2340
  6954  001E                     u2560:
  6955  001E                     l2336:
  6956  001E  09F2               	comf	___awdiv@dividend,f
  6957  001F  09F3               	comf	___awdiv@dividend+1,f
  6958  0020  0AF2               	incf	___awdiv@dividend,f
  6959  0021  1903               	skipnz
  6960  0022  0AF3               	incf	___awdiv@dividend+1,f
  6961  0023                     l2338:
  6962  0023  3001               	movlw	1
  6963  0024  00F4               	movwf	??___awdiv
  6964  0025  0874               	movf	??___awdiv,w
  6965  0026  06F6               	xorwf	___awdiv@sign,f
  6966  0027                     l2340:
  6967  0027  01F7               	clrf	___awdiv@quotient
  6968  0028  01F8               	clrf	___awdiv@quotient+1
  6969  0029                     l2342:
  6970  0029  0870               	movf	___awdiv@divisor,w
  6971  002A  0471               	iorwf	___awdiv@divisor+1,w
  6972  002B  1903               	btfsc	3,2
  6973  002C  282E               	goto	u2571
  6974  002D  282F               	goto	u2570
  6975  002E                     u2571:
  6976  002E  2866               	goto	l2362
  6977  002F                     u2570:
  6978  002F                     l2344:
  6979  002F  01F5               	clrf	___awdiv@counter
  6980  0030  0AF5               	incf	___awdiv@counter,f
  6981  0031  283D               	goto	l2350
  6982  0032                     l2346:
  6983  0032  3001               	movlw	1
  6984  0033                     u2585:
  6985  0033  1003               	clrc
  6986  0034  0DF0               	rlf	___awdiv@divisor,f
  6987  0035  0DF1               	rlf	___awdiv@divisor+1,f
  6988  0036  3EFF               	addlw	-1
  6989  0037  1D03               	skipz
  6990  0038  2833               	goto	u2585
  6991  0039                     l2348:
  6992  0039  3001               	movlw	1
  6993  003A  00F4               	movwf	??___awdiv
  6994  003B  0874               	movf	??___awdiv,w
  6995  003C  07F5               	addwf	___awdiv@counter,f
  6996  003D                     l2350:
  6997  003D  1FF1               	btfss	___awdiv@divisor+1,7
  6998  003E  2840               	goto	u2591
  6999  003F  2841               	goto	u2590
  7000  0040                     u2591:
  7001  0040  2832               	goto	l2346
  7002  0041                     u2590:
  7003  0041                     l2352:
  7004  0041  3001               	movlw	1
  7005  0042                     u2605:
  7006  0042  1003               	clrc
  7007  0043  0DF7               	rlf	___awdiv@quotient,f
  7008  0044  0DF8               	rlf	___awdiv@quotient+1,f
  7009  0045  3EFF               	addlw	-1
  7010  0046  1D03               	skipz
  7011  0047  2842               	goto	u2605
  7012  0048  0871               	movf	___awdiv@divisor+1,w
  7013  0049  0273               	subwf	___awdiv@dividend+1,w
  7014  004A  1D03               	skipz
  7015  004B  284E               	goto	u2615
  7016  004C  0870               	movf	___awdiv@divisor,w
  7017  004D  0272               	subwf	___awdiv@dividend,w
  7018  004E                     u2615:
  7019  004E  1C03               	skipc
  7020  004F  2851               	goto	u2611
  7021  0050  2852               	goto	u2610
  7022  0051                     u2611:
  7023  0051  2859               	goto	l2358
  7024  0052                     u2610:
  7025  0052                     l2354:
  7026  0052  0870               	movf	___awdiv@divisor,w
  7027  0053  02F2               	subwf	___awdiv@dividend,f
  7028  0054  0871               	movf	___awdiv@divisor+1,w
  7029  0055  1C03               	skipc
  7030  0056  03F3               	decf	___awdiv@dividend+1,f
  7031  0057  02F3               	subwf	___awdiv@dividend+1,f
  7032  0058                     l2356:
  7033  0058  1477               	bsf	___awdiv@quotient,0
  7034  0059                     l2358:
  7035  0059  3001               	movlw	1
  7036  005A                     u2625:
  7037  005A  1003               	clrc
  7038  005B  0CF1               	rrf	___awdiv@divisor+1,f
  7039  005C  0CF0               	rrf	___awdiv@divisor,f
  7040  005D  3EFF               	addlw	-1
  7041  005E  1D03               	skipz
  7042  005F  285A               	goto	u2625
  7043  0060                     l2360:
  7044  0060  3001               	movlw	1
  7045  0061  02F5               	subwf	___awdiv@counter,f
  7046  0062  1D03               	btfss	3,2
  7047  0063  2865               	goto	u2631
  7048  0064  2866               	goto	u2630
  7049  0065                     u2631:
  7050  0065  2841               	goto	l2352
  7051  0066                     u2630:
  7052  0066                     l2362:
  7053  0066  0876               	movf	___awdiv@sign,w
  7054  0067  1903               	btfsc	3,2
  7055  0068  286A               	goto	u2641
  7056  0069  286B               	goto	u2640
  7057  006A                     u2641:
  7058  006A  2870               	goto	l2366
  7059  006B                     u2640:
  7060  006B                     l2364:
  7061  006B  09F7               	comf	___awdiv@quotient,f
  7062  006C  09F8               	comf	___awdiv@quotient+1,f
  7063  006D  0AF7               	incf	___awdiv@quotient,f
  7064  006E  1903               	skipnz
  7065  006F  0AF8               	incf	___awdiv@quotient+1,f
  7066  0070                     l2366:
  7067  0070  0878               	movf	___awdiv@quotient+1,w
  7068  0071  00F1               	movwf	?___awdiv+1
  7069  0072  0877               	movf	___awdiv@quotient,w
  7070  0073  00F0               	movwf	?___awdiv
  7071  0074                     l571:
  7072  0074  0008               	return
  7073  0075                     __end_of___awdiv:
  7074                           
  7075                           	psect	text15
  7076  13FD                     __ptext15:	
  7077 ;; *************** function _USART_Transmit *****************
  7078 ;; Defined at:
  7079 ;;		line 482 in file "Librerias.c"
  7080 ;; Parameters:    Size  Location     Type
  7081 ;;  dato            1    wreg     unsigned char 
  7082 ;; Auto vars:     Size  Location     Type
  7083 ;;  dato            1    0[COMMON] unsigned char 
  7084 ;; Return value:  Size  Location     Type
  7085 ;;                  1    wreg      void 
  7086 ;; Registers used:
  7087 ;;		wreg
  7088 ;; Tracked objects:
  7089 ;;		On entry : 0/0
  7090 ;;		On exit  : 0/0
  7091 ;;		Unchanged: 0/0
  7092 ;; Data sizes:     COMMON   BANK0   BANK1   BANK3   BANK2
  7093 ;;      Params:         0       0       0       0       0
  7094 ;;      Locals:         1       0       0       0       0
  7095 ;;      Temps:          0       0       0       0       0
  7096 ;;      Totals:         1       0       0       0       0
  7097 ;;Total ram usage:        1 bytes
  7098 ;; Hardware stack levels used: 1
  7099 ;; This function calls:
  7100 ;;		Nothing
  7101 ;; This function is called by:
  7102 ;;		_main
  7103 ;;		_USART_Cadena
  7104 ;; This function uses a non-reentrant model
  7105 ;;
  7106                           
  7107                           
  7108                           ;psect for function _USART_Transmit
  7109  13FD                     _USART_Transmit:
  7110                           
  7111                           ;incstack = 0
  7112                           ; Regs used in _USART_Transmit: [wreg]
  7113                           ;USART_Transmit@dato stored from wreg
  7114  13FD  00F0               	movwf	USART_Transmit@dato
  7115  13FE                     l2940:
  7116  13FE                     l320:	
  7117                           ;Librerias.c: 483:     while(TXSTAbits.TRMT == 0);
  7118                           
  7119  13FE  1683               	bsf	3,5	;RP0=1, select bank1
  7120  13FF  1303               	bcf	3,6	;RP1=0, select bank1
  7121  1400  1C98               	btfss	24,1	;volatile
  7122  1401  2C03               	goto	u3771
  7123  1402  2C04               	goto	u3770
  7124  1403                     u3771:
  7125  1403  2BFE               	goto	l320
  7126  1404                     u3770:
  7127  1404                     l2942:
  7128                           
  7129                           ;Librerias.c: 484:     TXREG = dato;
  7130  1404  0870               	movf	USART_Transmit@dato,w
  7131  1405  1283               	bcf	3,5	;RP0=0, select bank0
  7132  1406  1303               	bcf	3,6	;RP1=0, select bank0
  7133  1407  0099               	movwf	25	;volatile
  7134  1408                     l323:
  7135  1408  0008               	return
  7136  1409                     __end_of_USART_Transmit:
  7137                           
  7138                           	psect	text16
  7139  13D9                     __ptext16:	
  7140 ;; *************** function _USART_Recieve *****************
  7141 ;; Defined at:
  7142 ;;		line 487 in file "Librerias.c"
  7143 ;; Parameters:    Size  Location     Type
  7144 ;;		None
  7145 ;; Auto vars:     Size  Location     Type
  7146 ;;		None
  7147 ;; Return value:  Size  Location     Type
  7148 ;;                  1    wreg      unsigned char 
  7149 ;; Registers used:
  7150 ;;		wreg
  7151 ;; Tracked objects:
  7152 ;;		On entry : 0/0
  7153 ;;		On exit  : 0/0
  7154 ;;		Unchanged: 0/0
  7155 ;; Data sizes:     COMMON   BANK0   BANK1   BANK3   BANK2
  7156 ;;      Params:         0       0       0       0       0
  7157 ;;      Locals:         0       0       0       0       0
  7158 ;;      Temps:          0       0       0       0       0
  7159 ;;      Totals:         0       0       0       0       0
  7160 ;;Total ram usage:        0 bytes
  7161 ;; Hardware stack levels used: 1
  7162 ;; This function calls:
  7163 ;;		Nothing
  7164 ;; This function is called by:
  7165 ;;		_main
  7166 ;; This function uses a non-reentrant model
  7167 ;;
  7168                           
  7169                           
  7170                           ;psect for function _USART_Recieve
  7171  13D9                     _USART_Recieve:
  7172  13D9                     l2936:	
  7173                           ;incstack = 0
  7174                           ; Regs used in _USART_Recieve: [wreg]
  7175                           
  7176                           
  7177                           ;Librerias.c: 488:     return RCREG;
  7178  13D9  1283               	bcf	3,5	;RP0=0, select bank0
  7179  13DA  1303               	bcf	3,6	;RP1=0, select bank0
  7180  13DB  081A               	movf	26,w	;volatile
  7181  13DC                     l326:
  7182  13DC  0008               	return
  7183  13DD                     __end_of_USART_Recieve:
  7184                           
  7185                           	psect	text17
  7186  153B                     __ptext17:	
  7187 ;; *************** function _Lcd_Write_String *****************
  7188 ;; Defined at:
  7189 ;;		line 186 in file "Librerias.c"
  7190 ;; Parameters:    Size  Location     Type
  7191 ;;  a               2    3[COMMON] PTR unsigned char 
  7192 ;;		 -> STR_5(2), STR_4(2), humedad(10), lcd1(10), 
  7193 ;;		 -> STR_3(4), STR_2(4), STR_1(5), 
  7194 ;; Auto vars:     Size  Location     Type
  7195 ;;  i               2    8[COMMON] int 
  7196 ;; Return value:  Size  Location     Type
  7197 ;;                  1    wreg      void 
  7198 ;; Registers used:
  7199 ;;		wreg, fsr0l, fsr0h, status,2, status,0, btemp+1, pclath, cstack
  7200 ;; Tracked objects:
  7201 ;;		On entry : 0/0
  7202 ;;		On exit  : 0/0
  7203 ;;		Unchanged: 0/0
  7204 ;; Data sizes:     COMMON   BANK0   BANK1   BANK3   BANK2
  7205 ;;      Params:         2       0       0       0       0
  7206 ;;      Locals:         2       0       0       0       0
  7207 ;;      Temps:          3       0       0       0       0
  7208 ;;      Totals:         7       0       0       0       0
  7209 ;;Total ram usage:        7 bytes
  7210 ;; Hardware stack levels used: 1
  7211 ;; Hardware stack levels required when called: 2
  7212 ;; This function calls:
  7213 ;;		_Lcd_Write_Char
  7214 ;; This function is called by:
  7215 ;;		_main
  7216 ;; This function uses a non-reentrant model
  7217 ;;
  7218                           
  7219                           
  7220                           ;psect for function _Lcd_Write_String
  7221  153B                     _Lcd_Write_String:
  7222  153B                     l2798:	
  7223                           ;incstack = 0
  7224                           ; Regs used in _Lcd_Write_String: [wreg-fsr0h+status,2+status,0+btemp+1+pclath+cstack]
  7225                           
  7226                           
  7227                           ;Librerias.c: 187:     int i;;Librerias.c: 188:     for (i = 0; a[i] != '\0'; i++)
  7228  153B  01F8               	clrf	Lcd_Write_String@i
  7229  153C  01F9               	clrf	Lcd_Write_String@i+1
  7230  153D  2D60               	goto	l2804
  7231  153E                     l2800:
  7232                           
  7233                           ;Librerias.c: 189:         Lcd_Write_Char(a[i]);
  7234  153E  0878               	movf	Lcd_Write_String@i,w
  7235  153F  0773               	addwf	Lcd_Write_String@a,w
  7236  1540  00F6               	movwf	??_Lcd_Write_String+1
  7237  1541  0874               	movf	Lcd_Write_String@a+1,w
  7238  1542  00F5               	movwf	??_Lcd_Write_String
  7239  1543  1803               	skipnc
  7240  1544  0AF5               	incf	??_Lcd_Write_String,f
  7241  1545  1FF8               	btfss	Lcd_Write_String@i,7
  7242  1546  2D48               	goto	u3640
  7243  1547  03F5               	decf	??_Lcd_Write_String,f
  7244  1548                     u3640:
  7245  1548  0875               	movf	??_Lcd_Write_String,w
  7246  1549  00F7               	movwf	??_Lcd_Write_String+2
  7247  154A  0877               	movf	??_Lcd_Write_String+2,w
  7248  154B  1283               	bcf	3,5	;RP0=0, select bank0
  7249  154C  1303               	bcf	3,6	;RP1=0, select bank0
  7250  154D  00FF               	movwf	btemp+1
  7251  154E  0876               	movf	??_Lcd_Write_String+1,w
  7252  154F  0084               	movwf	4
  7253  1550  160A  118A  2000  160A  118A  	fcall	stringtab
  7254  1555  160A  118A  2423  160A  118A  	fcall	_Lcd_Write_Char
  7255  155A                     l2802:
  7256  155A  3001               	movlw	1
  7257  155B  07F8               	addwf	Lcd_Write_String@i,f
  7258  155C  1803               	skipnc
  7259  155D  0AF9               	incf	Lcd_Write_String@i+1,f
  7260  155E  3000               	movlw	0
  7261  155F  07F9               	addwf	Lcd_Write_String@i+1,f
  7262  1560                     l2804:
  7263  1560  0878               	movf	Lcd_Write_String@i,w
  7264  1561  0773               	addwf	Lcd_Write_String@a,w
  7265  1562  00F6               	movwf	??_Lcd_Write_String+1
  7266  1563  0874               	movf	Lcd_Write_String@a+1,w
  7267  1564  00F5               	movwf	??_Lcd_Write_String
  7268  1565  1803               	skipnc
  7269  1566  0AF5               	incf	??_Lcd_Write_String,f
  7270  1567  1FF8               	btfss	Lcd_Write_String@i,7
  7271  1568  2D6A               	goto	u3650
  7272  1569  03F5               	decf	??_Lcd_Write_String,f
  7273  156A                     u3650:
  7274  156A  0875               	movf	??_Lcd_Write_String,w
  7275  156B  00F7               	movwf	??_Lcd_Write_String+2
  7276  156C  0877               	movf	??_Lcd_Write_String+2,w
  7277  156D  1283               	bcf	3,5	;RP0=0, select bank0
  7278  156E  1303               	bcf	3,6	;RP1=0, select bank0
  7279  156F  00FF               	movwf	btemp+1
  7280  1570  0876               	movf	??_Lcd_Write_String+1,w
  7281  1571  0084               	movwf	4
  7282  1572  160A  118A  2000  160A  118A  	fcall	stringtab
  7283  1577  3A00               	xorlw	0
  7284  1578  1D03               	skipz
  7285  1579  2D7B               	goto	u3661
  7286  157A  2D7C               	goto	u3660
  7287  157B                     u3661:
  7288  157B  2D3E               	goto	l2800
  7289  157C                     u3660:
  7290  157C                     l224:
  7291  157C  0008               	return
  7292  157D                     __end_of_Lcd_Write_String:
  7293                           
  7294                           	psect	text18
  7295  1423                     __ptext18:	
  7296 ;; *************** function _Lcd_Write_Char *****************
  7297 ;; Defined at:
  7298 ;;		line 178 in file "Librerias.c"
  7299 ;; Parameters:    Size  Location     Type
  7300 ;;  a               1    wreg     unsigned char 
  7301 ;; Auto vars:     Size  Location     Type
  7302 ;;  a               1    2[COMMON] unsigned char 
  7303 ;; Return value:  Size  Location     Type
  7304 ;;                  1    wreg      void 
  7305 ;; Registers used:
  7306 ;;		wreg, status,2, status,0, pclath, cstack
  7307 ;; Tracked objects:
  7308 ;;		On entry : 0/0
  7309 ;;		On exit  : 0/0
  7310 ;;		Unchanged: 0/0
  7311 ;; Data sizes:     COMMON   BANK0   BANK1   BANK3   BANK2
  7312 ;;      Params:         0       0       0       0       0
  7313 ;;      Locals:         1       0       0       0       0
  7314 ;;      Temps:          1       0       0       0       0
  7315 ;;      Totals:         2       0       0       0       0
  7316 ;;Total ram usage:        2 bytes
  7317 ;; Hardware stack levels used: 1
  7318 ;; Hardware stack levels required when called: 1
  7319 ;; This function calls:
  7320 ;;		_Lcd_Port
  7321 ;; This function is called by:
  7322 ;;		_Lcd_Write_String
  7323 ;; This function uses a non-reentrant model
  7324 ;;
  7325                           
  7326                           
  7327                           ;psect for function _Lcd_Write_Char
  7328  1423                     _Lcd_Write_Char:
  7329                           
  7330                           ;incstack = 0
  7331                           ; Regs used in _Lcd_Write_Char: [wreg+status,2+status,0+pclath+cstack]
  7332                           ;Lcd_Write_Char@a stored from wreg
  7333  1423  00F2               	movwf	Lcd_Write_Char@a
  7334  1424                     l2302:
  7335                           
  7336                           ;Librerias.c: 179:     PORTEbits.RE0 = 1;
  7337  1424  1283               	bcf	3,5	;RP0=0, select bank0
  7338  1425  1303               	bcf	3,6	;RP1=0, select bank0
  7339  1426  1409               	bsf	9,0	;volatile
  7340  1427                     l2304:
  7341                           
  7342                           ;Librerias.c: 180:     Lcd_Port(a);
  7343  1427  0872               	movf	Lcd_Write_Char@a,w
  7344  1428  160A  118A  23DD  160A  118A  	fcall	_Lcd_Port
  7345  142D                     l2306:
  7346                           
  7347                           ;Librerias.c: 181:     PORTEbits.RE2 = 1;
  7348  142D  1283               	bcf	3,5	;RP0=0, select bank0
  7349  142E  1303               	bcf	3,6	;RP1=0, select bank0
  7350  142F  1509               	bsf	9,2	;volatile
  7351  1430                     l2308:
  7352                           
  7353                           ;Librerias.c: 182:     _delay((unsigned long)((10)*(8000000/4000000.0)));
  7354  1430  3006               	movlw	6
  7355  1431  00F1               	movwf	??_Lcd_Write_Char
  7356  1432                     u3877:
  7357  1432  0BF1               	decfsz	??_Lcd_Write_Char,f
  7358  1433  2C32               	goto	u3877
  7359  1434  0000               	nop
  7360  1435                     l2310:
  7361                           
  7362                           ;Librerias.c: 183:     PORTEbits.RE2 = 0;
  7363  1435  1283               	bcf	3,5	;RP0=0, select bank0
  7364  1436  1303               	bcf	3,6	;RP1=0, select bank0
  7365  1437  1109               	bcf	9,2	;volatile
  7366  1438                     l218:
  7367  1438  0008               	return
  7368  1439                     __end_of_Lcd_Write_Char:
  7369                           
  7370                           	psect	text19
  7371  1453                     __ptext19:	
  7372 ;; *************** function _Lcd_Set_Cursor *****************
  7373 ;; Defined at:
  7374 ;;		line 153 in file "Librerias.c"
  7375 ;; Parameters:    Size  Location     Type
  7376 ;;  a               1    wreg     unsigned char 
  7377 ;;  b               1    4[COMMON] unsigned char 
  7378 ;; Auto vars:     Size  Location     Type
  7379 ;;  a               1    6[COMMON] unsigned char 
  7380 ;;  temp            1    7[COMMON] unsigned char 
  7381 ;; Return value:  Size  Location     Type
  7382 ;;                  1    wreg      void 
  7383 ;; Registers used:
  7384 ;;		wreg, status,2, status,0, pclath, cstack
  7385 ;; Tracked objects:
  7386 ;;		On entry : 0/0
  7387 ;;		On exit  : 0/0
  7388 ;;		Unchanged: 0/0
  7389 ;; Data sizes:     COMMON   BANK0   BANK1   BANK3   BANK2
  7390 ;;      Params:         1       0       0       0       0
  7391 ;;      Locals:         2       0       0       0       0
  7392 ;;      Temps:          1       0       0       0       0
  7393 ;;      Totals:         4       0       0       0       0
  7394 ;;Total ram usage:        4 bytes
  7395 ;; Hardware stack levels used: 1
  7396 ;; Hardware stack levels required when called: 2
  7397 ;; This function calls:
  7398 ;;		_Lcd_Cmd
  7399 ;; This function is called by:
  7400 ;;		_main
  7401 ;; This function uses a non-reentrant model
  7402 ;;
  7403                           
  7404                           
  7405                           ;psect for function _Lcd_Set_Cursor
  7406  1453                     _Lcd_Set_Cursor:
  7407                           
  7408                           ;incstack = 0
  7409                           ; Regs used in _Lcd_Set_Cursor: [wreg+status,2+status,0+pclath+cstack]
  7410                           ;Lcd_Set_Cursor@a stored from wreg
  7411  1453  00F6               	movwf	Lcd_Set_Cursor@a
  7412  1454                     l2786:
  7413                           
  7414                           ;Librerias.c: 154:     char temp;;Librerias.c: 155:     if (a == 1) {
  7415  1454  0376               	decf	Lcd_Set_Cursor@a,w
  7416  1455  1D03               	btfss	3,2
  7417  1456  2C58               	goto	u3621
  7418  1457  2C59               	goto	u3620
  7419  1458                     u3621:
  7420  1458  2C65               	goto	l2792
  7421  1459                     u3620:
  7422  1459                     l2788:
  7423                           
  7424                           ;Librerias.c: 156:         temp = 0x80 + b - 1;
  7425  1459  0874               	movf	Lcd_Set_Cursor@b,w
  7426  145A  3E7F               	addlw	127
  7427  145B  00F5               	movwf	??_Lcd_Set_Cursor
  7428  145C  0875               	movf	??_Lcd_Set_Cursor,w
  7429  145D  00F7               	movwf	Lcd_Set_Cursor@temp
  7430  145E                     l2790:
  7431                           
  7432                           ;Librerias.c: 157:         Lcd_Cmd(temp);
  7433  145E  0877               	movf	Lcd_Set_Cursor@temp,w
  7434  145F  160A  118A  2439  160A  118A  	fcall	_Lcd_Cmd
  7435                           
  7436                           ;Librerias.c: 158:     } else if (a == 2) {
  7437  1464  2C76               	goto	l212
  7438  1465                     l2792:
  7439  1465  3002               	movlw	2
  7440  1466  0676               	xorwf	Lcd_Set_Cursor@a,w
  7441  1467  1D03               	btfss	3,2
  7442  1468  2C6A               	goto	u3631
  7443  1469  2C6B               	goto	u3630
  7444  146A                     u3631:
  7445  146A  2C76               	goto	l212
  7446  146B                     u3630:
  7447  146B                     l2794:
  7448                           
  7449                           ;Librerias.c: 159:         temp = 0xC0 + b - 1;
  7450  146B  0874               	movf	Lcd_Set_Cursor@b,w
  7451  146C  3EBF               	addlw	191
  7452  146D  00F5               	movwf	??_Lcd_Set_Cursor
  7453  146E  0875               	movf	??_Lcd_Set_Cursor,w
  7454  146F  00F7               	movwf	Lcd_Set_Cursor@temp
  7455  1470                     l2796:
  7456                           
  7457                           ;Librerias.c: 160:         Lcd_Cmd(temp);
  7458  1470  0877               	movf	Lcd_Set_Cursor@temp,w
  7459  1471  160A  118A  2439  160A  118A  	fcall	_Lcd_Cmd
  7460  1476                     l212:
  7461  1476  0008               	return
  7462  1477                     __end_of_Lcd_Set_Cursor:
  7463                           
  7464                           	psect	text20
  7465  157D                     __ptext20:	
  7466 ;; *************** function _Lcd_Init *****************
  7467 ;; Defined at:
  7468 ;;		line 164 in file "Librerias.c"
  7469 ;; Parameters:    Size  Location     Type
  7470 ;;		None
  7471 ;; Auto vars:     Size  Location     Type
  7472 ;;		None
  7473 ;; Return value:  Size  Location     Type
  7474 ;;                  1    wreg      void 
  7475 ;; Registers used:
  7476 ;;		wreg, status,2, status,0, pclath, cstack
  7477 ;; Tracked objects:
  7478 ;;		On entry : 0/0
  7479 ;;		On exit  : 0/0
  7480 ;;		Unchanged: 0/0
  7481 ;; Data sizes:     COMMON   BANK0   BANK1   BANK3   BANK2
  7482 ;;      Params:         0       0       0       0       0
  7483 ;;      Locals:         0       0       0       0       0
  7484 ;;      Temps:          2       0       0       0       0
  7485 ;;      Totals:         2       0       0       0       0
  7486 ;;Total ram usage:        2 bytes
  7487 ;; Hardware stack levels used: 1
  7488 ;; Hardware stack levels required when called: 2
  7489 ;; This function calls:
  7490 ;;		_Lcd_Cmd
  7491 ;;		_Lcd_Port
  7492 ;; This function is called by:
  7493 ;;		_main
  7494 ;; This function uses a non-reentrant model
  7495 ;;
  7496                           
  7497                           
  7498                           ;psect for function _Lcd_Init
  7499  157D                     _Lcd_Init:
  7500  157D                     l2774:	
  7501                           ;incstack = 0
  7502                           ; Regs used in _Lcd_Init: [wreg+status,2+status,0+pclath+cstack]
  7503                           
  7504                           
  7505                           ;Librerias.c: 165:     Lcd_Port(0x00);
  7506  157D  3000               	movlw	0
  7507  157E  160A  118A  23DD  160A  118A  	fcall	_Lcd_Port
  7508  1583                     l2776:
  7509                           
  7510                           ;Librerias.c: 166:     _delay((unsigned long)((20)*(8000000/4000.0)));
  7511  1583  3034               	movlw	52
  7512  1584  00F5               	movwf	??_Lcd_Init+1
  7513  1585  30F1               	movlw	241
  7514  1586  00F4               	movwf	??_Lcd_Init
  7515  1587                     u3887:
  7516  1587  0BF4               	decfsz	??_Lcd_Init,f
  7517  1588  2D87               	goto	u3887
  7518  1589  0BF5               	decfsz	??_Lcd_Init+1,f
  7519  158A  2D87               	goto	u3887
  7520  158B  2D8C               	nop2
  7521  158C                     l2778:
  7522                           
  7523                           ;Librerias.c: 167:     Lcd_Cmd(0x30);
  7524  158C  3030               	movlw	48
  7525  158D  160A  118A  2439  160A  118A  	fcall	_Lcd_Cmd
  7526                           
  7527                           ;Librerias.c: 168:     _delay((unsigned long)((5)*(8000000/4000.0)));
  7528  1592  300D               	movlw	13
  7529  1593  00F5               	movwf	??_Lcd_Init+1
  7530  1594  30FB               	movlw	251
  7531  1595  00F4               	movwf	??_Lcd_Init
  7532  1596                     u3897:
  7533  1596  0BF4               	decfsz	??_Lcd_Init,f
  7534  1597  2D96               	goto	u3897
  7535  1598  0BF5               	decfsz	??_Lcd_Init+1,f
  7536  1599  2D96               	goto	u3897
  7537  159A  2D9B               	nop2
  7538  159B                     l2780:
  7539                           
  7540                           ;Librerias.c: 169:     Lcd_Cmd(0x30);
  7541  159B  3030               	movlw	48
  7542  159C  160A  118A  2439  160A  118A  	fcall	_Lcd_Cmd
  7543  15A1                     l2782:
  7544                           
  7545                           ;Librerias.c: 170:     _delay((unsigned long)((11)*(8000000/4000.0)));
  7546  15A1  301D               	movlw	29
  7547  15A2  00F5               	movwf	??_Lcd_Init+1
  7548  15A3  3091               	movlw	145
  7549  15A4  00F4               	movwf	??_Lcd_Init
  7550  15A5                     u3907:
  7551  15A5  0BF4               	decfsz	??_Lcd_Init,f
  7552  15A6  2DA5               	goto	u3907
  7553  15A7  0BF5               	decfsz	??_Lcd_Init+1,f
  7554  15A8  2DA5               	goto	u3907
  7555                           
  7556                           ;Librerias.c: 171:     Lcd_Cmd(0x30);
  7557  15A9  3030               	movlw	48
  7558  15AA  160A  118A  2439  160A  118A  	fcall	_Lcd_Cmd
  7559                           
  7560                           ;Librerias.c: 173:     Lcd_Cmd(0x38);
  7561  15AF  3038               	movlw	56
  7562  15B0  160A  118A  2439  160A  118A  	fcall	_Lcd_Cmd
  7563                           
  7564                           ;Librerias.c: 174:     Lcd_Cmd(0x0C);
  7565  15B5  300C               	movlw	12
  7566  15B6  160A  118A  2439  160A  118A  	fcall	_Lcd_Cmd
  7567                           
  7568                           ;Librerias.c: 175:     Lcd_Cmd(0x06);
  7569  15BB  3006               	movlw	6
  7570  15BC  160A  118A  2439  160A  118A  	fcall	_Lcd_Cmd
  7571  15C1                     l215:
  7572  15C1  0008               	return
  7573  15C2                     __end_of_Lcd_Init:
  7574                           
  7575                           	psect	text21
  7576  1416                     __ptext21:	
  7577 ;; *************** function _Lcd_Clear *****************
  7578 ;; Defined at:
  7579 ;;		line 148 in file "Librerias.c"
  7580 ;; Parameters:    Size  Location     Type
  7581 ;;		None
  7582 ;; Auto vars:     Size  Location     Type
  7583 ;;		None
  7584 ;; Return value:  Size  Location     Type
  7585 ;;                  1    wreg      void 
  7586 ;; Registers used:
  7587 ;;		wreg, status,2, status,0, pclath, cstack
  7588 ;; Tracked objects:
  7589 ;;		On entry : 0/0
  7590 ;;		On exit  : 0/0
  7591 ;;		Unchanged: 0/0
  7592 ;; Data sizes:     COMMON   BANK0   BANK1   BANK3   BANK2
  7593 ;;      Params:         0       0       0       0       0
  7594 ;;      Locals:         0       0       0       0       0
  7595 ;;      Temps:          0       0       0       0       0
  7596 ;;      Totals:         0       0       0       0       0
  7597 ;;Total ram usage:        0 bytes
  7598 ;; Hardware stack levels used: 1
  7599 ;; Hardware stack levels required when called: 2
  7600 ;; This function calls:
  7601 ;;		_Lcd_Cmd
  7602 ;; This function is called by:
  7603 ;;		_main
  7604 ;; This function uses a non-reentrant model
  7605 ;;
  7606                           
  7607                           
  7608                           ;psect for function _Lcd_Clear
  7609  1416                     _Lcd_Clear:
  7610  1416                     l2784:	
  7611                           ;incstack = 0
  7612                           ; Regs used in _Lcd_Clear: [wreg+status,2+status,0+pclath+cstack]
  7613                           
  7614                           
  7615                           ;Librerias.c: 149:     Lcd_Cmd(0);
  7616  1416  3000               	movlw	0
  7617  1417  160A  118A  2439  160A  118A  	fcall	_Lcd_Cmd
  7618                           
  7619                           ;Librerias.c: 150:     Lcd_Cmd(1);
  7620  141C  3001               	movlw	1
  7621  141D  160A  118A  2439  160A  118A  	fcall	_Lcd_Cmd
  7622  1422                     l206:
  7623  1422  0008               	return
  7624  1423                     __end_of_Lcd_Clear:
  7625                           
  7626                           	psect	text22
  7627  1439                     __ptext22:	
  7628 ;; *************** function _Lcd_Cmd *****************
  7629 ;; Defined at:
  7630 ;;		line 140 in file "Librerias.c"
  7631 ;; Parameters:    Size  Location     Type
  7632 ;;  a               1    wreg     unsigned char 
  7633 ;; Auto vars:     Size  Location     Type
  7634 ;;  a               1    3[COMMON] unsigned char 
  7635 ;; Return value:  Size  Location     Type
  7636 ;;                  1    wreg      void 
  7637 ;; Registers used:
  7638 ;;		wreg, status,2, status,0, pclath, cstack
  7639 ;; Tracked objects:
  7640 ;;		On entry : 0/0
  7641 ;;		On exit  : 0/0
  7642 ;;		Unchanged: 0/0
  7643 ;; Data sizes:     COMMON   BANK0   BANK1   BANK3   BANK2
  7644 ;;      Params:         0       0       0       0       0
  7645 ;;      Locals:         1       0       0       0       0
  7646 ;;      Temps:          2       0       0       0       0
  7647 ;;      Totals:         3       0       0       0       0
  7648 ;;Total ram usage:        3 bytes
  7649 ;; Hardware stack levels used: 1
  7650 ;; Hardware stack levels required when called: 1
  7651 ;; This function calls:
  7652 ;;		_Lcd_Port
  7653 ;; This function is called by:
  7654 ;;		_Lcd_Clear
  7655 ;;		_Lcd_Set_Cursor
  7656 ;;		_Lcd_Init
  7657 ;;		_Lcd_Shift_Right
  7658 ;;		_Lcd_Shift_Left
  7659 ;; This function uses a non-reentrant model
  7660 ;;
  7661                           
  7662                           
  7663                           ;psect for function _Lcd_Cmd
  7664  1439                     _Lcd_Cmd:
  7665                           
  7666                           ;incstack = 0
  7667                           ; Regs used in _Lcd_Cmd: [wreg+status,2+status,0+pclath+cstack]
  7668                           ;Lcd_Cmd@a stored from wreg
  7669  1439  00F3               	movwf	Lcd_Cmd@a
  7670  143A                     l2292:
  7671                           
  7672                           ;Librerias.c: 141:     PORTEbits.RE0 = 0;
  7673  143A  1283               	bcf	3,5	;RP0=0, select bank0
  7674  143B  1303               	bcf	3,6	;RP1=0, select bank0
  7675  143C  1009               	bcf	9,0	;volatile
  7676  143D                     l2294:
  7677                           
  7678                           ;Librerias.c: 142:     Lcd_Port(a);
  7679  143D  0873               	movf	Lcd_Cmd@a,w
  7680  143E  160A  118A  23DD  160A  118A  	fcall	_Lcd_Port
  7681  1443                     l2296:
  7682                           
  7683                           ;Librerias.c: 143:     PORTEbits.RE2 = 1;
  7684  1443  1283               	bcf	3,5	;RP0=0, select bank0
  7685  1444  1303               	bcf	3,6	;RP1=0, select bank0
  7686  1445  1509               	bsf	9,2	;volatile
  7687  1446                     l2298:
  7688                           
  7689                           ;Librerias.c: 144:     _delay((unsigned long)((4)*(8000000/4000.0)));
  7690  1446  300B               	movlw	11
  7691  1447  00F2               	movwf	??_Lcd_Cmd+1
  7692  1448  3062               	movlw	98
  7693  1449  00F1               	movwf	??_Lcd_Cmd
  7694  144A                     u3917:
  7695  144A  0BF1               	decfsz	??_Lcd_Cmd,f
  7696  144B  2C4A               	goto	u3917
  7697  144C  0BF2               	decfsz	??_Lcd_Cmd+1,f
  7698  144D  2C4A               	goto	u3917
  7699  144E  0000               	nop
  7700  144F                     l2300:
  7701                           
  7702                           ;Librerias.c: 145:     PORTEbits.RE2 = 0;
  7703  144F  1283               	bcf	3,5	;RP0=0, select bank0
  7704  1450  1303               	bcf	3,6	;RP1=0, select bank0
  7705  1451  1109               	bcf	9,2	;volatile
  7706  1452                     l203:
  7707  1452  0008               	return
  7708  1453                     __end_of_Lcd_Cmd:
  7709                           
  7710                           	psect	text23
  7711  13DD                     __ptext23:	
  7712 ;; *************** function _Lcd_Port *****************
  7713 ;; Defined at:
  7714 ;;		line 136 in file "Librerias.c"
  7715 ;; Parameters:    Size  Location     Type
  7716 ;;  a               1    wreg     unsigned char 
  7717 ;; Auto vars:     Size  Location     Type
  7718 ;;  a               1    0[COMMON] unsigned char 
  7719 ;; Return value:  Size  Location     Type
  7720 ;;                  1    wreg      void 
  7721 ;; Registers used:
  7722 ;;		wreg
  7723 ;; Tracked objects:
  7724 ;;		On entry : 0/0
  7725 ;;		On exit  : 0/0
  7726 ;;		Unchanged: 0/0
  7727 ;; Data sizes:     COMMON   BANK0   BANK1   BANK3   BANK2
  7728 ;;      Params:         0       0       0       0       0
  7729 ;;      Locals:         1       0       0       0       0
  7730 ;;      Temps:          0       0       0       0       0
  7731 ;;      Totals:         1       0       0       0       0
  7732 ;;Total ram usage:        1 bytes
  7733 ;; Hardware stack levels used: 1
  7734 ;; This function calls:
  7735 ;;		Nothing
  7736 ;; This function is called by:
  7737 ;;		_Lcd_Cmd
  7738 ;;		_Lcd_Init
  7739 ;;		_Lcd_Write_Char
  7740 ;; This function uses a non-reentrant model
  7741 ;;
  7742                           
  7743                           
  7744                           ;psect for function _Lcd_Port
  7745  13DD                     _Lcd_Port:
  7746                           
  7747                           ;incstack = 0
  7748                           ; Regs used in _Lcd_Port: [wreg]
  7749                           ;Lcd_Port@a stored from wreg
  7750  13DD  00F0               	movwf	Lcd_Port@a
  7751  13DE                     l2042:
  7752                           
  7753                           ;Librerias.c: 137:     PORTB = a;
  7754  13DE  0870               	movf	Lcd_Port@a,w
  7755  13DF  1283               	bcf	3,5	;RP0=0, select bank0
  7756  13E0  1303               	bcf	3,6	;RP1=0, select bank0
  7757  13E1  0086               	movwf	6	;volatile
  7758  13E2                     l200:
  7759  13E2  0008               	return
  7760  13E3                     __end_of_Lcd_Port:
  7761                           
  7762                           	psect	text24
  7763  0004                     __ptext24:	
  7764 ;; *************** function _I2C_Master_Write *****************
  7765 ;; Defined at:
  7766 ;;		line 63 in file "Librerias.c"
  7767 ;; Parameters:    Size  Location     Type
  7768 ;;  d               2    0[COMMON] unsigned int 
  7769 ;; Auto vars:     Size  Location     Type
  7770 ;;		None
  7771 ;; Return value:  Size  Location     Type
  7772 ;;                  1    wreg      void 
  7773 ;; Registers used:
  7774 ;;		wreg, status,2, status,0, pclath, cstack
  7775 ;; Tracked objects:
  7776 ;;		On entry : 0/0
  7777 ;;		On exit  : 0/0
  7778 ;;		Unchanged: 0/0
  7779 ;; Data sizes:     COMMON   BANK0   BANK1   BANK3   BANK2
  7780 ;;      Params:         2       0       0       0       0
  7781 ;;      Locals:         0       0       0       0       0
  7782 ;;      Temps:          0       0       0       0       0
  7783 ;;      Totals:         2       0       0       0       0
  7784 ;;Total ram usage:        2 bytes
  7785 ;; Hardware stack levels used: 1
  7786 ;; Hardware stack levels required when called: 1
  7787 ;; This function calls:
  7788 ;;		_I2C_Master_Wait
  7789 ;; This function is called by:
  7790 ;;		_main
  7791 ;; This function uses a non-reentrant model
  7792 ;;
  7793                           
  7794                           
  7795                           ;psect for function _I2C_Master_Write
  7796  0004                     _I2C_Master_Write:
  7797  0004                     l2810:	
  7798                           ;incstack = 0
  7799                           ; Regs used in _I2C_Master_Write: [wreg+status,2+status,0+pclath+cstack]
  7800                           
  7801                           
  7802                           ;Librerias.c: 63: void I2C_Master_Write(unsigned d);Librerias.c: 64: {;Librerias.c: 65: 
      +                              I2C_Master_Wait();
  7803  0004  160A  118A  2409  120A  118A  	fcall	_I2C_Master_Wait
  7804  0009                     l2812:
  7805                           
  7806                           ;Librerias.c: 66:     SSPBUF = d;
  7807  0009  0870               	movf	I2C_Master_Write@d,w
  7808  000A  1283               	bcf	3,5	;RP0=0, select bank0
  7809  000B  1303               	bcf	3,6	;RP1=0, select bank0
  7810  000C  0093               	movwf	19	;volatile
  7811  000D                     l176:
  7812  000D  0008               	return
  7813  000E                     __end_of_I2C_Master_Write:
  7814                           
  7815                           	psect	text25
  7816  13F4                     __ptext25:	
  7817 ;; *************** function _I2C_Master_Stop *****************
  7818 ;; Defined at:
  7819 ;;		line 53 in file "Librerias.c"
  7820 ;; Parameters:    Size  Location     Type
  7821 ;;		None
  7822 ;; Auto vars:     Size  Location     Type
  7823 ;;		None
  7824 ;; Return value:  Size  Location     Type
  7825 ;;                  1    wreg      void 
  7826 ;; Registers used:
  7827 ;;		wreg, status,2, status,0, pclath, cstack
  7828 ;; Tracked objects:
  7829 ;;		On entry : 0/0
  7830 ;;		On exit  : 0/0
  7831 ;;		Unchanged: 0/0
  7832 ;; Data sizes:     COMMON   BANK0   BANK1   BANK3   BANK2
  7833 ;;      Params:         0       0       0       0       0
  7834 ;;      Locals:         0       0       0       0       0
  7835 ;;      Temps:          0       0       0       0       0
  7836 ;;      Totals:         0       0       0       0       0
  7837 ;;Total ram usage:        0 bytes
  7838 ;; Hardware stack levels used: 1
  7839 ;; Hardware stack levels required when called: 1
  7840 ;; This function calls:
  7841 ;;		_I2C_Master_Wait
  7842 ;; This function is called by:
  7843 ;;		_main
  7844 ;; This function uses a non-reentrant model
  7845 ;;
  7846                           
  7847                           
  7848                           ;psect for function _I2C_Master_Stop
  7849  13F4                     _I2C_Master_Stop:
  7850  13F4                     l2814:	
  7851                           ;incstack = 0
  7852                           ; Regs used in _I2C_Master_Stop: [wreg+status,2+status,0+pclath+cstack]
  7853                           
  7854                           
  7855                           ;Librerias.c: 55:     I2C_Master_Wait();
  7856  13F4  160A  118A  2409  160A  118A  	fcall	_I2C_Master_Wait
  7857  13F9                     l2816:
  7858                           
  7859                           ;Librerias.c: 56:     SSPCON2bits.PEN = 1;
  7860  13F9  1683               	bsf	3,5	;RP0=1, select bank1
  7861  13FA  1303               	bcf	3,6	;RP1=0, select bank1
  7862  13FB  1511               	bsf	17,2	;volatile
  7863  13FC                     l173:
  7864  13FC  0008               	return
  7865  13FD                     __end_of_I2C_Master_Stop:
  7866                           
  7867                           	psect	text26
  7868  13EB                     __ptext26:	
  7869 ;; *************** function _I2C_Master_Start *****************
  7870 ;; Defined at:
  7871 ;;		line 37 in file "Librerias.c"
  7872 ;; Parameters:    Size  Location     Type
  7873 ;;		None
  7874 ;; Auto vars:     Size  Location     Type
  7875 ;;		None
  7876 ;; Return value:  Size  Location     Type
  7877 ;;                  1    wreg      void 
  7878 ;; Registers used:
  7879 ;;		wreg, status,2, status,0, pclath, cstack
  7880 ;; Tracked objects:
  7881 ;;		On entry : 0/0
  7882 ;;		On exit  : 0/0
  7883 ;;		Unchanged: 0/0
  7884 ;; Data sizes:     COMMON   BANK0   BANK1   BANK3   BANK2
  7885 ;;      Params:         0       0       0       0       0
  7886 ;;      Locals:         0       0       0       0       0
  7887 ;;      Temps:          0       0       0       0       0
  7888 ;;      Totals:         0       0       0       0       0
  7889 ;;Total ram usage:        0 bytes
  7890 ;; Hardware stack levels used: 1
  7891 ;; Hardware stack levels required when called: 1
  7892 ;; This function calls:
  7893 ;;		_I2C_Master_Wait
  7894 ;; This function is called by:
  7895 ;;		_main
  7896 ;; This function uses a non-reentrant model
  7897 ;;
  7898                           
  7899                           
  7900                           ;psect for function _I2C_Master_Start
  7901  13EB                     _I2C_Master_Start:
  7902  13EB                     l2806:	
  7903                           ;incstack = 0
  7904                           ; Regs used in _I2C_Master_Start: [wreg+status,2+status,0+pclath+cstack]
  7905                           
  7906                           
  7907                           ;Librerias.c: 39:     I2C_Master_Wait();
  7908  13EB  160A  118A  2409  160A  118A  	fcall	_I2C_Master_Wait
  7909  13F0                     l2808:
  7910                           
  7911                           ;Librerias.c: 40:     SSPCON2bits.SEN = 1;
  7912  13F0  1683               	bsf	3,5	;RP0=1, select bank1
  7913  13F1  1303               	bcf	3,6	;RP1=0, select bank1
  7914  13F2  1411               	bsf	17,0	;volatile
  7915  13F3                     l167:
  7916  13F3  0008               	return
  7917  13F4                     __end_of_I2C_Master_Start:
  7918                           
  7919                           	psect	text27
  7920  150D                     __ptext27:	
  7921 ;; *************** function _I2C_Master_Read *****************
  7922 ;; Defined at:
  7923 ;;		line 72 in file "Librerias.c"
  7924 ;; Parameters:    Size  Location     Type
  7925 ;;  a               2    0[COMMON] unsigned short 
  7926 ;; Auto vars:     Size  Location     Type
  7927 ;;  temp            2    4[COMMON] unsigned short 
  7928 ;; Return value:  Size  Location     Type
  7929 ;;                  2    0[COMMON] unsigned short 
  7930 ;; Registers used:
  7931 ;;		wreg, status,2, status,0, pclath, cstack
  7932 ;; Tracked objects:
  7933 ;;		On entry : 0/0
  7934 ;;		On exit  : 0/0
  7935 ;;		Unchanged: 0/0
  7936 ;; Data sizes:     COMMON   BANK0   BANK1   BANK3   BANK2
  7937 ;;      Params:         2       0       0       0       0
  7938 ;;      Locals:         2       0       0       0       0
  7939 ;;      Temps:          2       0       0       0       0
  7940 ;;      Totals:         6       0       0       0       0
  7941 ;;Total ram usage:        6 bytes
  7942 ;; Hardware stack levels used: 1
  7943 ;; Hardware stack levels required when called: 1
  7944 ;; This function calls:
  7945 ;;		_I2C_Master_Wait
  7946 ;; This function is called by:
  7947 ;;		_main
  7948 ;; This function uses a non-reentrant model
  7949 ;;
  7950                           
  7951                           
  7952                           ;psect for function _I2C_Master_Read
  7953  150D                     _I2C_Master_Read:
  7954  150D                     l2818:	
  7955                           ;incstack = 0
  7956                           ; Regs used in _I2C_Master_Read: [wreg+status,2+status,0+pclath+cstack]
  7957                           
  7958                           
  7959                           ;Librerias.c: 72: unsigned short I2C_Master_Read(unsigned short a);Librerias.c: 73: {;Li
      +                          brerias.c: 74:     unsigned short temp;;Librerias.c: 75:     I2C_Master_Wait();
  7960  150D  160A  118A  2409  160A  118A  	fcall	_I2C_Master_Wait
  7961  1512                     l2820:
  7962                           
  7963                           ;Librerias.c: 76:     SSPCON2bits.RCEN = 1;
  7964  1512  1683               	bsf	3,5	;RP0=1, select bank1
  7965  1513  1303               	bcf	3,6	;RP1=0, select bank1
  7966  1514  1591               	bsf	17,3	;volatile
  7967                           
  7968                           ;Librerias.c: 77:     I2C_Master_Wait();
  7969  1515  160A  118A  2409  160A  118A  	fcall	_I2C_Master_Wait
  7970  151A                     l2822:
  7971                           
  7972                           ;Librerias.c: 78:     temp = SSPBUF;
  7973  151A  1283               	bcf	3,5	;RP0=0, select bank0
  7974  151B  1303               	bcf	3,6	;RP1=0, select bank0
  7975  151C  0813               	movf	19,w	;volatile
  7976  151D  00F2               	movwf	??_I2C_Master_Read
  7977  151E  01F3               	clrf	??_I2C_Master_Read+1
  7978  151F  0872               	movf	??_I2C_Master_Read,w
  7979  1520  00F4               	movwf	I2C_Master_Read@temp
  7980  1521  0873               	movf	??_I2C_Master_Read+1,w
  7981  1522  00F5               	movwf	I2C_Master_Read@temp+1
  7982  1523                     l2824:
  7983                           
  7984                           ;Librerias.c: 79:     I2C_Master_Wait();
  7985  1523  160A  118A  2409  160A  118A  	fcall	_I2C_Master_Wait
  7986  1528                     l2826:
  7987                           
  7988                           ;Librerias.c: 80:     if(a == 1){
  7989  1528  0370               	decf	I2C_Master_Read@a,w
  7990  1529  0471               	iorwf	I2C_Master_Read@a+1,w
  7991  152A  1D03               	btfss	3,2
  7992  152B  2D2D               	goto	u3671
  7993  152C  2D2E               	goto	u3670
  7994  152D                     u3671:
  7995  152D  2D32               	goto	l179
  7996  152E                     u3670:
  7997  152E                     l2828:
  7998                           
  7999                           ;Librerias.c: 81:         SSPCON2bits.ACKDT = 0;
  8000  152E  1683               	bsf	3,5	;RP0=1, select bank1
  8001  152F  1303               	bcf	3,6	;RP1=0, select bank1
  8002  1530  1291               	bcf	17,5	;volatile
  8003                           
  8004                           ;Librerias.c: 82:     }else{
  8005  1531  2D35               	goto	l180
  8006  1532                     l179:
  8007                           
  8008                           ;Librerias.c: 83:         SSPCON2bits.ACKDT = 1;
  8009  1532  1683               	bsf	3,5	;RP0=1, select bank1
  8010  1533  1303               	bcf	3,6	;RP1=0, select bank1
  8011  1534  1691               	bsf	17,5	;volatile
  8012  1535                     l180:	
  8013                           ;Librerias.c: 84:     }
  8014                           
  8015                           
  8016                           ;Librerias.c: 85:     SSPCON2bits.ACKEN = 1;
  8017  1535  1611               	bsf	17,4	;volatile
  8018  1536                     l2830:
  8019                           
  8020                           ;Librerias.c: 86:     return temp;
  8021  1536  0875               	movf	I2C_Master_Read@temp+1,w
  8022  1537  00F1               	movwf	?_I2C_Master_Read+1
  8023  1538  0874               	movf	I2C_Master_Read@temp,w
  8024  1539  00F0               	movwf	?_I2C_Master_Read
  8025  153A                     l181:
  8026  153A  0008               	return
  8027  153B                     __end_of_I2C_Master_Read:
  8028                           
  8029                           	psect	text28
  8030  1409                     __ptext28:	
  8031 ;; *************** function _I2C_Master_Wait *****************
  8032 ;; Defined at:
  8033 ;;		line 30 in file "Librerias.c"
  8034 ;; Parameters:    Size  Location     Type
  8035 ;;		None
  8036 ;; Auto vars:     Size  Location     Type
  8037 ;;		None
  8038 ;; Return value:  Size  Location     Type
  8039 ;;                  1    wreg      void 
  8040 ;; Registers used:
  8041 ;;		wreg, status,2
  8042 ;; Tracked objects:
  8043 ;;		On entry : 0/0
  8044 ;;		On exit  : 0/0
  8045 ;;		Unchanged: 0/0
  8046 ;; Data sizes:     COMMON   BANK0   BANK1   BANK3   BANK2
  8047 ;;      Params:         0       0       0       0       0
  8048 ;;      Locals:         0       0       0       0       0
  8049 ;;      Temps:          0       0       0       0       0
  8050 ;;      Totals:         0       0       0       0       0
  8051 ;;Total ram usage:        0 bytes
  8052 ;; Hardware stack levels used: 1
  8053 ;; This function calls:
  8054 ;;		Nothing
  8055 ;; This function is called by:
  8056 ;;		_I2C_Master_Start
  8057 ;;		_I2C_Master_Stop
  8058 ;;		_I2C_Master_Write
  8059 ;;		_I2C_Master_Read
  8060 ;;		_I2C_Master_RepeatedStart
  8061 ;; This function uses a non-reentrant model
  8062 ;;
  8063                           
  8064                           
  8065                           ;psect for function _I2C_Master_Wait
  8066  1409                     _I2C_Master_Wait:
  8067  1409                     l2288:	
  8068                           ;incstack = 0
  8069                           ; Regs used in _I2C_Master_Wait: [wreg+status,2]
  8070                           
  8071  1409                     l161:	
  8072                           ;Librerias.c: 32:     while ((SSPSTAT & 0x04) || (SSPCON2 & 0x1F));
  8073                           
  8074  1409  1683               	bsf	3,5	;RP0=1, select bank1
  8075  140A  1303               	bcf	3,6	;RP1=0, select bank1
  8076  140B  1914               	btfsc	20,2	;volatile
  8077  140C  2C0E               	goto	u2491
  8078  140D  2C0F               	goto	u2490
  8079  140E                     u2491:
  8080  140E  2C09               	goto	l161
  8081  140F                     u2490:
  8082  140F                     l2290:
  8083  140F  0811               	movf	17,w	;volatile
  8084  1410  391F               	andlw	31
  8085  1411  1D03               	btfss	3,2
  8086  1412  2C14               	goto	u2501
  8087  1413  2C15               	goto	u2500
  8088  1414                     u2501:
  8089  1414  2C09               	goto	l161
  8090  1415                     u2500:
  8091  1415                     l164:
  8092  1415  0008               	return
  8093  1416                     __end_of_I2C_Master_Wait:
  8094  007E                     btemp	set	126	;btemp
  8095  007E                     wtemp0	set	126
  8096                           
  8097                           	psect	config
  8098                           
  8099                           ;Config register CONFIG1 @ 0x2007
  8100                           ;	Oscillator Selection bits
  8101                           ;	FOSC = INTRC_NOCLKOUT, INTOSCIO oscillator: I/O function on RA6/OSC2/CLKOUT pin, I/O f
      +                          unction on RA7/OSC1/CLKIN
  8102                           ;	Watchdog Timer Enable bit
  8103                           ;	WDTE = OFF, WDT disabled and can be enabled by SWDTEN bit of the WDTCON register
  8104                           ;	Power-up Timer Enable bit
  8105                           ;	PWRTE = OFF, PWRT disabled
  8106                           ;	RE3/MCLR pin function select bit
  8107                           ;	MCLRE = OFF, RE3/MCLR pin function is digital input, MCLR internally tied to VDD
  8108                           ;	Code Protection bit
  8109                           ;	CP = OFF, Program memory code protection is disabled
  8110                           ;	Data Code Protection bit
  8111                           ;	CPD = OFF, Data memory code protection is disabled
  8112                           ;	Brown Out Reset Selection bits
  8113                           ;	BOREN = OFF, BOR disabled
  8114                           ;	Internal External Switchover bit
  8115                           ;	IESO = OFF, Internal/External Switchover mode is disabled
  8116                           ;	Fail-Safe Clock Monitor Enabled bit
  8117                           ;	FCMEN = OFF, Fail-Safe Clock Monitor is disabled
  8118                           ;	Low Voltage Programming Enable bit
  8119                           ;	LVP = OFF, RB3 pin has digital I/O, HV on MCLR must be used for programming
  8120                           ;	In-Circuit Debugger Mode bit
  8121                           ;	DEBUG = 0x1, unprogrammed default
  8122  2007                     	org	8199
  8123  2007  20D4               	dw	8404
  8124                           
  8125                           ;Config register CONFIG2 @ 0x2008
  8126                           ;	Brown-out Reset Selection bit
  8127                           ;	BOR4V = BOR40V, Brown-out Reset set to 4.0V
  8128                           ;	Flash Program Memory Self Write Enable bits
  8129                           ;	WRT = OFF, Write protection off
  8130  2008                     	org	8200
  8131  2008  3FFF               	dw	16383

Data Sizes:
    Strings     15
    Constant    0
    Data        0
    BSS         63
    Persistent  0
    Stack       0

Auto Spaces:
    Space          Size  Autos    Used
    COMMON           14     14      14
    BANK0            80     80      80
    BANK1            80     19      72
    BANK3            96      0      10
    BANK2            96      0       0

Pointer List with Targets:

    convert@data	PTR unsigned char  size(1) Largest target is 10
		 -> humedad(BANK1[10]), lcd1(BANK1[10]), 

    Lcd_Write_String@a	PTR unsigned char  size(2) Largest target is 10
		 -> STR_5(CODE[2]), STR_4(CODE[2]), humedad(BANK1[10]), lcd1(BANK1[10]), 
		 -> STR_3(CODE[4]), STR_2(CODE[4]), STR_1(CODE[5]), 


Critical Paths under _main in COMMON

    _I2C_Master_Init->___lldiv
    _convert->___wmul
    ___xxtofl->___wmul
    ___wmul->___fltol
    ___flsub->___wmul
    _Lcd_Write_String->_Lcd_Write_Char
    _Lcd_Write_Char->_Lcd_Port
    _Lcd_Set_Cursor->_Lcd_Cmd
    _Lcd_Init->_Lcd_Cmd
    _Lcd_Clear->_Lcd_Cmd
    _Lcd_Cmd->_Lcd_Port

Critical Paths under _main in BANK0

    _main->_convert
    _setup->_I2C_Master_Init
    _convert->___flmul
    ___xxtofl->___wmul
    ___flsub->___fladd
    ___fladd->___xxtofl
    ___flmul->___flsub
    ___fldiv->___xxtofl

Critical Paths under _main in BANK1

    _main->_convert

Critical Paths under _main in BANK3

    None.

Critical Paths under _main in BANK2

    None.

Call Graph Tables:

 ---------------------------------------------------------------------------------
 (Depth) Function   	        Calls       Base Space   Used Autos Params    Refs
 ---------------------------------------------------------------------------------
 (0) _main                                                 4     4      0   23469
                                             15 BANK1      4     4      0
                    _I2C_Master_Read
                   _I2C_Master_Start
                    _I2C_Master_Stop
                   _I2C_Master_Write
                          _Lcd_Clear
                           _Lcd_Init
                     _Lcd_Set_Cursor
                   _Lcd_Write_String
                      _USART_Recieve
                     _USART_Transmit
                            ___fladd
                            ___fldiv
                            ___flmul
                            ___fltol
                           ___xxtofl
                            _convert
                              _setup
 ---------------------------------------------------------------------------------
 (1) _setup                                                0     0      0     412
                    _I2C_Master_Init
 ---------------------------------------------------------------------------------
 (2) _I2C_Master_Init                                      8     4      4     412
                                              0 BANK0      8     4      4
                            ___lldiv
 ---------------------------------------------------------------------------------
 (3) ___lldiv                                             14     6      8     314
                                              0 COMMON    14     6      8
 ---------------------------------------------------------------------------------
 (1) _convert                                             23    17      6   12141
                                             72 BANK0      8     2      6
                                              0 BANK1     15    15      0
                            ___awdiv
                            ___fldiv
                             ___flge
                            ___flmul
                            ___flsub
                            ___fltol
                             ___wmul
                           ___xxtofl
 ---------------------------------------------------------------------------------
 (2) ___xxtofl                                            14    10      4    1006
                                              4 BANK0     14    10      4
                            ___fltol (ARG)
                             ___wmul (ARG)
 ---------------------------------------------------------------------------------
 (2) ___wmul                                               6     2      4     852
                                             11 COMMON     2     2      0
                                              0 BANK0      4     0      4
                            ___fltol (ARG)
 ---------------------------------------------------------------------------------
 (2) ___fltol                                             11     7      4     837
                                              0 COMMON    11     7      4
 ---------------------------------------------------------------------------------
 (2) ___flsub                                              8     0      8    2789
                                             38 BANK0      8     0      8
                            ___fladd
                            ___fltol (ARG)
                             ___wmul (ARG)
                           ___xxtofl (ARG)
 ---------------------------------------------------------------------------------
 (3) ___fladd                                             20    12      8    2288
                                             18 BANK0     20    12      8
                           ___xxtofl (ARG)
 ---------------------------------------------------------------------------------
 (2) ___flmul                                             26    18      8    2873
                                             46 BANK0     26    18      8
                          __Umul8_16
                            ___fldiv (ARG)
                            ___flsub (ARG)
                            ___fltol (ARG)
                           ___xxtofl (ARG)
 ---------------------------------------------------------------------------------
 (3) __Umul8_16                                            9     7      2     799
                                              0 COMMON     9     7      2
 ---------------------------------------------------------------------------------
 (2) ___flge                                              12     4      8     334
                                              0 COMMON    12     4      8
 ---------------------------------------------------------------------------------
 (2) ___fldiv                                             26    18      8    1577
                                             18 BANK0     26    18      8
                           ___xxtofl (ARG)
 ---------------------------------------------------------------------------------
 (2) ___awdiv                                              9     5      4     452
                                              0 COMMON     9     5      4
 ---------------------------------------------------------------------------------
 (1) _USART_Transmit                                       1     1      0      22
                                              0 COMMON     1     1      0
 ---------------------------------------------------------------------------------
 (1) _USART_Recieve                                        0     0      0       0
 ---------------------------------------------------------------------------------
 (1) _Lcd_Write_String                                     7     5      2     666
                                              3 COMMON     7     5      2
                     _Lcd_Write_Char
 ---------------------------------------------------------------------------------
 (2) _Lcd_Write_Char                                       2     2      0      44
                                              1 COMMON     2     2      0
                           _Lcd_Port
 ---------------------------------------------------------------------------------
 (1) _Lcd_Set_Cursor                                       4     3      1     710
                                              4 COMMON     4     3      1
                            _Lcd_Cmd
 ---------------------------------------------------------------------------------
 (1) _Lcd_Init                                             2     2      0      66
                                              4 COMMON     2     2      0
                            _Lcd_Cmd
                           _Lcd_Port
 ---------------------------------------------------------------------------------
 (1) _Lcd_Clear                                            0     0      0      44
                            _Lcd_Cmd
 ---------------------------------------------------------------------------------
 (2) _Lcd_Cmd                                              3     3      0      44
                                              1 COMMON     3     3      0
                           _Lcd_Port
 ---------------------------------------------------------------------------------
 (3) _Lcd_Port                                             1     1      0      22
                                              0 COMMON     1     1      0
 ---------------------------------------------------------------------------------
 (1) _I2C_Master_Write                                     2     0      2     554
                                              0 COMMON     2     0      2
                    _I2C_Master_Wait
 ---------------------------------------------------------------------------------
 (1) _I2C_Master_Stop                                      0     0      0       0
                    _I2C_Master_Wait
 ---------------------------------------------------------------------------------
 (1) _I2C_Master_Start                                     0     0      0       0
                    _I2C_Master_Wait
 ---------------------------------------------------------------------------------
 (1) _I2C_Master_Read                                      6     4      2     273
                                              0 COMMON     6     4      2
                    _I2C_Master_Wait
 ---------------------------------------------------------------------------------
 (2) _I2C_Master_Wait                                      0     0      0       0
 ---------------------------------------------------------------------------------
 Estimated maximum stack depth 3
 ---------------------------------------------------------------------------------

 Call Graph Graphs:

 _main (ROOT)
   _I2C_Master_Read
     _I2C_Master_Wait
   _I2C_Master_Start
     _I2C_Master_Wait
   _I2C_Master_Stop
     _I2C_Master_Wait
   _I2C_Master_Write
     _I2C_Master_Wait
   _Lcd_Clear
     _Lcd_Cmd
       _Lcd_Port
   _Lcd_Init
     _Lcd_Cmd
     _Lcd_Port
   _Lcd_Set_Cursor
     _Lcd_Cmd
   _Lcd_Write_String
     _Lcd_Write_Char
       _Lcd_Port
   _USART_Recieve
   _USART_Transmit
   ___fladd
     ___xxtofl (ARG)
       ___fltol (ARG)
       ___wmul (ARG)
         ___fltol (ARG)
   ___fldiv
     ___xxtofl (ARG)
   ___flmul
     __Umul8_16
     ___fldiv (ARG)
     ___flsub (ARG)
       ___fladd
       ___fltol (ARG)
       ___wmul (ARG)
       ___xxtofl (ARG)
     ___fltol (ARG)
     ___xxtofl (ARG)
   ___fltol
   ___xxtofl
   _convert
     ___awdiv
     ___fldiv
     ___flge
     ___flmul
     ___flsub
     ___fltol
     ___wmul
     ___xxtofl
   _setup
     _I2C_Master_Init
       ___lldiv

 Address spaces:
Name               Size   Autos  Total    Cost      Usage
BITCOMMON            E      0       0       0        0.0%
EEDATA             100      0       0       0        0.0%
NULL                 0      0       0       0        0.0%
CODE                 0      0       0       0        0.0%
COMMON               E      E       E       1      100.0%
BITSFR0              0      0       0       1        0.0%
SFR0                 0      0       0       1        0.0%
BITSFR1              0      0       0       2        0.0%
SFR1                 0      0       0       2        0.0%
STACK                0      0       0       2        0.0%
ABS                  0      0      B0       3        0.0%
BITBANK0            50      0       0       4        0.0%
BITSFR3              0      0       0       4        0.0%
SFR3                 0      0       0       4        0.0%
BANK0               50     50      50       5      100.0%
BITSFR2              0      0       0       5        0.0%
SFR2                 0      0       0       5        0.0%
BITBANK1            50      0       0       6        0.0%
BANK1               50     13      48       7       90.0%
BITBANK3            60      0       0       8        0.0%
BANK3               60      0       A       9       10.4%
BITBANK2            60      0       0      10        0.0%
BANK2               60      0       0      11        0.0%
DATA                 0      0      B0      12        0.0%


Microchip Technology PIC Macro Assembler V2.32 build 20210201212658 
Symbol Table                                                                                   Mon Sep 06 11:35:04 2021

             ___fldiv@aexp 004B               ___fldiv@bexp 004A                          pc 0002  
             ___fldiv@sign 0043                         l93 14BE                         l85 0084  
             ___awdiv@sign 0076                         fsr 0004        ___wmul@multiplicand 0022  
      __Umul8_16@word_mpld 0076                        l200 13E2                        l203 1452  
                      l212 1476                        l206 1422                        l215 15C1  
                      l224 157C                        l320 13FE                        l161 1409  
                      l218 1438                        l323 1408                        l164 1415  
                      l180 1535                        l420 150C                        l181 153A  
                      l173 13FC                        l326 13DC                        l158 0839  
                      l167 13F3                        l176 000D                        l256 07E9  
                      l418 14F4                        l179 1532                        l611 168C  
                      l604 16A1                        l614 16A1                        l454 1627  
                      l711 0A7A                        l571 0074                        l715 0B21  
                      l732 0BEC                        l724 0C9E                        l813 0F6B  
                      l717 0AF8                        l742 0C32                        l807 0FFF  
                      l592 16BE                        l736 0C10                        l753 0C92  
                      l745 0C70                        l826 14D3                        l754 0C9E  
                      l595 172A                        l819 0FF3                        l851 1768  
                      l596 1743                        l828 14E5                        l757 149A  
                      l853 17FF                        l791 0A0A                        l783 0988  
                      l767 0896                        l864 17C9                        l769 0A16  
                      l865 17D5                        l857 17AD                        l789 09FA  
                      _GIE 005F                        fsr0 0004                        indf 0000  
   __end_of_USART_Transmit 1409               ___flmul@aexp 0060               ___flmul@bexp 0061  
             ___flmul@sign 005B               ___flmul@temp 0066               ___flmul@prod 0062  
           ?_USART_Recieve 0070               ___fltol@exp1 007A                       l2100 0A5D  
                     l2102 0A62                       l2110 0A72                       l2200 0BDE  
                     l2120 0A90                       l2112 0A80                       l2104 0A67  
                     l3000 036A                       l2042 13DE                       l2210 0C0B  
                     l2202 0BF4                       l2130 0AA4                       l2122 0A94  
                     l2114 0A84                       l2106 0A6F                       l2050 15E2  
                     l3010 03B2                       l3002 037F                       l2300 144F  
                     l2220 0C1E                       l2212 0C0F                       l2204 0BF9  
                     l2140 0AB8                       l2132 0AA8                       l2124 0A98  
                     l2116 0A88                       l2108 0A70                       l2060 1610  
                     l2052 15E6                       l2044 15C2                       l3020 03E4  
                     l3012 03B8                       l3004 0388                       l2310 1435  
                     l2302 1424                       l2230 0C2F                       l2214 0C14  
                     l2222 0C20                       l2150 0ADC                       l2142 0ABC  
                     l2134 0AAC                       l2126 0A9C                       l2118 0A8C  
                     l2070 0A1E                       l2062 1619                       l2054 15EF  
                     l2046 15D2                       l3014 03C2                       l3006 039D  
                     l2304 1427                       l2240 0C4E                       l2216 0C17  
                     l2208 0C02                       l2224 0C24                       l2160 0B0C  
                     l2152 0AFC                       l2144 0AC0                       l2136 0AB0  
                     l2128 0AA0                       l2080 0A33                       l2072 0A24  
                     l2400 1652                       l2320 1502                       l2312 14E6  
                     l2056 1601                       l2048 15D5                       l2064 161F  
                     l3016 03C8                       l3008 03A9                       l2306 142D  
                     l2330 0013                       l2250 0C87                       l2242 0C6C  
                     l2234 0C37                       l2226 0C25                       l2218 0C19  
                     l2162 0B15                       l2154 0B05                       l2138 0AB4  
                     l2146 0AC4                       l2090 0A4B                       l2082 0A3B  
                     l2074 0A28                       l2402 165A                       l2322 1508  
                     l2314 14E8                       l2058 160F                       l3018 03E1  
                     l2308 1430                       l2340 0027                       l2332 0018  
                     l2500 0908                       l2260 0C9D                       l2252 0C88  
                     l2244 0C75                       l2236 0C3C                       l2228 0C29  
                     l2180 0B5B                       l2172 0B33                       l2156 0B07  
                     l2164 0B19                       l2148 0AC5                       l2092 0A51  
                     l2084 0A3C                       l2076 0A29                       l2068 0A17  
                     l2420 1681                       l2412 1668                       l2404 165C  
                     l2316 14EE                       l2350 003D                       l2342 0029  
                     l2334 001A                       l2326 000E                       l2510 0929  
                     l2502 090C                       l2270 14DC                       l2262 14C0  
                     l2254 0C8C                       l2246 0C7A                       l2238 0C4A  
                     l2182 0B5D                       l2174 0B4A                       l2166 0B25  
                     l2190 0B70                       l2158 0B0B                       l2094 0A52  
                     l2078 0A2E                       l2086 0A3E                       l2422 1691  
                     l2406 1660                       l2414 167A                       l2318 14FB  
                     l2360 0060                       l2352 0041                       l2344 002F  
                     l2336 001E                       l2328 000F                       l2520 094B  
                     l2512 0937                       l2504 090D                       l2440 084C  
                     l2432 083A                       l2272 14E1                       l2264 14C2  
                     l2600 0CDD                       l2256 0C8E                       l2248 0C82  
                     l2192 0B86                       l2184 0B61                       l2176 0B4E  
                     l2168 0B2A                       l2096 0A58                       l2088 0A46  
                     l2424 1696                       l2280 0809                       l2290 140F  
                     l2354 0052                       l2346 0032                       l2362 0066  
                     l2338 0023                       l2522 0954                       l2530 0968  
                     l2506 0916                       l2514 093B                       l2442 0851  
                     l2450 0861                       l2434 0841                       l2370 16A2  
                     l2266 14C9                       l2610 0CF9                       l2602 0CE2  
                     l2258 0C99                       l2194 0BC4                       l2186 0B62  
                     l2178 0B52                       l2098 0A5C                       l2426 1477  
                     l2282 0836                       l2292 143A                       l2364 006B  
                     l2356 0058                       l2348 0039                       l2532 096C  
                     l2524 0958                       l2516 0941                       l2508 0928  
                     l2460 0879                       l2452 0869                       l2444 0856  
                     l2436 0847                       l2380 1702                       l2372 16B6  
                     l2268 14CD                       l2700 0FD7                       l2620 0D1C  
                     l2612 0CFE                       l2604 0CE7                       l2196 0BCA  
                     l2188 0B6B                       l2428 147B                       l2284 0837  
                     l2276 0802                       l2294 143D                       l2366 0070  
                     l2358 0059                       l2550 09BD                       l2542 098D  
                     l2534 096D                       l2526 0959                       l2518 0949  
                     l2462 087E                       l2470 088E                       l2454 086E  
                     l2446 085E                       l2438 084B                       l2382 1706  
                     l2374 16D2                       l2710 0FF7                       l2702 0FD9  
                     l2630 0DAA                       l2622 0D29                       l2614 0D03  
                     l2606 0CEF                       l2198 0BCF                       l2390 1628  
                     l2286 0838                       l2278 0806                       l2288 1409  
                     l2296 1443                       l2800 153E                       l2560 09F1  
                     l2544 0992                       l2552 09C3                       l2536 0971  
                     l2528 0962                       l2472 089E                       l2480 08B7  
                     l2464 0883                       l2456 0874                       l2448 085F  
                     l2384 1740                       l2376 16DA                       l2704 0FE7  
                     l2640 0E0C                       l2632 0DC6                       l2624 0D46  
                     l2608 0CF1                       l2392 1633                       l2720 1760  
                     l2810 0004                       l2298 1446                       l2802 155A  
                     l2562 09F9                       l2554 09D0                       l2546 09A0  
                     l2538 0985                       l2490 08DF                       l2482 08BC  
                     l2474 08AA                       l2466 088B                       l2458 0878  
                     l2386 1742                       l2378 16DE                       l2706 0FEB  
                     l2650 0E9C                       l2642 0E29                       l2634 0DCF  
                     l2626 0D62                       l2618 0D0C                       l2730 178B  
                     l2722 1770                       l2714 1747                       l2820 1512  
                     l2812 0009                       l2804 1560                       l2564 0A00  
                     l2556 09DE                       l2548 09A4                       l2492 08E7  
                     l2476 08AE                       l2468 088C                       l2708 0FEC  
                     l2660 0F2E                       l2652 0EC9                       l2644 0E42  
                     l2636 0DDF                       l2628 0D8E                       l2580 0CB0  
                     l2396 163C                       l2740 17BF                       l2732 1792  
                     l2716 174C                       l2900 0682                       l2830 1536  
                     l2822 151A                       l2806 13EB                       l2814 13F4  
                     l2566 0A04                       l2558 09ED                       l2494 08EF  
                     l2486 08C5                       l2662 0F37                       l2670 0F4B  
                     l2654 0EEF                       l2646 0E5F                       l2638 0DFC  
                     l2590 0CC5                       l2582 0CB1                       l2574 0C9F  
                     l2398 1651                       l2750 17F2                       l2742 17C3  
                     l2734 1796                       l2726 1779                       l2718 1750  
                     l2910 06B8                       l2902 0698                       l2824 1523  
                     l2808 13F0                       l2816 13F9                       l2568 0A06  
                     l2496 08F1                       l2488 08D7                       l2672 0F4F  
                     l2664 0F3B                       l2656 0F17                       l2648 0E8C  
                     l2592 0CCD                       l2584 0CB6                       l2576 0CA6  
                     l2752 17F6                       l2744 17CD                       l2736 17A4  
                     l2728 177E                       l2920 06EF                       l2912 06BE  
                     l2904 06A5                       l2840 0410                       l2760 149F  
                     l2826 1528                       l2818 150D                       l2498 08F6  
                     l2690 0FA0                       l2682 0F70                       l2674 0F50  
                     l2666 0F3C                       l2658 0F20                       l2594 0CD2  
                     l2586 0CBB                       l2578 0CAC                       l2754 17F7  
                     l2746 17D7                       l2738 17B4                       l2930 07CF  
                     l2922 0705                       l2914 06C3                       l2906 06A5  
                     l2850 0452                       l2842 0412                       l2834 03F9  
                     l2770 14BC                       l2762 14A2                       l2828 152E  
                     l2780 159B                       l2940 13FE                       l2684 0F75  
                     l2692 0FA6                       l2676 0F54                       l2668 0F45  
                     l2596 0CD8                       l2588 0CC3                       l2748 17ED  
                     l2924 07A1                       l2916 06C8                       l2932 07D3  
                     l2908 06AB                       l2860 0488                       l2852 045D  
                     l2844 0416                       l2836 040E                       l2772 14BD  
                     l2764 14AB                       l2782 15A1                       l2774 157D  
                     l2790 145E                       l2942 1404                       l2694 0FB3  
                     l2686 0F83                       l2678 0F68                       l2598 0CDC  
                     l2934 07D9                       l2926 07C1                       l2918 06E9  
                     l2870 04BF                       l2862 048E                       l2854 0466  
                     l2846 0416                       l2838 040E                       l2766 14B8  
                     l2758 149B                       l2950 00AA                       l2784 1416  
                     l2776 1583                       l2792 1465                       l2936 13D9  
                     l2696 0FBE                       l2688 0F87                       l2928 07C9  
                     l2880 059F                       l2872 04D5                       l2864 0493  
                     l2856 0479                       l2848 0431                       l2768 14BB  
                     l2960 00F8                       l2952 00B6                       l2944 0075  
                     l2778 158C                       l2794 146B                       l2786 1454  
                     l2698 0FCD                       l2890 05C1                       l2874 0571  
                     l2866 0498                       l2882 05A3                       l2858 047F  
                     l2970 014A                       l2962 0106                       l2954 00DB  
                     l2946 008C                       l2796 1470                       l2788 1459  
                     l2892 05C6                       l2884 05A9                       l2876 0591  
                     l2868 04B9                       l2980 01A5                       l2972 0153  
                     l2964 010B                       l2956 00EA                       l2948 0095  
                     l2798 153B                       l2894 05E7                       l2886 05B9  
                     l2878 0599                       l2990 02D7                       l2982 01DA  
                     l2974 0161                       l2966 0136                       l2958 00EF  
                     l2896 05ED                       l2888 05C1                       l2992 02DF  
                     l2984 023A                       l2976 0166                       l2968 0145  
                     l2898 0605                       l2994 02FF                       l2986 0290  
                     l2978 0196                       l2996 0309                       l2988 02CF  
                     l2998 0362                       STR_1 1010                       STR_2 1015  
                     STR_3 1019                       STR_4 101D                       STR_5 101D  
                     u2000 0A2E                       u2001 0A2D                       u2010 0A33  
                     u2011 0A32                       u2100 0AE8                       u2020 0A51  
                     u2021 0A50                       u2110 0AFC                       u2030 0A5C  
                     u2111 0AFB                       u2031 0A5B                       u2200 0B61  
                     u2120 0B0B                       u2040 0A62                       u2201 0B60  
                     u2121 0B0A                       u2041 0A61                       u3010 096C  
                     u2050 0A67                       u3011 096B                       u2051 0A66  
                     u3100 0A04                       u3020 0971                       u2300 0C14  
                     u2220 0B86                       u2140 0B21                       u2060 0A80  
                     u3101 0A03                       u3021 0970                       u3005 095B  
                     u2301 0C13                       u2221 0B85                       u2141 0B20  
                     u2061 0A7F                       u3030 0985                       u3110 0CB0  
                     u2310 0C1E                       u2150 0B25                       u2070 0A84  
                     u3031 0984                       u3111 0CAF                       u2311 0C1D  
                     u2231 0B9D                       u2223 0B82                       u2215 0B64  
                     u2151 0B24                       u2135 0B0E                       u2071 0A83  
                     u3040 098C                       u3120 0CB6                       u2400 0C75  
                     u2320 0C24                       u2240 0BB1                       u2232 0B9E  
                     u2160 0B2A                       u2080 0ADC                       u3041 098B  
                     u3201 0D70                       u3121 0CB5                       u2401 0C74  
                     u2321 0C23                       u2241 0BB2                       u2233 0BA3  
                     u2161 0B29                       u2081 0ADB                       u3050 0992  
                     u3202 0D77                       u3130 0CBB                       u2410 0C7A  
                     u2330 0C29                       u2250 0BCF                       u2242 0BB7  
                     u2234 0BA4                       u2090 0AE7                       u3051 0991  
                     u3211 0D9C                       u3203 0D7E                       u3131 0CBA  
                     u2411 0C79                       u2331 0C28                       u2251 0BCE  
                     u2243 0BB8                       u2235 0BA9                       u2171 0B3C  
                     u2091 0AE5                       u2500 1415                       u3060 09A4  
                     u3300 0ED5                       u3212 0DA3                       u3140 0CDC  
                     u2420 0C87                       u2340 0C2F                       u2260 0BF4  
                     u2236 0BAA                       u2180 0B4E                       u2172 0B43  
                     u2501 1414                       u3061 09A3                       u3221 0DB8  
                     u3213 0DAA                       u3141 0CDB                       u2421 0C86  
                     u2341 0C2E                       u2261 0BF3                       u2181 0B4D  
                     u2173 0B4A                       u2085 0AD8                       u3070 09B3  
                     u3222 0DBF                       u3150 0CE2                       u2430 0C8C  
                     u2350 0C36                       u2270 0BF9                       u2190 0B52  
                     u2510 14EE                       u3311 0EE1                       u3223 0DC6  
                     u3151 0CE1                       u2431 0C8B                       u2351 0C35  
                     u2271 0BF8                       u2191 0B51                       u2511 14ED  
                     u3080 09D0                       u3400 0F68                       u3320 0EFD  
                     u3312 0EE8                       u3160 0CE7                       u2440 0C9D  
                     u2360 0C3C                       u3081 09CF                       u3401 0F67  
                     u3313 0EEF                       u3305 0ED0                       u3241 0DEE  
                     u3161 0CE6                       u2441 0C9C                       u2361 0C3B  
                     u2610 0052                       u3090 09ED                       u2450 14CD  
                     u3410 0F6F                       u3242 0DF5                       u3170 0CFE  
                     u2370 0C4E                       u2290 0C0F                       u2611 0051  
                     u3091 09EC                       u3075 09AE                       u2451 14CC  
                     u3411 0F6E                       u3331 0F09                       u3251 0E1B  
                     u3243 0DFC                       u3235 0DC8                       u3171 0CFD  
                     u2371 0C4D                       u2291 0C0E                       u3420 0F75  
                     u3332 0F10                       u3252 0E22                       u3180 0D03  
                     u2380 0C5D                       u2540 1508                       u3500 1770  
                     u2605 0042                       u3085 09CC                       u2701 1715  
                     u3421 0F74                       u3333 0F17                       u3325 0EF8  
                     u3253 0E29                       u3181 0D02                       u2285 0C04  
                     u2541 1507                       u2525 14F5                       u3501 176F  
                     u2630 0066                       u2550 0013                       u2710 1740  
                     u2702 1716                       u2470 14E1                       u3430 0F87  
                     u2390 0C6C                       u2631 0065                       u2615 004E  
                     u2551 0012                       u3095 09E9                       u2711 173F  
                     u2703 171B                       u2471 14E0                       u3431 0F86  
                     u3271 0E51                       u3191 0D54                       u2391 0C6B  
                     u2535 14FC                       u2640 006B                       u2560 001E  
                     u2704 171C                       u3440 0F96                       u3360 0F3B  
                     u3272 0E58                       u3192 0D5B                       u2800 1691  
                     u2720 1633                       u3600 17F2                       u3520 1791  
                     u1920 15D2                       u2480 0819                       u2641 006A  
                     u2625 005A                       u2561 001D                       u2705 1721  
                     u2465 14D4                       u3361 0F3A                       u3345 0F19  
                     u3281 0E7E                       u3273 0E5F                       u3265 0E2B  
                     u3193 0D62                       u2385 0C58                       u2801 1690  
                     u2721 1632                       u3601 17F1                       u3521 1790  
                     u1921 15D1                       u2490 140F                       u2570 002F  
                     u2706 1722                       u2650 16B6                       u3450 0FB3  
                     u3282 0E85                       u2810 1696                       u2730 164A  
                     u3610 17F6                       u2491 140E                       u2571 002E  
                     u2715 173C                       u2651 16B5                       u3451 0FB2  
                     u3355 0F30                       u3291 0EAB                       u3283 0E8C  
                     u2811 1695                       u3611 17F5                       u3515 1783  
                     u3620 1459                       u2900 08F6                       u2820 084B  
                     u2660 16D2                       u3460 0FCD                       u3380 0F4F  
                     u3292 0EB2                       u2740 1660                       u3540 17B3  
                     u3700 048E                       u1940 15E6                       u3621 1458  
                     u2901 08F5                       u2821 084A                       u2661 16D1  
                     u3461 0FCC                       u3445 0F91                       u3381 0F4E  
                     u3293 0EB9                       u2741 165F                       u3541 17B2  
                     u3701 048D                       u1941 15E5                       u2485 0814  
                     u3630 146B                       u2590 0041                       u2830 0851  
                     u2670 16DE                       u3470 0FEB                       u3390 0F54  
                     u2750 1667                       u3710 04D5                       u3631 146A  
                     u2591 0040                       u2831 0850                       u2671 16DD  
                     u3471 0FEA                       u3455 0FAF                       u3391 0F53  
                     u3375 0F3E                       u2751 1666                       u2735 1645  
                     u3535 17A5                       u3711 04D4                       u1935 15D7  
                     u3640 1548                       u2840 0856                       u3560 17C3  
                     u3480 174C                       u3720 05A9                       u1960 1601  
                     u2585 0033                       u2841 0855                       u2681 16ED  
                     u3465 0FC9                       u3561 17C2                       u3481 174B  
                     u3721 05A8                       u1961 1600                       u3650 156A  
                     u2930 090C                       u2850 0878                       u2690 1706  
                     u2682 16EE                       u2770 1679                       u3570 17C9  
                     u3490 1750                       u3730 0605                       u2931 090B  
                     u2915 08F8                       u2851 0877                       u2691 1705  
                     u2683 16F3                       u2771 1678                       u3571 17C8  
                     u3555 17B8                       u3491 174F                       u3731 0604  
                     u3715 04D1                       u1955 15E8                       _PEIE 005E  
                     u3660 157C                       u2860 087E                       u2684 16F4  
                     u2780 1680                       u3580 17CD                       u3740 06BE  
                     u1980 161F                       u3661 157B                       u2925 0901  
                     u2861 087D                       u2685 16F9                       u2781 167F  
                     u2765 1669                       u3581 17CC                       u3741 06BD  
                     u1981 161E                       u1965 15FD                       u3670 152E  
                     u2950 0928                       u2870 0883                       u2686 16FA  
                     u1990 0A28                       u3590 17E2                       u3750 0705  
                     u3671 152D                       u2951 0927                       u2871 0882  
                     u1991 0A27                       u3751 0704                       u3735 0601  
                     u1975 1611                       u2960 0941                       u2880 089E  
                     u3760 07D9                       u3680 0431                       u2961 0940  
                     u2945 090F                       u2881 089D                       u3761 07D8  
                     u3681 0430                       u3817 00E3                       u3770 1404  
                     u2970 0949                       u2890 08BC                       u3690 0487  
                     u3907 15A5                       u3771 1403                       u2971 0948  
                     u2955 0924                       u2891 08BB                       u2795 1683  
                     u3595 17DD                       u3755 0701                       u3691 0486  
                     u3827 0113                       u3780 03B8                       u3917 144A  
                     u3781 03B7                       u3837 013E                       u2990 0958  
                     u3790 03C8                       u2991 0957                       u3791 03C7  
                     u3847 016E                       u2985 094D                       u3857 019E  
                     u3867 03EC                       u3877 1432                       u3887 1587  
                     u3897 1596                       _lcd1 00CB                       _lcd3 0190  
        ?_Lcd_Write_String 0073                       _dato 00BB                       _main 0075  
                     _tem1 00C0                       _tem2 00BF                       _temp 00B4  
                     btemp 007E                       _volt 00B0                       start 0000  
       ??_Lcd_Write_String 0075            ___fldiv@new_exp 0044            __end_of_Lcd_Cmd 1453  
         ?_I2C_Master_Init 0020           ?_I2C_Master_Read 0070           ?_I2C_Master_Wait 0070  
         ?_I2C_Master_Stop 0070              ___fltol@sign1 0079            __end_of___fladd 0C9F  
                    ?_main 0070            __end_of___fldiv 0A17            __end_of___awdiv 0075  
          __end_of___flmul 1000            __end_of___flsub 149B            __end_of___fltol 16A2  
                    _ANSEL 0188            __end_of___lldiv 1628            ___awdiv@divisor 0070  
          ___awdiv@counter 0075                      _RCREG 001A                      _SPBRG 0099  
                    _PORTB 0006                      _PORTD 0008                      _PORTE 0009  
  __size_of_Lcd_Set_Cursor 0024                      _TRISB 0086                      _TRISD 0088  
                    _SSPIE 0463                      _TRISE 0089                      _SSPIF 0063  
                    _TXREG 0019            ?_USART_Transmit 0070                convert@data 00D9  
              convert@temp 00D5            __end_of_convert 07EA                      _conv0 00A4  
                    _conv1 00A8                      _conv3 00A0                      _setup 149B  
                    pclath 000A                      status 0003                      wtemp0 007E  
         __end_of_Lcd_Init 15C2           __end_of_Lcd_Port 13E3            __initialization 07EA  
             __end_of_main 03F6                     ??_main 00E4         __size_of_Lcd_Clear 000D  
        ?_I2C_Master_Start 0070          ?_I2C_Master_Write 0070            ??_USART_Recieve 0070  
       ??_I2C_Master_Start 0070         ??_I2C_Master_Write 0072           ___awdiv@dividend 0072  
                   ?_setup 0070                     _ANSELH 0189                  ??_Lcd_Cmd 0071  
                   _SPBRGH 009A    __size_of_Lcd_Write_Char 0016                     _SSPADD 0093  
                   _TRISC3 043B                     _TRISC4 043C                     _SSPCON 0014  
                   _SSPBUF 0013           __end_of___xxtofl 1800                     ___flge 16A2  
             convert@place 006C                  ??___fladd 003A                     ___wmul 14E6  
                ??___fldiv 003A                  ??___awdiv 0074                  ??___flmul 0056  
                ??___flsub 007D                  ??___fltol 0074                  ??___lldiv 0078  
         ___awdiv@quotient 0077                  ??_convert 006E         __size_of__Umul8_16 0027  
          Lcd_Set_Cursor@a 0076            Lcd_Set_Cursor@b 0074                 ___flge@ff1 0070  
               ___flge@ff2 0074               ___xxtofl@arg 002E               ___xxtofl@exp 002D  
             ___xxtofl@val 0024    __end_of__initialization 07FC          __end_of_Lcd_Clear 1423  
               ___fltol@f1 0070             __pcstackCOMMON 0070              __end_of_setup 14BF  
           _Lcd_Set_Cursor 1453                  ?_Lcd_Init 0070                  ?_Lcd_Port 0070  
                  ??_setup 007E                 __pbssBANK1 00A0                 __pbssBANK3 0190  
        __end_of__Umul8_16 14E6                 __pmaintext 0075                    ?___flge 0070  
                  ?___wmul 0020           ??_USART_Transmit 0070  __size_of_Lcd_Write_String 0042  
   __end_of_Lcd_Set_Cursor 1477                  ?___xxtofl 0024                 ??_Lcd_Init 0074  
               ??_Lcd_Port 0070               _datos_sensor 00B8                    _SSPCON2 0091  
                  _SSPSTAT 0094                 __stringtab 1000             _Lcd_Write_Char 1423  
                  _Lcd_Cmd 1439              convert@digits 00E0            __size_of___flge 00A2  
                  ___fladd 0A17                    ___fldiv 083A                    ___awdiv 000E  
                  ___flmul 0C9F                    ___flsub 1477                    ___fltol 1628  
                  ___lldiv 15C2            __size_of___wmul 0027                  _ANSELbits 0188  
          ?_Lcd_Set_Cursor 0074                    __ptext1 149B                    __ptext2 0802  
                  __ptext3 15C2                    __ptext4 03F6                    __ptext5 1744  
                  __ptext6 14E6                    __ptext7 1628                    __ptext8 1477  
                  __ptext9 0A17                    _convert 03F6                    _ingreso 00BD  
               ??___xxtofl 0028                    _humedad 00C1   __size_of_I2C_Master_Init 0038  
 __size_of_I2C_Master_Read 002E                    _var_hum 00BE   __size_of_I2C_Master_Wait 000D  
 __size_of_I2C_Master_Stop 0009                    clrloop0 13E4     __end_of_Lcd_Write_Char 1439  
     end_of_initialization 07FC  __size_of_I2C_Master_Start 0009  __size_of_I2C_Master_Write 000A  
          ___lldiv@divisor 0070            ___lldiv@counter 007D                  _RCSTAbits 0018  
         I2C_Master_Init@c 0020           I2C_Master_Read@a 0070                  Lcd_Port@a 0070  
                _PORTEbits 0009                ___fladd@grs 0045              ___xxtofl@sign 002C  
                _TRISCbits 0087                ___fldiv@grs 0046                ___fldiv@rem 003F  
    __end_of_USART_Recieve 13DD            ?_Lcd_Write_Char 0070          Lcd_Write_String@a 0073  
        Lcd_Write_String@i 0078                ___flmul@grs 005C                  _TXSTAbits 0098  
                _Lcd_Clear 1416             __end_of___flge 1744             __end_of___wmul 150D  
         _Lcd_Write_String 153B                _BAUDCTLbits 0187        start_initialization 07EA  
        __size_of_Lcd_Init 0045          __size_of_Lcd_Port 0006          ??_I2C_Master_Init 0024  
        ??_I2C_Master_Read 0072          ??_I2C_Master_Wait 0070          ??_I2C_Master_Stop 0070  
               ?_Lcd_Clear 0070                   ??___flge 0078                   ??___wmul 007B  
                __Umul8_16 14BF            Lcd_Write_Char@a 0072                  ___fladd@a 0036  
                ___fladd@b 0032                  ___fldiv@a 0032                  ___fldiv@b 0036  
                ___flmul@a 0052                  ___flmul@b 004E                  ___flsub@a 0046  
                ___flsub@b 004A                  ___latbits 0002              __pcstackBANK0 0020  
            __pcstackBANK1 00D5          __size_of___xxtofl 00BC                   ?_Lcd_Cmd 0070  
         _I2C_Master_Start 13EB           _I2C_Master_Write 0004           ??_Lcd_Set_Cursor 0075  
                 ?___fladd 0032                   ?___fldiv 0032                   ?___awdiv 0070  
                 ?___flmul 004E                   ?___flsub 0046                   ?___fltol 0070  
                 ?___lldiv 0070                 ?__Umul8_16 0070                  __pstrings 1000  
       USART_Transmit@dato 0070                   ?_convert 0068             __size_of_setup 0024  
           ___wmul@product 007B                  clear_ram0 13E3                   _PIE1bits 008C  
                 Lcd_Cmd@a 0073                   _PIR1bits 000C                ??_Lcd_Clear 0074  
               _ADCON0bits 001F                __stringbase 100F                 _ADCON1bits 009F  
        ___wmul@multiplier 0020           ??_Lcd_Write_Char 0071                   _Lcd_Init 157D  
                 _Lcd_Port 13DD    __size_of_USART_Transmit 000C        I2C_Master_Read@temp 0074  
                convert@mu 00E2   __end_of_Lcd_Write_String 157D           __size_of_Lcd_Cmd 001A  
              ??__Umul8_16 0072           __size_of___fladd 0288           __size_of___fldiv 01DD  
         __size_of___awdiv 0067           __size_of___flmul 0361           __size_of___flsub 0024  
         __size_of___fltol 007A           __size_of___lldiv 0066         __end_of__stringtab 1010  
               _ANSELHbits 0189           __size_of_convert 03F4            _I2C_Master_Init 0802  
          _I2C_Master_Read 150D                   ___xxtofl 1744            _I2C_Master_Wait 1409  
          _I2C_Master_Stop 13F4                   __ptext10 0C9F                   __ptext11 14BF  
                 __ptext20 157D                   __ptext12 16A2                   __ptext21 1416  
                 __ptext13 083A                   __ptext22 1439                   __ptext14 000E  
                 __ptext23 13DD                   __ptext15 13FD                   __ptext24 0004  
                 __ptext16 13D9                   __ptext25 13F4                   __ptext17 153B  
                 __ptext26 13EB                   __ptext18 1423                   __ptext27 150D  
                 __ptext19 1453                   __ptext28 1409              __size_of_main 0381  
   __size_of_USART_Recieve 0004                   convert@a 0068                   convert@i 00DE  
                 convert@j 00D7                   convert@x 00DA   __end_of_I2C_Master_Start 13F4  
 __end_of_I2C_Master_Write 000E                 _INTCONbits 000B           ___lldiv@dividend 0074  
                stringcode 100A                 _OSCCONbits 008F    __end_of_I2C_Master_Init 083A  
  __end_of_I2C_Master_Read 153B    __end_of_I2C_Master_Wait 1416    __end_of_I2C_Master_Stop 13FD  
       Lcd_Set_Cursor@temp 0077     __Umul8_16@multiplicand 0070                _temperatura 00AC  
         ___lldiv@quotient 0079          I2C_Master_Write@d 0070                   stringdir 100A  
                 stringtab 1000                _SSPCON2bits 0091             _USART_Transmit 13FD  
            ___fladd@signs 0042              _USART_Recieve 13D9               ___fladd@aexp 0043  
             ___fladd@bexp 0044       __Umul8_16@multiplier 0078          __Umul8_16@product 0074  
