

Microchip MPLAB XC8 Assembler V2.32 build 20210201212658 
                                                                                               Mon Sep 06 17:02:11 2021

Microchip MPLAB XC8 C Compiler v2.32 (Free license) build 20210201212658 Og1 
     1                           	processor	16F887
     2                           	pagewidth 120
     3                           	opt	flic
     4                           	psect	strings,global,class=STRING,delta=2,noexec
     5                           	psect	cinit,global,class=CODE,merge=1,delta=2
     6                           	psect	bssBANK1,global,class=BANK1,space=1,delta=1,noexec
     7                           	psect	bssBANK3,global,class=BANK3,space=1,delta=1,noexec
     8                           	psect	clrtext,global,class=CODE,delta=2
     9                           	psect	cstackBANK1,global,class=BANK1,space=1,delta=1,noexec
    10                           	psect	cstackCOMMON,global,class=COMMON,space=1,delta=1,noexec
    11                           	psect	cstackBANK0,global,class=BANK0,space=1,delta=1,noexec
    12                           	psect	maintext,global,class=CODE,split=1,delta=2
    13                           	psect	text1,local,class=CODE,merge=1,delta=2
    14                           	psect	text2,local,class=CODE,merge=1,delta=2
    15                           	psect	text3,local,class=CODE,merge=1,delta=2
    16                           	psect	text4,local,class=CODE,merge=1,delta=2,group=1
    17                           	psect	text5,local,class=CODE,merge=1,delta=2
    18                           	psect	text6,local,class=CODE,merge=1,delta=2,group=1
    19                           	psect	text7,local,class=CODE,merge=1,delta=2
    20                           	psect	text8,local,class=CODE,merge=1,delta=2,group=1
    21                           	psect	text9,local,class=CODE,merge=1,delta=2,group=1
    22                           	psect	text10,local,class=CODE,merge=1,delta=2,group=1
    23                           	psect	text11,local,class=CODE,merge=1,delta=2,group=1
    24                           	psect	text12,local,class=CODE,merge=1,delta=2,group=1
    25                           	psect	text13,local,class=CODE,merge=1,delta=2,group=1
    26                           	psect	text14,local,class=CODE,merge=1,delta=2,group=1
    27                           	psect	text15,local,class=CODE,merge=1,delta=2,group=1
    28                           	psect	text16,local,class=CODE,merge=1,delta=2,group=1
    29                           	psect	text17,local,class=CODE,merge=1,delta=2
    30                           	psect	text18,local,class=CODE,merge=1,delta=2,group=1
    31                           	psect	text19,local,class=CODE,merge=1,delta=2
    32                           	psect	text20,local,class=CODE,merge=1,delta=2
    33                           	psect	text21,local,class=CODE,merge=1,delta=2
    34                           	psect	text22,local,class=CODE,merge=1,delta=2
    35                           	psect	text23,local,class=CODE,merge=1,delta=2
    36                           	psect	text24,local,class=CODE,merge=1,delta=2
    37                           	psect	text25,local,class=CODE,merge=1,delta=2
    38                           	psect	text26,local,class=CODE,merge=1,delta=2
    39                           	psect	text27,local,class=CODE,merge=1,delta=2
    40                           	psect	text28,local,class=CODE,merge=1,delta=2
    41                           	psect	text29,local,class=CODE,merge=1,delta=2
    42                           	psect	text30,local,class=CODE,merge=1,delta=2
    43                           	psect	text31,local,class=CODE,merge=1,delta=2
    44                           	psect	text32,local,class=CODE,merge=1,delta=2
    45                           	psect	config,global,abs,ovrld,class=CONFIG,space=4,delta=2,noexec
    46                           	dabs	1,0x7E,2
    47  0000                     
    48                           ; Version 2.20
    49                           ; Generated 12/02/2020 GMT
    50                           ; 
    51                           ; Copyright © 2020, Microchip Technology Inc. and its subsidiaries ("Microchip")
    52                           ; All rights reserved.
    53                           ; 
    54                           ; This software is developed by Microchip Technology Inc. and its subsidiaries ("Microch
      +                          ip").
    55                           ; 
    56                           ; Redistribution and use in source and binary forms, with or without modification, are
    57                           ; permitted provided that the following conditions are met:
    58                           ; 
    59                           ;     1. Redistributions of source code must retain the above copyright notice, this lis
      +                          t of
    60                           ;        conditions and the following disclaimer.
    61                           ; 
    62                           ;     2. Redistributions in binary form must reproduce the above copyright notice, this 
      +                          list
    63                           ;        of conditions and the following disclaimer in the documentation and/or other
    64                           ;        materials provided with the distribution.
    65                           ; 
    66                           ;     3. Microchip's name may not be used to endorse or promote products derived from th
      +                          is
    67                           ;        software without specific prior written permission.
    68                           ; 
    69                           ; THIS SOFTWARE IS PROVIDED BY MICROCHIP "AS IS" AND ANY EXPRESS OR IMPLIED WARRANTIES,
    70                           ; INCLUDING, BUT NOT LIMITED TO, THE IMPLIED WARRANTIES OF MERCHANTABILITY AND FITNESS F
      +                          OR
    71                           ; PURPOSE ARE DISCLAIMED.  IN NO EVENT SHALL MICROCHIP BE LIABLE FOR ANY DIRECT, INDIREC
      +                          T,
    72                           ; INCIDENTAL, SPECIAL, EXEMPLARY, OR CONSEQUENTIAL DAMAGES (INCLUDING BUT NOT LIMITED TO
    73                           ; PROCUREMENT OF SUBSTITUTE GOODS OR SERVICES; LOSS OF USE, DATA OR PROFITS; OR BUSINESS
    74                           ; INTERRUPTION) HOWSOEVER CAUSED AND ON ANY THEORY OF LIABILITY, WHETHER IN CONTRACT, ST
      +                          RICT
    75                           ; LIABILITY, OR TORT (INCLUDING NEGLIGENCE OR OTHERWISE) ARISING IN ANY WAY OUT OF THE U
      +                          SE OF
    76                           ; THIS SOFTWARE, EVEN IF ADVISED OF THE POSSIBILITY OF SUCH DAMAGE.
    77                           ; 
    78                           ; 
    79                           ; Code-generator required, PIC16F887 Definitions
    80                           ; 
    81                           ; SFR Addresses
    82  0000                     	;# 
    83  0001                     	;# 
    84  0002                     	;# 
    85  0003                     	;# 
    86  0004                     	;# 
    87  0005                     	;# 
    88  0006                     	;# 
    89  0007                     	;# 
    90  0008                     	;# 
    91  0009                     	;# 
    92  000A                     	;# 
    93  000B                     	;# 
    94  000C                     	;# 
    95  000D                     	;# 
    96  000E                     	;# 
    97  000E                     	;# 
    98  000F                     	;# 
    99  0010                     	;# 
   100  0011                     	;# 
   101  0012                     	;# 
   102  0013                     	;# 
   103  0014                     	;# 
   104  0015                     	;# 
   105  0015                     	;# 
   106  0016                     	;# 
   107  0017                     	;# 
   108  0018                     	;# 
   109  0019                     	;# 
   110  001A                     	;# 
   111  001B                     	;# 
   112  001B                     	;# 
   113  001C                     	;# 
   114  001D                     	;# 
   115  001E                     	;# 
   116  001F                     	;# 
   117  0081                     	;# 
   118  0085                     	;# 
   119  0086                     	;# 
   120  0087                     	;# 
   121  0088                     	;# 
   122  0089                     	;# 
   123  008C                     	;# 
   124  008D                     	;# 
   125  008E                     	;# 
   126  008F                     	;# 
   127  0090                     	;# 
   128  0091                     	;# 
   129  0092                     	;# 
   130  0093                     	;# 
   131  0093                     	;# 
   132  0093                     	;# 
   133  0094                     	;# 
   134  0095                     	;# 
   135  0096                     	;# 
   136  0097                     	;# 
   137  0098                     	;# 
   138  0099                     	;# 
   139  009A                     	;# 
   140  009B                     	;# 
   141  009C                     	;# 
   142  009D                     	;# 
   143  009E                     	;# 
   144  009F                     	;# 
   145  0105                     	;# 
   146  0107                     	;# 
   147  0108                     	;# 
   148  0109                     	;# 
   149  010C                     	;# 
   150  010C                     	;# 
   151  010D                     	;# 
   152  010E                     	;# 
   153  010F                     	;# 
   154  0185                     	;# 
   155  0187                     	;# 
   156  0188                     	;# 
   157  0189                     	;# 
   158  018C                     	;# 
   159  018D                     	;# 
   160  0000                     	;# 
   161  0001                     	;# 
   162  0002                     	;# 
   163  0003                     	;# 
   164  0004                     	;# 
   165  0005                     	;# 
   166  0006                     	;# 
   167  0007                     	;# 
   168  0008                     	;# 
   169  0009                     	;# 
   170  000A                     	;# 
   171  000B                     	;# 
   172  000C                     	;# 
   173  000D                     	;# 
   174  000E                     	;# 
   175  000E                     	;# 
   176  000F                     	;# 
   177  0010                     	;# 
   178  0011                     	;# 
   179  0012                     	;# 
   180  0013                     	;# 
   181  0014                     	;# 
   182  0015                     	;# 
   183  0015                     	;# 
   184  0016                     	;# 
   185  0017                     	;# 
   186  0018                     	;# 
   187  0019                     	;# 
   188  001A                     	;# 
   189  001B                     	;# 
   190  001B                     	;# 
   191  001C                     	;# 
   192  001D                     	;# 
   193  001E                     	;# 
   194  001F                     	;# 
   195  0081                     	;# 
   196  0085                     	;# 
   197  0086                     	;# 
   198  0087                     	;# 
   199  0088                     	;# 
   200  0089                     	;# 
   201  008C                     	;# 
   202  008D                     	;# 
   203  008E                     	;# 
   204  008F                     	;# 
   205  0090                     	;# 
   206  0091                     	;# 
   207  0092                     	;# 
   208  0093                     	;# 
   209  0093                     	;# 
   210  0093                     	;# 
   211  0094                     	;# 
   212  0095                     	;# 
   213  0096                     	;# 
   214  0097                     	;# 
   215  0098                     	;# 
   216  0099                     	;# 
   217  009A                     	;# 
   218  009B                     	;# 
   219  009C                     	;# 
   220  009D                     	;# 
   221  009E                     	;# 
   222  009F                     	;# 
   223  0105                     	;# 
   224  0107                     	;# 
   225  0108                     	;# 
   226  0109                     	;# 
   227  010C                     	;# 
   228  010C                     	;# 
   229  010D                     	;# 
   230  010E                     	;# 
   231  010F                     	;# 
   232  0185                     	;# 
   233  0187                     	;# 
   234  0188                     	;# 
   235  0189                     	;# 
   236  018C                     	;# 
   237  018D                     	;# 
   238  0000                     	;# 
   239  0001                     	;# 
   240  0002                     	;# 
   241  0003                     	;# 
   242  0004                     	;# 
   243  0005                     	;# 
   244  0006                     	;# 
   245  0007                     	;# 
   246  0008                     	;# 
   247  0009                     	;# 
   248  000A                     	;# 
   249  000B                     	;# 
   250  000C                     	;# 
   251  000D                     	;# 
   252  000E                     	;# 
   253  000E                     	;# 
   254  000F                     	;# 
   255  0010                     	;# 
   256  0011                     	;# 
   257  0012                     	;# 
   258  0013                     	;# 
   259  0014                     	;# 
   260  0015                     	;# 
   261  0015                     	;# 
   262  0016                     	;# 
   263  0017                     	;# 
   264  0018                     	;# 
   265  0019                     	;# 
   266  001A                     	;# 
   267  001B                     	;# 
   268  001B                     	;# 
   269  001C                     	;# 
   270  001D                     	;# 
   271  001E                     	;# 
   272  001F                     	;# 
   273  0081                     	;# 
   274  0085                     	;# 
   275  0086                     	;# 
   276  0087                     	;# 
   277  0088                     	;# 
   278  0089                     	;# 
   279  008C                     	;# 
   280  008D                     	;# 
   281  008E                     	;# 
   282  008F                     	;# 
   283  0090                     	;# 
   284  0091                     	;# 
   285  0092                     	;# 
   286  0093                     	;# 
   287  0093                     	;# 
   288  0093                     	;# 
   289  0094                     	;# 
   290  0095                     	;# 
   291  0096                     	;# 
   292  0097                     	;# 
   293  0098                     	;# 
   294  0099                     	;# 
   295  009A                     	;# 
   296  009B                     	;# 
   297  009C                     	;# 
   298  009D                     	;# 
   299  009E                     	;# 
   300  009F                     	;# 
   301  0105                     	;# 
   302  0107                     	;# 
   303  0108                     	;# 
   304  0109                     	;# 
   305  010C                     	;# 
   306  010C                     	;# 
   307  010D                     	;# 
   308  010E                     	;# 
   309  010F                     	;# 
   310  0185                     	;# 
   311  0187                     	;# 
   312  0188                     	;# 
   313  0189                     	;# 
   314  018C                     	;# 
   315  018D                     	;# 
   316  0018                     _RCSTAbits	set	24
   317  000B                     _INTCONbits	set	11
   318  001F                     _ADCON0bits	set	31
   319  0009                     _PORTEbits	set	9
   320  0013                     _SSPBUF	set	19
   321  0014                     _SSPCON	set	20
   322  001A                     _RCREG	set	26
   323  0019                     _TXREG	set	25
   324  0008                     _PORTD	set	8
   325  0006                     _PORTB	set	6
   326  0009                     _PORTE	set	9
   327  000C                     _PIR1bits	set	12
   328  0063                     _SSPIF	set	99
   329  005E                     _PEIE	set	94
   330  005F                     _GIE	set	95
   331  009A                     _SPBRGH	set	154
   332  0099                     _SPBRG	set	153
   333  009F                     _ADCON1bits	set	159
   334  008C                     _PIE1bits	set	140
   335  0091                     _SSPCON2bits	set	145
   336  0094                     _SSPSTAT	set	148
   337  0093                     _SSPADD	set	147
   338  0091                     _SSPCON2	set	145
   339  0098                     _TXSTAbits	set	152
   340  008F                     _OSCCONbits	set	143
   341  0089                     _TRISE	set	137
   342  0088                     _TRISD	set	136
   343  0086                     _TRISB	set	134
   344  0087                     _TRISCbits	set	135
   345  0463                     _SSPIE	set	1123
   346  043C                     _TRISC4	set	1084
   347  043B                     _TRISC3	set	1083
   348  0187                     _BAUDCTLbits	set	391
   349  0189                     _ANSELHbits	set	393
   350  0188                     _ANSELbits	set	392
   351  0189                     _ANSELH	set	393
   352  0188                     _ANSEL	set	392
   353                           
   354                           	psect	strings
   355  1000                     __pstrings:
   356  1000                     stringtab:
   357  1000                     __stringtab:
   358                           
   359                           ;	String table - string pointers are 1 byte each
   360  1000  1BFF               	btfsc	btemp+1,7
   361  1001  280A               	ljmp	stringcode
   362  1002  1383               	bcf	3,7
   363  1003  187F               	btfsc	btemp+1,0
   364  1004  1783               	bsf	3,7
   365  1005  0800               	movf	0,w
   366  1006  0A84               	incf	4,f
   367  1007  1903               	skipnz
   368  1008  0AFF               	incf	btemp+1,f
   369  1009  0008               	return
   370  100A                     stringcode:
   371  100A                     stringdir:
   372  100A  3010               	movlw	high stringdir
   373  100B  008A               	movwf	10
   374  100C  0804               	movf	4,w
   375  100D  0A84               	incf	4,f
   376  100E  0782               	addwf	2,f
   377  100F                     __stringbase:
   378  100F  3400               	retlw	0
   379  1010                     __end_of__stringtab:
   380  1010                     STR_1:
   381  1010  3454               	retlw	84	;'T'
   382  1011  3445               	retlw	69	;'E'
   383  1012  344D               	retlw	77	;'M'
   384  1013  3450               	retlw	80	;'P'
   385  1014  3400               	retlw	0
   386  1015                     STR_2:
   387  1015  3448               	retlw	72	;'H'
   388  1016  3455               	retlw	85	;'U'
   389  1017  344D               	retlw	77	;'M'
   390  1018  3400               	retlw	0
   391  1019                     STR_3:
   392  1019  3443               	retlw	67	;'C'
   393  101A  344F               	retlw	79	;'O'
   394  101B  344E               	retlw	78	;'N'
   395  101C  3400               	retlw	0
   396  101D                     STR_4:
   397  101D  3443               	retlw	67	;'C'
   398  101E  3400               	retlw	0
   399  101D                     
   400                           	psect	cinit
   401  07EA                     start_initialization:	
   402                           ; #config settings
   403                           
   404  07EA                     __initialization:
   405                           
   406                           ; Clear objects allocated to BANK1
   407  07EA  1383               	bcf	3,7	;select IRP bank0
   408  07EB  30A0               	movlw	low __pbssBANK1
   409  07EC  0084               	movwf	4
   410  07ED  30DD               	movlw	low (__pbssBANK1+61)
   411  07EE  160A  118A  2273  120A  118A  	fcall	clear_ram0
   412                           
   413                           ; Clear objects allocated to BANK3
   414  07F3  1783               	bsf	3,7	;select IRP bank2
   415  07F4  3090               	movlw	low __pbssBANK3
   416  07F5  0084               	movwf	4
   417  07F6  309A               	movlw	low (__pbssBANK3+10)
   418  07F7  160A  118A  2273  120A  118A  	fcall	clear_ram0
   419  07FC                     end_of_initialization:	
   420                           ;End of C runtime variable initialization code
   421                           
   422  07FC                     __end_of__initialization:
   423  07FC  0183               	clrf	3
   424  07FD  120A  118A  2BB2   	ljmp	_main	;jump to C main() function
   425                           
   426                           	psect	bssBANK1
   427  00A0                     __pbssBANK1:
   428  00A0                     _conv3:
   429  00A0                     	ds	4
   430  00A4                     _conv0:
   431  00A4                     	ds	4
   432  00A8                     _conv1:
   433  00A8                     	ds	4
   434  00AC                     _temperatura:
   435  00AC                     	ds	4
   436  00B0                     _volt:
   437  00B0                     	ds	4
   438  00B4                     _temp:
   439  00B4                     	ds	4
   440  00B8                     _datos_sensor:
   441  00B8                     	ds	3
   442  00BB                     _dato:
   443  00BB                     	ds	2
   444  00BD                     _ada:
   445  00BD                     	ds	1
   446  00BE                     _posicion:
   447  00BE                     	ds	1
   448  00BF                     _ingreso:
   449  00BF                     	ds	1
   450  00C0                     _unih:
   451  00C0                     	ds	1
   452  00C1                     _dech:
   453  00C1                     	ds	1
   454  00C2                     _cenh:
   455  00C2                     	ds	1
   456  00C3                     _unit:
   457  00C3                     	ds	1
   458  00C4                     _dect:
   459  00C4                     	ds	1
   460  00C5                     _cent:
   461  00C5                     	ds	1
   462  00C6                     _var_hum:
   463  00C6                     	ds	1
   464  00C7                     _tem2:
   465  00C7                     	ds	1
   466  00C8                     _tem1:
   467  00C8                     	ds	1
   468  00C9                     _humedad:
   469  00C9                     	ds	10
   470  00D3                     _lcd1:
   471  00D3                     	ds	10
   472                           
   473                           	psect	bssBANK3
   474  0190                     __pbssBANK3:
   475  0190                     _lcd3:
   476  0190                     	ds	10
   477                           
   478                           	psect	clrtext
   479  1273                     clear_ram0:	
   480                           ;	Called with FSR containing the base address, and
   481                           ;	W with the last address+1
   482                           
   483  1273  0064               	clrwdt	;clear the watchdog before getting into this loop
   484  1274                     clrloop0:
   485  1274  0180               	clrf	0	;clear RAM location pointed to by FSR
   486  1275  0A84               	incf	4,f	;increment pointer
   487  1276  0604               	xorwf	4,w	;XOR with final address
   488  1277  1903               	btfsc	3,2	;have we reached the end yet?
   489  1278  3400               	retlw	0	;all done for this memory range, return
   490  1279  0604               	xorwf	4,w	;XOR again to restore value
   491  127A  2A74               	goto	clrloop0	;do the next byte
   492                           
   493                           	psect	cstackBANK1
   494  00DD                     __pcstackBANK1:
   495  00DD                     convert@temp:
   496                           
   497                           ; 2 bytes @ 0x0
   498  00DD                     	ds	2
   499  00DF                     convert@j:
   500                           
   501                           ; 2 bytes @ 0x2
   502  00DF                     	ds	2
   503  00E1                     convert@data:
   504                           
   505                           ; 1 bytes @ 0x4
   506  00E1                     	ds	1
   507  00E2                     convert@x:
   508                           
   509                           ; 4 bytes @ 0x5
   510  00E2                     	ds	4
   511  00E6                     convert@i:
   512                           
   513                           ; 2 bytes @ 0x9
   514  00E6                     	ds	2
   515  00E8                     convert@digits:
   516                           
   517                           ; 2 bytes @ 0xB
   518  00E8                     	ds	2
   519  00EA                     convert@mu:
   520                           
   521                           ; 2 bytes @ 0xD
   522  00EA                     	ds	2
   523  00EC                     ??_main:
   524                           
   525                           ; 1 bytes @ 0xF
   526  00EC                     	ds	4
   527                           
   528                           	psect	cstackCOMMON
   529  0070                     __pcstackCOMMON:
   530  0070                     ?___flge:
   531  0070                     ?_setup:	
   532                           ; 1 bit 
   533                           
   534  0070                     ?_Lcd_Init:	
   535                           ; 1 bytes @ 0x0
   536                           
   537  0070                     ?_Lcd_Clear:	
   538                           ; 1 bytes @ 0x0
   539                           
   540  0070                     ?_I2C_Master_Start:	
   541                           ; 1 bytes @ 0x0
   542                           
   543  0070                     ??_I2C_Master_Start:	
   544                           ; 1 bytes @ 0x0
   545                           
   546  0070                     ?_I2C_Master_Write:	
   547                           ; 1 bytes @ 0x0
   548                           
   549  0070                     ?_I2C_Master_Stop:	
   550                           ; 1 bytes @ 0x0
   551                           
   552  0070                     ??_I2C_Master_Stop:	
   553                           ; 1 bytes @ 0x0
   554                           
   555  0070                     ?_USART_Recieve:	
   556                           ; 1 bytes @ 0x0
   557                           
   558  0070                     ??_USART_Recieve:	
   559                           ; 1 bytes @ 0x0
   560                           
   561  0070                     ?_USART_Tx:	
   562                           ; 1 bytes @ 0x0
   563                           
   564  0070                     ??_USART_Tx:	
   565                           ; 1 bytes @ 0x0
   566                           
   567  0070                     ?_main:	
   568                           ; 1 bytes @ 0x0
   569                           
   570  0070                     ?_I2C_Master_Wait:	
   571                           ; 1 bytes @ 0x0
   572                           
   573  0070                     ??_I2C_Master_Wait:	
   574                           ; 1 bytes @ 0x0
   575                           
   576  0070                     ?_Lcd_Port:	
   577                           ; 1 bytes @ 0x0
   578                           
   579  0070                     ??_Lcd_Port:	
   580                           ; 1 bytes @ 0x0
   581                           
   582  0070                     ?_Lcd_Cmd:	
   583                           ; 1 bytes @ 0x0
   584                           
   585  0070                     ?_Lcd_Write_Char:	
   586                           ; 1 bytes @ 0x0
   587                           
   588  0070                     ?_I2C_Master_Read:	
   589                           ; 1 bytes @ 0x0
   590                           
   591  0070                     ?__Umul8_16:	
   592                           ; 2 bytes @ 0x0
   593                           
   594  0070                     ?___awmod:	
   595                           ; 2 bytes @ 0x0
   596                           
   597  0070                     ?___lldiv:	
   598                           ; 2 bytes @ 0x0
   599                           
   600  0070                     ?___fltol:	
   601                           ; 4 bytes @ 0x0
   602                           
   603  0070                     USART_Tx@data:	
   604                           ; 4 bytes @ 0x0
   605                           
   606  0070                     Lcd_Port@a:	
   607                           ; 1 bytes @ 0x0
   608                           
   609  0070                     __Umul8_16@multiplicand:	
   610                           ; 1 bytes @ 0x0
   611                           
   612  0070                     I2C_Master_Write@d:	
   613                           ; 1 bytes @ 0x0
   614                           
   615  0070                     I2C_Master_Read@a:	
   616                           ; 2 bytes @ 0x0
   617                           
   618  0070                     ___awmod@divisor:	
   619                           ; 2 bytes @ 0x0
   620                           
   621  0070                     ___lldiv@divisor:	
   622                           ; 2 bytes @ 0x0
   623                           
   624  0070                     ___flge@ff1:	
   625                           ; 4 bytes @ 0x0
   626                           
   627  0070                     ___fltol@f1:	
   628                           ; 4 bytes @ 0x0
   629                           
   630                           
   631                           ; 4 bytes @ 0x0
   632  0070                     	ds	1
   633  0071                     ??_Lcd_Cmd:
   634  0071                     ??_Lcd_Write_Char:	
   635                           ; 1 bytes @ 0x1
   636                           
   637                           
   638                           ; 1 bytes @ 0x1
   639  0071                     	ds	1
   640  0072                     ??_I2C_Master_Write:
   641  0072                     ??_I2C_Master_Read:	
   642                           ; 1 bytes @ 0x2
   643                           
   644  0072                     ??__Umul8_16:	
   645                           ; 1 bytes @ 0x2
   646                           
   647  0072                     Lcd_Write_Char@a:	
   648                           ; 1 bytes @ 0x2
   649                           
   650  0072                     ___awmod@dividend:	
   651                           ; 1 bytes @ 0x2
   652                           
   653                           
   654                           ; 2 bytes @ 0x2
   655  0072                     	ds	1
   656  0073                     ?_Lcd_Write_String:
   657  0073                     Lcd_Cmd@a:	
   658                           ; 1 bytes @ 0x3
   659                           
   660  0073                     Lcd_Write_String@a:	
   661                           ; 1 bytes @ 0x3
   662                           
   663                           
   664                           ; 2 bytes @ 0x3
   665  0073                     	ds	1
   666  0074                     ??_Lcd_Init:
   667  0074                     ??_Lcd_Clear:	
   668                           ; 1 bytes @ 0x4
   669                           
   670  0074                     ?_Lcd_Set_Cursor:	
   671                           ; 1 bytes @ 0x4
   672                           
   673  0074                     ??___awmod:	
   674                           ; 1 bytes @ 0x4
   675                           
   676  0074                     ??___fltol:	
   677                           ; 1 bytes @ 0x4
   678                           
   679  0074                     Lcd_Set_Cursor@b:	
   680                           ; 1 bytes @ 0x4
   681                           
   682  0074                     I2C_Master_Read@temp:	
   683                           ; 1 bytes @ 0x4
   684                           
   685  0074                     __Umul8_16@product:	
   686                           ; 2 bytes @ 0x4
   687                           
   688  0074                     ___lldiv@dividend:	
   689                           ; 2 bytes @ 0x4
   690                           
   691  0074                     ___flge@ff2:	
   692                           ; 4 bytes @ 0x4
   693                           
   694                           
   695                           ; 4 bytes @ 0x4
   696  0074                     	ds	1
   697  0075                     ??_Lcd_Set_Cursor:
   698  0075                     ??_Lcd_Write_String:	
   699                           ; 1 bytes @ 0x5
   700                           
   701  0075                     ___awmod@counter:	
   702                           ; 1 bytes @ 0x5
   703                           
   704                           
   705                           ; 1 bytes @ 0x5
   706  0075                     	ds	1
   707  0076                     Lcd_Set_Cursor@a:
   708  0076                     ___awmod@sign:	
   709                           ; 1 bytes @ 0x6
   710                           
   711  0076                     __Umul8_16@word_mpld:	
   712                           ; 1 bytes @ 0x6
   713                           
   714                           
   715                           ; 2 bytes @ 0x6
   716  0076                     	ds	1
   717  0077                     ?___awdiv:
   718  0077                     Lcd_Set_Cursor@temp:	
   719                           ; 2 bytes @ 0x7
   720                           
   721  0077                     ___awdiv@divisor:	
   722                           ; 1 bytes @ 0x7
   723                           
   724                           
   725                           ; 2 bytes @ 0x7
   726  0077                     	ds	1
   727  0078                     ??___lldiv:
   728  0078                     ??___flge:	
   729                           ; 1 bytes @ 0x8
   730                           
   731  0078                     __Umul8_16@multiplier:	
   732                           ; 1 bytes @ 0x8
   733                           
   734  0078                     Lcd_Write_String@i:	
   735                           ; 1 bytes @ 0x8
   736                           
   737                           
   738                           ; 2 bytes @ 0x8
   739  0078                     	ds	1
   740  0079                     ___fltol@sign1:
   741  0079                     ___awdiv@dividend:	
   742                           ; 1 bytes @ 0x9
   743                           
   744  0079                     ___lldiv@quotient:	
   745                           ; 2 bytes @ 0x9
   746                           
   747                           
   748                           ; 4 bytes @ 0x9
   749  0079                     	ds	1
   750  007A                     ___fltol@exp1:
   751                           
   752                           ; 1 bytes @ 0xA
   753  007A                     	ds	1
   754  007B                     ?_unidades:
   755  007B                     ??___wmul:	
   756                           ; 1 bytes @ 0xB
   757                           
   758  007B                     ??___awdiv:	
   759                           ; 1 bytes @ 0xB
   760                           
   761  007B                     unidades@dato:	
   762                           ; 1 bytes @ 0xB
   763                           
   764  007B                     ___wmul@product:	
   765                           ; 2 bytes @ 0xB
   766                           
   767                           
   768                           ; 2 bytes @ 0xB
   769  007B                     	ds	1
   770  007C                     ??_centenas:
   771  007C                     ??_decenas:	
   772                           ; 1 bytes @ 0xC
   773                           
   774                           
   775                           ; 1 bytes @ 0xC
   776  007C                     	ds	1
   777  007D                     ??_unidades:
   778  007D                     ??___flsub:	
   779                           ; 1 bytes @ 0xD
   780                           
   781  007D                     centenas@out:	
   782                           ; 1 bytes @ 0xD
   783                           
   784  007D                     decenas@out:	
   785                           ; 1 bytes @ 0xD
   786                           
   787  007D                     ___lldiv@counter:	
   788                           ; 1 bytes @ 0xD
   789                           
   790                           
   791                           ; 1 bytes @ 0xD
   792  007D                     	ds	1
   793  007E                     ??_setup:
   794                           
   795                           	psect	cstackBANK0
   796  0020                     __pcstackBANK0:	
   797                           ; 1 bytes @ 0xE
   798                           
   799  0020                     ?_I2C_Master_Init:
   800  0020                     ?___wmul:	
   801                           ; 1 bytes @ 0x0
   802                           
   803  0020                     ___awdiv@counter:	
   804                           ; 2 bytes @ 0x0
   805                           
   806  0020                     ___wmul@multiplier:	
   807                           ; 1 bytes @ 0x0
   808                           
   809  0020                     _unidades$1379:	
   810                           ; 2 bytes @ 0x0
   811                           
   812  0020                     I2C_Master_Init@c:	
   813                           ; 2 bytes @ 0x0
   814                           
   815                           
   816                           ; 4 bytes @ 0x0
   817  0020                     	ds	1
   818  0021                     ___awdiv@sign:
   819                           
   820                           ; 1 bytes @ 0x1
   821  0021                     	ds	1
   822  0022                     unidades@out:
   823  0022                     ___wmul@multiplicand:	
   824                           ; 1 bytes @ 0x2
   825                           
   826  0022                     ___awdiv@quotient:	
   827                           ; 2 bytes @ 0x2
   828                           
   829                           
   830                           ; 2 bytes @ 0x2
   831  0022                     	ds	2
   832  0024                     ?_centenas:
   833  0024                     ?_decenas:	
   834                           ; 1 bytes @ 0x4
   835                           
   836  0024                     ??_I2C_Master_Init:	
   837                           ; 1 bytes @ 0x4
   838                           
   839  0024                     ?___xxtofl:	
   840                           ; 1 bytes @ 0x4
   841                           
   842  0024                     centenas@dato:	
   843                           ; 4 bytes @ 0x4
   844                           
   845  0024                     decenas@dato:	
   846                           ; 2 bytes @ 0x4
   847                           
   848  0024                     ___xxtofl@val:	
   849                           ; 2 bytes @ 0x4
   850                           
   851                           
   852                           ; 4 bytes @ 0x4
   853  0024                     	ds	4
   854  0028                     ??___xxtofl:
   855                           
   856                           ; 1 bytes @ 0x8
   857  0028                     	ds	4
   858  002C                     ___xxtofl@sign:
   859                           
   860                           ; 1 bytes @ 0xC
   861  002C                     	ds	1
   862  002D                     ___xxtofl@exp:
   863                           
   864                           ; 1 bytes @ 0xD
   865  002D                     	ds	1
   866  002E                     ___xxtofl@arg:
   867                           
   868                           ; 4 bytes @ 0xE
   869  002E                     	ds	4
   870  0032                     ?___fladd:
   871  0032                     ?___fldiv:	
   872                           ; 4 bytes @ 0x12
   873                           
   874  0032                     ___fladd@b:	
   875                           ; 4 bytes @ 0x12
   876                           
   877  0032                     ___fldiv@a:	
   878                           ; 4 bytes @ 0x12
   879                           
   880                           
   881                           ; 4 bytes @ 0x12
   882  0032                     	ds	4
   883  0036                     ___fladd@a:
   884  0036                     ___fldiv@b:	
   885                           ; 4 bytes @ 0x16
   886                           
   887                           
   888                           ; 4 bytes @ 0x16
   889  0036                     	ds	4
   890  003A                     ??___fladd:
   891  003A                     ??___fldiv:	
   892                           ; 1 bytes @ 0x1A
   893                           
   894                           
   895                           ; 1 bytes @ 0x1A
   896  003A                     	ds	5
   897  003F                     ___fldiv@rem:
   898                           
   899                           ; 4 bytes @ 0x1F
   900  003F                     	ds	3
   901  0042                     ___fladd@signs:
   902                           
   903                           ; 1 bytes @ 0x22
   904  0042                     	ds	1
   905  0043                     ___fladd@aexp:
   906  0043                     ___fldiv@sign:	
   907                           ; 1 bytes @ 0x23
   908                           
   909                           
   910                           ; 1 bytes @ 0x23
   911  0043                     	ds	1
   912  0044                     ___fladd@bexp:
   913  0044                     ___fldiv@new_exp:	
   914                           ; 1 bytes @ 0x24
   915                           
   916                           
   917                           ; 2 bytes @ 0x24
   918  0044                     	ds	1
   919  0045                     ___fladd@grs:
   920                           
   921                           ; 1 bytes @ 0x25
   922  0045                     	ds	1
   923  0046                     ?___flsub:
   924  0046                     ___flsub@a:	
   925                           ; 4 bytes @ 0x26
   926                           
   927  0046                     ___fldiv@grs:	
   928                           ; 4 bytes @ 0x26
   929                           
   930                           
   931                           ; 4 bytes @ 0x26
   932  0046                     	ds	4
   933  004A                     ___fldiv@bexp:
   934  004A                     ___flsub@b:	
   935                           ; 1 bytes @ 0x2A
   936                           
   937                           
   938                           ; 4 bytes @ 0x2A
   939  004A                     	ds	1
   940  004B                     ___fldiv@aexp:
   941                           
   942                           ; 1 bytes @ 0x2B
   943  004B                     	ds	3
   944  004E                     ?___flmul:
   945  004E                     ___flmul@b:	
   946                           ; 4 bytes @ 0x2E
   947                           
   948                           
   949                           ; 4 bytes @ 0x2E
   950  004E                     	ds	4
   951  0052                     ___flmul@a:
   952                           
   953                           ; 4 bytes @ 0x32
   954  0052                     	ds	4
   955  0056                     ??___flmul:
   956                           
   957                           ; 1 bytes @ 0x36
   958  0056                     	ds	5
   959  005B                     ___flmul@sign:
   960                           
   961                           ; 1 bytes @ 0x3B
   962  005B                     	ds	1
   963  005C                     ___flmul@grs:
   964                           
   965                           ; 4 bytes @ 0x3C
   966  005C                     	ds	4
   967  0060                     ___flmul@aexp:
   968                           
   969                           ; 1 bytes @ 0x40
   970  0060                     	ds	1
   971  0061                     ___flmul@bexp:
   972                           
   973                           ; 1 bytes @ 0x41
   974  0061                     	ds	1
   975  0062                     ___flmul@prod:
   976                           
   977                           ; 4 bytes @ 0x42
   978  0062                     	ds	4
   979  0066                     ___flmul@temp:
   980                           
   981                           ; 2 bytes @ 0x46
   982  0066                     	ds	2
   983  0068                     ?_convert:
   984  0068                     convert@a:	
   985                           ; 1 bytes @ 0x48
   986                           
   987                           
   988                           ; 4 bytes @ 0x48
   989  0068                     	ds	4
   990  006C                     convert@place:
   991                           
   992                           ; 2 bytes @ 0x4C
   993  006C                     	ds	2
   994  006E                     ??_convert:
   995                           
   996                           ; 1 bytes @ 0x4E
   997  006E                     	ds	2
   998                           
   999                           	psect	maintext
  1000  03B2                     __pmaintext:	
  1001 ;;
  1002 ;;Main: autosize = 0, tempsize = 4, incstack = 0, save=0
  1003 ;;
  1004 ;; *************** function _main *****************
  1005 ;; Defined at:
  1006 ;;		line 88 in file "Master.c"
  1007 ;; Parameters:    Size  Location     Type
  1008 ;;		None
  1009 ;; Auto vars:     Size  Location     Type
  1010 ;;		None
  1011 ;; Return value:  Size  Location     Type
  1012 ;;                  1    wreg      void 
  1013 ;; Registers used:
  1014 ;;		wreg, fsr0l, fsr0h, status,2, status,0, btemp+1, pclath, cstack
  1015 ;; Tracked objects:
  1016 ;;		On entry : B00/0
  1017 ;;		On exit  : 0/0
  1018 ;;		Unchanged: 0/0
  1019 ;; Data sizes:     COMMON   BANK0   BANK1   BANK3   BANK2
  1020 ;;      Params:         0       0       0       0       0
  1021 ;;      Locals:         0       0       0       0       0
  1022 ;;      Temps:          0       0       4       0       0
  1023 ;;      Totals:         0       0       4       0       0
  1024 ;;Total ram usage:        4 bytes
  1025 ;; Hardware stack levels required when called: 3
  1026 ;; This function calls:
  1027 ;;		_I2C_Master_Read
  1028 ;;		_I2C_Master_Start
  1029 ;;		_I2C_Master_Stop
  1030 ;;		_I2C_Master_Write
  1031 ;;		_Lcd_Clear
  1032 ;;		_Lcd_Init
  1033 ;;		_Lcd_Set_Cursor
  1034 ;;		_Lcd_Write_String
  1035 ;;		_USART_Recieve
  1036 ;;		_USART_Tx
  1037 ;;		___fladd
  1038 ;;		___fldiv
  1039 ;;		___flmul
  1040 ;;		___fltol
  1041 ;;		___xxtofl
  1042 ;;		_centenas
  1043 ;;		_convert
  1044 ;;		_decenas
  1045 ;;		_setup
  1046 ;;		_unidades
  1047 ;; This function is called by:
  1048 ;;		Startup code after reset
  1049 ;; This function uses a non-reentrant model
  1050 ;;
  1051                           
  1052                           
  1053                           ;psect for function _main
  1054  03B2                     _main:
  1055  03B2                     l3128:	
  1056                           ;incstack = 0
  1057                           ; Regs used in _main: [wreg-fsr0h+status,2+status,0+btemp+1+pclath+cstack]
  1058                           
  1059                           
  1060                           ;Master.c: 89:     setup();
  1061  03B2  120A  158A  2002  120A  118A  	fcall	_setup
  1062                           
  1063                           ;Master.c: 90:     Lcd_Init();
  1064  03B7  120A  118A  200C  120A  118A  	fcall	_Lcd_Init
  1065                           
  1066                           ;Master.c: 91:     Lcd_Clear();
  1067  03BC  160A  118A  22A7  120A  118A  	fcall	_Lcd_Clear
  1068  03C1                     l113:	
  1069                           ;Master.c: 92:     while(1){
  1070                           
  1071                           
  1072                           ;Master.c: 94:         Lcd_Set_Cursor(1, 1);
  1073  03C1  01F4               	clrf	Lcd_Set_Cursor@b
  1074  03C2  0AF4               	incf	Lcd_Set_Cursor@b,f
  1075  03C3  3001               	movlw	1
  1076  03C4  160A  118A  231B  120A  118A  	fcall	_Lcd_Set_Cursor
  1077  03C9                     l3130:
  1078                           
  1079                           ;Master.c: 95:         Lcd_Write_String("TEMP");
  1080  03C9  3001               	movlw	(low ((STR_1-__stringbase)| (0+32768)))& (0+255)
  1081  03CA  00F3               	movwf	Lcd_Write_String@a
  1082  03CB  3080               	movlw	128
  1083  03CC  00F4               	movwf	Lcd_Write_String@a+1
  1084  03CD  160A  118A  243F  120A  118A  	fcall	_Lcd_Write_String
  1085  03D2                     l3132:
  1086                           
  1087                           ;Master.c: 96:         Lcd_Set_Cursor(1, 8);
  1088  03D2  3008               	movlw	8
  1089  03D3  1683               	bsf	3,5	;RP0=1, select bank1
  1090  03D4  1303               	bcf	3,6	;RP1=0, select bank1
  1091  03D5  00EC               	movwf	??_main^(0+128)
  1092  03D6  086C               	movf	??_main^(0+128),w
  1093  03D7  00F4               	movwf	Lcd_Set_Cursor@b
  1094  03D8  3001               	movlw	1
  1095  03D9  160A  118A  231B  120A  118A  	fcall	_Lcd_Set_Cursor
  1096                           
  1097                           ;Master.c: 97:         Lcd_Write_String("HUM");
  1098  03DE  3006               	movlw	(low ((STR_2-__stringbase)| (0+32768)))& (0+255)
  1099  03DF  00F3               	movwf	Lcd_Write_String@a
  1100  03E0  3080               	movlw	128
  1101  03E1  00F4               	movwf	Lcd_Write_String@a+1
  1102  03E2  160A  118A  243F  120A  118A  	fcall	_Lcd_Write_String
  1103  03E7                     l3134:
  1104                           
  1105                           ;Master.c: 98:         Lcd_Set_Cursor(1, 14);
  1106  03E7  300E               	movlw	14
  1107  03E8  1683               	bsf	3,5	;RP0=1, select bank1
  1108  03E9  1303               	bcf	3,6	;RP1=0, select bank1
  1109  03EA  00EC               	movwf	??_main^(0+128)
  1110  03EB  086C               	movf	??_main^(0+128),w
  1111  03EC  00F4               	movwf	Lcd_Set_Cursor@b
  1112  03ED  3001               	movlw	1
  1113  03EE  160A  118A  231B  120A  118A  	fcall	_Lcd_Set_Cursor
  1114  03F3                     l3136:
  1115                           
  1116                           ;Master.c: 99:         Lcd_Write_String("CON");
  1117  03F3  300A               	movlw	(low ((STR_3-__stringbase)| (0+32768)))& (0+255)
  1118  03F4  00F3               	movwf	Lcd_Write_String@a
  1119  03F5  3080               	movlw	128
  1120  03F6  00F4               	movwf	Lcd_Write_String@a+1
  1121  03F7  160A  118A  243F  120A  118A  	fcall	_Lcd_Write_String
  1122                           
  1123                           ;Master.c: 102:         I2C_Master_Start();
  1124  03FC  160A  118A  227B  120A  118A  	fcall	_I2C_Master_Start
  1125                           
  1126                           ;Master.c: 103:         I2C_Master_Write(0x50);
  1127  0401  3050               	movlw	80
  1128  0402  00F0               	movwf	I2C_Master_Write@d
  1129  0403  3000               	movlw	0
  1130  0404  00F1               	movwf	I2C_Master_Write@d+1
  1131  0405  160A  118A  2284  120A  118A  	fcall	_I2C_Master_Write
  1132                           
  1133                           ;Master.c: 104:         I2C_Master_Write(0x02);
  1134  040A  3002               	movlw	2
  1135  040B  00F0               	movwf	I2C_Master_Write@d
  1136  040C  3000               	movlw	0
  1137  040D  00F1               	movwf	I2C_Master_Write@d+1
  1138  040E  160A  118A  2284  120A  118A  	fcall	_I2C_Master_Write
  1139                           
  1140                           ;Master.c: 105:         I2C_Master_Stop();
  1141  0413  120A  118A  2003  120A  118A  	fcall	_I2C_Master_Stop
  1142  0418                     l3138:
  1143                           
  1144                           ;Master.c: 106:         _delay((unsigned long)((200)*(8000000/4000.0)));
  1145  0418  3003               	movlw	3
  1146  0419  1683               	bsf	3,5	;RP0=1, select bank1
  1147  041A  1303               	bcf	3,6	;RP1=0, select bank1
  1148  041B  00EE               	movwf	(??_main^(0+128)+2)
  1149  041C  3008               	movlw	8
  1150  041D  00ED               	movwf	(??_main^(0+128)+1)
  1151  041E  3076               	movlw	118
  1152  041F  00EC               	movwf	??_main^(0+128)
  1153  0420                     u4027:
  1154  0420  0BEC               	decfsz	??_main^(0+128),f
  1155  0421  2C20               	goto	u4027
  1156  0422  0BED               	decfsz	(??_main^(0+128)+1),f
  1157  0423  2C20               	goto	u4027
  1158  0424  0BEE               	decfsz	(??_main^(0+128)+2),f
  1159  0425  2C20               	goto	u4027
  1160  0426  0000               	nop
  1161  0427                     l3140:
  1162                           
  1163                           ;Master.c: 108:         I2C_Master_Start();
  1164  0427  160A  118A  227B  120A  118A  	fcall	_I2C_Master_Start
  1165  042C                     l3142:
  1166                           
  1167                           ;Master.c: 109:         I2C_Master_Write(0x51);
  1168  042C  3051               	movlw	81
  1169  042D  00F0               	movwf	I2C_Master_Write@d
  1170  042E  3000               	movlw	0
  1171  042F  00F1               	movwf	I2C_Master_Write@d+1
  1172  0430  160A  118A  2284  120A  118A  	fcall	_I2C_Master_Write
  1173  0435                     l3144:
  1174                           
  1175                           ;Master.c: 110:         tem1 = I2C_Master_Read(0);
  1176  0435  3000               	movlw	0
  1177  0436  00F0               	movwf	I2C_Master_Read@a
  1178  0437  00F1               	movwf	I2C_Master_Read@a+1
  1179  0438  160A  118A  23D9  120A  118A  	fcall	_I2C_Master_Read
  1180  043D  0870               	movf	?_I2C_Master_Read,w
  1181  043E  1683               	bsf	3,5	;RP0=1, select bank1
  1182  043F  1303               	bcf	3,6	;RP1=0, select bank1
  1183  0440  00EC               	movwf	??_main^(0+128)
  1184  0441  086C               	movf	??_main^(0+128),w
  1185  0442  00C8               	movwf	_tem1^(0+128)	;volatile
  1186  0443                     l3146:
  1187                           
  1188                           ;Master.c: 111:         I2C_Master_Stop();
  1189  0443  120A  118A  2003  120A  118A  	fcall	_I2C_Master_Stop
  1190  0448                     l3148:
  1191                           
  1192                           ;Master.c: 112:         _delay((unsigned long)((200)*(8000000/4000.0)));
  1193  0448  3003               	movlw	3
  1194  0449  1683               	bsf	3,5	;RP0=1, select bank1
  1195  044A  1303               	bcf	3,6	;RP1=0, select bank1
  1196  044B  00EE               	movwf	(??_main^(0+128)+2)
  1197  044C  3008               	movlw	8
  1198  044D  00ED               	movwf	(??_main^(0+128)+1)
  1199  044E  3076               	movlw	118
  1200  044F  00EC               	movwf	??_main^(0+128)
  1201  0450                     u4037:
  1202  0450  0BEC               	decfsz	??_main^(0+128),f
  1203  0451  2C50               	goto	u4037
  1204  0452  0BED               	decfsz	(??_main^(0+128)+1),f
  1205  0453  2C50               	goto	u4037
  1206  0454  0BEE               	decfsz	(??_main^(0+128)+2),f
  1207  0455  2C50               	goto	u4037
  1208  0456  0000               	nop
  1209                           
  1210                           ;Master.c: 114:         I2C_Master_Start();
  1211  0457  160A  118A  227B  120A  118A  	fcall	_I2C_Master_Start
  1212                           
  1213                           ;Master.c: 115:         I2C_Master_Write(0x50);
  1214  045C  3050               	movlw	80
  1215  045D  00F0               	movwf	I2C_Master_Write@d
  1216  045E  3000               	movlw	0
  1217  045F  00F1               	movwf	I2C_Master_Write@d+1
  1218  0460  160A  118A  2284  120A  118A  	fcall	_I2C_Master_Write
  1219                           
  1220                           ;Master.c: 116:         I2C_Master_Write(0x01);
  1221  0465  3001               	movlw	1
  1222  0466  00F0               	movwf	I2C_Master_Write@d
  1223  0467  3000               	movlw	0
  1224  0468  00F1               	movwf	I2C_Master_Write@d+1
  1225  0469  160A  118A  2284  120A  118A  	fcall	_I2C_Master_Write
  1226                           
  1227                           ;Master.c: 117:         I2C_Master_Stop();
  1228  046E  120A  118A  2003  120A  118A  	fcall	_I2C_Master_Stop
  1229  0473                     l3150:
  1230                           
  1231                           ;Master.c: 118:         _delay((unsigned long)((200)*(8000000/4000.0)));
  1232  0473  3003               	movlw	3
  1233  0474  1683               	bsf	3,5	;RP0=1, select bank1
  1234  0475  1303               	bcf	3,6	;RP1=0, select bank1
  1235  0476  00EE               	movwf	(??_main^(0+128)+2)
  1236  0477  3008               	movlw	8
  1237  0478  00ED               	movwf	(??_main^(0+128)+1)
  1238  0479  3076               	movlw	118
  1239  047A  00EC               	movwf	??_main^(0+128)
  1240  047B                     u4047:
  1241  047B  0BEC               	decfsz	??_main^(0+128),f
  1242  047C  2C7B               	goto	u4047
  1243  047D  0BED               	decfsz	(??_main^(0+128)+1),f
  1244  047E  2C7B               	goto	u4047
  1245  047F  0BEE               	decfsz	(??_main^(0+128)+2),f
  1246  0480  2C7B               	goto	u4047
  1247  0481  0000               	nop
  1248  0482                     l3152:
  1249                           
  1250                           ;Master.c: 120:         I2C_Master_Start();
  1251  0482  160A  118A  227B  120A  118A  	fcall	_I2C_Master_Start
  1252  0487                     l3154:
  1253                           
  1254                           ;Master.c: 121:         I2C_Master_Write(0x51);
  1255  0487  3051               	movlw	81
  1256  0488  00F0               	movwf	I2C_Master_Write@d
  1257  0489  3000               	movlw	0
  1258  048A  00F1               	movwf	I2C_Master_Write@d+1
  1259  048B  160A  118A  2284  120A  118A  	fcall	_I2C_Master_Write
  1260  0490                     l3156:
  1261                           
  1262                           ;Master.c: 122:         tem2 = I2C_Master_Read(0);
  1263  0490  3000               	movlw	0
  1264  0491  00F0               	movwf	I2C_Master_Read@a
  1265  0492  00F1               	movwf	I2C_Master_Read@a+1
  1266  0493  160A  118A  23D9  120A  118A  	fcall	_I2C_Master_Read
  1267  0498  0870               	movf	?_I2C_Master_Read,w
  1268  0499  1683               	bsf	3,5	;RP0=1, select bank1
  1269  049A  1303               	bcf	3,6	;RP1=0, select bank1
  1270  049B  00EC               	movwf	??_main^(0+128)
  1271  049C  086C               	movf	??_main^(0+128),w
  1272  049D  00C7               	movwf	_tem2^(0+128)	;volatile
  1273  049E                     l3158:
  1274                           
  1275                           ;Master.c: 123:         I2C_Master_Stop();
  1276  049E  120A  118A  2003  120A  118A  	fcall	_I2C_Master_Stop
  1277  04A3                     l3160:
  1278                           
  1279                           ;Master.c: 124:         _delay((unsigned long)((200)*(8000000/4000.0)));
  1280  04A3  3003               	movlw	3
  1281  04A4  1683               	bsf	3,5	;RP0=1, select bank1
  1282  04A5  1303               	bcf	3,6	;RP1=0, select bank1
  1283  04A6  00EE               	movwf	(??_main^(0+128)+2)
  1284  04A7  3008               	movlw	8
  1285  04A8  00ED               	movwf	(??_main^(0+128)+1)
  1286  04A9  3076               	movlw	118
  1287  04AA  00EC               	movwf	??_main^(0+128)
  1288  04AB                     u4057:
  1289  04AB  0BEC               	decfsz	??_main^(0+128),f
  1290  04AC  2CAB               	goto	u4057
  1291  04AD  0BED               	decfsz	(??_main^(0+128)+1),f
  1292  04AE  2CAB               	goto	u4057
  1293  04AF  0BEE               	decfsz	(??_main^(0+128)+2),f
  1294  04B0  2CAB               	goto	u4057
  1295  04B1  0000               	nop
  1296                           
  1297                           ;Master.c: 126:          I2C_Master_Start();
  1298  04B2  160A  118A  227B  120A  118A  	fcall	_I2C_Master_Start
  1299                           
  1300                           ;Master.c: 127:          I2C_Master_Write(0x11);
  1301  04B7  3011               	movlw	17
  1302  04B8  00F0               	movwf	I2C_Master_Write@d
  1303  04B9  3000               	movlw	0
  1304  04BA  00F1               	movwf	I2C_Master_Write@d+1
  1305  04BB  160A  118A  2284  120A  118A  	fcall	_I2C_Master_Write
  1306                           
  1307                           ;Master.c: 129:          var_hum = I2C_Master_Read(0);
  1308  04C0  3000               	movlw	0
  1309  04C1  00F0               	movwf	I2C_Master_Read@a
  1310  04C2  00F1               	movwf	I2C_Master_Read@a+1
  1311  04C3  160A  118A  23D9  120A  118A  	fcall	_I2C_Master_Read
  1312  04C8  0870               	movf	?_I2C_Master_Read,w
  1313  04C9  1683               	bsf	3,5	;RP0=1, select bank1
  1314  04CA  1303               	bcf	3,6	;RP1=0, select bank1
  1315  04CB  00EC               	movwf	??_main^(0+128)
  1316  04CC  086C               	movf	??_main^(0+128),w
  1317  04CD  00C6               	movwf	_var_hum^(0+128)	;volatile
  1318                           
  1319                           ;Master.c: 130:          I2C_Master_Stop();
  1320  04CE  120A  118A  2003  120A  118A  	fcall	_I2C_Master_Stop
  1321  04D3                     l3162:
  1322                           
  1323                           ;Master.c: 131:          _delay((unsigned long)((200)*(8000000/4000.0)));
  1324  04D3  3003               	movlw	3
  1325  04D4  1683               	bsf	3,5	;RP0=1, select bank1
  1326  04D5  1303               	bcf	3,6	;RP1=0, select bank1
  1327  04D6  00EE               	movwf	(??_main^(0+128)+2)
  1328  04D7  3008               	movlw	8
  1329  04D8  00ED               	movwf	(??_main^(0+128)+1)
  1330  04D9  3076               	movlw	118
  1331  04DA  00EC               	movwf	??_main^(0+128)
  1332  04DB                     u4067:
  1333  04DB  0BEC               	decfsz	??_main^(0+128),f
  1334  04DC  2CDB               	goto	u4067
  1335  04DD  0BED               	decfsz	(??_main^(0+128)+1),f
  1336  04DE  2CDB               	goto	u4067
  1337  04DF  0BEE               	decfsz	(??_main^(0+128)+2),f
  1338  04E0  2CDB               	goto	u4067
  1339  04E1  0000               	nop
  1340  04E2                     l3164:
  1341                           
  1342                           ;Master.c: 133:         temp = tem1 << 8;
  1343  04E2  1683               	bsf	3,5	;RP0=1, select bank1
  1344  04E3  1303               	bcf	3,6	;RP1=0, select bank1
  1345  04E4  0848               	movf	_tem1^(0+128),w	;volatile
  1346  04E5  00EC               	movwf	??_main^(0+128)
  1347  04E6  01ED               	clrf	(??_main^(0+128)+1)
  1348  04E7  086C               	movf	??_main^(0+128),w
  1349  04E8  00ED               	movwf	(??_main^(0+128)+1)
  1350  04E9  01EC               	clrf	??_main^(0+128)
  1351  04EA  086C               	movf	??_main^(0+128),w
  1352  04EB  1283               	bcf	3,5	;RP0=0, select bank0
  1353  04EC  1303               	bcf	3,6	;RP1=0, select bank0
  1354  04ED  00A4               	movwf	___xxtofl@val
  1355  04EE  1683               	bsf	3,5	;RP0=1, select bank1
  1356  04EF  1303               	bcf	3,6	;RP1=0, select bank1
  1357  04F0  086D               	movf	(??_main+1)^(0+128),w
  1358  04F1  1283               	bcf	3,5	;RP0=0, select bank0
  1359  04F2  1303               	bcf	3,6	;RP1=0, select bank0
  1360  04F3  00A5               	movwf	___xxtofl@val+1
  1361  04F4  3000               	movlw	0
  1362  04F5  1BA5               	btfsc	___xxtofl@val+1,7
  1363  04F6  30FF               	movlw	255
  1364  04F7  00A6               	movwf	___xxtofl@val+2
  1365  04F8  00A7               	movwf	___xxtofl@val+3
  1366  04F9  3001               	movlw	1
  1367  04FA  120A  158A  20C8  120A  118A  	fcall	___xxtofl
  1368  04FF  1283               	bcf	3,5	;RP0=0, select bank0
  1369  0500  1303               	bcf	3,6	;RP1=0, select bank0
  1370  0501  0827               	movf	?___xxtofl+3,w
  1371  0502  1683               	bsf	3,5	;RP0=1, select bank1
  1372  0503  1303               	bcf	3,6	;RP1=0, select bank1
  1373  0504  00B7               	movwf	(_temp+3)^(0+128)
  1374  0505  1283               	bcf	3,5	;RP0=0, select bank0
  1375  0506  1303               	bcf	3,6	;RP1=0, select bank0
  1376  0507  0826               	movf	?___xxtofl+2,w
  1377  0508  1683               	bsf	3,5	;RP0=1, select bank1
  1378  0509  1303               	bcf	3,6	;RP1=0, select bank1
  1379  050A  00B6               	movwf	(_temp+2)^(0+128)
  1380  050B  1283               	bcf	3,5	;RP0=0, select bank0
  1381  050C  1303               	bcf	3,6	;RP1=0, select bank0
  1382  050D  0825               	movf	?___xxtofl+1,w
  1383  050E  1683               	bsf	3,5	;RP0=1, select bank1
  1384  050F  1303               	bcf	3,6	;RP1=0, select bank1
  1385  0510  00B5               	movwf	(_temp+1)^(0+128)
  1386  0511  1283               	bcf	3,5	;RP0=0, select bank0
  1387  0512  1303               	bcf	3,6	;RP1=0, select bank0
  1388  0513  0824               	movf	?___xxtofl,w
  1389  0514  1683               	bsf	3,5	;RP0=1, select bank1
  1390  0515  1303               	bcf	3,6	;RP1=0, select bank1
  1391  0516  00B4               	movwf	_temp^(0+128)
  1392  0517                     l3166:
  1393                           
  1394                           ;Master.c: 134:         temp = temp + tem2;
  1395  0517  0837               	movf	(_temp+3)^(0+128),w
  1396  0518  1283               	bcf	3,5	;RP0=0, select bank0
  1397  0519  1303               	bcf	3,6	;RP1=0, select bank0
  1398  051A  00B5               	movwf	___fladd@b+3
  1399  051B  1683               	bsf	3,5	;RP0=1, select bank1
  1400  051C  1303               	bcf	3,6	;RP1=0, select bank1
  1401  051D  0836               	movf	(_temp+2)^(0+128),w
  1402  051E  1283               	bcf	3,5	;RP0=0, select bank0
  1403  051F  1303               	bcf	3,6	;RP1=0, select bank0
  1404  0520  00B4               	movwf	___fladd@b+2
  1405  0521  1683               	bsf	3,5	;RP0=1, select bank1
  1406  0522  1303               	bcf	3,6	;RP1=0, select bank1
  1407  0523  0835               	movf	(_temp+1)^(0+128),w
  1408  0524  1283               	bcf	3,5	;RP0=0, select bank0
  1409  0525  1303               	bcf	3,6	;RP1=0, select bank0
  1410  0526  00B3               	movwf	___fladd@b+1
  1411  0527  1683               	bsf	3,5	;RP0=1, select bank1
  1412  0528  1303               	bcf	3,6	;RP1=0, select bank1
  1413  0529  0834               	movf	_temp^(0+128),w
  1414  052A  1283               	bcf	3,5	;RP0=0, select bank0
  1415  052B  1303               	bcf	3,6	;RP1=0, select bank0
  1416  052C  00B2               	movwf	___fladd@b
  1417  052D  1683               	bsf	3,5	;RP0=1, select bank1
  1418  052E  1303               	bcf	3,6	;RP1=0, select bank1
  1419  052F  0847               	movf	_tem2^(0+128),w	;volatile
  1420  0530  00EC               	movwf	??_main^(0+128)
  1421  0531  01ED               	clrf	(??_main^(0+128)+1)
  1422  0532  01EE               	clrf	(??_main^(0+128)+2)
  1423  0533  01EF               	clrf	(??_main^(0+128)+3)
  1424  0534  086F               	movf	(??_main+3)^(0+128),w
  1425  0535  1283               	bcf	3,5	;RP0=0, select bank0
  1426  0536  1303               	bcf	3,6	;RP1=0, select bank0
  1427  0537  00A7               	movwf	___xxtofl@val+3
  1428  0538  1683               	bsf	3,5	;RP0=1, select bank1
  1429  0539  1303               	bcf	3,6	;RP1=0, select bank1
  1430  053A  086E               	movf	(??_main+2)^(0+128),w
  1431  053B  1283               	bcf	3,5	;RP0=0, select bank0
  1432  053C  1303               	bcf	3,6	;RP1=0, select bank0
  1433  053D  00A6               	movwf	___xxtofl@val+2
  1434  053E  1683               	bsf	3,5	;RP0=1, select bank1
  1435  053F  1303               	bcf	3,6	;RP1=0, select bank1
  1436  0540  086D               	movf	(??_main+1)^(0+128),w
  1437  0541  1283               	bcf	3,5	;RP0=0, select bank0
  1438  0542  1303               	bcf	3,6	;RP1=0, select bank0
  1439  0543  00A5               	movwf	___xxtofl@val+1
  1440  0544  1683               	bsf	3,5	;RP0=1, select bank1
  1441  0545  1303               	bcf	3,6	;RP1=0, select bank1
  1442  0546  086C               	movf	??_main^(0+128),w
  1443  0547  1283               	bcf	3,5	;RP0=0, select bank0
  1444  0548  1303               	bcf	3,6	;RP1=0, select bank0
  1445  0549  00A4               	movwf	___xxtofl@val
  1446  054A  3001               	movlw	1
  1447  054B  120A  158A  20C8  120A  118A  	fcall	___xxtofl
  1448  0550  1283               	bcf	3,5	;RP0=0, select bank0
  1449  0551  1303               	bcf	3,6	;RP1=0, select bank0
  1450  0552  0827               	movf	?___xxtofl+3,w
  1451  0553  00B9               	movwf	___fladd@a+3
  1452  0554  0826               	movf	?___xxtofl+2,w
  1453  0555  00B8               	movwf	___fladd@a+2
  1454  0556  0825               	movf	?___xxtofl+1,w
  1455  0557  00B7               	movwf	___fladd@a+1
  1456  0558  0824               	movf	?___xxtofl,w
  1457  0559  00B6               	movwf	___fladd@a
  1458  055A  120A  158A  2184  120A  118A  	fcall	___fladd
  1459  055F  1283               	bcf	3,5	;RP0=0, select bank0
  1460  0560  1303               	bcf	3,6	;RP1=0, select bank0
  1461  0561  0835               	movf	?___fladd+3,w
  1462  0562  1683               	bsf	3,5	;RP0=1, select bank1
  1463  0563  1303               	bcf	3,6	;RP1=0, select bank1
  1464  0564  00B7               	movwf	(_temp+3)^(0+128)
  1465  0565  1283               	bcf	3,5	;RP0=0, select bank0
  1466  0566  1303               	bcf	3,6	;RP1=0, select bank0
  1467  0567  0834               	movf	?___fladd+2,w
  1468  0568  1683               	bsf	3,5	;RP0=1, select bank1
  1469  0569  1303               	bcf	3,6	;RP1=0, select bank1
  1470  056A  00B6               	movwf	(_temp+2)^(0+128)
  1471  056B  1283               	bcf	3,5	;RP0=0, select bank0
  1472  056C  1303               	bcf	3,6	;RP1=0, select bank0
  1473  056D  0833               	movf	?___fladd+1,w
  1474  056E  1683               	bsf	3,5	;RP0=1, select bank1
  1475  056F  1303               	bcf	3,6	;RP1=0, select bank1
  1476  0570  00B5               	movwf	(_temp+1)^(0+128)
  1477  0571  1283               	bcf	3,5	;RP0=0, select bank0
  1478  0572  1303               	bcf	3,6	;RP1=0, select bank0
  1479  0573  0832               	movf	?___fladd,w
  1480  0574  1683               	bsf	3,5	;RP0=1, select bank1
  1481  0575  1303               	bcf	3,6	;RP1=0, select bank1
  1482  0576  00B4               	movwf	_temp^(0+128)
  1483  0577                     l3168:
  1484                           
  1485                           ;Master.c: 136:         volt = (temp/ (float) 1023)*5;
  1486  0577  3040               	movlw	64
  1487  0578  1283               	bcf	3,5	;RP0=0, select bank0
  1488  0579  1303               	bcf	3,6	;RP1=0, select bank0
  1489  057A  00D1               	movwf	___flmul@b+3
  1490  057B  30A0               	movlw	160
  1491  057C  00D0               	movwf	___flmul@b+2
  1492  057D  3000               	movlw	0
  1493  057E  00CF               	movwf	___flmul@b+1
  1494  057F  3000               	movlw	0
  1495  0580  00CE               	movwf	___flmul@b
  1496  0581  3044               	movlw	68
  1497  0582  00B5               	movwf	___fldiv@a+3
  1498  0583  307F               	movlw	127
  1499  0584  00B4               	movwf	___fldiv@a+2
  1500  0585  30C0               	movlw	192
  1501  0586  00B3               	movwf	___fldiv@a+1
  1502  0587  3000               	movlw	0
  1503  0588  00B2               	movwf	___fldiv@a
  1504  0589  1683               	bsf	3,5	;RP0=1, select bank1
  1505  058A  1303               	bcf	3,6	;RP1=0, select bank1
  1506  058B  0837               	movf	(_temp+3)^(0+128),w
  1507  058C  1283               	bcf	3,5	;RP0=0, select bank0
  1508  058D  1303               	bcf	3,6	;RP1=0, select bank0
  1509  058E  00B9               	movwf	___fldiv@b+3
  1510  058F  1683               	bsf	3,5	;RP0=1, select bank1
  1511  0590  1303               	bcf	3,6	;RP1=0, select bank1
  1512  0591  0836               	movf	(_temp+2)^(0+128),w
  1513  0592  1283               	bcf	3,5	;RP0=0, select bank0
  1514  0593  1303               	bcf	3,6	;RP1=0, select bank0
  1515  0594  00B8               	movwf	___fldiv@b+2
  1516  0595  1683               	bsf	3,5	;RP0=1, select bank1
  1517  0596  1303               	bcf	3,6	;RP1=0, select bank1
  1518  0597  0835               	movf	(_temp+1)^(0+128),w
  1519  0598  1283               	bcf	3,5	;RP0=0, select bank0
  1520  0599  1303               	bcf	3,6	;RP1=0, select bank0
  1521  059A  00B7               	movwf	___fldiv@b+1
  1522  059B  1683               	bsf	3,5	;RP0=1, select bank1
  1523  059C  1303               	bcf	3,6	;RP1=0, select bank1
  1524  059D  0834               	movf	_temp^(0+128),w
  1525  059E  1283               	bcf	3,5	;RP0=0, select bank0
  1526  059F  1303               	bcf	3,6	;RP1=0, select bank0
  1527  05A0  00B6               	movwf	___fldiv@b
  1528  05A1  160A  118A  2623  120A  118A  	fcall	___fldiv
  1529  05A6  1283               	bcf	3,5	;RP0=0, select bank0
  1530  05A7  1303               	bcf	3,6	;RP1=0, select bank0
  1531  05A8  0835               	movf	?___fldiv+3,w
  1532  05A9  00D5               	movwf	___flmul@a+3
  1533  05AA  0834               	movf	?___fldiv+2,w
  1534  05AB  00D4               	movwf	___flmul@a+2
  1535  05AC  0833               	movf	?___fldiv+1,w
  1536  05AD  00D3               	movwf	___flmul@a+1
  1537  05AE  0832               	movf	?___fldiv,w
  1538  05AF  00D2               	movwf	___flmul@a
  1539  05B0  120A  118A  2051  120A  118A  	fcall	___flmul
  1540  05B5  1283               	bcf	3,5	;RP0=0, select bank0
  1541  05B6  1303               	bcf	3,6	;RP1=0, select bank0
  1542  05B7  0851               	movf	?___flmul+3,w
  1543  05B8  1683               	bsf	3,5	;RP0=1, select bank1
  1544  05B9  1303               	bcf	3,6	;RP1=0, select bank1
  1545  05BA  00B3               	movwf	(_volt+3)^(0+128)
  1546  05BB  1283               	bcf	3,5	;RP0=0, select bank0
  1547  05BC  1303               	bcf	3,6	;RP1=0, select bank0
  1548  05BD  0850               	movf	?___flmul+2,w
  1549  05BE  1683               	bsf	3,5	;RP0=1, select bank1
  1550  05BF  1303               	bcf	3,6	;RP1=0, select bank1
  1551  05C0  00B2               	movwf	(_volt+2)^(0+128)
  1552  05C1  1283               	bcf	3,5	;RP0=0, select bank0
  1553  05C2  1303               	bcf	3,6	;RP1=0, select bank0
  1554  05C3  084F               	movf	?___flmul+1,w
  1555  05C4  1683               	bsf	3,5	;RP0=1, select bank1
  1556  05C5  1303               	bcf	3,6	;RP1=0, select bank1
  1557  05C6  00B1               	movwf	(_volt+1)^(0+128)
  1558  05C7  1283               	bcf	3,5	;RP0=0, select bank0
  1559  05C8  1303               	bcf	3,6	;RP1=0, select bank0
  1560  05C9  084E               	movf	?___flmul,w
  1561  05CA  1683               	bsf	3,5	;RP0=1, select bank1
  1562  05CB  1303               	bcf	3,6	;RP1=0, select bank1
  1563  05CC  00B0               	movwf	_volt^(0+128)
  1564  05CD                     l3170:
  1565                           
  1566                           ;Master.c: 137:         temperatura = (volt* (float) 100);
  1567  05CD  3042               	movlw	66
  1568  05CE  1283               	bcf	3,5	;RP0=0, select bank0
  1569  05CF  1303               	bcf	3,6	;RP1=0, select bank0
  1570  05D0  00D1               	movwf	___flmul@b+3
  1571  05D1  30C8               	movlw	200
  1572  05D2  00D0               	movwf	___flmul@b+2
  1573  05D3  3000               	movlw	0
  1574  05D4  00CF               	movwf	___flmul@b+1
  1575  05D5  3000               	movlw	0
  1576  05D6  00CE               	movwf	___flmul@b
  1577  05D7  1683               	bsf	3,5	;RP0=1, select bank1
  1578  05D8  1303               	bcf	3,6	;RP1=0, select bank1
  1579  05D9  0833               	movf	(_volt+3)^(0+128),w
  1580  05DA  1283               	bcf	3,5	;RP0=0, select bank0
  1581  05DB  1303               	bcf	3,6	;RP1=0, select bank0
  1582  05DC  00D5               	movwf	___flmul@a+3
  1583  05DD  1683               	bsf	3,5	;RP0=1, select bank1
  1584  05DE  1303               	bcf	3,6	;RP1=0, select bank1
  1585  05DF  0832               	movf	(_volt+2)^(0+128),w
  1586  05E0  1283               	bcf	3,5	;RP0=0, select bank0
  1587  05E1  1303               	bcf	3,6	;RP1=0, select bank0
  1588  05E2  00D4               	movwf	___flmul@a+2
  1589  05E3  1683               	bsf	3,5	;RP0=1, select bank1
  1590  05E4  1303               	bcf	3,6	;RP1=0, select bank1
  1591  05E5  0831               	movf	(_volt+1)^(0+128),w
  1592  05E6  1283               	bcf	3,5	;RP0=0, select bank0
  1593  05E7  1303               	bcf	3,6	;RP1=0, select bank0
  1594  05E8  00D3               	movwf	___flmul@a+1
  1595  05E9  1683               	bsf	3,5	;RP0=1, select bank1
  1596  05EA  1303               	bcf	3,6	;RP1=0, select bank1
  1597  05EB  0830               	movf	_volt^(0+128),w
  1598  05EC  1283               	bcf	3,5	;RP0=0, select bank0
  1599  05ED  1303               	bcf	3,6	;RP1=0, select bank0
  1600  05EE  00D2               	movwf	___flmul@a
  1601  05EF  120A  118A  2051  120A  118A  	fcall	___flmul
  1602  05F4  1283               	bcf	3,5	;RP0=0, select bank0
  1603  05F5  1303               	bcf	3,6	;RP1=0, select bank0
  1604  05F6  0851               	movf	?___flmul+3,w
  1605  05F7  1683               	bsf	3,5	;RP0=1, select bank1
  1606  05F8  1303               	bcf	3,6	;RP1=0, select bank1
  1607  05F9  00AF               	movwf	(_temperatura+3)^(0+128)
  1608  05FA  1283               	bcf	3,5	;RP0=0, select bank0
  1609  05FB  1303               	bcf	3,6	;RP1=0, select bank0
  1610  05FC  0850               	movf	?___flmul+2,w
  1611  05FD  1683               	bsf	3,5	;RP0=1, select bank1
  1612  05FE  1303               	bcf	3,6	;RP1=0, select bank1
  1613  05FF  00AE               	movwf	(_temperatura+2)^(0+128)
  1614  0600  1283               	bcf	3,5	;RP0=0, select bank0
  1615  0601  1303               	bcf	3,6	;RP1=0, select bank0
  1616  0602  084F               	movf	?___flmul+1,w
  1617  0603  1683               	bsf	3,5	;RP0=1, select bank1
  1618  0604  1303               	bcf	3,6	;RP1=0, select bank1
  1619  0605  00AD               	movwf	(_temperatura+1)^(0+128)
  1620  0606  1283               	bcf	3,5	;RP0=0, select bank0
  1621  0607  1303               	bcf	3,6	;RP1=0, select bank0
  1622  0608  084E               	movf	?___flmul,w
  1623  0609  1683               	bsf	3,5	;RP0=1, select bank1
  1624  060A  1303               	bcf	3,6	;RP1=0, select bank1
  1625  060B  00AC               	movwf	_temperatura^(0+128)
  1626  060C                     l3172:
  1627                           
  1628                           ;Master.c: 139:         conv1 = 0;
  1629  060C  3000               	movlw	0
  1630  060D  00AB               	movwf	(_conv1+3)^(0+128)
  1631  060E  3000               	movlw	0
  1632  060F  00AA               	movwf	(_conv1+2)^(0+128)
  1633  0610  3000               	movlw	0
  1634  0611  00A9               	movwf	(_conv1+1)^(0+128)
  1635  0612  3000               	movlw	0
  1636  0613  00A8               	movwf	_conv1^(0+128)
  1637  0614                     l3174:
  1638                           
  1639                           ;Master.c: 141:         conv1 = temperatura;
  1640  0614  082F               	movf	(_temperatura+3)^(0+128),w
  1641  0615  00AB               	movwf	(_conv1+3)^(0+128)
  1642  0616  082E               	movf	(_temperatura+2)^(0+128),w
  1643  0617  00AA               	movwf	(_conv1+2)^(0+128)
  1644  0618  082D               	movf	(_temperatura+1)^(0+128),w
  1645  0619  00A9               	movwf	(_conv1+1)^(0+128)
  1646  061A  082C               	movf	_temperatura^(0+128),w
  1647  061B  00A8               	movwf	_conv1^(0+128)
  1648  061C                     l3176:
  1649                           
  1650                           ;Master.c: 143:         convert(lcd1, conv1, 2);
  1651  061C  082B               	movf	(_conv1+3)^(0+128),w
  1652  061D  1283               	bcf	3,5	;RP0=0, select bank0
  1653  061E  1303               	bcf	3,6	;RP1=0, select bank0
  1654  061F  00EB               	movwf	convert@a+3
  1655  0620  1683               	bsf	3,5	;RP0=1, select bank1
  1656  0621  1303               	bcf	3,6	;RP1=0, select bank1
  1657  0622  082A               	movf	(_conv1+2)^(0+128),w
  1658  0623  1283               	bcf	3,5	;RP0=0, select bank0
  1659  0624  1303               	bcf	3,6	;RP1=0, select bank0
  1660  0625  00EA               	movwf	convert@a+2
  1661  0626  1683               	bsf	3,5	;RP0=1, select bank1
  1662  0627  1303               	bcf	3,6	;RP1=0, select bank1
  1663  0628  0829               	movf	(_conv1+1)^(0+128),w
  1664  0629  1283               	bcf	3,5	;RP0=0, select bank0
  1665  062A  1303               	bcf	3,6	;RP1=0, select bank0
  1666  062B  00E9               	movwf	convert@a+1
  1667  062C  1683               	bsf	3,5	;RP0=1, select bank1
  1668  062D  1303               	bcf	3,6	;RP1=0, select bank1
  1669  062E  0828               	movf	_conv1^(0+128),w
  1670  062F  1283               	bcf	3,5	;RP0=0, select bank0
  1671  0630  1303               	bcf	3,6	;RP1=0, select bank0
  1672  0631  00E8               	movwf	convert@a
  1673  0632  3002               	movlw	2
  1674  0633  00EC               	movwf	convert@place
  1675  0634  3000               	movlw	0
  1676  0635  00ED               	movwf	convert@place+1
  1677  0636  30D3               	movlw	(low (_lcd1| 0))& (0+255)
  1678  0637  120A  158A  240C  120A  118A  	fcall	_convert
  1679  063C                     l3178:
  1680                           
  1681                           ;Master.c: 145:         conv0 = 0;
  1682  063C  3000               	movlw	0
  1683  063D  1683               	bsf	3,5	;RP0=1, select bank1
  1684  063E  1303               	bcf	3,6	;RP1=0, select bank1
  1685  063F  00A7               	movwf	(_conv0+3)^(0+128)
  1686  0640  3000               	movlw	0
  1687  0641  00A6               	movwf	(_conv0+2)^(0+128)
  1688  0642  3000               	movlw	0
  1689  0643  00A5               	movwf	(_conv0+1)^(0+128)
  1690  0644  3000               	movlw	0
  1691  0645  00A4               	movwf	_conv0^(0+128)
  1692  0646                     l3180:
  1693                           
  1694                           ;Master.c: 146:         conv0 = var_hum;
  1695  0646  0846               	movf	_var_hum^(0+128),w	;volatile
  1696  0647  00EC               	movwf	??_main^(0+128)
  1697  0648  01ED               	clrf	(??_main^(0+128)+1)
  1698  0649  01EE               	clrf	(??_main^(0+128)+2)
  1699  064A  01EF               	clrf	(??_main^(0+128)+3)
  1700  064B  086F               	movf	(??_main+3)^(0+128),w
  1701  064C  1283               	bcf	3,5	;RP0=0, select bank0
  1702  064D  1303               	bcf	3,6	;RP1=0, select bank0
  1703  064E  00A7               	movwf	___xxtofl@val+3
  1704  064F  1683               	bsf	3,5	;RP0=1, select bank1
  1705  0650  1303               	bcf	3,6	;RP1=0, select bank1
  1706  0651  086E               	movf	(??_main+2)^(0+128),w
  1707  0652  1283               	bcf	3,5	;RP0=0, select bank0
  1708  0653  1303               	bcf	3,6	;RP1=0, select bank0
  1709  0654  00A6               	movwf	___xxtofl@val+2
  1710  0655  1683               	bsf	3,5	;RP0=1, select bank1
  1711  0656  1303               	bcf	3,6	;RP1=0, select bank1
  1712  0657  086D               	movf	(??_main+1)^(0+128),w
  1713  0658  1283               	bcf	3,5	;RP0=0, select bank0
  1714  0659  1303               	bcf	3,6	;RP1=0, select bank0
  1715  065A  00A5               	movwf	___xxtofl@val+1
  1716  065B  1683               	bsf	3,5	;RP0=1, select bank1
  1717  065C  1303               	bcf	3,6	;RP1=0, select bank1
  1718  065D  086C               	movf	??_main^(0+128),w
  1719  065E  1283               	bcf	3,5	;RP0=0, select bank0
  1720  065F  1303               	bcf	3,6	;RP1=0, select bank0
  1721  0660  00A4               	movwf	___xxtofl@val
  1722  0661  3000               	movlw	0
  1723  0662  120A  158A  20C8  120A  118A  	fcall	___xxtofl
  1724  0667  1283               	bcf	3,5	;RP0=0, select bank0
  1725  0668  1303               	bcf	3,6	;RP1=0, select bank0
  1726  0669  0827               	movf	?___xxtofl+3,w
  1727  066A  1683               	bsf	3,5	;RP0=1, select bank1
  1728  066B  1303               	bcf	3,6	;RP1=0, select bank1
  1729  066C  00A7               	movwf	(_conv0+3)^(0+128)
  1730  066D  1283               	bcf	3,5	;RP0=0, select bank0
  1731  066E  1303               	bcf	3,6	;RP1=0, select bank0
  1732  066F  0826               	movf	?___xxtofl+2,w
  1733  0670  1683               	bsf	3,5	;RP0=1, select bank1
  1734  0671  1303               	bcf	3,6	;RP1=0, select bank1
  1735  0672  00A6               	movwf	(_conv0+2)^(0+128)
  1736  0673  1283               	bcf	3,5	;RP0=0, select bank0
  1737  0674  1303               	bcf	3,6	;RP1=0, select bank0
  1738  0675  0825               	movf	?___xxtofl+1,w
  1739  0676  1683               	bsf	3,5	;RP0=1, select bank1
  1740  0677  1303               	bcf	3,6	;RP1=0, select bank1
  1741  0678  00A5               	movwf	(_conv0+1)^(0+128)
  1742  0679  1283               	bcf	3,5	;RP0=0, select bank0
  1743  067A  1303               	bcf	3,6	;RP1=0, select bank0
  1744  067B  0824               	movf	?___xxtofl,w
  1745  067C  1683               	bsf	3,5	;RP0=1, select bank1
  1746  067D  1303               	bcf	3,6	;RP1=0, select bank1
  1747  067E  00A4               	movwf	_conv0^(0+128)
  1748                           
  1749                           ;Master.c: 147:         convert(humedad, conv0, 2);
  1750  067F  0827               	movf	(_conv0+3)^(0+128),w
  1751  0680  1283               	bcf	3,5	;RP0=0, select bank0
  1752  0681  1303               	bcf	3,6	;RP1=0, select bank0
  1753  0682  00EB               	movwf	convert@a+3
  1754  0683  1683               	bsf	3,5	;RP0=1, select bank1
  1755  0684  1303               	bcf	3,6	;RP1=0, select bank1
  1756  0685  0826               	movf	(_conv0+2)^(0+128),w
  1757  0686  1283               	bcf	3,5	;RP0=0, select bank0
  1758  0687  1303               	bcf	3,6	;RP1=0, select bank0
  1759  0688  00EA               	movwf	convert@a+2
  1760  0689  1683               	bsf	3,5	;RP0=1, select bank1
  1761  068A  1303               	bcf	3,6	;RP1=0, select bank1
  1762  068B  0825               	movf	(_conv0+1)^(0+128),w
  1763  068C  1283               	bcf	3,5	;RP0=0, select bank0
  1764  068D  1303               	bcf	3,6	;RP1=0, select bank0
  1765  068E  00E9               	movwf	convert@a+1
  1766  068F  1683               	bsf	3,5	;RP0=1, select bank1
  1767  0690  1303               	bcf	3,6	;RP1=0, select bank1
  1768  0691  0824               	movf	_conv0^(0+128),w
  1769  0692  1283               	bcf	3,5	;RP0=0, select bank0
  1770  0693  1303               	bcf	3,6	;RP1=0, select bank0
  1771  0694  00E8               	movwf	convert@a
  1772  0695  3002               	movlw	2
  1773  0696  00EC               	movwf	convert@place
  1774  0697  3000               	movlw	0
  1775  0698  00ED               	movwf	convert@place+1
  1776  0699  30C9               	movlw	(low (_humedad| 0))& (0+255)
  1777  069A  120A  158A  240C  120A  118A  	fcall	_convert
  1778  069F                     l3182:
  1779                           
  1780                           ;Master.c: 150:         Lcd_Set_Cursor(2, 1);
  1781  069F  01F4               	clrf	Lcd_Set_Cursor@b
  1782  06A0  0AF4               	incf	Lcd_Set_Cursor@b,f
  1783  06A1  3002               	movlw	2
  1784  06A2  160A  118A  231B  120A  118A  	fcall	_Lcd_Set_Cursor
  1785  06A7                     l3184:
  1786                           
  1787                           ;Master.c: 151:         Lcd_Write_String(lcd1);
  1788  06A7  30D3               	movlw	(low (_lcd1| 0))& (0+255)
  1789  06A8  00F3               	movwf	Lcd_Write_String@a
  1790  06A9  3000               	movlw	0
  1791  06AA  00F4               	movwf	Lcd_Write_String@a+1
  1792  06AB  160A  118A  243F  120A  118A  	fcall	_Lcd_Write_String
  1793                           
  1794                           ;Master.c: 152:         Lcd_Set_Cursor(2, 6);
  1795  06B0  3006               	movlw	6
  1796  06B1  1683               	bsf	3,5	;RP0=1, select bank1
  1797  06B2  1303               	bcf	3,6	;RP1=0, select bank1
  1798  06B3  00EC               	movwf	??_main^(0+128)
  1799  06B4  086C               	movf	??_main^(0+128),w
  1800  06B5  00F4               	movwf	Lcd_Set_Cursor@b
  1801  06B6  3002               	movlw	2
  1802  06B7  160A  118A  231B  120A  118A  	fcall	_Lcd_Set_Cursor
  1803  06BC                     l3186:
  1804                           
  1805                           ;Master.c: 153:         Lcd_Write_String("C");
  1806  06BC  300E               	movlw	(low ((STR_4-__stringbase)| (0+32768)))& (0+255)
  1807  06BD  00F3               	movwf	Lcd_Write_String@a
  1808  06BE  3080               	movlw	128
  1809  06BF  00F4               	movwf	Lcd_Write_String@a+1
  1810  06C0  160A  118A  243F  120A  118A  	fcall	_Lcd_Write_String
  1811  06C5                     l3188:
  1812                           
  1813                           ;Master.c: 155:         Lcd_Set_Cursor(2, 7);
  1814  06C5  3007               	movlw	7
  1815  06C6  1683               	bsf	3,5	;RP0=1, select bank1
  1816  06C7  1303               	bcf	3,6	;RP1=0, select bank1
  1817  06C8  00EC               	movwf	??_main^(0+128)
  1818  06C9  086C               	movf	??_main^(0+128),w
  1819  06CA  00F4               	movwf	Lcd_Set_Cursor@b
  1820  06CB  3002               	movlw	2
  1821  06CC  160A  118A  231B  120A  118A  	fcall	_Lcd_Set_Cursor
  1822                           
  1823                           ;Master.c: 156:         Lcd_Write_String(humedad);
  1824  06D1  30C9               	movlw	(low (_humedad| 0))& (0+255)
  1825  06D2  00F3               	movwf	Lcd_Write_String@a
  1826  06D3  3000               	movlw	0
  1827  06D4  00F4               	movwf	Lcd_Write_String@a+1
  1828  06D5  160A  118A  243F  120A  118A  	fcall	_Lcd_Write_String
  1829  06DA                     l3190:
  1830                           
  1831                           ;Master.c: 157:         Lcd_Set_Cursor(2, 11);
  1832  06DA  300B               	movlw	11
  1833  06DB  1683               	bsf	3,5	;RP0=1, select bank1
  1834  06DC  1303               	bcf	3,6	;RP1=0, select bank1
  1835  06DD  00EC               	movwf	??_main^(0+128)
  1836  06DE  086C               	movf	??_main^(0+128),w
  1837  06DF  00F4               	movwf	Lcd_Set_Cursor@b
  1838  06E0  3002               	movlw	2
  1839  06E1  160A  118A  231B  120A  118A  	fcall	_Lcd_Set_Cursor
  1840  06E6                     l3192:
  1841                           
  1842                           ;Master.c: 158:         Lcd_Write_String("C");
  1843  06E6  300E               	movlw	(low ((STR_4-__stringbase)| (0+32768)))& (0+255)
  1844  06E7  00F3               	movwf	Lcd_Write_String@a
  1845  06E8  3080               	movlw	128
  1846  06E9  00F4               	movwf	Lcd_Write_String@a+1
  1847  06EA  160A  118A  243F  120A  118A  	fcall	_Lcd_Write_String
  1848                           
  1849                           ;Master.c: 160:         cent = centenas(temperatura);
  1850  06EF  1683               	bsf	3,5	;RP0=1, select bank1
  1851  06F0  1303               	bcf	3,6	;RP1=0, select bank1
  1852  06F1  082F               	movf	(_temperatura+3)^(0+128),w
  1853  06F2  00F3               	movwf	___fltol@f1+3
  1854  06F3  082E               	movf	(_temperatura+2)^(0+128),w
  1855  06F4  00F2               	movwf	___fltol@f1+2
  1856  06F5  082D               	movf	(_temperatura+1)^(0+128),w
  1857  06F6  00F1               	movwf	___fltol@f1+1
  1858  06F7  082C               	movf	_temperatura^(0+128),w
  1859  06F8  00F0               	movwf	___fltol@f1
  1860  06F9  160A  118A  25A9  120A  118A  	fcall	___fltol
  1861  06FE  0871               	movf	?___fltol+1,w
  1862  06FF  1283               	bcf	3,5	;RP0=0, select bank0
  1863  0700  1303               	bcf	3,6	;RP1=0, select bank0
  1864  0701  00A5               	movwf	centenas@dato+1
  1865  0702  0870               	movf	?___fltol,w
  1866  0703  00A4               	movwf	centenas@dato
  1867  0704  160A  118A  22B4  120A  118A  	fcall	_centenas
  1868  0709  1683               	bsf	3,5	;RP0=1, select bank1
  1869  070A  1303               	bcf	3,6	;RP1=0, select bank1
  1870  070B  00EC               	movwf	??_main^(0+128)
  1871  070C  086C               	movf	??_main^(0+128),w
  1872  070D  00C5               	movwf	_cent^(0+128)
  1873                           
  1874                           ;Master.c: 161:         dect = decenas(temperatura);
  1875  070E  082F               	movf	(_temperatura+3)^(0+128),w
  1876  070F  00F3               	movwf	___fltol@f1+3
  1877  0710  082E               	movf	(_temperatura+2)^(0+128),w
  1878  0711  00F2               	movwf	___fltol@f1+2
  1879  0712  082D               	movf	(_temperatura+1)^(0+128),w
  1880  0713  00F1               	movwf	___fltol@f1+1
  1881  0714  082C               	movf	_temperatura^(0+128),w
  1882  0715  00F0               	movwf	___fltol@f1
  1883  0716  160A  118A  25A9  120A  118A  	fcall	___fltol
  1884  071B  0871               	movf	?___fltol+1,w
  1885  071C  1283               	bcf	3,5	;RP0=0, select bank0
  1886  071D  1303               	bcf	3,6	;RP1=0, select bank0
  1887  071E  00A5               	movwf	decenas@dato+1
  1888  071F  0870               	movf	?___fltol,w
  1889  0720  00A4               	movwf	decenas@dato
  1890  0721  160A  118A  22F9  120A  118A  	fcall	_decenas
  1891  0726  1683               	bsf	3,5	;RP0=1, select bank1
  1892  0727  1303               	bcf	3,6	;RP1=0, select bank1
  1893  0728  00EC               	movwf	??_main^(0+128)
  1894  0729  086C               	movf	??_main^(0+128),w
  1895  072A  00C4               	movwf	_dect^(0+128)
  1896                           
  1897                           ;Master.c: 162:         unit = unidades(temperatura);
  1898  072B  082F               	movf	(_temperatura+3)^(0+128),w
  1899  072C  00F3               	movwf	___fltol@f1+3
  1900  072D  082E               	movf	(_temperatura+2)^(0+128),w
  1901  072E  00F2               	movwf	___fltol@f1+2
  1902  072F  082D               	movf	(_temperatura+1)^(0+128),w
  1903  0730  00F1               	movwf	___fltol@f1+1
  1904  0731  082C               	movf	_temperatura^(0+128),w
  1905  0732  00F0               	movwf	___fltol@f1
  1906  0733  160A  118A  25A9  120A  118A  	fcall	___fltol
  1907  0738  0871               	movf	?___fltol+1,w
  1908  0739  00FC               	movwf	unidades@dato+1
  1909  073A  0870               	movf	?___fltol,w
  1910  073B  00FB               	movwf	unidades@dato
  1911  073C  160A  118A  23B1  120A  118A  	fcall	_unidades
  1912  0741  1683               	bsf	3,5	;RP0=1, select bank1
  1913  0742  1303               	bcf	3,6	;RP1=0, select bank1
  1914  0743  00EC               	movwf	??_main^(0+128)
  1915  0744  086C               	movf	??_main^(0+128),w
  1916  0745  00C3               	movwf	_unit^(0+128)
  1917  0746                     l3194:
  1918                           
  1919                           ;Master.c: 163:         cent += 48;
  1920  0746  3030               	movlw	48
  1921  0747  00EC               	movwf	??_main^(0+128)
  1922  0748  086C               	movf	??_main^(0+128),w
  1923  0749  07C5               	addwf	_cent^(0+128),f
  1924  074A                     l3196:
  1925                           
  1926                           ;Master.c: 164:         dect += 48;
  1927  074A  3030               	movlw	48
  1928  074B  00EC               	movwf	??_main^(0+128)
  1929  074C  086C               	movf	??_main^(0+128),w
  1930  074D  07C4               	addwf	_dect^(0+128),f
  1931  074E                     l3198:
  1932                           
  1933                           ;Master.c: 165:         unit += 48;
  1934  074E  3030               	movlw	48
  1935  074F  00EC               	movwf	??_main^(0+128)
  1936  0750  086C               	movf	??_main^(0+128),w
  1937  0751  07C3               	addwf	_unit^(0+128),f
  1938  0752                     l3200:
  1939                           
  1940                           ;Master.c: 167:         cenh = centenas(humedad);
  1941  0752  30C9               	movlw	low (_humedad| 0)
  1942  0753  1283               	bcf	3,5	;RP0=0, select bank0
  1943  0754  1303               	bcf	3,6	;RP1=0, select bank0
  1944  0755  00A4               	movwf	centenas@dato
  1945  0756  3000               	movlw	high (_humedad| 0)
  1946  0757  00A5               	movwf	centenas@dato+1
  1947  0758  160A  118A  22B4  120A  118A  	fcall	_centenas
  1948  075D  1683               	bsf	3,5	;RP0=1, select bank1
  1949  075E  1303               	bcf	3,6	;RP1=0, select bank1
  1950  075F  00EC               	movwf	??_main^(0+128)
  1951  0760  086C               	movf	??_main^(0+128),w
  1952  0761  00C2               	movwf	_cenh^(0+128)
  1953  0762                     l3202:
  1954                           
  1955                           ;Master.c: 168:         dech = decenas(humedad);
  1956  0762  30C9               	movlw	low (_humedad| 0)
  1957  0763  1283               	bcf	3,5	;RP0=0, select bank0
  1958  0764  1303               	bcf	3,6	;RP1=0, select bank0
  1959  0765  00A4               	movwf	decenas@dato
  1960  0766  3000               	movlw	high (_humedad| 0)
  1961  0767  00A5               	movwf	decenas@dato+1
  1962  0768  160A  118A  22F9  120A  118A  	fcall	_decenas
  1963  076D  1683               	bsf	3,5	;RP0=1, select bank1
  1964  076E  1303               	bcf	3,6	;RP1=0, select bank1
  1965  076F  00EC               	movwf	??_main^(0+128)
  1966  0770  086C               	movf	??_main^(0+128),w
  1967  0771  00C1               	movwf	_dech^(0+128)
  1968  0772                     l3204:
  1969                           
  1970                           ;Master.c: 169:         unih = unidades(humedad);
  1971  0772  30C9               	movlw	low (_humedad| 0)
  1972  0773  00FB               	movwf	unidades@dato
  1973  0774  3000               	movlw	high (_humedad| 0)
  1974  0775  00FC               	movwf	unidades@dato+1
  1975  0776  160A  118A  23B1  120A  118A  	fcall	_unidades
  1976  077B  1683               	bsf	3,5	;RP0=1, select bank1
  1977  077C  1303               	bcf	3,6	;RP1=0, select bank1
  1978  077D  00EC               	movwf	??_main^(0+128)
  1979  077E  086C               	movf	??_main^(0+128),w
  1980  077F  00C0               	movwf	_unih^(0+128)
  1981                           
  1982                           ;Master.c: 170:         cenh += 48;
  1983  0780  3030               	movlw	48
  1984  0781  00EC               	movwf	??_main^(0+128)
  1985  0782  086C               	movf	??_main^(0+128),w
  1986  0783  07C2               	addwf	_cenh^(0+128),f
  1987                           
  1988                           ;Master.c: 171:         dech += 48;
  1989  0784  3030               	movlw	48
  1990  0785  00EC               	movwf	??_main^(0+128)
  1991  0786  086C               	movf	??_main^(0+128),w
  1992  0787  07C1               	addwf	_dech^(0+128),f
  1993                           
  1994                           ;Master.c: 172:         unih += 48;
  1995  0788  3030               	movlw	48
  1996  0789  00EC               	movwf	??_main^(0+128)
  1997  078A  086C               	movf	??_main^(0+128),w
  1998  078B  07C0               	addwf	_unih^(0+128),f
  1999  078C                     l3206:
  2000                           
  2001                           ;Master.c: 174:         if (PIR1bits.RCIF == 1){
  2002  078C  1283               	bcf	3,5	;RP0=0, select bank0
  2003  078D  1303               	bcf	3,6	;RP1=0, select bank0
  2004  078E  1E8C               	btfss	12,5	;volatile
  2005  078F  2F91               	goto	u3981
  2006  0790  2F92               	goto	u3980
  2007  0791                     u3981:
  2008  0791  2FD5               	goto	l3218
  2009  0792                     u3980:
  2010  0792                     l3208:
  2011                           
  2012                           ;Master.c: 175:             ingreso = USART_Recieve();
  2013  0792  160A  118A  2269  120A  118A  	fcall	_USART_Recieve
  2014  0797  1683               	bsf	3,5	;RP0=1, select bank1
  2015  0798  1303               	bcf	3,6	;RP1=0, select bank1
  2016  0799  00EC               	movwf	??_main^(0+128)
  2017  079A  086C               	movf	??_main^(0+128),w
  2018  079B  00BF               	movwf	_ingreso^(0+128)
  2019  079C                     l3210:
  2020                           
  2021                           ;Master.c: 177:             if(ingreso == 's'){
  2022  079C  3073               	movlw	115
  2023  079D  063F               	xorwf	_ingreso^(0+128),w
  2024  079E  1D03               	btfss	3,2
  2025  079F  2FA1               	goto	u3991
  2026  07A0  2FA2               	goto	u3990
  2027  07A1                     u3991:
  2028  07A1  2FB9               	goto	l3214
  2029  07A2                     u3990:
  2030  07A2                     l3212:
  2031                           
  2032                           ;Master.c: 178:                 USART_Tx(cent);
  2033  07A2  0845               	movf	_cent^(0+128),w
  2034  07A3  160A  118A  228E  120A  118A  	fcall	_USART_Tx
  2035                           
  2036                           ;Master.c: 179:                 USART_Tx(dect);
  2037  07A8  1683               	bsf	3,5	;RP0=1, select bank1
  2038  07A9  1303               	bcf	3,6	;RP1=0, select bank1
  2039  07AA  0844               	movf	_dect^(0+128),w
  2040  07AB  160A  118A  228E  120A  118A  	fcall	_USART_Tx
  2041                           
  2042                           ;Master.c: 180:                 USART_Tx(unit);
  2043  07B0  1683               	bsf	3,5	;RP0=1, select bank1
  2044  07B1  1303               	bcf	3,6	;RP1=0, select bank1
  2045  07B2  0843               	movf	_unit^(0+128),w
  2046  07B3  160A  118A  228E  120A  118A  	fcall	_USART_Tx
  2047                           
  2048                           ;Master.c: 181:             }
  2049  07B8  2FD5               	goto	l3218
  2050  07B9                     l3214:
  2051  07B9  3064               	movlw	100
  2052  07BA  063F               	xorwf	_ingreso^(0+128),w
  2053  07BB  1D03               	btfss	3,2
  2054  07BC  2FBE               	goto	u4001
  2055  07BD  2FBF               	goto	u4000
  2056  07BE                     u4001:
  2057  07BE  2FD5               	goto	l3218
  2058  07BF                     u4000:
  2059  07BF                     l3216:
  2060                           
  2061                           ;Master.c: 183:                 USART_Tx(cenh);
  2062  07BF  0842               	movf	_cenh^(0+128),w
  2063  07C0  160A  118A  228E  120A  118A  	fcall	_USART_Tx
  2064                           
  2065                           ;Master.c: 184:                 USART_Tx(dech);
  2066  07C5  1683               	bsf	3,5	;RP0=1, select bank1
  2067  07C6  1303               	bcf	3,6	;RP1=0, select bank1
  2068  07C7  0841               	movf	_dech^(0+128),w
  2069  07C8  160A  118A  228E  120A  118A  	fcall	_USART_Tx
  2070                           
  2071                           ;Master.c: 185:                 USART_Tx(unih);
  2072  07CD  1683               	bsf	3,5	;RP0=1, select bank1
  2073  07CE  1303               	bcf	3,6	;RP1=0, select bank1
  2074  07CF  0840               	movf	_unih^(0+128),w
  2075  07D0  160A  118A  228E  120A  118A  	fcall	_USART_Tx
  2076  07D5                     l3218:
  2077                           
  2078                           ;Master.c: 189:         ingreso = 0;
  2079  07D5  1683               	bsf	3,5	;RP0=1, select bank1
  2080  07D6  1303               	bcf	3,6	;RP1=0, select bank1
  2081  07D7  01BF               	clrf	_ingreso^(0+128)
  2082  07D8                     l3220:
  2083                           
  2084                           ;Master.c: 190:         _delay((unsigned long)((500)*(8000000/4000.0)));
  2085  07D8  3006               	movlw	6
  2086  07D9  1683               	bsf	3,5	;RP0=1, select bank1
  2087  07DA  1303               	bcf	3,6	;RP1=0, select bank1
  2088  07DB  00EE               	movwf	(??_main^(0+128)+2)
  2089  07DC  3013               	movlw	19
  2090  07DD  00ED               	movwf	(??_main^(0+128)+1)
  2091  07DE  30AD               	movlw	173
  2092  07DF  00EC               	movwf	??_main^(0+128)
  2093  07E0                     u4077:
  2094  07E0  0BEC               	decfsz	??_main^(0+128),f
  2095  07E1  2FE0               	goto	u4077
  2096  07E2  0BED               	decfsz	(??_main^(0+128)+1),f
  2097  07E3  2FE0               	goto	u4077
  2098  07E4  0BEE               	decfsz	(??_main^(0+128)+2),f
  2099  07E5  2FE0               	goto	u4077
  2100  07E6  2BC1               	goto	l113
  2101  07E7  120A  118A  2800   	ljmp	start
  2102  07EA                     __end_of_main:
  2103                           
  2104                           	psect	text1
  2105  13B1                     __ptext1:	
  2106 ;; *************** function _unidades *****************
  2107 ;; Defined at:
  2108 ;;		line 233 in file "Master.c"
  2109 ;; Parameters:    Size  Location     Type
  2110 ;;  dato            2   11[COMMON] int 
  2111 ;; Auto vars:     Size  Location     Type
  2112 ;;  out             1    2[BANK0 ] unsigned char 
  2113 ;; Return value:  Size  Location     Type
  2114 ;;                  1    wreg      unsigned char 
  2115 ;; Registers used:
  2116 ;;		wreg, status,2, status,0, pclath, cstack
  2117 ;; Tracked objects:
  2118 ;;		On entry : 0/0
  2119 ;;		On exit  : 0/0
  2120 ;;		Unchanged: 0/0
  2121 ;; Data sizes:     COMMON   BANK0   BANK1   BANK3   BANK2
  2122 ;;      Params:         2       0       0       0       0
  2123 ;;      Locals:         0       3       0       0       0
  2124 ;;      Temps:          1       0       0       0       0
  2125 ;;      Totals:         3       3       0       0       0
  2126 ;;Total ram usage:        6 bytes
  2127 ;; Hardware stack levels used: 1
  2128 ;; Hardware stack levels required when called: 1
  2129 ;; This function calls:
  2130 ;;		___awmod
  2131 ;; This function is called by:
  2132 ;;		_main
  2133 ;; This function uses a non-reentrant model
  2134 ;;
  2135                           
  2136                           
  2137                           ;psect for function _unidades
  2138  13B1                     _unidades:
  2139  13B1                     l3114:	
  2140                           ;incstack = 0
  2141                           ; Regs used in _unidades: [wreg+status,2+status,0+pclath+cstack]
  2142                           
  2143                           
  2144                           ;Master.c: 234:     char out;;Master.c: 235:     out = (dato % 100) % 10;
  2145  13B1  087C               	movf	unidades@dato+1,w
  2146  13B2  00F3               	movwf	___awmod@dividend+1
  2147  13B3  087B               	movf	unidades@dato,w
  2148  13B4  00F2               	movwf	___awmod@dividend
  2149  13B5  3064               	movlw	100
  2150  13B6  00F0               	movwf	___awmod@divisor
  2151  13B7  3000               	movlw	0
  2152  13B8  00F1               	movwf	___awmod@divisor+1
  2153  13B9  160A  118A  2481  160A  118A  	fcall	___awmod
  2154  13BE  0871               	movf	?___awmod+1,w
  2155  13BF  1283               	bcf	3,5	;RP0=0, select bank0
  2156  13C0  1303               	bcf	3,6	;RP1=0, select bank0
  2157  13C1  00A1               	movwf	_unidades$1379+1
  2158  13C2  0870               	movf	?___awmod,w
  2159  13C3  00A0               	movwf	_unidades$1379
  2160                           
  2161                           ;Master.c: 234:     char out;;Master.c: 235:     out = (dato % 100) % 10;
  2162  13C4  300A               	movlw	10
  2163  13C5  00F0               	movwf	___awmod@divisor
  2164  13C6  3000               	movlw	0
  2165  13C7  00F1               	movwf	___awmod@divisor+1
  2166  13C8  0821               	movf	_unidades$1379+1,w
  2167  13C9  00F3               	movwf	___awmod@dividend+1
  2168  13CA  0820               	movf	_unidades$1379,w
  2169  13CB  00F2               	movwf	___awmod@dividend
  2170  13CC  160A  118A  2481  160A  118A  	fcall	___awmod
  2171  13D1  0870               	movf	?___awmod,w
  2172  13D2  00FD               	movwf	??_unidades
  2173  13D3  087D               	movf	??_unidades,w
  2174  13D4  1283               	bcf	3,5	;RP0=0, select bank0
  2175  13D5  1303               	bcf	3,6	;RP1=0, select bank0
  2176  13D6  00A2               	movwf	unidades@out
  2177  13D7                     l3116:
  2178                           
  2179                           ;Master.c: 236:     return out;
  2180  13D7  0822               	movf	unidades@out,w
  2181  13D8                     l132:
  2182  13D8  0008               	return
  2183  13D9                     __end_of_unidades:
  2184                           
  2185                           	psect	text2
  2186  0802                     __ptext2:	
  2187 ;; *************** function _setup *****************
  2188 ;; Defined at:
  2189 ;;		line 198 in file "Master.c"
  2190 ;; Parameters:    Size  Location     Type
  2191 ;;		None
  2192 ;; Auto vars:     Size  Location     Type
  2193 ;;		None
  2194 ;; Return value:  Size  Location     Type
  2195 ;;                  1    wreg      void 
  2196 ;; Registers used:
  2197 ;;		wreg, status,2, status,0, pclath, cstack
  2198 ;; Tracked objects:
  2199 ;;		On entry : 0/0
  2200 ;;		On exit  : 0/0
  2201 ;;		Unchanged: 0/0
  2202 ;; Data sizes:     COMMON   BANK0   BANK1   BANK3   BANK2
  2203 ;;      Params:         0       0       0       0       0
  2204 ;;      Locals:         0       0       0       0       0
  2205 ;;      Temps:          0       0       0       0       0
  2206 ;;      Totals:         0       0       0       0       0
  2207 ;;Total ram usage:        0 bytes
  2208 ;; Hardware stack levels used: 1
  2209 ;; Hardware stack levels required when called: 2
  2210 ;; This function calls:
  2211 ;;		_I2C_Master_Init
  2212 ;; This function is called by:
  2213 ;;		_main
  2214 ;; This function uses a non-reentrant model
  2215 ;;
  2216                           
  2217                           
  2218                           ;psect for function _setup
  2219  0802                     _setup:
  2220  0802                     l2924:	
  2221                           ;incstack = 0
  2222                           ; Regs used in _setup: [wreg+status,2+status,0+pclath+cstack]
  2223                           
  2224                           
  2225                           ;Master.c: 199:     ANSEL = 0x00;
  2226  0802  1683               	bsf	3,5	;RP0=1, select bank3
  2227  0803  1703               	bsf	3,6	;RP1=1, select bank3
  2228  0804  0188               	clrf	8	;volatile
  2229                           
  2230                           ;Master.c: 200:     ANSELH = 0x00;
  2231  0805  0189               	clrf	9	;volatile
  2232  0806                     l2926:
  2233                           
  2234                           ;Master.c: 202:     TRISCbits.TRISC0 = 0;
  2235  0806  1683               	bsf	3,5	;RP0=1, select bank1
  2236  0807  1303               	bcf	3,6	;RP1=0, select bank1
  2237  0808  1007               	bcf	7,0	;volatile
  2238  0809                     l2928:
  2239                           
  2240                           ;Master.c: 203:     TRISCbits.TRISC1 = 0;
  2241  0809  1087               	bcf	7,1	;volatile
  2242                           
  2243                           ;Master.c: 204:     TRISB = 0x00;
  2244  080A  0186               	clrf	6	;volatile
  2245                           
  2246                           ;Master.c: 205:     TRISD = 0x00;
  2247  080B  0188               	clrf	8	;volatile
  2248                           
  2249                           ;Master.c: 206:     TRISE = 0x00;
  2250  080C  0189               	clrf	9	;volatile
  2251                           
  2252                           ;Master.c: 207:     PORTE = 0x00;
  2253  080D  1283               	bcf	3,5	;RP0=0, select bank0
  2254  080E  1303               	bcf	3,6	;RP1=0, select bank0
  2255  080F  0189               	clrf	9	;volatile
  2256                           
  2257                           ;Master.c: 208:     PORTB = 0x00;
  2258  0810  0186               	clrf	6	;volatile
  2259                           
  2260                           ;Master.c: 209:     PORTD = 0x00;
  2261  0811  0188               	clrf	8	;volatile
  2262  0812                     l2930:
  2263                           
  2264                           ;Master.c: 210:     I2C_Master_Init(100000);
  2265  0812  3000               	movlw	0
  2266  0813  00A3               	movwf	I2C_Master_Init@c+3
  2267  0814  3001               	movlw	1
  2268  0815  00A2               	movwf	I2C_Master_Init@c+2
  2269  0816  3086               	movlw	134
  2270  0817  00A1               	movwf	I2C_Master_Init@c+1
  2271  0818  30A0               	movlw	160
  2272  0819  00A0               	movwf	I2C_Master_Init@c
  2273  081A  160A  118A  2407  120A  158A  	fcall	_I2C_Master_Init
  2274  081F                     l2932:
  2275                           
  2276                           ;Master.c: 216:     OSCCONbits.IRCF2 = 1;
  2277  081F  1683               	bsf	3,5	;RP0=1, select bank1
  2278  0820  1303               	bcf	3,6	;RP1=0, select bank1
  2279  0821  170F               	bsf	15,6	;volatile
  2280  0822                     l2934:
  2281                           
  2282                           ;Master.c: 217:     OSCCONbits.IRCF1 = 1;
  2283  0822  168F               	bsf	15,5	;volatile
  2284  0823                     l2936:
  2285                           
  2286                           ;Master.c: 218:     OSCCONbits.IRCF0 = 1;
  2287  0823  160F               	bsf	15,4	;volatile
  2288  0824                     l2938:
  2289                           
  2290                           ;Master.c: 219:     OSCCONbits.SCS = 1;
  2291  0824  140F               	bsf	15,0	;volatile
  2292  0825                     l123:
  2293  0825  0008               	return
  2294  0826                     __end_of_setup:
  2295                           
  2296                           	psect	text3
  2297  1407                     __ptext3:	
  2298 ;; *************** function _I2C_Master_Init *****************
  2299 ;; Defined at:
  2300 ;;		line 14 in file "Librerias.c"
  2301 ;; Parameters:    Size  Location     Type
  2302 ;;  c               4    0[BANK0 ] const unsigned long 
  2303 ;; Auto vars:     Size  Location     Type
  2304 ;;		None
  2305 ;; Return value:  Size  Location     Type
  2306 ;;                  1    wreg      void 
  2307 ;; Registers used:
  2308 ;;		wreg, status,2, status,0, pclath, cstack
  2309 ;; Tracked objects:
  2310 ;;		On entry : 0/0
  2311 ;;		On exit  : 0/0
  2312 ;;		Unchanged: 0/0
  2313 ;; Data sizes:     COMMON   BANK0   BANK1   BANK3   BANK2
  2314 ;;      Params:         0       4       0       0       0
  2315 ;;      Locals:         0       0       0       0       0
  2316 ;;      Temps:          0       4       0       0       0
  2317 ;;      Totals:         0       8       0       0       0
  2318 ;;Total ram usage:        8 bytes
  2319 ;; Hardware stack levels used: 1
  2320 ;; Hardware stack levels required when called: 1
  2321 ;; This function calls:
  2322 ;;		___lldiv
  2323 ;; This function is called by:
  2324 ;;		_setup
  2325 ;; This function uses a non-reentrant model
  2326 ;;
  2327                           
  2328                           
  2329                           ;psect for function _I2C_Master_Init
  2330  1407                     _I2C_Master_Init:
  2331  1407                     l2404:	
  2332                           ;incstack = 0
  2333                           ; Regs used in _I2C_Master_Init: [wreg+status,2+status,0+pclath+cstack]
  2334                           
  2335                           
  2336                           ;Librerias.c: 14: void I2C_Master_Init(const unsigned long c);Librerias.c: 15: {;Libreri
      +                          as.c: 16:     SSPCON = 0b00101000;
  2337  1407  3028               	movlw	40
  2338  1408  1283               	bcf	3,5	;RP0=0, select bank0
  2339  1409  1303               	bcf	3,6	;RP1=0, select bank0
  2340  140A  0094               	movwf	20	;volatile
  2341  140B                     l2406:
  2342                           
  2343                           ;Librerias.c: 17:     SSPCON2 = 0;
  2344  140B  1683               	bsf	3,5	;RP0=1, select bank1
  2345  140C  1303               	bcf	3,6	;RP1=0, select bank1
  2346  140D  0191               	clrf	17	;volatile
  2347  140E                     l2408:
  2348                           
  2349                           ;Librerias.c: 18:     SSPADD = (8000000/(4*c))-1;
  2350  140E  1283               	bcf	3,5	;RP0=0, select bank0
  2351  140F  1303               	bcf	3,6	;RP1=0, select bank0
  2352  1410  0820               	movf	I2C_Master_Init@c,w
  2353  1411  00A4               	movwf	??_I2C_Master_Init
  2354  1412  0821               	movf	I2C_Master_Init@c+1,w
  2355  1413  00A5               	movwf	??_I2C_Master_Init+1
  2356  1414  0822               	movf	I2C_Master_Init@c+2,w
  2357  1415  00A6               	movwf	??_I2C_Master_Init+2
  2358  1416  0823               	movf	I2C_Master_Init@c+3,w
  2359  1417  00A7               	movwf	??_I2C_Master_Init+3
  2360  1418  3002               	movlw	2
  2361  1419                     u2595:
  2362  1419  1003               	clrc
  2363  141A  0DA4               	rlf	??_I2C_Master_Init,f
  2364  141B  0DA5               	rlf	??_I2C_Master_Init+1,f
  2365  141C  0DA6               	rlf	??_I2C_Master_Init+2,f
  2366  141D  0DA7               	rlf	??_I2C_Master_Init+3,f
  2367  141E                     u2590:
  2368  141E  3EFF               	addlw	-1
  2369  141F  1D03               	skipz
  2370  1420  2C19               	goto	u2595
  2371  1421  0827               	movf	??_I2C_Master_Init+3,w
  2372  1422  00F3               	movwf	___lldiv@divisor+3
  2373  1423  0826               	movf	??_I2C_Master_Init+2,w
  2374  1424  00F2               	movwf	___lldiv@divisor+2
  2375  1425  0825               	movf	??_I2C_Master_Init+1,w
  2376  1426  00F1               	movwf	___lldiv@divisor+1
  2377  1427  0824               	movf	??_I2C_Master_Init,w
  2378  1428  00F0               	movwf	___lldiv@divisor
  2379  1429  3000               	movlw	0
  2380  142A  00F7               	movwf	___lldiv@dividend+3
  2381  142B  307A               	movlw	122
  2382  142C  00F6               	movwf	___lldiv@dividend+2
  2383  142D  3012               	movlw	18
  2384  142E  00F5               	movwf	___lldiv@dividend+1
  2385  142F  3000               	movlw	0
  2386  1430  00F4               	movwf	___lldiv@dividend
  2387  1431  160A  118A  24DA  160A  118A  	fcall	___lldiv
  2388  1436  0870               	movf	?___lldiv,w
  2389  1437  3EFF               	addlw	255
  2390  1438  1683               	bsf	3,5	;RP0=1, select bank1
  2391  1439  1303               	bcf	3,6	;RP1=0, select bank1
  2392  143A  0093               	movwf	19	;volatile
  2393  143B                     l2410:
  2394                           
  2395                           ;Librerias.c: 19:     SSPSTAT = 0;
  2396  143B  0194               	clrf	20	;volatile
  2397  143C                     l2412:
  2398                           
  2399                           ;Librerias.c: 20:     TRISCbits.TRISC3 = 1;
  2400  143C  1587               	bsf	7,3	;volatile
  2401  143D                     l2414:
  2402                           
  2403                           ;Librerias.c: 21:     TRISCbits.TRISC4 = 1;
  2404  143D  1607               	bsf	7,4	;volatile
  2405  143E                     l212:
  2406  143E  0008               	return
  2407  143F                     __end_of_I2C_Master_Init:
  2408                           
  2409                           	psect	text4
  2410  14DA                     __ptext4:	
  2411 ;; *************** function ___lldiv *****************
  2412 ;; Defined at:
  2413 ;;		line 5 in file "C:\Program Files\Microchip\xc8\v2.32\pic\sources\c90\common\__lldiv.c"
  2414 ;; Parameters:    Size  Location     Type
  2415 ;;  divisor         4    0[COMMON] unsigned long 
  2416 ;;  dividend        4    4[COMMON] unsigned long 
  2417 ;; Auto vars:     Size  Location     Type
  2418 ;;  quotient        4    9[COMMON] unsigned long 
  2419 ;;  counter         1   13[COMMON] unsigned char 
  2420 ;; Return value:  Size  Location     Type
  2421 ;;                  4    0[COMMON] unsigned long 
  2422 ;; Registers used:
  2423 ;;		wreg, status,2, status,0
  2424 ;; Tracked objects:
  2425 ;;		On entry : 0/0
  2426 ;;		On exit  : 0/0
  2427 ;;		Unchanged: 0/0
  2428 ;; Data sizes:     COMMON   BANK0   BANK1   BANK3   BANK2
  2429 ;;      Params:         8       0       0       0       0
  2430 ;;      Locals:         5       0       0       0       0
  2431 ;;      Temps:          1       0       0       0       0
  2432 ;;      Totals:        14       0       0       0       0
  2433 ;;Total ram usage:       14 bytes
  2434 ;; Hardware stack levels used: 1
  2435 ;; This function calls:
  2436 ;;		Nothing
  2437 ;; This function is called by:
  2438 ;;		_I2C_Master_Init
  2439 ;; This function uses a non-reentrant model
  2440 ;;
  2441                           
  2442                           
  2443                           ;psect for function ___lldiv
  2444  14DA                     ___lldiv:
  2445  14DA                     l2172:	
  2446                           ;incstack = 0
  2447                           ; Regs used in ___lldiv: [wreg+status,2+status,0]
  2448                           
  2449  14DA  3000               	movlw	0
  2450  14DB  00FC               	movwf	___lldiv@quotient+3
  2451  14DC  3000               	movlw	0
  2452  14DD  00FB               	movwf	___lldiv@quotient+2
  2453  14DE  3000               	movlw	0
  2454  14DF  00FA               	movwf	___lldiv@quotient+1
  2455  14E0  3000               	movlw	0
  2456  14E1  00F9               	movwf	___lldiv@quotient
  2457  14E2  0873               	movf	___lldiv@divisor+3,w
  2458  14E3  0472               	iorwf	___lldiv@divisor+2,w
  2459  14E4  0471               	iorwf	___lldiv@divisor+1,w
  2460  14E5  0470               	iorwf	___lldiv@divisor,w
  2461  14E6  1903               	skipnz
  2462  14E7  2CE9               	goto	u2031
  2463  14E8  2CEA               	goto	u2030
  2464  14E9                     u2031:
  2465  14E9  2D37               	goto	l2192
  2466  14EA                     u2030:
  2467  14EA                     l2174:
  2468  14EA  01FD               	clrf	___lldiv@counter
  2469  14EB  0AFD               	incf	___lldiv@counter,f
  2470  14EC  2CFA               	goto	l2178
  2471  14ED                     l2176:
  2472  14ED  3001               	movlw	1
  2473  14EE  00F8               	movwf	??___lldiv
  2474  14EF                     u2045:
  2475  14EF  1003               	clrc
  2476  14F0  0DF0               	rlf	___lldiv@divisor,f
  2477  14F1  0DF1               	rlf	___lldiv@divisor+1,f
  2478  14F2  0DF2               	rlf	___lldiv@divisor+2,f
  2479  14F3  0DF3               	rlf	___lldiv@divisor+3,f
  2480  14F4  0BF8               	decfsz	??___lldiv,f
  2481  14F5  2CEF               	goto	u2045
  2482  14F6  3001               	movlw	1
  2483  14F7  00F8               	movwf	??___lldiv
  2484  14F8  0878               	movf	??___lldiv,w
  2485  14F9  07FD               	addwf	___lldiv@counter,f
  2486  14FA                     l2178:
  2487  14FA  1FF3               	btfss	___lldiv@divisor+3,7
  2488  14FB  2CFD               	goto	u2051
  2489  14FC  2CFE               	goto	u2050
  2490  14FD                     u2051:
  2491  14FD  2CED               	goto	l2176
  2492  14FE                     u2050:
  2493  14FE                     l2180:
  2494  14FE  3001               	movlw	1
  2495  14FF  00F8               	movwf	??___lldiv
  2496  1500                     u2065:
  2497  1500  1003               	clrc
  2498  1501  0DF9               	rlf	___lldiv@quotient,f
  2499  1502  0DFA               	rlf	___lldiv@quotient+1,f
  2500  1503  0DFB               	rlf	___lldiv@quotient+2,f
  2501  1504  0DFC               	rlf	___lldiv@quotient+3,f
  2502  1505  0BF8               	decfsz	??___lldiv,f
  2503  1506  2D00               	goto	u2065
  2504  1507                     l2182:
  2505  1507  0873               	movf	___lldiv@divisor+3,w
  2506  1508  0277               	subwf	___lldiv@dividend+3,w
  2507  1509  1D03               	skipz
  2508  150A  2D15               	goto	u2075
  2509  150B  0872               	movf	___lldiv@divisor+2,w
  2510  150C  0276               	subwf	___lldiv@dividend+2,w
  2511  150D  1D03               	skipz
  2512  150E  2D15               	goto	u2075
  2513  150F  0871               	movf	___lldiv@divisor+1,w
  2514  1510  0275               	subwf	___lldiv@dividend+1,w
  2515  1511  1D03               	skipz
  2516  1512  2D15               	goto	u2075
  2517  1513  0870               	movf	___lldiv@divisor,w
  2518  1514  0274               	subwf	___lldiv@dividend,w
  2519  1515                     u2075:
  2520  1515  1C03               	skipc
  2521  1516  2D18               	goto	u2071
  2522  1517  2D19               	goto	u2070
  2523  1518                     u2071:
  2524  1518  2D28               	goto	l2188
  2525  1519                     u2070:
  2526  1519                     l2184:
  2527  1519  0870               	movf	___lldiv@divisor,w
  2528  151A  02F4               	subwf	___lldiv@dividend,f
  2529  151B  0871               	movf	___lldiv@divisor+1,w
  2530  151C  1C03               	skipc
  2531  151D  0F71               	incfsz	___lldiv@divisor+1,w
  2532  151E  02F5               	subwf	___lldiv@dividend+1,f
  2533  151F  0872               	movf	___lldiv@divisor+2,w
  2534  1520  1C03               	skipc
  2535  1521  0F72               	incfsz	___lldiv@divisor+2,w
  2536  1522  02F6               	subwf	___lldiv@dividend+2,f
  2537  1523  0873               	movf	___lldiv@divisor+3,w
  2538  1524  1C03               	skipc
  2539  1525  0F73               	incfsz	___lldiv@divisor+3,w
  2540  1526  02F7               	subwf	___lldiv@dividend+3,f
  2541  1527                     l2186:
  2542  1527  1479               	bsf	___lldiv@quotient,0
  2543  1528                     l2188:
  2544  1528  3001               	movlw	1
  2545  1529                     u2085:
  2546  1529  1003               	clrc
  2547  152A  0CF3               	rrf	___lldiv@divisor+3,f
  2548  152B  0CF2               	rrf	___lldiv@divisor+2,f
  2549  152C  0CF1               	rrf	___lldiv@divisor+1,f
  2550  152D  0CF0               	rrf	___lldiv@divisor,f
  2551  152E  3EFF               	addlw	-1
  2552  152F  1D03               	skipz
  2553  1530  2D29               	goto	u2085
  2554  1531                     l2190:
  2555  1531  3001               	movlw	1
  2556  1532  02FD               	subwf	___lldiv@counter,f
  2557  1533  1D03               	btfss	3,2
  2558  1534  2D36               	goto	u2091
  2559  1535  2D37               	goto	u2090
  2560  1536                     u2091:
  2561  1536  2CFE               	goto	l2180
  2562  1537                     u2090:
  2563  1537                     l2192:
  2564  1537  087C               	movf	___lldiv@quotient+3,w
  2565  1538  00F3               	movwf	?___lldiv+3
  2566  1539  087B               	movf	___lldiv@quotient+2,w
  2567  153A  00F2               	movwf	?___lldiv+2
  2568  153B  087A               	movf	___lldiv@quotient+1,w
  2569  153C  00F1               	movwf	?___lldiv+1
  2570  153D  0879               	movf	___lldiv@quotient,w
  2571  153E  00F0               	movwf	?___lldiv
  2572  153F                     l502:
  2573  153F  0008               	return
  2574  1540                     __end_of___lldiv:
  2575                           
  2576                           	psect	text5
  2577  12F9                     __ptext5:	
  2578 ;; *************** function _decenas *****************
  2579 ;; Defined at:
  2580 ;;		line 227 in file "Master.c"
  2581 ;; Parameters:    Size  Location     Type
  2582 ;;  dato            2    4[BANK0 ] int 
  2583 ;; Auto vars:     Size  Location     Type
  2584 ;;  out             1   13[COMMON] unsigned char 
  2585 ;; Return value:  Size  Location     Type
  2586 ;;                  1    wreg      unsigned char 
  2587 ;; Registers used:
  2588 ;;		wreg, status,2, status,0, pclath, cstack
  2589 ;; Tracked objects:
  2590 ;;		On entry : 0/0
  2591 ;;		On exit  : 0/0
  2592 ;;		Unchanged: 0/0
  2593 ;; Data sizes:     COMMON   BANK0   BANK1   BANK3   BANK2
  2594 ;;      Params:         0       2       0       0       0
  2595 ;;      Locals:         1       0       0       0       0
  2596 ;;      Temps:          1       0       0       0       0
  2597 ;;      Totals:         2       2       0       0       0
  2598 ;;Total ram usage:        4 bytes
  2599 ;; Hardware stack levels used: 1
  2600 ;; Hardware stack levels required when called: 1
  2601 ;; This function calls:
  2602 ;;		___awdiv
  2603 ;;		___awmod
  2604 ;; This function is called by:
  2605 ;;		_main
  2606 ;; This function uses a non-reentrant model
  2607 ;;
  2608                           
  2609                           
  2610                           ;psect for function _decenas
  2611  12F9                     _decenas:
  2612  12F9                     l3108:	
  2613                           ;incstack = 0
  2614                           ; Regs used in _decenas: [wreg+status,2+status,0+pclath+cstack]
  2615                           
  2616                           
  2617                           ;Master.c: 228:     char out;;Master.c: 229:     out = (dato % 100) / 10;
  2618  12F9  300A               	movlw	10
  2619  12FA  00F7               	movwf	___awdiv@divisor
  2620  12FB  3000               	movlw	0
  2621  12FC  00F8               	movwf	___awdiv@divisor+1
  2622  12FD  1283               	bcf	3,5	;RP0=0, select bank0
  2623  12FE  1303               	bcf	3,6	;RP1=0, select bank0
  2624  12FF  0825               	movf	decenas@dato+1,w
  2625  1300  00F3               	movwf	___awmod@dividend+1
  2626  1301  0824               	movf	decenas@dato,w
  2627  1302  00F2               	movwf	___awmod@dividend
  2628  1303  3064               	movlw	100
  2629  1304  00F0               	movwf	___awmod@divisor
  2630  1305  3000               	movlw	0
  2631  1306  00F1               	movwf	___awmod@divisor+1
  2632  1307  160A  118A  2481  160A  118A  	fcall	___awmod
  2633  130C  0871               	movf	?___awmod+1,w
  2634  130D  00FA               	movwf	___awdiv@dividend+1
  2635  130E  0870               	movf	?___awmod,w
  2636  130F  00F9               	movwf	___awdiv@dividend
  2637  1310  160A  118A  2540  160A  118A  	fcall	___awdiv
  2638  1315  0877               	movf	?___awdiv,w
  2639  1316  00FC               	movwf	??_decenas
  2640  1317  087C               	movf	??_decenas,w
  2641  1318  00FD               	movwf	decenas@out
  2642  1319                     l3110:
  2643                           
  2644                           ;Master.c: 230:     return out;
  2645  1319  087D               	movf	decenas@out,w
  2646  131A                     l129:
  2647  131A  0008               	return
  2648  131B                     __end_of_decenas:
  2649                           
  2650                           	psect	text6
  2651  1481                     __ptext6:	
  2652 ;; *************** function ___awmod *****************
  2653 ;; Defined at:
  2654 ;;		line 5 in file "C:\Program Files\Microchip\xc8\v2.32\pic\sources\c90\common\awmod.c"
  2655 ;; Parameters:    Size  Location     Type
  2656 ;;  divisor         2    0[COMMON] int 
  2657 ;;  dividend        2    2[COMMON] int 
  2658 ;; Auto vars:     Size  Location     Type
  2659 ;;  sign            1    6[COMMON] unsigned char 
  2660 ;;  counter         1    5[COMMON] unsigned char 
  2661 ;; Return value:  Size  Location     Type
  2662 ;;                  2    0[COMMON] int 
  2663 ;; Registers used:
  2664 ;;		wreg, status,2, status,0
  2665 ;; Tracked objects:
  2666 ;;		On entry : 0/0
  2667 ;;		On exit  : 0/0
  2668 ;;		Unchanged: 0/0
  2669 ;; Data sizes:     COMMON   BANK0   BANK1   BANK3   BANK2
  2670 ;;      Params:         4       0       0       0       0
  2671 ;;      Locals:         2       0       0       0       0
  2672 ;;      Temps:          1       0       0       0       0
  2673 ;;      Totals:         7       0       0       0       0
  2674 ;;Total ram usage:        7 bytes
  2675 ;; Hardware stack levels used: 1
  2676 ;; This function calls:
  2677 ;;		Nothing
  2678 ;; This function is called by:
  2679 ;;		_decenas
  2680 ;;		_unidades
  2681 ;; This function uses a non-reentrant model
  2682 ;;
  2683                           
  2684                           
  2685                           ;psect for function ___awmod
  2686  1481                     ___awmod:
  2687  1481                     l2498:	
  2688                           ;incstack = 0
  2689                           ; Regs used in ___awmod: [wreg+status,2+status,0]
  2690                           
  2691  1481  01F6               	clrf	___awmod@sign
  2692  1482                     l2500:
  2693  1482  1FF3               	btfss	___awmod@dividend+1,7
  2694  1483  2C85               	goto	u2761
  2695  1484  2C86               	goto	u2760
  2696  1485                     u2761:
  2697  1485  2C8D               	goto	l2506
  2698  1486                     u2760:
  2699  1486                     l2502:
  2700  1486  09F2               	comf	___awmod@dividend,f
  2701  1487  09F3               	comf	___awmod@dividend+1,f
  2702  1488  0AF2               	incf	___awmod@dividend,f
  2703  1489  1903               	skipnz
  2704  148A  0AF3               	incf	___awmod@dividend+1,f
  2705  148B                     l2504:
  2706  148B  01F6               	clrf	___awmod@sign
  2707  148C  0AF6               	incf	___awmod@sign,f
  2708  148D                     l2506:
  2709  148D  1FF1               	btfss	___awmod@divisor+1,7
  2710  148E  2C90               	goto	u2771
  2711  148F  2C91               	goto	u2770
  2712  1490                     u2771:
  2713  1490  2C96               	goto	l2510
  2714  1491                     u2770:
  2715  1491                     l2508:
  2716  1491  09F0               	comf	___awmod@divisor,f
  2717  1492  09F1               	comf	___awmod@divisor+1,f
  2718  1493  0AF0               	incf	___awmod@divisor,f
  2719  1494  1903               	skipnz
  2720  1495  0AF1               	incf	___awmod@divisor+1,f
  2721  1496                     l2510:
  2722  1496  0870               	movf	___awmod@divisor,w
  2723  1497  0471               	iorwf	___awmod@divisor+1,w
  2724  1498  1903               	btfsc	3,2
  2725  1499  2C9B               	goto	u2781
  2726  149A  2C9C               	goto	u2780
  2727  149B                     u2781:
  2728  149B  2CCB               	goto	l2528
  2729  149C                     u2780:
  2730  149C                     l2512:
  2731  149C  01F5               	clrf	___awmod@counter
  2732  149D  0AF5               	incf	___awmod@counter,f
  2733  149E  2CAA               	goto	l2518
  2734  149F                     l2514:
  2735  149F  3001               	movlw	1
  2736  14A0                     u2795:
  2737  14A0  1003               	clrc
  2738  14A1  0DF0               	rlf	___awmod@divisor,f
  2739  14A2  0DF1               	rlf	___awmod@divisor+1,f
  2740  14A3  3EFF               	addlw	-1
  2741  14A4  1D03               	skipz
  2742  14A5  2CA0               	goto	u2795
  2743  14A6                     l2516:
  2744  14A6  3001               	movlw	1
  2745  14A7  00F4               	movwf	??___awmod
  2746  14A8  0874               	movf	??___awmod,w
  2747  14A9  07F5               	addwf	___awmod@counter,f
  2748  14AA                     l2518:
  2749  14AA  1FF1               	btfss	___awmod@divisor+1,7
  2750  14AB  2CAD               	goto	u2801
  2751  14AC  2CAE               	goto	u2800
  2752  14AD                     u2801:
  2753  14AD  2C9F               	goto	l2514
  2754  14AE                     u2800:
  2755  14AE                     l2520:
  2756  14AE  0871               	movf	___awmod@divisor+1,w
  2757  14AF  0273               	subwf	___awmod@dividend+1,w
  2758  14B0  1D03               	skipz
  2759  14B1  2CB4               	goto	u2815
  2760  14B2  0870               	movf	___awmod@divisor,w
  2761  14B3  0272               	subwf	___awmod@dividend,w
  2762  14B4                     u2815:
  2763  14B4  1C03               	skipc
  2764  14B5  2CB7               	goto	u2811
  2765  14B6  2CB8               	goto	u2810
  2766  14B7                     u2811:
  2767  14B7  2CBE               	goto	l2524
  2768  14B8                     u2810:
  2769  14B8                     l2522:
  2770  14B8  0870               	movf	___awmod@divisor,w
  2771  14B9  02F2               	subwf	___awmod@dividend,f
  2772  14BA  0871               	movf	___awmod@divisor+1,w
  2773  14BB  1C03               	skipc
  2774  14BC  03F3               	decf	___awmod@dividend+1,f
  2775  14BD  02F3               	subwf	___awmod@dividend+1,f
  2776  14BE                     l2524:
  2777  14BE  3001               	movlw	1
  2778  14BF                     u2825:
  2779  14BF  1003               	clrc
  2780  14C0  0CF1               	rrf	___awmod@divisor+1,f
  2781  14C1  0CF0               	rrf	___awmod@divisor,f
  2782  14C2  3EFF               	addlw	-1
  2783  14C3  1D03               	skipz
  2784  14C4  2CBF               	goto	u2825
  2785  14C5                     l2526:
  2786  14C5  3001               	movlw	1
  2787  14C6  02F5               	subwf	___awmod@counter,f
  2788  14C7  1D03               	btfss	3,2
  2789  14C8  2CCA               	goto	u2831
  2790  14C9  2CCB               	goto	u2830
  2791  14CA                     u2831:
  2792  14CA  2CAE               	goto	l2520
  2793  14CB                     u2830:
  2794  14CB                     l2528:
  2795  14CB  0876               	movf	___awmod@sign,w
  2796  14CC  1903               	btfsc	3,2
  2797  14CD  2CCF               	goto	u2841
  2798  14CE  2CD0               	goto	u2840
  2799  14CF                     u2841:
  2800  14CF  2CD5               	goto	l2532
  2801  14D0                     u2840:
  2802  14D0                     l2530:
  2803  14D0  09F2               	comf	___awmod@dividend,f
  2804  14D1  09F3               	comf	___awmod@dividend+1,f
  2805  14D2  0AF2               	incf	___awmod@dividend,f
  2806  14D3  1903               	skipnz
  2807  14D4  0AF3               	incf	___awmod@dividend+1,f
  2808  14D5                     l2532:
  2809  14D5  0873               	movf	___awmod@dividend+1,w
  2810  14D6  00F1               	movwf	?___awmod+1
  2811  14D7  0872               	movf	___awmod@dividend,w
  2812  14D8  00F0               	movwf	?___awmod
  2813  14D9                     l632:
  2814  14D9  0008               	return
  2815  14DA                     __end_of___awmod:
  2816                           
  2817                           	psect	text7
  2818  0C0C                     __ptext7:	
  2819 ;; *************** function _convert *****************
  2820 ;; Defined at:
  2821 ;;		line 202 in file "Librerias.c"
  2822 ;; Parameters:    Size  Location     Type
  2823 ;;  data            1    wreg     PTR unsigned char 
  2824 ;;		 -> humedad(10), lcd1(10), 
  2825 ;;  a               4   72[BANK0 ] float 
  2826 ;;  place           2   76[BANK0 ] int 
  2827 ;; Auto vars:     Size  Location     Type
  2828 ;;  data            1    4[BANK1 ] PTR unsigned char 
  2829 ;;		 -> humedad(10), lcd1(10), 
  2830 ;;  x               4    5[BANK1 ] float 
  2831 ;;  mu              2   13[BANK1 ] int 
  2832 ;;  digits          2   11[BANK1 ] int 
  2833 ;;  i               2    9[BANK1 ] int 
  2834 ;;  j               2    2[BANK1 ] int 
  2835 ;;  temp            2    0[BANK1 ] int 
  2836 ;; Return value:  Size  Location     Type
  2837 ;;                  1    wreg      void 
  2838 ;; Registers used:
  2839 ;;		wreg, fsr0l, fsr0h, status,2, status,0, btemp+1, pclath, cstack
  2840 ;; Tracked objects:
  2841 ;;		On entry : 0/0
  2842 ;;		On exit  : 0/0
  2843 ;;		Unchanged: 0/0
  2844 ;; Data sizes:     COMMON   BANK0   BANK1   BANK3   BANK2
  2845 ;;      Params:         0       6       0       0       0
  2846 ;;      Locals:         0       0      15       0       0
  2847 ;;      Temps:          0       2       0       0       0
  2848 ;;      Totals:         0       8      15       0       0
  2849 ;;Total ram usage:       23 bytes
  2850 ;; Hardware stack levels used: 1
  2851 ;; Hardware stack levels required when called: 2
  2852 ;; This function calls:
  2853 ;;		___awdiv
  2854 ;;		___fldiv
  2855 ;;		___flge
  2856 ;;		___flmul
  2857 ;;		___flsub
  2858 ;;		___fltol
  2859 ;;		___wmul
  2860 ;;		___xxtofl
  2861 ;; This function is called by:
  2862 ;;		_main
  2863 ;; This function uses a non-reentrant model
  2864 ;;
  2865                           
  2866                           
  2867                           ;psect for function _convert
  2868  0C0C                     _convert:
  2869                           
  2870                           ;incstack = 0
  2871                           ; Regs used in _convert: [wreg-fsr0h+status,2+status,0+btemp+1+pclath+cstack]
  2872                           ;convert@data stored from wreg
  2873  0C0C  1683               	bsf	3,5	;RP0=1, select bank1
  2874  0C0D  1303               	bcf	3,6	;RP1=0, select bank1
  2875  0C0E  00E1               	movwf	convert@data^(0+128)
  2876  0C0F                     l3000:
  2877                           
  2878                           ;Librerias.c: 202: void convert(char *data,float a, int place);Librerias.c: 203: {;Libre
      +                          rias.c: 204:      int temp=a;
  2879  0C0F  1283               	bcf	3,5	;RP0=0, select bank0
  2880  0C10  1303               	bcf	3,6	;RP1=0, select bank0
  2881  0C11  086B               	movf	convert@a+3,w
  2882  0C12  00F3               	movwf	___fltol@f1+3
  2883  0C13  086A               	movf	convert@a+2,w
  2884  0C14  00F2               	movwf	___fltol@f1+2
  2885  0C15  0869               	movf	convert@a+1,w
  2886  0C16  00F1               	movwf	___fltol@f1+1
  2887  0C17  0868               	movf	convert@a,w
  2888  0C18  00F0               	movwf	___fltol@f1
  2889  0C19  160A  118A  25A9  120A  158A  	fcall	___fltol
  2890  0C1E  0871               	movf	?___fltol+1,w
  2891  0C1F  1683               	bsf	3,5	;RP0=1, select bank1
  2892  0C20  1303               	bcf	3,6	;RP1=0, select bank1
  2893  0C21  00DE               	movwf	(convert@temp+1)^(0+128)
  2894  0C22  0870               	movf	?___fltol,w
  2895  0C23  00DD               	movwf	convert@temp^(0+128)
  2896  0C24                     l3002:
  2897  0C24                     l3004:
  2898                           
  2899                           ;Librerias.c: 206:      int digits=0;
  2900  0C24  01E8               	clrf	convert@digits^(0+128)
  2901  0C25  01E9               	clrf	(convert@digits+1)^(0+128)
  2902  0C26                     l3006:
  2903                           
  2904                           ;Librerias.c: 207:      int i=0,mu=1;
  2905  0C26  01E6               	clrf	convert@i^(0+128)
  2906  0C27  01E7               	clrf	(convert@i+1)^(0+128)
  2907  0C28                     l3008:
  2908  0C28  3001               	movlw	1
  2909  0C29  00EA               	movwf	convert@mu^(0+128)
  2910  0C2A  3000               	movlw	0
  2911  0C2B  00EB               	movwf	(convert@mu^(0+128)+1)
  2912  0C2C                     l3010:
  2913  0C2C                     l3012:
  2914                           
  2915                           ;Librerias.c: 209:      if(a<0)
  2916  0C2C  1283               	bcf	3,5	;RP0=0, select bank0
  2917  0C2D  1303               	bcf	3,6	;RP1=0, select bank0
  2918  0C2E  086B               	movf	convert@a+3,w
  2919  0C2F  00F3               	movwf	___flge@ff1+3
  2920  0C30  086A               	movf	convert@a+2,w
  2921  0C31  00F2               	movwf	___flge@ff1+2
  2922  0C32  0869               	movf	convert@a+1,w
  2923  0C33  00F1               	movwf	___flge@ff1+1
  2924  0C34  0868               	movf	convert@a,w
  2925  0C35  00F0               	movwf	___flge@ff1
  2926  0C36  3000               	movlw	0
  2927  0C37  00F7               	movwf	___flge@ff2+3
  2928  0C38  3000               	movlw	0
  2929  0C39  00F6               	movwf	___flge@ff2+2
  2930  0C3A  3000               	movlw	0
  2931  0C3B  00F5               	movwf	___flge@ff2+1
  2932  0C3C  3000               	movlw	0
  2933  0C3D  00F4               	movwf	___flge@ff2
  2934  0C3E  120A  158A  2026  120A  158A  	fcall	___flge
  2935  0C43  1803               	btfsc	3,0
  2936  0C44  2C46               	goto	u3881
  2937  0C45  2C47               	goto	u3880
  2938  0C46                     u3881:
  2939  0C46  2C95               	goto	l3024
  2940  0C47                     u3880:
  2941  0C47                     l3014:
  2942                           
  2943                           ;Librerias.c: 210:      {;Librerias.c: 211:             a=a*-1;
  2944  0C47  30BF               	movlw	191
  2945  0C48  1283               	bcf	3,5	;RP0=0, select bank0
  2946  0C49  1303               	bcf	3,6	;RP1=0, select bank0
  2947  0C4A  00D1               	movwf	___flmul@b+3
  2948  0C4B  3080               	movlw	128
  2949  0C4C  00D0               	movwf	___flmul@b+2
  2950  0C4D  3000               	movlw	0
  2951  0C4E  00CF               	movwf	___flmul@b+1
  2952  0C4F  3000               	movlw	0
  2953  0C50  00CE               	movwf	___flmul@b
  2954  0C51  086B               	movf	convert@a+3,w
  2955  0C52  00D5               	movwf	___flmul@a+3
  2956  0C53  086A               	movf	convert@a+2,w
  2957  0C54  00D4               	movwf	___flmul@a+2
  2958  0C55  0869               	movf	convert@a+1,w
  2959  0C56  00D3               	movwf	___flmul@a+1
  2960  0C57  0868               	movf	convert@a,w
  2961  0C58  00D2               	movwf	___flmul@a
  2962  0C59  120A  118A  2051  120A  158A  	fcall	___flmul
  2963  0C5E  1283               	bcf	3,5	;RP0=0, select bank0
  2964  0C5F  1303               	bcf	3,6	;RP1=0, select bank0
  2965  0C60  0851               	movf	?___flmul+3,w
  2966  0C61  00EB               	movwf	convert@a+3
  2967  0C62  0850               	movf	?___flmul+2,w
  2968  0C63  00EA               	movwf	convert@a+2
  2969  0C64  084F               	movf	?___flmul+1,w
  2970  0C65  00E9               	movwf	convert@a+1
  2971  0C66  084E               	movf	?___flmul,w
  2972  0C67  00E8               	movwf	convert@a
  2973  0C68                     l3016:
  2974                           
  2975                           ;Librerias.c: 212:             data[i]='-';
  2976  0C68  302D               	movlw	45
  2977  0C69  00EE               	movwf	??_convert
  2978  0C6A  1683               	bsf	3,5	;RP0=1, select bank1
  2979  0C6B  1303               	bcf	3,6	;RP1=0, select bank1
  2980  0C6C  0861               	movf	convert@data^(0+128),w
  2981  0C6D  0084               	movwf	4
  2982  0C6E  1283               	bcf	3,5	;RP0=0, select bank0
  2983  0C6F  1303               	bcf	3,6	;RP1=0, select bank0
  2984  0C70  086E               	movf	??_convert,w
  2985  0C71  1383               	bcf	3,7	;select IRP bank0
  2986  0C72  0080               	movwf	0
  2987  0C73                     l3018:
  2988                           
  2989                           ;Librerias.c: 213:             i++;
  2990  0C73  3001               	movlw	1
  2991  0C74  1683               	bsf	3,5	;RP0=1, select bank1
  2992  0C75  1303               	bcf	3,6	;RP1=0, select bank1
  2993  0C76  07E6               	addwf	convert@i^(0+128),f
  2994  0C77  1803               	skipnc
  2995  0C78  0AE7               	incf	(convert@i+1)^(0+128),f
  2996  0C79  3000               	movlw	0
  2997  0C7A  07E7               	addwf	(convert@i+1)^(0+128),f
  2998  0C7B  2C95               	goto	l3024
  2999  0C7C                     l3020:
  3000                           
  3001                           ;Librerias.c: 217:      {;Librerias.c: 218:          temp=temp/10;
  3002  0C7C  300A               	movlw	10
  3003  0C7D  00F7               	movwf	___awdiv@divisor
  3004  0C7E  3000               	movlw	0
  3005  0C7F  00F8               	movwf	___awdiv@divisor+1
  3006  0C80  085E               	movf	(convert@temp+1)^(0+128),w
  3007  0C81  00FA               	movwf	___awdiv@dividend+1
  3008  0C82  085D               	movf	convert@temp^(0+128),w
  3009  0C83  00F9               	movwf	___awdiv@dividend
  3010  0C84  160A  118A  2540  120A  158A  	fcall	___awdiv
  3011  0C89  0878               	movf	?___awdiv+1,w
  3012  0C8A  1683               	bsf	3,5	;RP0=1, select bank1
  3013  0C8B  1303               	bcf	3,6	;RP1=0, select bank1
  3014  0C8C  00DE               	movwf	(convert@temp+1)^(0+128)
  3015  0C8D  0877               	movf	?___awdiv,w
  3016  0C8E  00DD               	movwf	convert@temp^(0+128)
  3017  0C8F                     l3022:
  3018                           
  3019                           ;Librerias.c: 219:          digits++;
  3020  0C8F  3001               	movlw	1
  3021  0C90  07E8               	addwf	convert@digits^(0+128),f
  3022  0C91  1803               	skipnc
  3023  0C92  0AE9               	incf	(convert@digits+1)^(0+128),f
  3024  0C93  3000               	movlw	0
  3025  0C94  07E9               	addwf	(convert@digits+1)^(0+128),f
  3026  0C95                     l3024:
  3027                           
  3028                           ;Librerias.c: 216:      while(temp!=0)
  3029  0C95  1683               	bsf	3,5	;RP0=1, select bank1
  3030  0C96  1303               	bcf	3,6	;RP1=0, select bank1
  3031  0C97  085D               	movf	convert@temp^(0+128),w
  3032  0C98  045E               	iorwf	(convert@temp+1)^(0+128),w
  3033  0C99  1D03               	btfss	3,2
  3034  0C9A  2C9C               	goto	u3891
  3035  0C9B  2C9D               	goto	u3890
  3036  0C9C                     u3891:
  3037  0C9C  2C7C               	goto	l3020
  3038  0C9D                     u3890:
  3039  0C9D  2DB9               	goto	l3048
  3040  0C9E                     l3026:
  3041                           
  3042                           ;Librerias.c: 222:      {;Librerias.c: 223:          if(digits==1)mu=1;
  3043  0C9E  0368               	decf	convert@digits^(0+128),w
  3044  0C9F  0469               	iorwf	(convert@digits+1)^(0+128),w
  3045  0CA0  1D03               	btfss	3,2
  3046  0CA1  2CA3               	goto	u3901
  3047  0CA2  2CA4               	goto	u3900
  3048  0CA3                     u3901:
  3049  0CA3  2CA9               	goto	l3030
  3050  0CA4                     u3900:
  3051  0CA4                     l3028:
  3052  0CA4  3001               	movlw	1
  3053  0CA5  00EA               	movwf	convert@mu^(0+128)
  3054  0CA6  3000               	movlw	0
  3055  0CA7  00EB               	movwf	(convert@mu^(0+128)+1)
  3056  0CA8  2CEB               	goto	l3038
  3057  0CA9                     l3030:
  3058  0CA9  3002               	movlw	2
  3059  0CAA  00DF               	movwf	convert@j^(0+128)
  3060  0CAB  3000               	movlw	0
  3061  0CAC  00E0               	movwf	(convert@j^(0+128)+1)
  3062  0CAD  2CD5               	goto	l3036
  3063  0CAE                     l3032:
  3064  0CAE  1683               	bsf	3,5	;RP0=1, select bank1
  3065  0CAF  1303               	bcf	3,6	;RP1=0, select bank1
  3066  0CB0  086B               	movf	(convert@mu+1)^(0+128),w
  3067  0CB1  1283               	bcf	3,5	;RP0=0, select bank0
  3068  0CB2  1303               	bcf	3,6	;RP1=0, select bank0
  3069  0CB3  00A1               	movwf	___wmul@multiplier+1
  3070  0CB4  1683               	bsf	3,5	;RP0=1, select bank1
  3071  0CB5  1303               	bcf	3,6	;RP1=0, select bank1
  3072  0CB6  086A               	movf	convert@mu^(0+128),w
  3073  0CB7  1283               	bcf	3,5	;RP0=0, select bank0
  3074  0CB8  1303               	bcf	3,6	;RP1=0, select bank0
  3075  0CB9  00A0               	movwf	___wmul@multiplier
  3076  0CBA  300A               	movlw	10
  3077  0CBB  00A2               	movwf	___wmul@multiplicand
  3078  0CBC  3000               	movlw	0
  3079  0CBD  00A3               	movwf	___wmul@multiplicand+1
  3080  0CBE  160A  118A  238A  120A  158A  	fcall	___wmul
  3081  0CC3  1283               	bcf	3,5	;RP0=0, select bank0
  3082  0CC4  1303               	bcf	3,6	;RP1=0, select bank0
  3083  0CC5  0821               	movf	?___wmul+1,w
  3084  0CC6  1683               	bsf	3,5	;RP0=1, select bank1
  3085  0CC7  1303               	bcf	3,6	;RP1=0, select bank1
  3086  0CC8  00EB               	movwf	(convert@mu+1)^(0+128)
  3087  0CC9  1283               	bcf	3,5	;RP0=0, select bank0
  3088  0CCA  1303               	bcf	3,6	;RP1=0, select bank0
  3089  0CCB  0820               	movf	?___wmul,w
  3090  0CCC  1683               	bsf	3,5	;RP0=1, select bank1
  3091  0CCD  1303               	bcf	3,6	;RP1=0, select bank1
  3092  0CCE  00EA               	movwf	convert@mu^(0+128)
  3093  0CCF                     l3034:
  3094  0CCF  3001               	movlw	1
  3095  0CD0  07DF               	addwf	convert@j^(0+128),f
  3096  0CD1  1803               	skipnc
  3097  0CD2  0AE0               	incf	(convert@j+1)^(0+128),f
  3098  0CD3  3000               	movlw	0
  3099  0CD4  07E0               	addwf	(convert@j+1)^(0+128),f
  3100  0CD5                     l3036:
  3101  0CD5  0869               	movf	(convert@digits+1)^(0+128),w
  3102  0CD6  3A80               	xorlw	128
  3103  0CD7  1283               	bcf	3,5	;RP0=0, select bank0
  3104  0CD8  1303               	bcf	3,6	;RP1=0, select bank0
  3105  0CD9  00EE               	movwf	??_convert
  3106  0CDA  1683               	bsf	3,5	;RP0=1, select bank1
  3107  0CDB  1303               	bcf	3,6	;RP1=0, select bank1
  3108  0CDC  0860               	movf	(convert@j+1)^(0+128),w
  3109  0CDD  3A80               	xorlw	128
  3110  0CDE  1283               	bcf	3,5	;RP0=0, select bank0
  3111  0CDF  1303               	bcf	3,6	;RP1=0, select bank0
  3112  0CE0  026E               	subwf	??_convert,w
  3113  0CE1  1D03               	skipz
  3114  0CE2  2CE7               	goto	u3915
  3115  0CE3  1683               	bsf	3,5	;RP0=1, select bank1
  3116  0CE4  1303               	bcf	3,6	;RP1=0, select bank1
  3117  0CE5  085F               	movf	convert@j^(0+128),w
  3118  0CE6  0268               	subwf	convert@digits^(0+128),w
  3119  0CE7                     u3915:
  3120  0CE7  1803               	skipnc
  3121  0CE8  2CEA               	goto	u3911
  3122  0CE9  2CEB               	goto	u3910
  3123  0CEA                     u3911:
  3124  0CEA  2CAE               	goto	l3032
  3125  0CEB                     u3910:
  3126  0CEB                     l3038:
  3127                           
  3128                           ;Librerias.c: 226:          x=a/mu;
  3129  0CEB  1683               	bsf	3,5	;RP0=1, select bank1
  3130  0CEC  1303               	bcf	3,6	;RP1=0, select bank1
  3131  0CED  086A               	movf	convert@mu^(0+128),w
  3132  0CEE  1283               	bcf	3,5	;RP0=0, select bank0
  3133  0CEF  1303               	bcf	3,6	;RP1=0, select bank0
  3134  0CF0  00A4               	movwf	___xxtofl@val
  3135  0CF1  1683               	bsf	3,5	;RP0=1, select bank1
  3136  0CF2  1303               	bcf	3,6	;RP1=0, select bank1
  3137  0CF3  086B               	movf	(convert@mu+1)^(0+128),w
  3138  0CF4  1283               	bcf	3,5	;RP0=0, select bank0
  3139  0CF5  1303               	bcf	3,6	;RP1=0, select bank0
  3140  0CF6  00A5               	movwf	___xxtofl@val+1
  3141  0CF7  3000               	movlw	0
  3142  0CF8  1BA5               	btfsc	___xxtofl@val+1,7
  3143  0CF9  30FF               	movlw	255
  3144  0CFA  00A6               	movwf	___xxtofl@val+2
  3145  0CFB  00A7               	movwf	___xxtofl@val+3
  3146  0CFC  3001               	movlw	1
  3147  0CFD  120A  158A  20C8  120A  158A  	fcall	___xxtofl
  3148  0D02  1283               	bcf	3,5	;RP0=0, select bank0
  3149  0D03  1303               	bcf	3,6	;RP1=0, select bank0
  3150  0D04  0827               	movf	?___xxtofl+3,w
  3151  0D05  00B5               	movwf	___fldiv@a+3
  3152  0D06  0826               	movf	?___xxtofl+2,w
  3153  0D07  00B4               	movwf	___fldiv@a+2
  3154  0D08  0825               	movf	?___xxtofl+1,w
  3155  0D09  00B3               	movwf	___fldiv@a+1
  3156  0D0A  0824               	movf	?___xxtofl,w
  3157  0D0B  00B2               	movwf	___fldiv@a
  3158  0D0C  086B               	movf	convert@a+3,w
  3159  0D0D  00B9               	movwf	___fldiv@b+3
  3160  0D0E  086A               	movf	convert@a+2,w
  3161  0D0F  00B8               	movwf	___fldiv@b+2
  3162  0D10  0869               	movf	convert@a+1,w
  3163  0D11  00B7               	movwf	___fldiv@b+1
  3164  0D12  0868               	movf	convert@a,w
  3165  0D13  00B6               	movwf	___fldiv@b
  3166  0D14  160A  118A  2623  120A  158A  	fcall	___fldiv
  3167  0D19  1283               	bcf	3,5	;RP0=0, select bank0
  3168  0D1A  1303               	bcf	3,6	;RP1=0, select bank0
  3169  0D1B  0835               	movf	?___fldiv+3,w
  3170  0D1C  1683               	bsf	3,5	;RP0=1, select bank1
  3171  0D1D  1303               	bcf	3,6	;RP1=0, select bank1
  3172  0D1E  00E5               	movwf	(convert@x+3)^(0+128)
  3173  0D1F  1283               	bcf	3,5	;RP0=0, select bank0
  3174  0D20  1303               	bcf	3,6	;RP1=0, select bank0
  3175  0D21  0834               	movf	?___fldiv+2,w
  3176  0D22  1683               	bsf	3,5	;RP0=1, select bank1
  3177  0D23  1303               	bcf	3,6	;RP1=0, select bank1
  3178  0D24  00E4               	movwf	(convert@x+2)^(0+128)
  3179  0D25  1283               	bcf	3,5	;RP0=0, select bank0
  3180  0D26  1303               	bcf	3,6	;RP1=0, select bank0
  3181  0D27  0833               	movf	?___fldiv+1,w
  3182  0D28  1683               	bsf	3,5	;RP0=1, select bank1
  3183  0D29  1303               	bcf	3,6	;RP1=0, select bank1
  3184  0D2A  00E3               	movwf	(convert@x+1)^(0+128)
  3185  0D2B  1283               	bcf	3,5	;RP0=0, select bank0
  3186  0D2C  1303               	bcf	3,6	;RP1=0, select bank0
  3187  0D2D  0832               	movf	?___fldiv,w
  3188  0D2E  1683               	bsf	3,5	;RP0=1, select bank1
  3189  0D2F  1303               	bcf	3,6	;RP1=0, select bank1
  3190  0D30  00E2               	movwf	convert@x^(0+128)
  3191                           
  3192                           ;Librerias.c: 227:          a=a-((int)x*mu);
  3193  0D31  086B               	movf	(convert@mu+1)^(0+128),w
  3194  0D32  1283               	bcf	3,5	;RP0=0, select bank0
  3195  0D33  1303               	bcf	3,6	;RP1=0, select bank0
  3196  0D34  00A3               	movwf	___wmul@multiplicand+1
  3197  0D35  1683               	bsf	3,5	;RP0=1, select bank1
  3198  0D36  1303               	bcf	3,6	;RP1=0, select bank1
  3199  0D37  086A               	movf	convert@mu^(0+128),w
  3200  0D38  1283               	bcf	3,5	;RP0=0, select bank0
  3201  0D39  1303               	bcf	3,6	;RP1=0, select bank0
  3202  0D3A  00A2               	movwf	___wmul@multiplicand
  3203  0D3B  1683               	bsf	3,5	;RP0=1, select bank1
  3204  0D3C  1303               	bcf	3,6	;RP1=0, select bank1
  3205  0D3D  0865               	movf	(convert@x+3)^(0+128),w
  3206  0D3E  00F3               	movwf	___fltol@f1+3
  3207  0D3F  0864               	movf	(convert@x+2)^(0+128),w
  3208  0D40  00F2               	movwf	___fltol@f1+2
  3209  0D41  0863               	movf	(convert@x+1)^(0+128),w
  3210  0D42  00F1               	movwf	___fltol@f1+1
  3211  0D43  0862               	movf	convert@x^(0+128),w
  3212  0D44  00F0               	movwf	___fltol@f1
  3213  0D45  160A  118A  25A9  120A  158A  	fcall	___fltol
  3214  0D4A  0871               	movf	?___fltol+1,w
  3215  0D4B  1283               	bcf	3,5	;RP0=0, select bank0
  3216  0D4C  1303               	bcf	3,6	;RP1=0, select bank0
  3217  0D4D  00A1               	movwf	___wmul@multiplier+1
  3218  0D4E  0870               	movf	?___fltol,w
  3219  0D4F  00A0               	movwf	___wmul@multiplier
  3220  0D50  160A  118A  238A  120A  158A  	fcall	___wmul
  3221  0D55  1283               	bcf	3,5	;RP0=0, select bank0
  3222  0D56  1303               	bcf	3,6	;RP1=0, select bank0
  3223  0D57  0820               	movf	?___wmul,w
  3224  0D58  00A4               	movwf	___xxtofl@val
  3225  0D59  0821               	movf	?___wmul+1,w
  3226  0D5A  00A5               	movwf	___xxtofl@val+1
  3227  0D5B  3000               	movlw	0
  3228  0D5C  1BA5               	btfsc	___xxtofl@val+1,7
  3229  0D5D  30FF               	movlw	255
  3230  0D5E  00A6               	movwf	___xxtofl@val+2
  3231  0D5F  00A7               	movwf	___xxtofl@val+3
  3232  0D60  3001               	movlw	1
  3233  0D61  120A  158A  20C8  120A  158A  	fcall	___xxtofl
  3234  0D66  1283               	bcf	3,5	;RP0=0, select bank0
  3235  0D67  1303               	bcf	3,6	;RP1=0, select bank0
  3236  0D68  0827               	movf	?___xxtofl+3,w
  3237  0D69  00C9               	movwf	___flsub@a+3
  3238  0D6A  0826               	movf	?___xxtofl+2,w
  3239  0D6B  00C8               	movwf	___flsub@a+2
  3240  0D6C  0825               	movf	?___xxtofl+1,w
  3241  0D6D  00C7               	movwf	___flsub@a+1
  3242  0D6E  0824               	movf	?___xxtofl,w
  3243  0D6F  00C6               	movwf	___flsub@a
  3244  0D70  086B               	movf	convert@a+3,w
  3245  0D71  00CD               	movwf	___flsub@b+3
  3246  0D72  086A               	movf	convert@a+2,w
  3247  0D73  00CC               	movwf	___flsub@b+2
  3248  0D74  0869               	movf	convert@a+1,w
  3249  0D75  00CB               	movwf	___flsub@b+1
  3250  0D76  0868               	movf	convert@a,w
  3251  0D77  00CA               	movwf	___flsub@b
  3252  0D78  160A  118A  233F  120A  158A  	fcall	___flsub
  3253  0D7D  1283               	bcf	3,5	;RP0=0, select bank0
  3254  0D7E  1303               	bcf	3,6	;RP1=0, select bank0
  3255  0D7F  0849               	movf	?___flsub+3,w
  3256  0D80  00EB               	movwf	convert@a+3
  3257  0D81  0848               	movf	?___flsub+2,w
  3258  0D82  00EA               	movwf	convert@a+2
  3259  0D83  0847               	movf	?___flsub+1,w
  3260  0D84  00E9               	movwf	convert@a+1
  3261  0D85  0846               	movf	?___flsub,w
  3262  0D86  00E8               	movwf	convert@a
  3263  0D87                     l3040:
  3264                           
  3265                           ;Librerias.c: 228:          data[i]=0x30+((int)x);
  3266  0D87  1683               	bsf	3,5	;RP0=1, select bank1
  3267  0D88  1303               	bcf	3,6	;RP1=0, select bank1
  3268  0D89  0865               	movf	(convert@x+3)^(0+128),w
  3269  0D8A  00F3               	movwf	___fltol@f1+3
  3270  0D8B  0864               	movf	(convert@x+2)^(0+128),w
  3271  0D8C  00F2               	movwf	___fltol@f1+2
  3272  0D8D  0863               	movf	(convert@x+1)^(0+128),w
  3273  0D8E  00F1               	movwf	___fltol@f1+1
  3274  0D8F  0862               	movf	convert@x^(0+128),w
  3275  0D90  00F0               	movwf	___fltol@f1
  3276  0D91  160A  118A  25A9  120A  158A  	fcall	___fltol
  3277  0D96  0870               	movf	?___fltol,w
  3278  0D97  3E30               	addlw	48
  3279  0D98  1283               	bcf	3,5	;RP0=0, select bank0
  3280  0D99  1303               	bcf	3,6	;RP1=0, select bank0
  3281  0D9A  00EE               	movwf	??_convert
  3282  0D9B  1683               	bsf	3,5	;RP0=1, select bank1
  3283  0D9C  1303               	bcf	3,6	;RP1=0, select bank1
  3284  0D9D  0866               	movf	convert@i^(0+128),w
  3285  0D9E  0761               	addwf	convert@data^(0+128),w
  3286  0D9F  1283               	bcf	3,5	;RP0=0, select bank0
  3287  0DA0  1303               	bcf	3,6	;RP1=0, select bank0
  3288  0DA1  00EF               	movwf	??_convert+1
  3289  0DA2  086F               	movf	??_convert+1,w
  3290  0DA3  0084               	movwf	4
  3291  0DA4  086E               	movf	??_convert,w
  3292  0DA5  1383               	bcf	3,7	;select IRP bank0
  3293  0DA6  0080               	movwf	0
  3294  0DA7                     l3042:
  3295                           
  3296                           ;Librerias.c: 229:          i++;
  3297  0DA7  3001               	movlw	1
  3298  0DA8  1683               	bsf	3,5	;RP0=1, select bank1
  3299  0DA9  1303               	bcf	3,6	;RP1=0, select bank1
  3300  0DAA  07E6               	addwf	convert@i^(0+128),f
  3301  0DAB  1803               	skipnc
  3302  0DAC  0AE7               	incf	(convert@i+1)^(0+128),f
  3303  0DAD  3000               	movlw	0
  3304  0DAE  07E7               	addwf	(convert@i+1)^(0+128),f
  3305  0DAF                     l3044:
  3306                           
  3307                           ;Librerias.c: 230:          digits--;
  3308  0DAF  30FF               	movlw	255
  3309  0DB0  07E8               	addwf	convert@digits^(0+128),f
  3310  0DB1  1803               	skipnc
  3311  0DB2  0AE9               	incf	(convert@digits+1)^(0+128),f
  3312  0DB3  30FF               	movlw	255
  3313  0DB4  07E9               	addwf	(convert@digits+1)^(0+128),f
  3314  0DB5                     l3046:
  3315                           
  3316                           ;Librerias.c: 231:          mu=1;
  3317  0DB5  3001               	movlw	1
  3318  0DB6  00EA               	movwf	convert@mu^(0+128)
  3319  0DB7  3000               	movlw	0
  3320  0DB8  00EB               	movwf	(convert@mu^(0+128)+1)
  3321  0DB9                     l3048:
  3322                           
  3323                           ;Librerias.c: 221:      while(digits!=0)
  3324  0DB9  0868               	movf	convert@digits^(0+128),w
  3325  0DBA  0469               	iorwf	(convert@digits+1)^(0+128),w
  3326  0DBB  1D03               	btfss	3,2
  3327  0DBC  2DBE               	goto	u3921
  3328  0DBD  2DBF               	goto	u3920
  3329  0DBE                     u3921:
  3330  0DBE  2C9E               	goto	l3026
  3331  0DBF                     u3920:
  3332  0DBF                     l3050:
  3333                           
  3334                           ;Librerias.c: 234:      data[i]='.';
  3335  0DBF  302E               	movlw	46
  3336  0DC0  1283               	bcf	3,5	;RP0=0, select bank0
  3337  0DC1  1303               	bcf	3,6	;RP1=0, select bank0
  3338  0DC2  00EE               	movwf	??_convert
  3339  0DC3  1683               	bsf	3,5	;RP0=1, select bank1
  3340  0DC4  1303               	bcf	3,6	;RP1=0, select bank1
  3341  0DC5  0866               	movf	convert@i^(0+128),w
  3342  0DC6  0761               	addwf	convert@data^(0+128),w
  3343  0DC7  1283               	bcf	3,5	;RP0=0, select bank0
  3344  0DC8  1303               	bcf	3,6	;RP1=0, select bank0
  3345  0DC9  00EF               	movwf	??_convert+1
  3346  0DCA  086F               	movf	??_convert+1,w
  3347  0DCB  0084               	movwf	4
  3348  0DCC  086E               	movf	??_convert,w
  3349  0DCD  1383               	bcf	3,7	;select IRP bank0
  3350  0DCE  0080               	movwf	0
  3351  0DCF                     l3052:
  3352                           
  3353                           ;Librerias.c: 235:      i++;
  3354  0DCF  3001               	movlw	1
  3355  0DD0  1683               	bsf	3,5	;RP0=1, select bank1
  3356  0DD1  1303               	bcf	3,6	;RP1=0, select bank1
  3357  0DD2  07E6               	addwf	convert@i^(0+128),f
  3358  0DD3  1803               	skipnc
  3359  0DD4  0AE7               	incf	(convert@i+1)^(0+128),f
  3360  0DD5  3000               	movlw	0
  3361  0DD6  07E7               	addwf	(convert@i+1)^(0+128),f
  3362  0DD7                     l3054:
  3363  0DD7                     l3056:
  3364                           
  3365                           ;Librerias.c: 237:      for(j=1;j<=place;j++)mu=mu*10;
  3366  0DD7  3001               	movlw	1
  3367  0DD8  00DF               	movwf	convert@j^(0+128)
  3368  0DD9  3000               	movlw	0
  3369  0DDA  00E0               	movwf	(convert@j^(0+128)+1)
  3370  0DDB  2E03               	goto	l3062
  3371  0DDC                     l3058:
  3372  0DDC  1683               	bsf	3,5	;RP0=1, select bank1
  3373  0DDD  1303               	bcf	3,6	;RP1=0, select bank1
  3374  0DDE  086B               	movf	(convert@mu+1)^(0+128),w
  3375  0DDF  1283               	bcf	3,5	;RP0=0, select bank0
  3376  0DE0  1303               	bcf	3,6	;RP1=0, select bank0
  3377  0DE1  00A1               	movwf	___wmul@multiplier+1
  3378  0DE2  1683               	bsf	3,5	;RP0=1, select bank1
  3379  0DE3  1303               	bcf	3,6	;RP1=0, select bank1
  3380  0DE4  086A               	movf	convert@mu^(0+128),w
  3381  0DE5  1283               	bcf	3,5	;RP0=0, select bank0
  3382  0DE6  1303               	bcf	3,6	;RP1=0, select bank0
  3383  0DE7  00A0               	movwf	___wmul@multiplier
  3384  0DE8  300A               	movlw	10
  3385  0DE9  00A2               	movwf	___wmul@multiplicand
  3386  0DEA  3000               	movlw	0
  3387  0DEB  00A3               	movwf	___wmul@multiplicand+1
  3388  0DEC  160A  118A  238A  120A  158A  	fcall	___wmul
  3389  0DF1  1283               	bcf	3,5	;RP0=0, select bank0
  3390  0DF2  1303               	bcf	3,6	;RP1=0, select bank0
  3391  0DF3  0821               	movf	?___wmul+1,w
  3392  0DF4  1683               	bsf	3,5	;RP0=1, select bank1
  3393  0DF5  1303               	bcf	3,6	;RP1=0, select bank1
  3394  0DF6  00EB               	movwf	(convert@mu+1)^(0+128)
  3395  0DF7  1283               	bcf	3,5	;RP0=0, select bank0
  3396  0DF8  1303               	bcf	3,6	;RP1=0, select bank0
  3397  0DF9  0820               	movf	?___wmul,w
  3398  0DFA  1683               	bsf	3,5	;RP0=1, select bank1
  3399  0DFB  1303               	bcf	3,6	;RP1=0, select bank1
  3400  0DFC  00EA               	movwf	convert@mu^(0+128)
  3401  0DFD                     l3060:
  3402  0DFD  3001               	movlw	1
  3403  0DFE  07DF               	addwf	convert@j^(0+128),f
  3404  0DFF  1803               	skipnc
  3405  0E00  0AE0               	incf	(convert@j+1)^(0+128),f
  3406  0E01  3000               	movlw	0
  3407  0E02  07E0               	addwf	(convert@j+1)^(0+128),f
  3408  0E03                     l3062:
  3409  0E03  1283               	bcf	3,5	;RP0=0, select bank0
  3410  0E04  1303               	bcf	3,6	;RP1=0, select bank0
  3411  0E05  086D               	movf	convert@place+1,w
  3412  0E06  3A80               	xorlw	128
  3413  0E07  00EE               	movwf	??_convert
  3414  0E08  1683               	bsf	3,5	;RP0=1, select bank1
  3415  0E09  1303               	bcf	3,6	;RP1=0, select bank1
  3416  0E0A  0860               	movf	(convert@j+1)^(0+128),w
  3417  0E0B  3A80               	xorlw	128
  3418  0E0C  1283               	bcf	3,5	;RP0=0, select bank0
  3419  0E0D  1303               	bcf	3,6	;RP1=0, select bank0
  3420  0E0E  026E               	subwf	??_convert,w
  3421  0E0F  1D03               	skipz
  3422  0E10  2E17               	goto	u3935
  3423  0E11  1683               	bsf	3,5	;RP0=1, select bank1
  3424  0E12  1303               	bcf	3,6	;RP1=0, select bank1
  3425  0E13  085F               	movf	convert@j^(0+128),w
  3426  0E14  1283               	bcf	3,5	;RP0=0, select bank0
  3427  0E15  1303               	bcf	3,6	;RP1=0, select bank0
  3428  0E16  026C               	subwf	convert@place,w
  3429  0E17                     u3935:
  3430  0E17  1803               	skipnc
  3431  0E18  2E1A               	goto	u3931
  3432  0E19  2E1B               	goto	u3930
  3433  0E1A                     u3931:
  3434  0E1A  2DDC               	goto	l3058
  3435  0E1B                     u3930:
  3436  0E1B                     l3064:
  3437                           
  3438                           ;Librerias.c: 238:      x=(a-(int)a)*mu;
  3439  0E1B  1683               	bsf	3,5	;RP0=1, select bank1
  3440  0E1C  1303               	bcf	3,6	;RP1=0, select bank1
  3441  0E1D  086A               	movf	convert@mu^(0+128),w
  3442  0E1E  1283               	bcf	3,5	;RP0=0, select bank0
  3443  0E1F  1303               	bcf	3,6	;RP1=0, select bank0
  3444  0E20  00A4               	movwf	___xxtofl@val
  3445  0E21  1683               	bsf	3,5	;RP0=1, select bank1
  3446  0E22  1303               	bcf	3,6	;RP1=0, select bank1
  3447  0E23  086B               	movf	(convert@mu+1)^(0+128),w
  3448  0E24  1283               	bcf	3,5	;RP0=0, select bank0
  3449  0E25  1303               	bcf	3,6	;RP1=0, select bank0
  3450  0E26  00A5               	movwf	___xxtofl@val+1
  3451  0E27  3000               	movlw	0
  3452  0E28  1BA5               	btfsc	___xxtofl@val+1,7
  3453  0E29  30FF               	movlw	255
  3454  0E2A  00A6               	movwf	___xxtofl@val+2
  3455  0E2B  00A7               	movwf	___xxtofl@val+3
  3456  0E2C  3001               	movlw	1
  3457  0E2D  120A  158A  20C8  120A  158A  	fcall	___xxtofl
  3458  0E32  1283               	bcf	3,5	;RP0=0, select bank0
  3459  0E33  1303               	bcf	3,6	;RP1=0, select bank0
  3460  0E34  0827               	movf	?___xxtofl+3,w
  3461  0E35  00D1               	movwf	___flmul@b+3
  3462  0E36  0826               	movf	?___xxtofl+2,w
  3463  0E37  00D0               	movwf	___flmul@b+2
  3464  0E38  0825               	movf	?___xxtofl+1,w
  3465  0E39  00CF               	movwf	___flmul@b+1
  3466  0E3A  0824               	movf	?___xxtofl,w
  3467  0E3B  00CE               	movwf	___flmul@b
  3468  0E3C  086B               	movf	convert@a+3,w
  3469  0E3D  00F3               	movwf	___fltol@f1+3
  3470  0E3E  086A               	movf	convert@a+2,w
  3471  0E3F  00F2               	movwf	___fltol@f1+2
  3472  0E40  0869               	movf	convert@a+1,w
  3473  0E41  00F1               	movwf	___fltol@f1+1
  3474  0E42  0868               	movf	convert@a,w
  3475  0E43  00F0               	movwf	___fltol@f1
  3476  0E44  160A  118A  25A9  120A  158A  	fcall	___fltol
  3477  0E49  0870               	movf	?___fltol,w
  3478  0E4A  1283               	bcf	3,5	;RP0=0, select bank0
  3479  0E4B  1303               	bcf	3,6	;RP1=0, select bank0
  3480  0E4C  00A4               	movwf	___xxtofl@val
  3481  0E4D  0871               	movf	?___fltol+1,w
  3482  0E4E  00A5               	movwf	___xxtofl@val+1
  3483  0E4F  3000               	movlw	0
  3484  0E50  1BA5               	btfsc	___xxtofl@val+1,7
  3485  0E51  30FF               	movlw	255
  3486  0E52  00A6               	movwf	___xxtofl@val+2
  3487  0E53  00A7               	movwf	___xxtofl@val+3
  3488  0E54  3001               	movlw	1
  3489  0E55  120A  158A  20C8  120A  158A  	fcall	___xxtofl
  3490  0E5A  1283               	bcf	3,5	;RP0=0, select bank0
  3491  0E5B  1303               	bcf	3,6	;RP1=0, select bank0
  3492  0E5C  0827               	movf	?___xxtofl+3,w
  3493  0E5D  00C9               	movwf	___flsub@a+3
  3494  0E5E  0826               	movf	?___xxtofl+2,w
  3495  0E5F  00C8               	movwf	___flsub@a+2
  3496  0E60  0825               	movf	?___xxtofl+1,w
  3497  0E61  00C7               	movwf	___flsub@a+1
  3498  0E62  0824               	movf	?___xxtofl,w
  3499  0E63  00C6               	movwf	___flsub@a
  3500  0E64  086B               	movf	convert@a+3,w
  3501  0E65  00CD               	movwf	___flsub@b+3
  3502  0E66  086A               	movf	convert@a+2,w
  3503  0E67  00CC               	movwf	___flsub@b+2
  3504  0E68  0869               	movf	convert@a+1,w
  3505  0E69  00CB               	movwf	___flsub@b+1
  3506  0E6A  0868               	movf	convert@a,w
  3507  0E6B  00CA               	movwf	___flsub@b
  3508  0E6C  160A  118A  233F  120A  158A  	fcall	___flsub
  3509  0E71  1283               	bcf	3,5	;RP0=0, select bank0
  3510  0E72  1303               	bcf	3,6	;RP1=0, select bank0
  3511  0E73  0849               	movf	?___flsub+3,w
  3512  0E74  00D5               	movwf	___flmul@a+3
  3513  0E75  0848               	movf	?___flsub+2,w
  3514  0E76  00D4               	movwf	___flmul@a+2
  3515  0E77  0847               	movf	?___flsub+1,w
  3516  0E78  00D3               	movwf	___flmul@a+1
  3517  0E79  0846               	movf	?___flsub,w
  3518  0E7A  00D2               	movwf	___flmul@a
  3519  0E7B  120A  118A  2051  120A  158A  	fcall	___flmul
  3520  0E80  1283               	bcf	3,5	;RP0=0, select bank0
  3521  0E81  1303               	bcf	3,6	;RP1=0, select bank0
  3522  0E82  0851               	movf	?___flmul+3,w
  3523  0E83  1683               	bsf	3,5	;RP0=1, select bank1
  3524  0E84  1303               	bcf	3,6	;RP1=0, select bank1
  3525  0E85  00E5               	movwf	(convert@x+3)^(0+128)
  3526  0E86  1283               	bcf	3,5	;RP0=0, select bank0
  3527  0E87  1303               	bcf	3,6	;RP1=0, select bank0
  3528  0E88  0850               	movf	?___flmul+2,w
  3529  0E89  1683               	bsf	3,5	;RP0=1, select bank1
  3530  0E8A  1303               	bcf	3,6	;RP1=0, select bank1
  3531  0E8B  00E4               	movwf	(convert@x+2)^(0+128)
  3532  0E8C  1283               	bcf	3,5	;RP0=0, select bank0
  3533  0E8D  1303               	bcf	3,6	;RP1=0, select bank0
  3534  0E8E  084F               	movf	?___flmul+1,w
  3535  0E8F  1683               	bsf	3,5	;RP0=1, select bank1
  3536  0E90  1303               	bcf	3,6	;RP1=0, select bank1
  3537  0E91  00E3               	movwf	(convert@x+1)^(0+128)
  3538  0E92  1283               	bcf	3,5	;RP0=0, select bank0
  3539  0E93  1303               	bcf	3,6	;RP1=0, select bank0
  3540  0E94  084E               	movf	?___flmul,w
  3541  0E95  1683               	bsf	3,5	;RP0=1, select bank1
  3542  0E96  1303               	bcf	3,6	;RP1=0, select bank1
  3543  0E97  00E2               	movwf	convert@x^(0+128)
  3544  0E98                     l3066:
  3545                           
  3546                           ;Librerias.c: 239:      a=x;
  3547  0E98  0865               	movf	(convert@x+3)^(0+128),w
  3548  0E99  1283               	bcf	3,5	;RP0=0, select bank0
  3549  0E9A  1303               	bcf	3,6	;RP1=0, select bank0
  3550  0E9B  00EB               	movwf	convert@a+3
  3551  0E9C  1683               	bsf	3,5	;RP0=1, select bank1
  3552  0E9D  1303               	bcf	3,6	;RP1=0, select bank1
  3553  0E9E  0864               	movf	(convert@x+2)^(0+128),w
  3554  0E9F  1283               	bcf	3,5	;RP0=0, select bank0
  3555  0EA0  1303               	bcf	3,6	;RP1=0, select bank0
  3556  0EA1  00EA               	movwf	convert@a+2
  3557  0EA2  1683               	bsf	3,5	;RP0=1, select bank1
  3558  0EA3  1303               	bcf	3,6	;RP1=0, select bank1
  3559  0EA4  0863               	movf	(convert@x+1)^(0+128),w
  3560  0EA5  1283               	bcf	3,5	;RP0=0, select bank0
  3561  0EA6  1303               	bcf	3,6	;RP1=0, select bank0
  3562  0EA7  00E9               	movwf	convert@a+1
  3563  0EA8  1683               	bsf	3,5	;RP0=1, select bank1
  3564  0EA9  1303               	bcf	3,6	;RP1=0, select bank1
  3565  0EAA  0862               	movf	convert@x^(0+128),w
  3566  0EAB  1283               	bcf	3,5	;RP0=0, select bank0
  3567  0EAC  1303               	bcf	3,6	;RP1=0, select bank0
  3568  0EAD  00E8               	movwf	convert@a
  3569  0EAE                     l3068:
  3570  0EAE  086B               	movf	convert@a+3,w
  3571  0EAF  00F3               	movwf	___fltol@f1+3
  3572  0EB0  086A               	movf	convert@a+2,w
  3573  0EB1  00F2               	movwf	___fltol@f1+2
  3574  0EB2  0869               	movf	convert@a+1,w
  3575  0EB3  00F1               	movwf	___fltol@f1+1
  3576  0EB4  0868               	movf	convert@a,w
  3577  0EB5  00F0               	movwf	___fltol@f1
  3578  0EB6  160A  118A  25A9  120A  158A  	fcall	___fltol
  3579  0EBB                     l3070:
  3580  0EBB                     l3072:
  3581                           
  3582                           ;Librerias.c: 242:      mu=1;
  3583  0EBB  3001               	movlw	1
  3584  0EBC  1683               	bsf	3,5	;RP0=1, select bank1
  3585  0EBD  1303               	bcf	3,6	;RP1=0, select bank1
  3586  0EBE  00EA               	movwf	convert@mu^(0+128)
  3587  0EBF  3000               	movlw	0
  3588  0EC0  00EB               	movwf	(convert@mu^(0+128)+1)
  3589  0EC1                     l3074:
  3590                           
  3591                           ;Librerias.c: 243:      digits=place;
  3592  0EC1  1283               	bcf	3,5	;RP0=0, select bank0
  3593  0EC2  1303               	bcf	3,6	;RP1=0, select bank0
  3594  0EC3  086D               	movf	convert@place+1,w
  3595  0EC4  1683               	bsf	3,5	;RP0=1, select bank1
  3596  0EC5  1303               	bcf	3,6	;RP1=0, select bank1
  3597  0EC6  00E9               	movwf	(convert@digits+1)^(0+128)
  3598  0EC7  1283               	bcf	3,5	;RP0=0, select bank0
  3599  0EC8  1303               	bcf	3,6	;RP1=0, select bank0
  3600  0EC9  086C               	movf	convert@place,w
  3601  0ECA  1683               	bsf	3,5	;RP0=1, select bank1
  3602  0ECB  1303               	bcf	3,6	;RP1=0, select bank1
  3603  0ECC  00E8               	movwf	convert@digits^(0+128)
  3604                           
  3605                           ;Librerias.c: 244:      while(digits!=0)
  3606  0ECD  2FE9               	goto	l3098
  3607  0ECE                     l3076:
  3608                           
  3609                           ;Librerias.c: 245:      {;Librerias.c: 246:          if(digits==1)mu=1;
  3610  0ECE  0368               	decf	convert@digits^(0+128),w
  3611  0ECF  0469               	iorwf	(convert@digits+1)^(0+128),w
  3612  0ED0  1D03               	btfss	3,2
  3613  0ED1  2ED3               	goto	u3941
  3614  0ED2  2ED4               	goto	u3940
  3615  0ED3                     u3941:
  3616  0ED3  2ED9               	goto	l3080
  3617  0ED4                     u3940:
  3618  0ED4                     l3078:
  3619  0ED4  3001               	movlw	1
  3620  0ED5  00EA               	movwf	convert@mu^(0+128)
  3621  0ED6  3000               	movlw	0
  3622  0ED7  00EB               	movwf	(convert@mu^(0+128)+1)
  3623  0ED8  2F1B               	goto	l3088
  3624  0ED9                     l3080:
  3625  0ED9  3002               	movlw	2
  3626  0EDA  00DF               	movwf	convert@j^(0+128)
  3627  0EDB  3000               	movlw	0
  3628  0EDC  00E0               	movwf	(convert@j^(0+128)+1)
  3629  0EDD  2F05               	goto	l3086
  3630  0EDE                     l3082:
  3631  0EDE  1683               	bsf	3,5	;RP0=1, select bank1
  3632  0EDF  1303               	bcf	3,6	;RP1=0, select bank1
  3633  0EE0  086B               	movf	(convert@mu+1)^(0+128),w
  3634  0EE1  1283               	bcf	3,5	;RP0=0, select bank0
  3635  0EE2  1303               	bcf	3,6	;RP1=0, select bank0
  3636  0EE3  00A1               	movwf	___wmul@multiplier+1
  3637  0EE4  1683               	bsf	3,5	;RP0=1, select bank1
  3638  0EE5  1303               	bcf	3,6	;RP1=0, select bank1
  3639  0EE6  086A               	movf	convert@mu^(0+128),w
  3640  0EE7  1283               	bcf	3,5	;RP0=0, select bank0
  3641  0EE8  1303               	bcf	3,6	;RP1=0, select bank0
  3642  0EE9  00A0               	movwf	___wmul@multiplier
  3643  0EEA  300A               	movlw	10
  3644  0EEB  00A2               	movwf	___wmul@multiplicand
  3645  0EEC  3000               	movlw	0
  3646  0EED  00A3               	movwf	___wmul@multiplicand+1
  3647  0EEE  160A  118A  238A  120A  158A  	fcall	___wmul
  3648  0EF3  1283               	bcf	3,5	;RP0=0, select bank0
  3649  0EF4  1303               	bcf	3,6	;RP1=0, select bank0
  3650  0EF5  0821               	movf	?___wmul+1,w
  3651  0EF6  1683               	bsf	3,5	;RP0=1, select bank1
  3652  0EF7  1303               	bcf	3,6	;RP1=0, select bank1
  3653  0EF8  00EB               	movwf	(convert@mu+1)^(0+128)
  3654  0EF9  1283               	bcf	3,5	;RP0=0, select bank0
  3655  0EFA  1303               	bcf	3,6	;RP1=0, select bank0
  3656  0EFB  0820               	movf	?___wmul,w
  3657  0EFC  1683               	bsf	3,5	;RP0=1, select bank1
  3658  0EFD  1303               	bcf	3,6	;RP1=0, select bank1
  3659  0EFE  00EA               	movwf	convert@mu^(0+128)
  3660  0EFF                     l3084:
  3661  0EFF  3001               	movlw	1
  3662  0F00  07DF               	addwf	convert@j^(0+128),f
  3663  0F01  1803               	skipnc
  3664  0F02  0AE0               	incf	(convert@j+1)^(0+128),f
  3665  0F03  3000               	movlw	0
  3666  0F04  07E0               	addwf	(convert@j+1)^(0+128),f
  3667  0F05                     l3086:
  3668  0F05  0869               	movf	(convert@digits+1)^(0+128),w
  3669  0F06  3A80               	xorlw	128
  3670  0F07  1283               	bcf	3,5	;RP0=0, select bank0
  3671  0F08  1303               	bcf	3,6	;RP1=0, select bank0
  3672  0F09  00EE               	movwf	??_convert
  3673  0F0A  1683               	bsf	3,5	;RP0=1, select bank1
  3674  0F0B  1303               	bcf	3,6	;RP1=0, select bank1
  3675  0F0C  0860               	movf	(convert@j+1)^(0+128),w
  3676  0F0D  3A80               	xorlw	128
  3677  0F0E  1283               	bcf	3,5	;RP0=0, select bank0
  3678  0F0F  1303               	bcf	3,6	;RP1=0, select bank0
  3679  0F10  026E               	subwf	??_convert,w
  3680  0F11  1D03               	skipz
  3681  0F12  2F17               	goto	u3955
  3682  0F13  1683               	bsf	3,5	;RP0=1, select bank1
  3683  0F14  1303               	bcf	3,6	;RP1=0, select bank1
  3684  0F15  085F               	movf	convert@j^(0+128),w
  3685  0F16  0268               	subwf	convert@digits^(0+128),w
  3686  0F17                     u3955:
  3687  0F17  1803               	skipnc
  3688  0F18  2F1A               	goto	u3951
  3689  0F19  2F1B               	goto	u3950
  3690  0F1A                     u3951:
  3691  0F1A  2EDE               	goto	l3082
  3692  0F1B                     u3950:
  3693  0F1B                     l3088:
  3694                           
  3695                           ;Librerias.c: 249:          x=a/mu;
  3696  0F1B  1683               	bsf	3,5	;RP0=1, select bank1
  3697  0F1C  1303               	bcf	3,6	;RP1=0, select bank1
  3698  0F1D  086A               	movf	convert@mu^(0+128),w
  3699  0F1E  1283               	bcf	3,5	;RP0=0, select bank0
  3700  0F1F  1303               	bcf	3,6	;RP1=0, select bank0
  3701  0F20  00A4               	movwf	___xxtofl@val
  3702  0F21  1683               	bsf	3,5	;RP0=1, select bank1
  3703  0F22  1303               	bcf	3,6	;RP1=0, select bank1
  3704  0F23  086B               	movf	(convert@mu+1)^(0+128),w
  3705  0F24  1283               	bcf	3,5	;RP0=0, select bank0
  3706  0F25  1303               	bcf	3,6	;RP1=0, select bank0
  3707  0F26  00A5               	movwf	___xxtofl@val+1
  3708  0F27  3000               	movlw	0
  3709  0F28  1BA5               	btfsc	___xxtofl@val+1,7
  3710  0F29  30FF               	movlw	255
  3711  0F2A  00A6               	movwf	___xxtofl@val+2
  3712  0F2B  00A7               	movwf	___xxtofl@val+3
  3713  0F2C  3001               	movlw	1
  3714  0F2D  120A  158A  20C8  120A  158A  	fcall	___xxtofl
  3715  0F32  1283               	bcf	3,5	;RP0=0, select bank0
  3716  0F33  1303               	bcf	3,6	;RP1=0, select bank0
  3717  0F34  0827               	movf	?___xxtofl+3,w
  3718  0F35  00B5               	movwf	___fldiv@a+3
  3719  0F36  0826               	movf	?___xxtofl+2,w
  3720  0F37  00B4               	movwf	___fldiv@a+2
  3721  0F38  0825               	movf	?___xxtofl+1,w
  3722  0F39  00B3               	movwf	___fldiv@a+1
  3723  0F3A  0824               	movf	?___xxtofl,w
  3724  0F3B  00B2               	movwf	___fldiv@a
  3725  0F3C  086B               	movf	convert@a+3,w
  3726  0F3D  00B9               	movwf	___fldiv@b+3
  3727  0F3E  086A               	movf	convert@a+2,w
  3728  0F3F  00B8               	movwf	___fldiv@b+2
  3729  0F40  0869               	movf	convert@a+1,w
  3730  0F41  00B7               	movwf	___fldiv@b+1
  3731  0F42  0868               	movf	convert@a,w
  3732  0F43  00B6               	movwf	___fldiv@b
  3733  0F44  160A  118A  2623  120A  158A  	fcall	___fldiv
  3734  0F49  1283               	bcf	3,5	;RP0=0, select bank0
  3735  0F4A  1303               	bcf	3,6	;RP1=0, select bank0
  3736  0F4B  0835               	movf	?___fldiv+3,w
  3737  0F4C  1683               	bsf	3,5	;RP0=1, select bank1
  3738  0F4D  1303               	bcf	3,6	;RP1=0, select bank1
  3739  0F4E  00E5               	movwf	(convert@x+3)^(0+128)
  3740  0F4F  1283               	bcf	3,5	;RP0=0, select bank0
  3741  0F50  1303               	bcf	3,6	;RP1=0, select bank0
  3742  0F51  0834               	movf	?___fldiv+2,w
  3743  0F52  1683               	bsf	3,5	;RP0=1, select bank1
  3744  0F53  1303               	bcf	3,6	;RP1=0, select bank1
  3745  0F54  00E4               	movwf	(convert@x+2)^(0+128)
  3746  0F55  1283               	bcf	3,5	;RP0=0, select bank0
  3747  0F56  1303               	bcf	3,6	;RP1=0, select bank0
  3748  0F57  0833               	movf	?___fldiv+1,w
  3749  0F58  1683               	bsf	3,5	;RP0=1, select bank1
  3750  0F59  1303               	bcf	3,6	;RP1=0, select bank1
  3751  0F5A  00E3               	movwf	(convert@x+1)^(0+128)
  3752  0F5B  1283               	bcf	3,5	;RP0=0, select bank0
  3753  0F5C  1303               	bcf	3,6	;RP1=0, select bank0
  3754  0F5D  0832               	movf	?___fldiv,w
  3755  0F5E  1683               	bsf	3,5	;RP0=1, select bank1
  3756  0F5F  1303               	bcf	3,6	;RP1=0, select bank1
  3757  0F60  00E2               	movwf	convert@x^(0+128)
  3758                           
  3759                           ;Librerias.c: 250:          a=a-((int)x*mu);
  3760  0F61  086B               	movf	(convert@mu+1)^(0+128),w
  3761  0F62  1283               	bcf	3,5	;RP0=0, select bank0
  3762  0F63  1303               	bcf	3,6	;RP1=0, select bank0
  3763  0F64  00A3               	movwf	___wmul@multiplicand+1
  3764  0F65  1683               	bsf	3,5	;RP0=1, select bank1
  3765  0F66  1303               	bcf	3,6	;RP1=0, select bank1
  3766  0F67  086A               	movf	convert@mu^(0+128),w
  3767  0F68  1283               	bcf	3,5	;RP0=0, select bank0
  3768  0F69  1303               	bcf	3,6	;RP1=0, select bank0
  3769  0F6A  00A2               	movwf	___wmul@multiplicand
  3770  0F6B  1683               	bsf	3,5	;RP0=1, select bank1
  3771  0F6C  1303               	bcf	3,6	;RP1=0, select bank1
  3772  0F6D  0865               	movf	(convert@x+3)^(0+128),w
  3773  0F6E  00F3               	movwf	___fltol@f1+3
  3774  0F6F  0864               	movf	(convert@x+2)^(0+128),w
  3775  0F70  00F2               	movwf	___fltol@f1+2
  3776  0F71  0863               	movf	(convert@x+1)^(0+128),w
  3777  0F72  00F1               	movwf	___fltol@f1+1
  3778  0F73  0862               	movf	convert@x^(0+128),w
  3779  0F74  00F0               	movwf	___fltol@f1
  3780  0F75  160A  118A  25A9  120A  158A  	fcall	___fltol
  3781  0F7A  0871               	movf	?___fltol+1,w
  3782  0F7B  1283               	bcf	3,5	;RP0=0, select bank0
  3783  0F7C  1303               	bcf	3,6	;RP1=0, select bank0
  3784  0F7D  00A1               	movwf	___wmul@multiplier+1
  3785  0F7E  0870               	movf	?___fltol,w
  3786  0F7F  00A0               	movwf	___wmul@multiplier
  3787  0F80  160A  118A  238A  120A  158A  	fcall	___wmul
  3788  0F85  1283               	bcf	3,5	;RP0=0, select bank0
  3789  0F86  1303               	bcf	3,6	;RP1=0, select bank0
  3790  0F87  0820               	movf	?___wmul,w
  3791  0F88  00A4               	movwf	___xxtofl@val
  3792  0F89  0821               	movf	?___wmul+1,w
  3793  0F8A  00A5               	movwf	___xxtofl@val+1
  3794  0F8B  3000               	movlw	0
  3795  0F8C  1BA5               	btfsc	___xxtofl@val+1,7
  3796  0F8D  30FF               	movlw	255
  3797  0F8E  00A6               	movwf	___xxtofl@val+2
  3798  0F8F  00A7               	movwf	___xxtofl@val+3
  3799  0F90  3001               	movlw	1
  3800  0F91  120A  158A  20C8  120A  158A  	fcall	___xxtofl
  3801  0F96  1283               	bcf	3,5	;RP0=0, select bank0
  3802  0F97  1303               	bcf	3,6	;RP1=0, select bank0
  3803  0F98  0827               	movf	?___xxtofl+3,w
  3804  0F99  00C9               	movwf	___flsub@a+3
  3805  0F9A  0826               	movf	?___xxtofl+2,w
  3806  0F9B  00C8               	movwf	___flsub@a+2
  3807  0F9C  0825               	movf	?___xxtofl+1,w
  3808  0F9D  00C7               	movwf	___flsub@a+1
  3809  0F9E  0824               	movf	?___xxtofl,w
  3810  0F9F  00C6               	movwf	___flsub@a
  3811  0FA0  086B               	movf	convert@a+3,w
  3812  0FA1  00CD               	movwf	___flsub@b+3
  3813  0FA2  086A               	movf	convert@a+2,w
  3814  0FA3  00CC               	movwf	___flsub@b+2
  3815  0FA4  0869               	movf	convert@a+1,w
  3816  0FA5  00CB               	movwf	___flsub@b+1
  3817  0FA6  0868               	movf	convert@a,w
  3818  0FA7  00CA               	movwf	___flsub@b
  3819  0FA8  160A  118A  233F  120A  158A  	fcall	___flsub
  3820  0FAD  1283               	bcf	3,5	;RP0=0, select bank0
  3821  0FAE  1303               	bcf	3,6	;RP1=0, select bank0
  3822  0FAF  0849               	movf	?___flsub+3,w
  3823  0FB0  00EB               	movwf	convert@a+3
  3824  0FB1  0848               	movf	?___flsub+2,w
  3825  0FB2  00EA               	movwf	convert@a+2
  3826  0FB3  0847               	movf	?___flsub+1,w
  3827  0FB4  00E9               	movwf	convert@a+1
  3828  0FB5  0846               	movf	?___flsub,w
  3829  0FB6  00E8               	movwf	convert@a
  3830  0FB7                     l3090:
  3831                           
  3832                           ;Librerias.c: 251:          data[i]=0x30+((int)x);
  3833  0FB7  1683               	bsf	3,5	;RP0=1, select bank1
  3834  0FB8  1303               	bcf	3,6	;RP1=0, select bank1
  3835  0FB9  0865               	movf	(convert@x+3)^(0+128),w
  3836  0FBA  00F3               	movwf	___fltol@f1+3
  3837  0FBB  0864               	movf	(convert@x+2)^(0+128),w
  3838  0FBC  00F2               	movwf	___fltol@f1+2
  3839  0FBD  0863               	movf	(convert@x+1)^(0+128),w
  3840  0FBE  00F1               	movwf	___fltol@f1+1
  3841  0FBF  0862               	movf	convert@x^(0+128),w
  3842  0FC0  00F0               	movwf	___fltol@f1
  3843  0FC1  160A  118A  25A9  120A  158A  	fcall	___fltol
  3844  0FC6  0870               	movf	?___fltol,w
  3845  0FC7  3E30               	addlw	48
  3846  0FC8  1283               	bcf	3,5	;RP0=0, select bank0
  3847  0FC9  1303               	bcf	3,6	;RP1=0, select bank0
  3848  0FCA  00EE               	movwf	??_convert
  3849  0FCB  1683               	bsf	3,5	;RP0=1, select bank1
  3850  0FCC  1303               	bcf	3,6	;RP1=0, select bank1
  3851  0FCD  0866               	movf	convert@i^(0+128),w
  3852  0FCE  0761               	addwf	convert@data^(0+128),w
  3853  0FCF  1283               	bcf	3,5	;RP0=0, select bank0
  3854  0FD0  1303               	bcf	3,6	;RP1=0, select bank0
  3855  0FD1  00EF               	movwf	??_convert+1
  3856  0FD2  086F               	movf	??_convert+1,w
  3857  0FD3  0084               	movwf	4
  3858  0FD4  086E               	movf	??_convert,w
  3859  0FD5  1383               	bcf	3,7	;select IRP bank0
  3860  0FD6  0080               	movwf	0
  3861  0FD7                     l3092:
  3862                           
  3863                           ;Librerias.c: 252:          i++;
  3864  0FD7  3001               	movlw	1
  3865  0FD8  1683               	bsf	3,5	;RP0=1, select bank1
  3866  0FD9  1303               	bcf	3,6	;RP1=0, select bank1
  3867  0FDA  07E6               	addwf	convert@i^(0+128),f
  3868  0FDB  1803               	skipnc
  3869  0FDC  0AE7               	incf	(convert@i+1)^(0+128),f
  3870  0FDD  3000               	movlw	0
  3871  0FDE  07E7               	addwf	(convert@i+1)^(0+128),f
  3872  0FDF                     l3094:
  3873                           
  3874                           ;Librerias.c: 253:          digits--;
  3875  0FDF  30FF               	movlw	255
  3876  0FE0  07E8               	addwf	convert@digits^(0+128),f
  3877  0FE1  1803               	skipnc
  3878  0FE2  0AE9               	incf	(convert@digits+1)^(0+128),f
  3879  0FE3  30FF               	movlw	255
  3880  0FE4  07E9               	addwf	(convert@digits+1)^(0+128),f
  3881  0FE5                     l3096:
  3882                           
  3883                           ;Librerias.c: 254:          mu=1;
  3884  0FE5  3001               	movlw	1
  3885  0FE6  00EA               	movwf	convert@mu^(0+128)
  3886  0FE7  3000               	movlw	0
  3887  0FE8  00EB               	movwf	(convert@mu^(0+128)+1)
  3888  0FE9                     l3098:
  3889                           
  3890                           ;Librerias.c: 244:      while(digits!=0)
  3891  0FE9  0868               	movf	convert@digits^(0+128),w
  3892  0FEA  0469               	iorwf	(convert@digits+1)^(0+128),w
  3893  0FEB  1D03               	btfss	3,2
  3894  0FEC  2FEE               	goto	u3961
  3895  0FED  2FEF               	goto	u3960
  3896  0FEE                     u3961:
  3897  0FEE  2ECE               	goto	l3076
  3898  0FEF                     u3960:
  3899  0FEF                     l3100:
  3900                           
  3901                           ;Librerias.c: 257:     data[i]='\n';
  3902  0FEF  300A               	movlw	10
  3903  0FF0  1283               	bcf	3,5	;RP0=0, select bank0
  3904  0FF1  1303               	bcf	3,6	;RP1=0, select bank0
  3905  0FF2  00EE               	movwf	??_convert
  3906  0FF3  1683               	bsf	3,5	;RP0=1, select bank1
  3907  0FF4  1303               	bcf	3,6	;RP1=0, select bank1
  3908  0FF5  0866               	movf	convert@i^(0+128),w
  3909  0FF6  0761               	addwf	convert@data^(0+128),w
  3910  0FF7  1283               	bcf	3,5	;RP0=0, select bank0
  3911  0FF8  1303               	bcf	3,6	;RP1=0, select bank0
  3912  0FF9  00EF               	movwf	??_convert+1
  3913  0FFA  086F               	movf	??_convert+1,w
  3914  0FFB  0084               	movwf	4
  3915  0FFC  086E               	movf	??_convert,w
  3916  0FFD  1383               	bcf	3,7	;select IRP bank0
  3917  0FFE  0080               	movwf	0
  3918  0FFF                     l310:
  3919  0FFF  0008               	return
  3920  1000                     __end_of_convert:
  3921                           
  3922                           	psect	text8
  3923  08C8                     __ptext8:	
  3924 ;; *************** function ___xxtofl *****************
  3925 ;; Defined at:
  3926 ;;		line 10 in file "C:\Program Files\Microchip\xc8\v2.32\pic\sources\c90\common\xxtofl.c"
  3927 ;; Parameters:    Size  Location     Type
  3928 ;;  sign            1    wreg     unsigned char 
  3929 ;;  val             4    4[BANK0 ] long 
  3930 ;; Auto vars:     Size  Location     Type
  3931 ;;  sign            1   12[BANK0 ] unsigned char 
  3932 ;;  arg             4   14[BANK0 ] unsigned long 
  3933 ;;  exp             1   13[BANK0 ] unsigned char 
  3934 ;; Return value:  Size  Location     Type
  3935 ;;                  4    4[BANK0 ] unsigned char 
  3936 ;; Registers used:
  3937 ;;		wreg, status,2, status,0
  3938 ;; Tracked objects:
  3939 ;;		On entry : 0/0
  3940 ;;		On exit  : 0/0
  3941 ;;		Unchanged: 0/0
  3942 ;; Data sizes:     COMMON   BANK0   BANK1   BANK3   BANK2
  3943 ;;      Params:         0       4       0       0       0
  3944 ;;      Locals:         0       6       0       0       0
  3945 ;;      Temps:          0       4       0       0       0
  3946 ;;      Totals:         0      14       0       0       0
  3947 ;;Total ram usage:       14 bytes
  3948 ;; Hardware stack levels used: 1
  3949 ;; This function calls:
  3950 ;;		Nothing
  3951 ;; This function is called by:
  3952 ;;		_main
  3953 ;;		_convert
  3954 ;; This function uses a non-reentrant model
  3955 ;;
  3956                           
  3957                           
  3958                           ;psect for function ___xxtofl
  3959  08C8                     ___xxtofl:
  3960                           
  3961                           ;incstack = 0
  3962                           ; Regs used in ___xxtofl: [wreg+status,2+status,0]
  3963                           ;___xxtofl@sign stored from wreg
  3964  08C8  1283               	bcf	3,5	;RP0=0, select bank0
  3965  08C9  1303               	bcf	3,6	;RP1=0, select bank0
  3966  08CA  00AC               	movwf	___xxtofl@sign
  3967  08CB                     l2880:
  3968  08CB  082C               	movf	___xxtofl@sign,w
  3969  08CC  1903               	btfsc	3,2
  3970  08CD  28CF               	goto	u3681
  3971  08CE  28D0               	goto	u3680
  3972  08CF                     u3681:
  3973  08CF  28E4               	goto	l2886
  3974  08D0                     u3680:
  3975  08D0                     l2882:
  3976  08D0  1FA7               	btfss	___xxtofl@val+3,7
  3977  08D1  28D3               	goto	u3691
  3978  08D2  28D4               	goto	u3690
  3979  08D3                     u3691:
  3980  08D3  28E4               	goto	l2886
  3981  08D4                     u3690:
  3982  08D4                     l2884:
  3983  08D4  0924               	comf	___xxtofl@val,w
  3984  08D5  00AE               	movwf	___xxtofl@arg
  3985  08D6  0925               	comf	___xxtofl@val+1,w
  3986  08D7  00AF               	movwf	___xxtofl@arg+1
  3987  08D8  0926               	comf	___xxtofl@val+2,w
  3988  08D9  00B0               	movwf	___xxtofl@arg+2
  3989  08DA  0927               	comf	___xxtofl@val+3,w
  3990  08DB  00B1               	movwf	___xxtofl@arg+3
  3991  08DC  0AAE               	incf	___xxtofl@arg,f
  3992  08DD  1903               	skipnz
  3993  08DE  0AAF               	incf	___xxtofl@arg+1,f
  3994  08DF  1903               	skipnz
  3995  08E0  0AB0               	incf	___xxtofl@arg+2,f
  3996  08E1  1903               	skipnz
  3997  08E2  0AB1               	incf	___xxtofl@arg+3,f
  3998  08E3  28EC               	goto	l899
  3999  08E4                     l2886:
  4000  08E4  0827               	movf	___xxtofl@val+3,w
  4001  08E5  00B1               	movwf	___xxtofl@arg+3
  4002  08E6  0826               	movf	___xxtofl@val+2,w
  4003  08E7  00B0               	movwf	___xxtofl@arg+2
  4004  08E8  0825               	movf	___xxtofl@val+1,w
  4005  08E9  00AF               	movwf	___xxtofl@arg+1
  4006  08EA  0824               	movf	___xxtofl@val,w
  4007  08EB  00AE               	movwf	___xxtofl@arg
  4008  08EC                     l899:
  4009  08EC  0827               	movf	___xxtofl@val+3,w
  4010  08ED  0426               	iorwf	___xxtofl@val+2,w
  4011  08EE  0425               	iorwf	___xxtofl@val+1,w
  4012  08EF  0424               	iorwf	___xxtofl@val,w
  4013  08F0  1D03               	skipz
  4014  08F1  28F3               	goto	u3701
  4015  08F2  28F4               	goto	u3700
  4016  08F3                     u3701:
  4017  08F3  28FD               	goto	l2892
  4018  08F4                     u3700:
  4019  08F4                     l2888:
  4020  08F4  3000               	movlw	0
  4021  08F5  00A7               	movwf	?___xxtofl+3
  4022  08F6  3000               	movlw	0
  4023  08F7  00A6               	movwf	?___xxtofl+2
  4024  08F8  3000               	movlw	0
  4025  08F9  00A5               	movwf	?___xxtofl+1
  4026  08FA  3000               	movlw	0
  4027  08FB  00A4               	movwf	?___xxtofl
  4028  08FC  2983               	goto	l901
  4029  08FD                     l2892:
  4030  08FD  3096               	movlw	150
  4031  08FE  00A8               	movwf	??___xxtofl
  4032  08FF  0828               	movf	??___xxtofl,w
  4033  0900  00AD               	movwf	___xxtofl@exp
  4034  0901  290F               	goto	l2896
  4035  0902                     l2894:
  4036  0902  3001               	movlw	1
  4037  0903  00A8               	movwf	??___xxtofl
  4038  0904  0828               	movf	??___xxtofl,w
  4039  0905  07AD               	addwf	___xxtofl@exp,f
  4040  0906  3001               	movlw	1
  4041  0907                     u3715:
  4042  0907  1003               	clrc
  4043  0908  0CB1               	rrf	___xxtofl@arg+3,f
  4044  0909  0CB0               	rrf	___xxtofl@arg+2,f
  4045  090A  0CAF               	rrf	___xxtofl@arg+1,f
  4046  090B  0CAE               	rrf	___xxtofl@arg,f
  4047  090C  3EFF               	addlw	-1
  4048  090D  1D03               	skipz
  4049  090E  2907               	goto	u3715
  4050  090F                     l2896:
  4051  090F  30FE               	movlw	254
  4052  0910  0531               	andwf	___xxtofl@arg+3,w
  4053  0911  1D03               	btfss	3,2
  4054  0912  2914               	goto	u3721
  4055  0913  2915               	goto	u3720
  4056  0914                     u3721:
  4057  0914  2902               	goto	l2894
  4058  0915                     u3720:
  4059  0915  2931               	goto	l905
  4060  0916                     l2898:
  4061  0916  3001               	movlw	1
  4062  0917  00A8               	movwf	??___xxtofl
  4063  0918  0828               	movf	??___xxtofl,w
  4064  0919  07AD               	addwf	___xxtofl@exp,f
  4065  091A                     l2900:
  4066  091A  3001               	movlw	1
  4067  091B  07AE               	addwf	___xxtofl@arg,f
  4068  091C  3000               	movlw	0
  4069  091D  1803               	skipnc
  4070  091E  3001               	movlw	1
  4071  091F  07AF               	addwf	___xxtofl@arg+1,f
  4072  0920  3000               	movlw	0
  4073  0921  1803               	skipnc
  4074  0922  3001               	movlw	1
  4075  0923  07B0               	addwf	___xxtofl@arg+2,f
  4076  0924  3000               	movlw	0
  4077  0925  1803               	skipnc
  4078  0926  3001               	movlw	1
  4079  0927  07B1               	addwf	___xxtofl@arg+3,f
  4080  0928                     l2902:
  4081  0928  3001               	movlw	1
  4082  0929                     u3735:
  4083  0929  1003               	clrc
  4084  092A  0CB1               	rrf	___xxtofl@arg+3,f
  4085  092B  0CB0               	rrf	___xxtofl@arg+2,f
  4086  092C  0CAF               	rrf	___xxtofl@arg+1,f
  4087  092D  0CAE               	rrf	___xxtofl@arg,f
  4088  092E  3EFF               	addlw	-1
  4089  092F  1D03               	skipz
  4090  0930  2929               	goto	u3735
  4091  0931                     l905:
  4092  0931  30FF               	movlw	255
  4093  0932  0531               	andwf	___xxtofl@arg+3,w
  4094  0933  1D03               	btfss	3,2
  4095  0934  2936               	goto	u3741
  4096  0935  2937               	goto	u3740
  4097  0936                     u3741:
  4098  0936  2916               	goto	l2898
  4099  0937                     u3740:
  4100  0937  2943               	goto	l2906
  4101  0938                     l2904:
  4102  0938  3001               	movlw	1
  4103  0939  02AD               	subwf	___xxtofl@exp,f
  4104  093A  3001               	movlw	1
  4105  093B  00A8               	movwf	??___xxtofl
  4106  093C                     u3755:
  4107  093C  1003               	clrc
  4108  093D  0DAE               	rlf	___xxtofl@arg,f
  4109  093E  0DAF               	rlf	___xxtofl@arg+1,f
  4110  093F  0DB0               	rlf	___xxtofl@arg+2,f
  4111  0940  0DB1               	rlf	___xxtofl@arg+3,f
  4112  0941  0BA8               	decfsz	??___xxtofl,f
  4113  0942  293C               	goto	u3755
  4114  0943                     l2906:
  4115  0943  1BB0               	btfsc	___xxtofl@arg+2,7
  4116  0944  2946               	goto	u3761
  4117  0945  2947               	goto	u3760
  4118  0946                     u3761:
  4119  0946  294D               	goto	l912
  4120  0947                     u3760:
  4121  0947                     l2908:
  4122  0947  3002               	movlw	2
  4123  0948  022D               	subwf	___xxtofl@exp,w
  4124  0949  1803               	skipnc
  4125  094A  294C               	goto	u3771
  4126  094B  294D               	goto	u3770
  4127  094C                     u3771:
  4128  094C  2938               	goto	l2904
  4129  094D                     u3770:
  4130  094D                     l912:
  4131  094D  182D               	btfsc	___xxtofl@exp,0
  4132  094E  2950               	goto	u3781
  4133  094F  2951               	goto	u3780
  4134  0950                     u3781:
  4135  0950  2959               	goto	l913
  4136  0951                     u3780:
  4137  0951                     l2910:
  4138  0951  30FF               	movlw	255
  4139  0952  05AE               	andwf	___xxtofl@arg,f
  4140  0953  30FF               	movlw	255
  4141  0954  05AF               	andwf	___xxtofl@arg+1,f
  4142  0955  307F               	movlw	127
  4143  0956  05B0               	andwf	___xxtofl@arg+2,f
  4144  0957  30FF               	movlw	255
  4145  0958  05B1               	andwf	___xxtofl@arg+3,f
  4146  0959                     l913:
  4147  0959  1003               	clrc
  4148  095A  0CAD               	rrf	___xxtofl@exp,f
  4149  095B                     l2912:
  4150  095B  082D               	movf	___xxtofl@exp,w
  4151  095C  00A8               	movwf	??___xxtofl
  4152  095D  01A9               	clrf	??___xxtofl+1
  4153  095E  01AA               	clrf	??___xxtofl+2
  4154  095F  01AB               	clrf	??___xxtofl+3
  4155  0960  3018               	movlw	24
  4156  0961                     u3795:
  4157  0961  1003               	clrc
  4158  0962  0DA8               	rlf	??___xxtofl,f
  4159  0963  0DA9               	rlf	??___xxtofl+1,f
  4160  0964  0DAA               	rlf	??___xxtofl+2,f
  4161  0965  0DAB               	rlf	??___xxtofl+3,f
  4162  0966                     u3790:
  4163  0966  3EFF               	addlw	-1
  4164  0967  1D03               	skipz
  4165  0968  2961               	goto	u3795
  4166  0969  0828               	movf	??___xxtofl,w
  4167  096A  04AE               	iorwf	___xxtofl@arg,f
  4168  096B  0829               	movf	??___xxtofl+1,w
  4169  096C  04AF               	iorwf	___xxtofl@arg+1,f
  4170  096D  082A               	movf	??___xxtofl+2,w
  4171  096E  04B0               	iorwf	___xxtofl@arg+2,f
  4172  096F  082B               	movf	??___xxtofl+3,w
  4173  0970  04B1               	iorwf	___xxtofl@arg+3,f
  4174  0971                     l2914:
  4175  0971  082C               	movf	___xxtofl@sign,w
  4176  0972  1903               	btfsc	3,2
  4177  0973  2975               	goto	u3801
  4178  0974  2976               	goto	u3800
  4179  0975                     u3801:
  4180  0975  297B               	goto	l2920
  4181  0976                     u3800:
  4182  0976                     l2916:
  4183  0976  1FA7               	btfss	___xxtofl@val+3,7
  4184  0977  2979               	goto	u3811
  4185  0978  297A               	goto	u3810
  4186  0979                     u3811:
  4187  0979  297B               	goto	l2920
  4188  097A                     u3810:
  4189  097A                     l2918:
  4190  097A  17B1               	bsf	___xxtofl@arg+3,7
  4191  097B                     l2920:
  4192  097B  0831               	movf	___xxtofl@arg+3,w
  4193  097C  00A7               	movwf	?___xxtofl+3
  4194  097D  0830               	movf	___xxtofl@arg+2,w
  4195  097E  00A6               	movwf	?___xxtofl+2
  4196  097F  082F               	movf	___xxtofl@arg+1,w
  4197  0980  00A5               	movwf	?___xxtofl+1
  4198  0981  082E               	movf	___xxtofl@arg,w
  4199  0982  00A4               	movwf	?___xxtofl
  4200  0983                     l901:
  4201  0983  0008               	return
  4202  0984                     __end_of___xxtofl:
  4203                           
  4204                           	psect	text9
  4205  138A                     __ptext9:	
  4206 ;; *************** function ___wmul *****************
  4207 ;; Defined at:
  4208 ;;		line 15 in file "C:\Program Files\Microchip\xc8\v2.32\pic\sources\c90\common\Umul16.c"
  4209 ;; Parameters:    Size  Location     Type
  4210 ;;  multiplier      2    0[BANK0 ] unsigned int 
  4211 ;;  multiplicand    2    2[BANK0 ] unsigned int 
  4212 ;; Auto vars:     Size  Location     Type
  4213 ;;  product         2   11[COMMON] unsigned int 
  4214 ;; Return value:  Size  Location     Type
  4215 ;;                  2    0[BANK0 ] unsigned int 
  4216 ;; Registers used:
  4217 ;;		wreg, status,2, status,0
  4218 ;; Tracked objects:
  4219 ;;		On entry : 0/0
  4220 ;;		On exit  : 0/0
  4221 ;;		Unchanged: 0/0
  4222 ;; Data sizes:     COMMON   BANK0   BANK1   BANK3   BANK2
  4223 ;;      Params:         0       4       0       0       0
  4224 ;;      Locals:         2       0       0       0       0
  4225 ;;      Temps:          0       0       0       0       0
  4226 ;;      Totals:         2       4       0       0       0
  4227 ;;Total ram usage:        6 bytes
  4228 ;; Hardware stack levels used: 1
  4229 ;; This function calls:
  4230 ;;		Nothing
  4231 ;; This function is called by:
  4232 ;;		_convert
  4233 ;; This function uses a non-reentrant model
  4234 ;;
  4235                           
  4236                           
  4237                           ;psect for function ___wmul
  4238  138A                     ___wmul:
  4239  138A                     l2440:	
  4240                           ;incstack = 0
  4241                           ; Regs used in ___wmul: [wreg+status,2+status,0]
  4242                           
  4243  138A  01FB               	clrf	___wmul@product
  4244  138B  01FC               	clrf	___wmul@product+1
  4245  138C                     l2442:
  4246  138C  1283               	bcf	3,5	;RP0=0, select bank0
  4247  138D  1303               	bcf	3,6	;RP1=0, select bank0
  4248  138E  1C20               	btfss	___wmul@multiplier,0
  4249  138F  2B91               	goto	u2621
  4250  1390  2B92               	goto	u2620
  4251  1391                     u2621:
  4252  1391  2B98               	goto	l466
  4253  1392                     u2620:
  4254  1392                     l2444:
  4255  1392  0822               	movf	___wmul@multiplicand,w
  4256  1393  07FB               	addwf	___wmul@product,f
  4257  1394  1803               	skipnc
  4258  1395  0AFC               	incf	___wmul@product+1,f
  4259  1396  0823               	movf	___wmul@multiplicand+1,w
  4260  1397  07FC               	addwf	___wmul@product+1,f
  4261  1398                     l466:
  4262  1398  3001               	movlw	1
  4263  1399                     u2635:
  4264  1399  1003               	clrc
  4265  139A  0DA2               	rlf	___wmul@multiplicand,f
  4266  139B  0DA3               	rlf	___wmul@multiplicand+1,f
  4267  139C  3EFF               	addlw	-1
  4268  139D  1D03               	skipz
  4269  139E  2B99               	goto	u2635
  4270  139F                     l2446:
  4271  139F  3001               	movlw	1
  4272  13A0                     u2645:
  4273  13A0  1003               	clrc
  4274  13A1  0CA1               	rrf	___wmul@multiplier+1,f
  4275  13A2  0CA0               	rrf	___wmul@multiplier,f
  4276  13A3  3EFF               	addlw	-1
  4277  13A4  1D03               	skipz
  4278  13A5  2BA0               	goto	u2645
  4279  13A6                     l2448:
  4280  13A6  0820               	movf	___wmul@multiplier,w
  4281  13A7  0421               	iorwf	___wmul@multiplier+1,w
  4282  13A8  1D03               	btfss	3,2
  4283  13A9  2BAB               	goto	u2651
  4284  13AA  2BAC               	goto	u2650
  4285  13AB                     u2651:
  4286  13AB  2B8C               	goto	l2442
  4287  13AC                     u2650:
  4288  13AC                     l2450:
  4289  13AC  087C               	movf	___wmul@product+1,w
  4290  13AD  00A1               	movwf	?___wmul+1
  4291  13AE  087B               	movf	___wmul@product,w
  4292  13AF  00A0               	movwf	?___wmul
  4293  13B0                     l468:
  4294  13B0  0008               	return
  4295  13B1                     __end_of___wmul:
  4296                           
  4297                           	psect	text10
  4298  15A9                     __ptext10:	
  4299 ;; *************** function ___fltol *****************
  4300 ;; Defined at:
  4301 ;;		line 43 in file "C:\Program Files\Microchip\xc8\v2.32\pic\sources\c90\common\fltol.c"
  4302 ;; Parameters:    Size  Location     Type
  4303 ;;  f1              4    0[COMMON] unsigned int 
  4304 ;; Auto vars:     Size  Location     Type
  4305 ;;  exp1            1   10[COMMON] unsigned char 
  4306 ;;  sign1           1    9[COMMON] unsigned char 
  4307 ;; Return value:  Size  Location     Type
  4308 ;;                  4    0[COMMON] long 
  4309 ;; Registers used:
  4310 ;;		wreg, status,2, status,0
  4311 ;; Tracked objects:
  4312 ;;		On entry : 0/0
  4313 ;;		On exit  : 0/0
  4314 ;;		Unchanged: 0/0
  4315 ;; Data sizes:     COMMON   BANK0   BANK1   BANK3   BANK2
  4316 ;;      Params:         4       0       0       0       0
  4317 ;;      Locals:         2       0       0       0       0
  4318 ;;      Temps:          5       0       0       0       0
  4319 ;;      Totals:        11       0       0       0       0
  4320 ;;Total ram usage:       11 bytes
  4321 ;; Hardware stack levels used: 1
  4322 ;; This function calls:
  4323 ;;		Nothing
  4324 ;; This function is called by:
  4325 ;;		_main
  4326 ;;		_convert
  4327 ;; This function uses a non-reentrant model
  4328 ;;
  4329                           
  4330                           
  4331                           ;psect for function ___fltol
  4332  15A9                     ___fltol:
  4333  15A9                     l2556:	
  4334                           ;incstack = 0
  4335                           ; Regs used in ___fltol: [wreg+status,2+status,0]
  4336                           
  4337  15A9  1003               	clrc
  4338  15AA  0D72               	rlf	___fltol@f1+2,w
  4339  15AB  0D73               	rlf	___fltol@f1+3,w
  4340  15AC  00F4               	movwf	??___fltol
  4341  15AD  0874               	movf	??___fltol,w
  4342  15AE  00FA               	movwf	___fltol@exp1
  4343  15AF  087A               	movf	___fltol@exp1,w
  4344  15B0  1D03               	btfss	3,2
  4345  15B1  2DB3               	goto	u2921
  4346  15B2  2DB4               	goto	u2920
  4347  15B3                     u2921:
  4348  15B3  2DBD               	goto	l2562
  4349  15B4                     u2920:
  4350  15B4                     l2558:
  4351  15B4  3000               	movlw	0
  4352  15B5  00F3               	movwf	?___fltol+3
  4353  15B6  3000               	movlw	0
  4354  15B7  00F2               	movwf	?___fltol+2
  4355  15B8  3000               	movlw	0
  4356  15B9  00F1               	movwf	?___fltol+1
  4357  15BA  3000               	movlw	0
  4358  15BB  00F0               	movwf	?___fltol
  4359  15BC  2E22               	goto	l652
  4360  15BD                     l2562:
  4361  15BD  0870               	movf	___fltol@f1,w
  4362  15BE  00F4               	movwf	??___fltol
  4363  15BF  0871               	movf	___fltol@f1+1,w
  4364  15C0  00F5               	movwf	??___fltol+1
  4365  15C1  0872               	movf	___fltol@f1+2,w
  4366  15C2  00F6               	movwf	??___fltol+2
  4367  15C3  0873               	movf	___fltol@f1+3,w
  4368  15C4  00F7               	movwf	??___fltol+3
  4369  15C5  301F               	movlw	31
  4370  15C6                     u2935:
  4371  15C6  1003               	clrc
  4372  15C7  0CF7               	rrf	??___fltol+3,f
  4373  15C8  0CF6               	rrf	??___fltol+2,f
  4374  15C9  0CF5               	rrf	??___fltol+1,f
  4375  15CA  0CF4               	rrf	??___fltol,f
  4376  15CB                     u2930:
  4377  15CB  3EFF               	addlw	-1
  4378  15CC  1D03               	skipz
  4379  15CD  2DC6               	goto	u2935
  4380  15CE  0874               	movf	??___fltol,w
  4381  15CF  00F8               	movwf	??___fltol+4
  4382  15D0  0878               	movf	??___fltol+4,w
  4383  15D1  00F9               	movwf	___fltol@sign1
  4384  15D2                     l2564:
  4385  15D2  17F2               	bsf	___fltol@f1+2,7
  4386  15D3                     l2566:
  4387  15D3  30FF               	movlw	255
  4388  15D4  05F0               	andwf	___fltol@f1,f
  4389  15D5  30FF               	movlw	255
  4390  15D6  05F1               	andwf	___fltol@f1+1,f
  4391  15D7  30FF               	movlw	255
  4392  15D8  05F2               	andwf	___fltol@f1+2,f
  4393  15D9  3000               	movlw	0
  4394  15DA  05F3               	andwf	___fltol@f1+3,f
  4395  15DB                     l2568:
  4396  15DB  3096               	movlw	150
  4397  15DC  02FA               	subwf	___fltol@exp1,f
  4398  15DD                     l2570:
  4399  15DD  1FFA               	btfss	___fltol@exp1,7
  4400  15DE  2DE0               	goto	u2941
  4401  15DF  2DE1               	goto	u2940
  4402  15E0                     u2941:
  4403  15E0  2DFB               	goto	l2580
  4404  15E1                     u2940:
  4405  15E1                     l2572:
  4406  15E1  087A               	movf	___fltol@exp1,w
  4407  15E2  3A80               	xorlw	128
  4408  15E3  3E97               	addlw	151
  4409  15E4  1803               	skipnc
  4410  15E5  2DE7               	goto	u2951
  4411  15E6  2DE8               	goto	u2950
  4412  15E7                     u2951:
  4413  15E7  2DE9               	goto	l2578
  4414  15E8                     u2950:
  4415  15E8  2DB4               	goto	l2558
  4416  15E9                     l2578:
  4417  15E9  3001               	movlw	1
  4418  15EA                     u2965:
  4419  15EA  1003               	clrc
  4420  15EB  0CF3               	rrf	___fltol@f1+3,f
  4421  15EC  0CF2               	rrf	___fltol@f1+2,f
  4422  15ED  0CF1               	rrf	___fltol@f1+1,f
  4423  15EE  0CF0               	rrf	___fltol@f1,f
  4424  15EF  3EFF               	addlw	-1
  4425  15F0  1D03               	skipz
  4426  15F1  2DEA               	goto	u2965
  4427  15F2  3001               	movlw	1
  4428  15F3  00F4               	movwf	??___fltol
  4429  15F4  0874               	movf	??___fltol,w
  4430  15F5  07FA               	addwf	___fltol@exp1,f
  4431  15F6  1D03               	btfss	3,2
  4432  15F7  2DF9               	goto	u2971
  4433  15F8  2DFA               	goto	u2970
  4434  15F9                     u2971:
  4435  15F9  2DE9               	goto	l2578
  4436  15FA                     u2970:
  4437  15FA  2E12               	goto	l2588
  4438  15FB                     l2580:
  4439  15FB  3020               	movlw	32
  4440  15FC  027A               	subwf	___fltol@exp1,w
  4441  15FD  1C03               	skipc
  4442  15FE  2E00               	goto	u2981
  4443  15FF  2E01               	goto	u2980
  4444  1600                     u2981:
  4445  1600  2E0D               	goto	l659
  4446  1601                     u2980:
  4447  1601  2DB4               	goto	l2558
  4448  1602                     l2586:
  4449  1602  3001               	movlw	1
  4450  1603  00F4               	movwf	??___fltol
  4451  1604                     u2995:
  4452  1604  1003               	clrc
  4453  1605  0DF0               	rlf	___fltol@f1,f
  4454  1606  0DF1               	rlf	___fltol@f1+1,f
  4455  1607  0DF2               	rlf	___fltol@f1+2,f
  4456  1608  0DF3               	rlf	___fltol@f1+3,f
  4457  1609  0BF4               	decfsz	??___fltol,f
  4458  160A  2E04               	goto	u2995
  4459  160B  3001               	movlw	1
  4460  160C  02FA               	subwf	___fltol@exp1,f
  4461  160D                     l659:
  4462  160D  087A               	movf	___fltol@exp1,w
  4463  160E  1D03               	btfss	3,2
  4464  160F  2E11               	goto	u3001
  4465  1610  2E12               	goto	u3000
  4466  1611                     u3001:
  4467  1611  2E02               	goto	l2586
  4468  1612                     u3000:
  4469  1612                     l2588:
  4470  1612  0879               	movf	___fltol@sign1,w
  4471  1613  1903               	btfsc	3,2
  4472  1614  2E16               	goto	u3011
  4473  1615  2E17               	goto	u3010
  4474  1616                     u3011:
  4475  1616  2E22               	goto	l662
  4476  1617                     u3010:
  4477  1617                     l2590:
  4478  1617  09F0               	comf	___fltol@f1,f
  4479  1618  09F1               	comf	___fltol@f1+1,f
  4480  1619  09F2               	comf	___fltol@f1+2,f
  4481  161A  09F3               	comf	___fltol@f1+3,f
  4482  161B  0AF0               	incf	___fltol@f1,f
  4483  161C  1903               	skipnz
  4484  161D  0AF1               	incf	___fltol@f1+1,f
  4485  161E  1903               	skipnz
  4486  161F  0AF2               	incf	___fltol@f1+2,f
  4487  1620  1903               	skipnz
  4488  1621  0AF3               	incf	___fltol@f1+3,f
  4489  1622                     l662:
  4490  1622                     l652:
  4491  1622  0008               	return
  4492  1623                     __end_of___fltol:
  4493                           
  4494                           	psect	text11
  4495  133F                     __ptext11:	
  4496 ;; *************** function ___flsub *****************
  4497 ;; Defined at:
  4498 ;;		line 242 in file "C:\Program Files\Microchip\xc8\v2.32\pic\sources\c90\common\sprcadd.c"
  4499 ;; Parameters:    Size  Location     Type
  4500 ;;  a               4   38[BANK0 ] long 
  4501 ;;  b               4   42[BANK0 ] long 
  4502 ;; Auto vars:     Size  Location     Type
  4503 ;;		None
  4504 ;; Return value:  Size  Location     Type
  4505 ;;                  4   38[BANK0 ] long 
  4506 ;; Registers used:
  4507 ;;		wreg, status,2, status,0, btemp+1, pclath, cstack
  4508 ;; Tracked objects:
  4509 ;;		On entry : 0/0
  4510 ;;		On exit  : 0/0
  4511 ;;		Unchanged: 0/0
  4512 ;; Data sizes:     COMMON   BANK0   BANK1   BANK3   BANK2
  4513 ;;      Params:         0       8       0       0       0
  4514 ;;      Locals:         0       0       0       0       0
  4515 ;;      Temps:          0       0       0       0       0
  4516 ;;      Totals:         0       8       0       0       0
  4517 ;;Total ram usage:        8 bytes
  4518 ;; Hardware stack levels used: 1
  4519 ;; Hardware stack levels required when called: 1
  4520 ;; This function calls:
  4521 ;;		___fladd
  4522 ;; This function is called by:
  4523 ;;		_convert
  4524 ;; This function uses a non-reentrant model
  4525 ;;
  4526                           
  4527                           
  4528                           ;psect for function ___flsub
  4529  133F                     ___flsub:
  4530  133F                     l2592:	
  4531                           ;incstack = 0
  4532                           ; Regs used in ___flsub: [wreg+status,2+status,0+btemp+1+pclath+cstack]
  4533                           
  4534  133F  3080               	movlw	128
  4535  1340  1283               	bcf	3,5	;RP0=0, select bank0
  4536  1341  1303               	bcf	3,6	;RP1=0, select bank0
  4537  1342  06C9               	xorwf	___flsub@a+3,f
  4538  1343                     l2594:
  4539  1343  084D               	movf	___flsub@b+3,w
  4540  1344  00B5               	movwf	___fladd@b+3
  4541  1345  084C               	movf	___flsub@b+2,w
  4542  1346  00B4               	movwf	___fladd@b+2
  4543  1347  084B               	movf	___flsub@b+1,w
  4544  1348  00B3               	movwf	___fladd@b+1
  4545  1349  084A               	movf	___flsub@b,w
  4546  134A  00B2               	movwf	___fladd@b
  4547  134B  0849               	movf	___flsub@a+3,w
  4548  134C  00B9               	movwf	___fladd@a+3
  4549  134D  0848               	movf	___flsub@a+2,w
  4550  134E  00B8               	movwf	___fladd@a+2
  4551  134F  0847               	movf	___flsub@a+1,w
  4552  1350  00B7               	movwf	___fladd@a+1
  4553  1351  0846               	movf	___flsub@a,w
  4554  1352  00B6               	movwf	___fladd@a
  4555  1353  120A  158A  2184  160A  118A  	fcall	___fladd
  4556  1358  1283               	bcf	3,5	;RP0=0, select bank0
  4557  1359  1303               	bcf	3,6	;RP1=0, select bank0
  4558  135A  0835               	movf	?___fladd+3,w
  4559  135B  00C9               	movwf	?___flsub+3
  4560  135C  0834               	movf	?___fladd+2,w
  4561  135D  00C8               	movwf	?___flsub+2
  4562  135E  0833               	movf	?___fladd+1,w
  4563  135F  00C7               	movwf	?___flsub+1
  4564  1360  0832               	movf	?___fladd,w
  4565  1361  00C6               	movwf	?___flsub
  4566  1362                     l805:
  4567  1362  0008               	return
  4568  1363                     __end_of___flsub:
  4569                           
  4570                           	psect	text12
  4571  0984                     __ptext12:	
  4572 ;; *************** function ___fladd *****************
  4573 ;; Defined at:
  4574 ;;		line 10 in file "C:\Program Files\Microchip\xc8\v2.32\pic\sources\c90\common\sprcadd.c"
  4575 ;; Parameters:    Size  Location     Type
  4576 ;;  b               4   18[BANK0 ] long 
  4577 ;;  a               4   22[BANK0 ] long 
  4578 ;; Auto vars:     Size  Location     Type
  4579 ;;  grs             1   37[BANK0 ] unsigned char 
  4580 ;;  bexp            1   36[BANK0 ] unsigned char 
  4581 ;;  aexp            1   35[BANK0 ] unsigned char 
  4582 ;;  signs           1   34[BANK0 ] unsigned char 
  4583 ;; Return value:  Size  Location     Type
  4584 ;;                  4   18[BANK0 ] unsigned char 
  4585 ;; Registers used:
  4586 ;;		wreg, status,2, status,0, btemp+1
  4587 ;; Tracked objects:
  4588 ;;		On entry : 0/0
  4589 ;;		On exit  : 0/0
  4590 ;;		Unchanged: 0/0
  4591 ;; Data sizes:     COMMON   BANK0   BANK1   BANK3   BANK2
  4592 ;;      Params:         0       8       0       0       0
  4593 ;;      Locals:         0       4       0       0       0
  4594 ;;      Temps:          0       8       0       0       0
  4595 ;;      Totals:         0      20       0       0       0
  4596 ;;Total ram usage:       20 bytes
  4597 ;; Hardware stack levels used: 1
  4598 ;; This function calls:
  4599 ;;		Nothing
  4600 ;; This function is called by:
  4601 ;;		_main
  4602 ;;		___flsub
  4603 ;; This function uses a non-reentrant model
  4604 ;;
  4605                           
  4606                           
  4607                           ;psect for function ___fladd
  4608  0984                     ___fladd:
  4609  0984                     l2196:	
  4610                           ;incstack = 0
  4611                           ; Regs used in ___fladd: [wreg+status,2+status,0+btemp+1]
  4612                           
  4613  0984  1283               	bcf	3,5	;RP0=0, select bank0
  4614  0985  1303               	bcf	3,6	;RP1=0, select bank0
  4615  0986  0835               	movf	___fladd@b+3,w
  4616  0987  3980               	andlw	128
  4617  0988  00BA               	movwf	??___fladd
  4618  0989  083A               	movf	??___fladd,w
  4619  098A  00C2               	movwf	___fladd@signs
  4620  098B                     l2198:
  4621  098B  0835               	movf	___fladd@b+3,w
  4622  098C  00BA               	movwf	??___fladd
  4623  098D  073A               	addwf	??___fladd,w
  4624  098E  00BB               	movwf	??___fladd+1
  4625  098F  083B               	movf	??___fladd+1,w
  4626  0990  00C4               	movwf	___fladd@bexp
  4627  0991                     l2200:
  4628  0991  1FB4               	btfss	___fladd@b+2,7
  4629  0992  2994               	goto	u2101
  4630  0993  2995               	goto	u2100
  4631  0994                     u2101:
  4632  0994  2996               	goto	l2204
  4633  0995                     u2100:
  4634  0995                     l2202:
  4635  0995  1444               	bsf	___fladd@bexp,0
  4636  0996                     l2204:
  4637  0996  0844               	movf	___fladd@bexp,w
  4638  0997  1903               	btfsc	3,2
  4639  0998  299A               	goto	u2111
  4640  0999  299B               	goto	u2110
  4641  099A                     u2111:
  4642  099A  29AB               	goto	l2214
  4643  099B                     u2110:
  4644  099B                     l2206:
  4645  099B  0A44               	incf	___fladd@bexp,w
  4646  099C  1D03               	btfss	3,2
  4647  099D  299F               	goto	u2121
  4648  099E  29A0               	goto	u2120
  4649  099F                     u2121:
  4650  099F  29A8               	goto	l2210
  4651  09A0                     u2120:
  4652  09A0                     l2208:
  4653  09A0  3000               	movlw	0
  4654  09A1  00B5               	movwf	___fladd@b+3
  4655  09A2  3000               	movlw	0
  4656  09A3  00B4               	movwf	___fladd@b+2
  4657  09A4  3000               	movlw	0
  4658  09A5  00B3               	movwf	___fladd@b+1
  4659  09A6  3000               	movlw	0
  4660  09A7  00B2               	movwf	___fladd@b
  4661  09A8                     l2210:
  4662  09A8  17B4               	bsf	___fladd@b+2,7
  4663  09A9                     l2212:
  4664  09A9  01B5               	clrf	___fladd@b+3
  4665  09AA  29B3               	goto	l2216
  4666  09AB                     l2214:
  4667  09AB  3000               	movlw	0
  4668  09AC  00B5               	movwf	___fladd@b+3
  4669  09AD  3000               	movlw	0
  4670  09AE  00B4               	movwf	___fladd@b+2
  4671  09AF  3000               	movlw	0
  4672  09B0  00B3               	movwf	___fladd@b+1
  4673  09B1  3000               	movlw	0
  4674  09B2  00B2               	movwf	___fladd@b
  4675  09B3                     l2216:
  4676  09B3  0839               	movf	___fladd@a+3,w
  4677  09B4  3980               	andlw	128
  4678  09B5  00BA               	movwf	??___fladd
  4679  09B6  083A               	movf	??___fladd,w
  4680  09B7  00C3               	movwf	___fladd@aexp
  4681  09B8                     l2218:
  4682  09B8  0843               	movf	___fladd@aexp,w
  4683  09B9  0642               	xorwf	___fladd@signs,w
  4684  09BA  1903               	skipnz
  4685  09BB  29BD               	goto	u2131
  4686  09BC  29BE               	goto	u2130
  4687  09BD                     u2131:
  4688  09BD  29BF               	goto	l2222
  4689  09BE                     u2130:
  4690  09BE                     l2220:
  4691  09BE  1742               	bsf	___fladd@signs,6
  4692  09BF                     l2222:
  4693  09BF  0839               	movf	___fladd@a+3,w
  4694  09C0  00BA               	movwf	??___fladd
  4695  09C1  073A               	addwf	??___fladd,w
  4696  09C2  00BB               	movwf	??___fladd+1
  4697  09C3  083B               	movf	??___fladd+1,w
  4698  09C4  00C3               	movwf	___fladd@aexp
  4699  09C5                     l2224:
  4700  09C5  1FB8               	btfss	___fladd@a+2,7
  4701  09C6  29C8               	goto	u2141
  4702  09C7  29C9               	goto	u2140
  4703  09C8                     u2141:
  4704  09C8  29CA               	goto	l2228
  4705  09C9                     u2140:
  4706  09C9                     l2226:
  4707  09C9  1443               	bsf	___fladd@aexp,0
  4708  09CA                     l2228:
  4709  09CA  0843               	movf	___fladd@aexp,w
  4710  09CB  1903               	btfsc	3,2
  4711  09CC  29CE               	goto	u2151
  4712  09CD  29CF               	goto	u2150
  4713  09CE                     u2151:
  4714  09CE  29DF               	goto	l2238
  4715  09CF                     u2150:
  4716  09CF                     l2230:
  4717  09CF  0A43               	incf	___fladd@aexp,w
  4718  09D0  1D03               	btfss	3,2
  4719  09D1  29D3               	goto	u2161
  4720  09D2  29D4               	goto	u2160
  4721  09D3                     u2161:
  4722  09D3  29DC               	goto	l2234
  4723  09D4                     u2160:
  4724  09D4                     l2232:
  4725  09D4  3000               	movlw	0
  4726  09D5  00B9               	movwf	___fladd@a+3
  4727  09D6  3000               	movlw	0
  4728  09D7  00B8               	movwf	___fladd@a+2
  4729  09D8  3000               	movlw	0
  4730  09D9  00B7               	movwf	___fladd@a+1
  4731  09DA  3000               	movlw	0
  4732  09DB  00B6               	movwf	___fladd@a
  4733  09DC                     l2234:
  4734  09DC  17B8               	bsf	___fladd@a+2,7
  4735  09DD                     l2236:
  4736  09DD  01B9               	clrf	___fladd@a+3
  4737  09DE  29E7               	goto	l759
  4738  09DF                     l2238:
  4739  09DF  3000               	movlw	0
  4740  09E0  00B9               	movwf	___fladd@a+3
  4741  09E1  3000               	movlw	0
  4742  09E2  00B8               	movwf	___fladd@a+2
  4743  09E3  3000               	movlw	0
  4744  09E4  00B7               	movwf	___fladd@a+1
  4745  09E5  3000               	movlw	0
  4746  09E6  00B6               	movwf	___fladd@a
  4747  09E7                     l759:
  4748  09E7  0844               	movf	___fladd@bexp,w
  4749  09E8  0243               	subwf	___fladd@aexp,w
  4750  09E9  1803               	skipnc
  4751  09EA  29EC               	goto	u2171
  4752  09EB  29ED               	goto	u2170
  4753  09EC                     u2171:
  4754  09EC  2A31               	goto	l2274
  4755  09ED                     u2170:
  4756  09ED                     l2240:
  4757  09ED  1F42               	btfss	___fladd@signs,6
  4758  09EE  29F0               	goto	u2181
  4759  09EF  29F1               	goto	u2180
  4760  09F0                     u2181:
  4761  09F0  29F5               	goto	l2244
  4762  09F1                     u2180:
  4763  09F1                     l2242:
  4764  09F1  3080               	movlw	128
  4765  09F2  00BA               	movwf	??___fladd
  4766  09F3  083A               	movf	??___fladd,w
  4767  09F4  06C2               	xorwf	___fladd@signs,f
  4768  09F5                     l2244:
  4769  09F5  0844               	movf	___fladd@bexp,w
  4770  09F6  00BA               	movwf	??___fladd
  4771  09F7  083A               	movf	??___fladd,w
  4772  09F8  00C5               	movwf	___fladd@grs
  4773  09F9                     l2246:
  4774  09F9  0843               	movf	___fladd@aexp,w
  4775  09FA  00BA               	movwf	??___fladd
  4776  09FB  083A               	movf	??___fladd,w
  4777  09FC  00C4               	movwf	___fladd@bexp
  4778  09FD                     l2248:
  4779  09FD  0845               	movf	___fladd@grs,w
  4780  09FE  00BA               	movwf	??___fladd
  4781  09FF  083A               	movf	??___fladd,w
  4782  0A00  00C3               	movwf	___fladd@aexp
  4783  0A01                     l2250:
  4784  0A01  0832               	movf	___fladd@b,w
  4785  0A02  00BA               	movwf	??___fladd
  4786  0A03  083A               	movf	??___fladd,w
  4787  0A04  00C5               	movwf	___fladd@grs
  4788  0A05                     l2252:
  4789  0A05  0836               	movf	___fladd@a,w
  4790  0A06  00BA               	movwf	??___fladd
  4791  0A07  083A               	movf	??___fladd,w
  4792  0A08  00B2               	movwf	___fladd@b
  4793  0A09                     l2254:
  4794  0A09  0845               	movf	___fladd@grs,w
  4795  0A0A  00BA               	movwf	??___fladd
  4796  0A0B  083A               	movf	??___fladd,w
  4797  0A0C  00B6               	movwf	___fladd@a
  4798  0A0D                     l2256:
  4799  0A0D  0833               	movf	___fladd@b+1,w
  4800  0A0E  00BA               	movwf	??___fladd
  4801  0A0F  083A               	movf	??___fladd,w
  4802  0A10  00C5               	movwf	___fladd@grs
  4803  0A11                     l2258:
  4804  0A11  0837               	movf	___fladd@a+1,w
  4805  0A12  00BA               	movwf	??___fladd
  4806  0A13  083A               	movf	??___fladd,w
  4807  0A14  00B3               	movwf	___fladd@b+1
  4808  0A15                     l2260:
  4809  0A15  0845               	movf	___fladd@grs,w
  4810  0A16  00BA               	movwf	??___fladd
  4811  0A17  083A               	movf	??___fladd,w
  4812  0A18  00B7               	movwf	___fladd@a+1
  4813  0A19                     l2262:
  4814  0A19  0834               	movf	___fladd@b+2,w
  4815  0A1A  00BA               	movwf	??___fladd
  4816  0A1B  083A               	movf	??___fladd,w
  4817  0A1C  00C5               	movwf	___fladd@grs
  4818  0A1D                     l2264:
  4819  0A1D  0838               	movf	___fladd@a+2,w
  4820  0A1E  00BA               	movwf	??___fladd
  4821  0A1F  083A               	movf	??___fladd,w
  4822  0A20  00B4               	movwf	___fladd@b+2
  4823  0A21                     l2266:
  4824  0A21  0845               	movf	___fladd@grs,w
  4825  0A22  00BA               	movwf	??___fladd
  4826  0A23  083A               	movf	??___fladd,w
  4827  0A24  00B8               	movwf	___fladd@a+2
  4828  0A25                     l2268:
  4829  0A25  0835               	movf	___fladd@b+3,w
  4830  0A26  00BA               	movwf	??___fladd
  4831  0A27  083A               	movf	??___fladd,w
  4832  0A28  00C5               	movwf	___fladd@grs
  4833  0A29                     l2270:
  4834  0A29  0839               	movf	___fladd@a+3,w
  4835  0A2A  00BA               	movwf	??___fladd
  4836  0A2B  083A               	movf	??___fladd,w
  4837  0A2C  00B5               	movwf	___fladd@b+3
  4838  0A2D                     l2272:
  4839  0A2D  0845               	movf	___fladd@grs,w
  4840  0A2E  00BA               	movwf	??___fladd
  4841  0A2F  083A               	movf	??___fladd,w
  4842  0A30  00B9               	movwf	___fladd@a+3
  4843  0A31                     l2274:
  4844  0A31  01C5               	clrf	___fladd@grs
  4845  0A32                     l2276:
  4846  0A32  0843               	movf	___fladd@aexp,w
  4847  0A33  00BA               	movwf	??___fladd
  4848  0A34  01BB               	clrf	??___fladd+1
  4849  0A35  083B               	movf	??___fladd+1,w
  4850  0A36  00BD               	movwf	??___fladd+3
  4851  0A37  0844               	movf	___fladd@bexp,w
  4852  0A38  023A               	subwf	??___fladd,w
  4853  0A39  00BC               	movwf	??___fladd+2
  4854  0A3A  1C03               	skipc
  4855  0A3B  03BD               	decf	??___fladd+3,f
  4856  0A3C  083D               	movf	??___fladd+3,w
  4857  0A3D  3A80               	xorlw	128
  4858  0A3E  00FF               	movwf	btemp+1
  4859  0A3F  3080               	movlw	128
  4860  0A40  027F               	subwf	btemp+1,w
  4861  0A41  1D03               	skipz
  4862  0A42  2A45               	goto	u2195
  4863  0A43  301A               	movlw	26
  4864  0A44  023C               	subwf	??___fladd+2,w
  4865  0A45                     u2195:
  4866  0A45  1C03               	skipc
  4867  0A46  2A48               	goto	u2191
  4868  0A47  2A49               	goto	u2190
  4869  0A48                     u2191:
  4870  0A48  2A86               	goto	l2292
  4871  0A49                     u2190:
  4872  0A49                     l2278:
  4873  0A49  1283               	bcf	3,5	;RP0=0, select bank0
  4874  0A4A  1303               	bcf	3,6	;RP1=0, select bank0
  4875  0A4B  0835               	movf	___fladd@b+3,w
  4876  0A4C  0434               	iorwf	___fladd@b+2,w
  4877  0A4D  0433               	iorwf	___fladd@b+1,w
  4878  0A4E  0432               	iorwf	___fladd@b,w
  4879  0A4F  1D03               	skipz
  4880  0A50  2A52               	goto	u2201
  4881  0A51  2A54               	goto	u2200
  4882  0A52                     u2201:
  4883  0A52  3001               	movlw	1
  4884  0A53  2A55               	goto	u2210
  4885  0A54                     u2200:
  4886  0A54  3000               	movlw	0
  4887  0A55                     u2210:
  4888  0A55  00BA               	movwf	??___fladd
  4889  0A56  083A               	movf	??___fladd,w
  4890  0A57  00C5               	movwf	___fladd@grs
  4891  0A58  3000               	movlw	0
  4892  0A59  00B5               	movwf	___fladd@b+3
  4893  0A5A  3000               	movlw	0
  4894  0A5B  00B4               	movwf	___fladd@b+2
  4895  0A5C  3000               	movlw	0
  4896  0A5D  00B3               	movwf	___fladd@b+1
  4897  0A5E  3000               	movlw	0
  4898  0A5F  00B2               	movwf	___fladd@b
  4899  0A60  0843               	movf	___fladd@aexp,w
  4900  0A61  00BA               	movwf	??___fladd
  4901  0A62  083A               	movf	??___fladd,w
  4902  0A63  00C4               	movwf	___fladd@bexp
  4903  0A64  2A8E               	goto	l763
  4904  0A65                     l765:
  4905  0A65  1C45               	btfss	___fladd@grs,0
  4906  0A66  2A68               	goto	u2221
  4907  0A67  2A69               	goto	u2220
  4908  0A68                     u2221:
  4909  0A68  2A72               	goto	l2282
  4910  0A69                     u2220:
  4911  0A69                     l2280:
  4912  0A69  0845               	movf	___fladd@grs,w
  4913  0A6A  00BA               	movwf	??___fladd
  4914  0A6B  1003               	clrc
  4915  0A6C  0C3A               	rrf	??___fladd,w
  4916  0A6D  3801               	iorlw	1
  4917  0A6E  00BB               	movwf	??___fladd+1
  4918  0A6F  083B               	movf	??___fladd+1,w
  4919  0A70  00C5               	movwf	___fladd@grs
  4920  0A71  2A74               	goto	l2284
  4921  0A72                     l2282:
  4922  0A72  1003               	clrc
  4923  0A73  0CC5               	rrf	___fladd@grs,f
  4924  0A74                     l2284:
  4925  0A74  1C32               	btfss	___fladd@b,0
  4926  0A75  2A77               	goto	u2231
  4927  0A76  2A78               	goto	u2230
  4928  0A77                     u2231:
  4929  0A77  2A79               	goto	l2288
  4930  0A78                     u2230:
  4931  0A78                     l2286:
  4932  0A78  17C5               	bsf	___fladd@grs,7
  4933  0A79                     l2288:
  4934  0A79  3001               	movlw	1
  4935  0A7A  00BA               	movwf	??___fladd
  4936  0A7B                     u2245:
  4937  0A7B  0D35               	rlf	___fladd@b+3,w
  4938  0A7C  0CB5               	rrf	___fladd@b+3,f
  4939  0A7D  0CB4               	rrf	___fladd@b+2,f
  4940  0A7E  0CB3               	rrf	___fladd@b+1,f
  4941  0A7F  0CB2               	rrf	___fladd@b,f
  4942  0A80  0BBA               	decfsz	??___fladd& (0+127),f
  4943  0A81  2A7B               	goto	u2245
  4944  0A82                     l2290:
  4945  0A82  3001               	movlw	1
  4946  0A83  00BA               	movwf	??___fladd
  4947  0A84  083A               	movf	??___fladd,w
  4948  0A85  07C4               	addwf	___fladd@bexp,f
  4949  0A86                     l2292:
  4950  0A86  1283               	bcf	3,5	;RP0=0, select bank0
  4951  0A87  1303               	bcf	3,6	;RP1=0, select bank0
  4952  0A88  0843               	movf	___fladd@aexp,w
  4953  0A89  0244               	subwf	___fladd@bexp,w
  4954  0A8A  1C03               	skipc
  4955  0A8B  2A8D               	goto	u2251
  4956  0A8C  2A8E               	goto	u2250
  4957  0A8D                     u2251:
  4958  0A8D  2A65               	goto	l765
  4959  0A8E                     u2250:
  4960  0A8E                     l763:
  4961  0A8E  1B42               	btfsc	___fladd@signs,6
  4962  0A8F  2A91               	goto	u2261
  4963  0A90  2A92               	goto	u2260
  4964  0A91                     u2261:
  4965  0A91  2ADD               	goto	l2318
  4966  0A92                     u2260:
  4967  0A92                     l2294:
  4968  0A92  0844               	movf	___fladd@bexp,w
  4969  0A93  1D03               	btfss	3,2
  4970  0A94  2A96               	goto	u2271
  4971  0A95  2A97               	goto	u2270
  4972  0A96                     u2271:
  4973  0A96  2AA0               	goto	l2300
  4974  0A97                     u2270:
  4975  0A97                     l2296:
  4976  0A97  3000               	movlw	0
  4977  0A98  00B5               	movwf	?___fladd+3
  4978  0A99  3000               	movlw	0
  4979  0A9A  00B4               	movwf	?___fladd+2
  4980  0A9B  3000               	movlw	0
  4981  0A9C  00B3               	movwf	?___fladd+1
  4982  0A9D  3000               	movlw	0
  4983  0A9E  00B2               	movwf	?___fladd
  4984  0A9F  2C0B               	goto	l772
  4985  0AA0                     l2300:
  4986  0AA0  0836               	movf	___fladd@a,w
  4987  0AA1  07B2               	addwf	___fladd@b,f
  4988  0AA2  0837               	movf	___fladd@a+1,w
  4989  0AA3  1103               	clrz
  4990  0AA4  1803               	skipnc
  4991  0AA5  3E01               	addlw	1
  4992  0AA6  1903               	skipnz
  4993  0AA7  2AA9               	goto	u2281
  4994  0AA8  07B3               	addwf	___fladd@b+1,f
  4995  0AA9                     u2281:
  4996  0AA9  0838               	movf	___fladd@a+2,w
  4997  0AAA  1103               	clrz
  4998  0AAB  1803               	skipnc
  4999  0AAC  3E01               	addlw	1
  5000  0AAD  1903               	skipnz
  5001  0AAE  2AB0               	goto	u2282
  5002  0AAF  07B4               	addwf	___fladd@b+2,f
  5003  0AB0                     u2282:
  5004  0AB0  0839               	movf	___fladd@a+3,w
  5005  0AB1  1103               	clrz
  5006  0AB2  1803               	skipnc
  5007  0AB3  3E01               	addlw	1
  5008  0AB4  1903               	skipnz
  5009  0AB5  2AB7               	goto	u2283
  5010  0AB6  07B5               	addwf	___fladd@b+3,f
  5011  0AB7                     u2283:
  5012  0AB7                     l2302:
  5013  0AB7  1C35               	btfss	___fladd@b+3,0
  5014  0AB8  2ABA               	goto	u2291
  5015  0AB9  2ABB               	goto	u2290
  5016  0ABA                     u2291:
  5017  0ABA  2B91               	goto	l2352
  5018  0ABB                     u2290:
  5019  0ABB                     l2304:
  5020  0ABB  1C45               	btfss	___fladd@grs,0
  5021  0ABC  2ABE               	goto	u2301
  5022  0ABD  2ABF               	goto	u2300
  5023  0ABE                     u2301:
  5024  0ABE  2AC8               	goto	l2308
  5025  0ABF                     u2300:
  5026  0ABF                     l2306:
  5027  0ABF  0845               	movf	___fladd@grs,w
  5028  0AC0  00BA               	movwf	??___fladd
  5029  0AC1  1003               	clrc
  5030  0AC2  0C3A               	rrf	??___fladd,w
  5031  0AC3  3801               	iorlw	1
  5032  0AC4  00BB               	movwf	??___fladd+1
  5033  0AC5  083B               	movf	??___fladd+1,w
  5034  0AC6  00C5               	movwf	___fladd@grs
  5035  0AC7  2ACA               	goto	l2310
  5036  0AC8                     l2308:
  5037  0AC8  1003               	clrc
  5038  0AC9  0CC5               	rrf	___fladd@grs,f
  5039  0ACA                     l2310:
  5040  0ACA  1C32               	btfss	___fladd@b,0
  5041  0ACB  2ACD               	goto	u2311
  5042  0ACC  2ACE               	goto	u2310
  5043  0ACD                     u2311:
  5044  0ACD  2ACF               	goto	l2314
  5045  0ACE                     u2310:
  5046  0ACE                     l2312:
  5047  0ACE  17C5               	bsf	___fladd@grs,7
  5048  0ACF                     l2314:
  5049  0ACF  3001               	movlw	1
  5050  0AD0  00BA               	movwf	??___fladd
  5051  0AD1                     u2325:
  5052  0AD1  0D35               	rlf	___fladd@b+3,w
  5053  0AD2  0CB5               	rrf	___fladd@b+3,f
  5054  0AD3  0CB4               	rrf	___fladd@b+2,f
  5055  0AD4  0CB3               	rrf	___fladd@b+1,f
  5056  0AD5  0CB2               	rrf	___fladd@b,f
  5057  0AD6  0BBA               	decfsz	??___fladd& (0+127),f
  5058  0AD7  2AD1               	goto	u2325
  5059  0AD8                     l2316:
  5060  0AD8  3001               	movlw	1
  5061  0AD9  00BA               	movwf	??___fladd
  5062  0ADA  083A               	movf	??___fladd,w
  5063  0ADB  07C4               	addwf	___fladd@bexp,f
  5064  0ADC  2B91               	goto	l2352
  5065  0ADD                     l2318:
  5066  0ADD  0835               	movf	___fladd@b+3,w
  5067  0ADE  3A80               	xorlw	128
  5068  0ADF  00FF               	movwf	btemp+1
  5069  0AE0  0839               	movf	___fladd@a+3,w
  5070  0AE1  3A80               	xorlw	128
  5071  0AE2  027F               	subwf	btemp+1,w
  5072  0AE3  1D03               	skipz
  5073  0AE4  2AEF               	goto	u2333
  5074  0AE5  0838               	movf	___fladd@a+2,w
  5075  0AE6  0234               	subwf	___fladd@b+2,w
  5076  0AE7  1D03               	skipz
  5077  0AE8  2AEF               	goto	u2333
  5078  0AE9  0837               	movf	___fladd@a+1,w
  5079  0AEA  0233               	subwf	___fladd@b+1,w
  5080  0AEB  1D03               	skipz
  5081  0AEC  2AEF               	goto	u2333
  5082  0AED  0836               	movf	___fladd@a,w
  5083  0AEE  0232               	subwf	___fladd@b,w
  5084  0AEF                     u2333:
  5085  0AEF  1803               	skipnc
  5086  0AF0  2AF2               	goto	u2331
  5087  0AF1  2AF3               	goto	u2330
  5088  0AF2                     u2331:
  5089  0AF2  2B4B               	goto	l2328
  5090  0AF3                     u2330:
  5091  0AF3                     l2320:
  5092  0AF3  30FF               	movlw	255
  5093  0AF4  00BA               	movwf	??___fladd
  5094  0AF5  30FF               	movlw	255
  5095  0AF6  00BB               	movwf	??___fladd+1
  5096  0AF7  30FF               	movlw	255
  5097  0AF8  00BC               	movwf	??___fladd+2
  5098  0AF9  30FF               	movlw	255
  5099  0AFA  00BD               	movwf	??___fladd+3
  5100  0AFB  0836               	movf	___fladd@a,w
  5101  0AFC  00BE               	movwf	??___fladd+4
  5102  0AFD  0837               	movf	___fladd@a+1,w
  5103  0AFE  00BF               	movwf	??___fladd+5
  5104  0AFF  0838               	movf	___fladd@a+2,w
  5105  0B00  00C0               	movwf	??___fladd+6
  5106  0B01  0839               	movf	___fladd@a+3,w
  5107  0B02  00C1               	movwf	??___fladd+7
  5108  0B03  0832               	movf	___fladd@b,w
  5109  0B04  02BE               	subwf	??___fladd+4,f
  5110  0B05  0833               	movf	___fladd@b+1,w
  5111  0B06  1C03               	skipc
  5112  0B07  0F33               	incfsz	___fladd@b+1,w
  5113  0B08  2B0A               	goto	u2341
  5114  0B09  2B0B               	goto	u2342
  5115  0B0A                     u2341:
  5116  0B0A  02BF               	subwf	??___fladd+5,f
  5117  0B0B                     u2342:
  5118  0B0B  0834               	movf	___fladd@b+2,w
  5119  0B0C  1C03               	skipc
  5120  0B0D  0F34               	incfsz	___fladd@b+2,w
  5121  0B0E  2B10               	goto	u2343
  5122  0B0F  2B11               	goto	u2344
  5123  0B10                     u2343:
  5124  0B10  02C0               	subwf	??___fladd+6,f
  5125  0B11                     u2344:
  5126  0B11  0835               	movf	___fladd@b+3,w
  5127  0B12  1C03               	skipc
  5128  0B13  0F35               	incfsz	___fladd@b+3,w
  5129  0B14  2B16               	goto	u2345
  5130  0B15  2B17               	goto	u2346
  5131  0B16                     u2345:
  5132  0B16  02C1               	subwf	??___fladd+7,f
  5133  0B17                     u2346:
  5134  0B17  083E               	movf	??___fladd+4,w
  5135  0B18  07BA               	addwf	??___fladd,f
  5136  0B19  083F               	movf	??___fladd+5,w
  5137  0B1A  1803               	skipnc
  5138  0B1B  0F3F               	incfsz	??___fladd+5,w
  5139  0B1C  2B1E               	goto	u2350
  5140  0B1D  2B1F               	goto	u2351
  5141  0B1E                     u2350:
  5142  0B1E  07BB               	addwf	??___fladd+1,f
  5143  0B1F                     u2351:
  5144  0B1F  0840               	movf	??___fladd+6,w
  5145  0B20  1803               	skipnc
  5146  0B21  0F40               	incfsz	??___fladd+6,w
  5147  0B22  2B24               	goto	u2352
  5148  0B23  2B25               	goto	u2353
  5149  0B24                     u2352:
  5150  0B24  07BC               	addwf	??___fladd+2,f
  5151  0B25                     u2353:
  5152  0B25  0841               	movf	??___fladd+7,w
  5153  0B26  1803               	skipnc
  5154  0B27  0A41               	incf	??___fladd+7,w
  5155  0B28  07BD               	addwf	??___fladd+3,f
  5156  0B29  083D               	movf	??___fladd+3,w
  5157  0B2A  00B5               	movwf	___fladd@b+3
  5158  0B2B  083C               	movf	??___fladd+2,w
  5159  0B2C  00B4               	movwf	___fladd@b+2
  5160  0B2D  083B               	movf	??___fladd+1,w
  5161  0B2E  00B3               	movwf	___fladd@b+1
  5162  0B2F  083A               	movf	??___fladd,w
  5163  0B30  00B2               	movwf	___fladd@b
  5164  0B31                     l2322:
  5165  0B31  3080               	movlw	128
  5166  0B32  00BA               	movwf	??___fladd
  5167  0B33  083A               	movf	??___fladd,w
  5168  0B34  06C2               	xorwf	___fladd@signs,f
  5169  0B35  09C5               	comf	___fladd@grs,f
  5170  0B36  0AC5               	incf	___fladd@grs,f
  5171  0B37                     l2324:
  5172  0B37  0845               	movf	___fladd@grs,w
  5173  0B38  1D03               	btfss	3,2
  5174  0B39  2B3B               	goto	u2361
  5175  0B3A  2B3C               	goto	u2360
  5176  0B3B                     u2361:
  5177  0B3B  2B59               	goto	l780
  5178  0B3C                     u2360:
  5179  0B3C                     l2326:
  5180  0B3C  3001               	movlw	1
  5181  0B3D  07B2               	addwf	___fladd@b,f
  5182  0B3E  3000               	movlw	0
  5183  0B3F  1803               	skipnc
  5184  0B40  3001               	movlw	1
  5185  0B41  07B3               	addwf	___fladd@b+1,f
  5186  0B42  3000               	movlw	0
  5187  0B43  1803               	skipnc
  5188  0B44  3001               	movlw	1
  5189  0B45  07B4               	addwf	___fladd@b+2,f
  5190  0B46  3000               	movlw	0
  5191  0B47  1803               	skipnc
  5192  0B48  3001               	movlw	1
  5193  0B49  07B5               	addwf	___fladd@b+3,f
  5194  0B4A  2B59               	goto	l780
  5195  0B4B                     l2328:
  5196  0B4B  0836               	movf	___fladd@a,w
  5197  0B4C  02B2               	subwf	___fladd@b,f
  5198  0B4D  0837               	movf	___fladd@a+1,w
  5199  0B4E  1C03               	skipc
  5200  0B4F  0F37               	incfsz	___fladd@a+1,w
  5201  0B50  02B3               	subwf	___fladd@b+1,f
  5202  0B51  0838               	movf	___fladd@a+2,w
  5203  0B52  1C03               	skipc
  5204  0B53  0F38               	incfsz	___fladd@a+2,w
  5205  0B54  02B4               	subwf	___fladd@b+2,f
  5206  0B55  0839               	movf	___fladd@a+3,w
  5207  0B56  1C03               	skipc
  5208  0B57  0F39               	incfsz	___fladd@a+3,w
  5209  0B58  02B5               	subwf	___fladd@b+3,f
  5210  0B59                     l780:
  5211  0B59  0835               	movf	___fladd@b+3,w
  5212  0B5A  0434               	iorwf	___fladd@b+2,w
  5213  0B5B  0433               	iorwf	___fladd@b+1,w
  5214  0B5C  0432               	iorwf	___fladd@b,w
  5215  0B5D  1D03               	skipz
  5216  0B5E  2B60               	goto	u2371
  5217  0B5F  2B61               	goto	u2370
  5218  0B60                     u2371:
  5219  0B60  2B8D               	goto	l2350
  5220  0B61                     u2370:
  5221  0B61                     l2330:
  5222  0B61  0845               	movf	___fladd@grs,w
  5223  0B62  1D03               	btfss	3,2
  5224  0B63  2B65               	goto	u2381
  5225  0B64  2B66               	goto	u2380
  5226  0B65                     u2381:
  5227  0B65  2B8D               	goto	l2350
  5228  0B66                     u2380:
  5229  0B66                     l2332:
  5230  0B66  3000               	movlw	0
  5231  0B67  00B5               	movwf	?___fladd+3
  5232  0B68  3000               	movlw	0
  5233  0B69  00B4               	movwf	?___fladd+2
  5234  0B6A  3000               	movlw	0
  5235  0B6B  00B3               	movwf	?___fladd+1
  5236  0B6C  3000               	movlw	0
  5237  0B6D  00B2               	movwf	?___fladd
  5238  0B6E  2C0B               	goto	l772
  5239  0B6F                     l2336:
  5240  0B6F  3001               	movlw	1
  5241  0B70  00BA               	movwf	??___fladd
  5242  0B71                     u2395:
  5243  0B71  1003               	clrc
  5244  0B72  0DB2               	rlf	___fladd@b,f
  5245  0B73  0DB3               	rlf	___fladd@b+1,f
  5246  0B74  0DB4               	rlf	___fladd@b+2,f
  5247  0B75  0DB5               	rlf	___fladd@b+3,f
  5248  0B76  0BBA               	decfsz	??___fladd,f
  5249  0B77  2B71               	goto	u2395
  5250  0B78                     l2338:
  5251  0B78  1FC5               	btfss	___fladd@grs,7
  5252  0B79  2B7B               	goto	u2401
  5253  0B7A  2B7C               	goto	u2400
  5254  0B7B                     u2401:
  5255  0B7B  2B7D               	goto	l784
  5256  0B7C                     u2400:
  5257  0B7C                     l2340:
  5258  0B7C  1432               	bsf	___fladd@b,0
  5259  0B7D                     l784:
  5260  0B7D  1C45               	btfss	___fladd@grs,0
  5261  0B7E  2B80               	goto	u2411
  5262  0B7F  2B81               	goto	u2410
  5263  0B80                     u2411:
  5264  0B80  2B84               	goto	l2344
  5265  0B81                     u2410:
  5266  0B81                     l2342:
  5267  0B81  1403               	setc
  5268  0B82  0DC5               	rlf	___fladd@grs,f
  5269  0B83  2B86               	goto	l2346
  5270  0B84                     l2344:
  5271  0B84  1003               	clrc
  5272  0B85  0DC5               	rlf	___fladd@grs,f
  5273  0B86                     l2346:
  5274  0B86  0844               	movf	___fladd@bexp,w
  5275  0B87  1903               	btfsc	3,2
  5276  0B88  2B8A               	goto	u2421
  5277  0B89  2B8B               	goto	u2420
  5278  0B8A                     u2421:
  5279  0B8A  2B8D               	goto	l2350
  5280  0B8B                     u2420:
  5281  0B8B                     l2348:
  5282  0B8B  3001               	movlw	1
  5283  0B8C  02C4               	subwf	___fladd@bexp,f
  5284  0B8D                     l2350:
  5285  0B8D  1FB4               	btfss	___fladd@b+2,7
  5286  0B8E  2B90               	goto	u2431
  5287  0B8F  2B91               	goto	u2430
  5288  0B90                     u2431:
  5289  0B90  2B6F               	goto	l2336
  5290  0B91                     u2430:
  5291  0B91                     l2352:
  5292  0B91  01C3               	clrf	___fladd@aexp
  5293  0B92                     l2354:
  5294  0B92  1FC5               	btfss	___fladd@grs,7
  5295  0B93  2B95               	goto	u2441
  5296  0B94  2B96               	goto	u2440
  5297  0B95                     u2441:
  5298  0B95  2BA4               	goto	l2362
  5299  0B96                     u2440:
  5300  0B96                     l2356:
  5301  0B96  0845               	movf	___fladd@grs,w
  5302  0B97  397F               	andlw	127
  5303  0B98  1903               	btfsc	3,2
  5304  0B99  2B9B               	goto	u2451
  5305  0B9A  2B9C               	goto	u2450
  5306  0B9B                     u2451:
  5307  0B9B  2B9F               	goto	l790
  5308  0B9C                     u2450:
  5309  0B9C                     l2358:
  5310  0B9C  01C3               	clrf	___fladd@aexp
  5311  0B9D  0AC3               	incf	___fladd@aexp,f
  5312  0B9E  2BA4               	goto	l2362
  5313  0B9F                     l790:
  5314  0B9F  1C32               	btfss	___fladd@b,0
  5315  0BA0  2BA2               	goto	u2461
  5316  0BA1  2BA3               	goto	u2460
  5317  0BA2                     u2461:
  5318  0BA2  2BA4               	goto	l2362
  5319  0BA3                     u2460:
  5320  0BA3  2B9C               	goto	l2358
  5321  0BA4                     l2362:
  5322  0BA4  0843               	movf	___fladd@aexp,w
  5323  0BA5  1903               	btfsc	3,2
  5324  0BA6  2BA8               	goto	u2471
  5325  0BA7  2BA9               	goto	u2470
  5326  0BA8                     u2471:
  5327  0BA8  2BDD               	goto	l793
  5328  0BA9                     u2470:
  5329  0BA9                     l2364:
  5330  0BA9  3001               	movlw	1
  5331  0BAA  07B2               	addwf	___fladd@b,f
  5332  0BAB  3000               	movlw	0
  5333  0BAC  1803               	skipnc
  5334  0BAD  3001               	movlw	1
  5335  0BAE  07B3               	addwf	___fladd@b+1,f
  5336  0BAF  3000               	movlw	0
  5337  0BB0  1803               	skipnc
  5338  0BB1  3001               	movlw	1
  5339  0BB2  07B4               	addwf	___fladd@b+2,f
  5340  0BB3  3000               	movlw	0
  5341  0BB4  1803               	skipnc
  5342  0BB5  3001               	movlw	1
  5343  0BB6  07B5               	addwf	___fladd@b+3,f
  5344  0BB7                     l2366:
  5345  0BB7  1C35               	btfss	___fladd@b+3,0
  5346  0BB8  2BBA               	goto	u2481
  5347  0BB9  2BBB               	goto	u2480
  5348  0BBA                     u2481:
  5349  0BBA  2BDD               	goto	l793
  5350  0BBB                     u2480:
  5351  0BBB                     l2368:
  5352  0BBB  0832               	movf	___fladd@b,w
  5353  0BBC  00BA               	movwf	??___fladd
  5354  0BBD  0833               	movf	___fladd@b+1,w
  5355  0BBE  00BB               	movwf	??___fladd+1
  5356  0BBF  0834               	movf	___fladd@b+2,w
  5357  0BC0  00BC               	movwf	??___fladd+2
  5358  0BC1  0835               	movf	___fladd@b+3,w
  5359  0BC2  00BD               	movwf	??___fladd+3
  5360  0BC3  3001               	movlw	1
  5361  0BC4  00BE               	movwf	??___fladd+4
  5362  0BC5                     u2495:
  5363  0BC5  0D3D               	rlf	??___fladd+3,w
  5364  0BC6  0CBD               	rrf	??___fladd+3,f
  5365  0BC7  0CBC               	rrf	??___fladd+2,f
  5366  0BC8  0CBB               	rrf	??___fladd+1,f
  5367  0BC9  0CBA               	rrf	??___fladd,f
  5368  0BCA                     u2490:
  5369  0BCA  0BBE               	decfsz	??___fladd+4,f
  5370  0BCB  2BC5               	goto	u2495
  5371  0BCC  083D               	movf	??___fladd+3,w
  5372  0BCD  00B5               	movwf	___fladd@b+3
  5373  0BCE  083C               	movf	??___fladd+2,w
  5374  0BCF  00B4               	movwf	___fladd@b+2
  5375  0BD0  083B               	movf	??___fladd+1,w
  5376  0BD1  00B3               	movwf	___fladd@b+1
  5377  0BD2  083A               	movf	??___fladd,w
  5378  0BD3  00B2               	movwf	___fladd@b
  5379  0BD4  0A44               	incf	___fladd@bexp,w
  5380  0BD5  1903               	btfsc	3,2
  5381  0BD6  2BD8               	goto	u2501
  5382  0BD7  2BD9               	goto	u2500
  5383  0BD8                     u2501:
  5384  0BD8  2BDD               	goto	l793
  5385  0BD9                     u2500:
  5386  0BD9                     l2370:
  5387  0BD9  3001               	movlw	1
  5388  0BDA  00BA               	movwf	??___fladd
  5389  0BDB  083A               	movf	??___fladd,w
  5390  0BDC  07C4               	addwf	___fladd@bexp,f
  5391  0BDD                     l793:
  5392  0BDD  0A44               	incf	___fladd@bexp,w
  5393  0BDE  1903               	btfsc	3,2
  5394  0BDF  2BE1               	goto	u2511
  5395  0BE0  2BE2               	goto	u2510
  5396  0BE1                     u2511:
  5397  0BE1  2BE7               	goto	l2374
  5398  0BE2                     u2510:
  5399  0BE2                     l2372:
  5400  0BE2  0844               	movf	___fladd@bexp,w
  5401  0BE3  1D03               	btfss	3,2
  5402  0BE4  2BE6               	goto	u2521
  5403  0BE5  2BE7               	goto	u2520
  5404  0BE6                     u2521:
  5405  0BE6  2BF5               	goto	l2380
  5406  0BE7                     u2520:
  5407  0BE7                     l2374:
  5408  0BE7  3000               	movlw	0
  5409  0BE8  00B5               	movwf	___fladd@b+3
  5410  0BE9  3000               	movlw	0
  5411  0BEA  00B4               	movwf	___fladd@b+2
  5412  0BEB  3000               	movlw	0
  5413  0BEC  00B3               	movwf	___fladd@b+1
  5414  0BED  3000               	movlw	0
  5415  0BEE  00B2               	movwf	___fladd@b
  5416  0BEF                     l2376:
  5417  0BEF  0844               	movf	___fladd@bexp,w
  5418  0BF0  1D03               	btfss	3,2
  5419  0BF1  2BF3               	goto	u2531
  5420  0BF2  2BF4               	goto	u2530
  5421  0BF3                     u2531:
  5422  0BF3  2BF5               	goto	l2380
  5423  0BF4                     u2530:
  5424  0BF4                     l2378:
  5425  0BF4  01C2               	clrf	___fladd@signs
  5426  0BF5                     l2380:
  5427  0BF5  1C44               	btfss	___fladd@bexp,0
  5428  0BF6  2BF8               	goto	u2541
  5429  0BF7  2BF9               	goto	u2540
  5430  0BF8                     u2541:
  5431  0BF8  2BFB               	goto	l2384
  5432  0BF9                     u2540:
  5433  0BF9                     l2382:
  5434  0BF9  17B4               	bsf	___fladd@b+2,7
  5435  0BFA  2BFF               	goto	l801
  5436  0BFB                     l2384:
  5437  0BFB  307F               	movlw	127
  5438  0BFC  00BA               	movwf	??___fladd
  5439  0BFD  083A               	movf	??___fladd,w
  5440  0BFE  05B4               	andwf	___fladd@b+2,f
  5441  0BFF                     l801:
  5442  0BFF  0844               	movf	___fladd@bexp,w
  5443  0C00  00BA               	movwf	??___fladd
  5444  0C01  1003               	clrc
  5445  0C02  0C3A               	rrf	??___fladd,w
  5446  0C03  00BB               	movwf	??___fladd+1
  5447  0C04  083B               	movf	??___fladd+1,w
  5448  0C05  00B5               	movwf	___fladd@b+3
  5449  0C06                     l2386:
  5450  0C06  1FC2               	btfss	___fladd@signs,7
  5451  0C07  2C09               	goto	u2551
  5452  0C08  2C0A               	goto	u2550
  5453  0C09                     u2551:
  5454  0C09  2C0B               	goto	l802
  5455  0C0A                     u2550:
  5456  0C0A                     l2388:
  5457  0C0A  17B5               	bsf	___fladd@b+3,7
  5458  0C0B                     l802:
  5459  0C0B                     l772:
  5460  0C0B  0008               	return
  5461  0C0C                     __end_of___fladd:
  5462                           
  5463                           	psect	text13
  5464  0051                     __ptext13:	
  5465 ;; *************** function ___flmul *****************
  5466 ;; Defined at:
  5467 ;;		line 8 in file "C:\Program Files\Microchip\xc8\v2.32\pic\sources\c90\common\sprcmul.c"
  5468 ;; Parameters:    Size  Location     Type
  5469 ;;  b               4   46[BANK0 ] unsigned char 
  5470 ;;  a               4   50[BANK0 ] unsigned char 
  5471 ;; Auto vars:     Size  Location     Type
  5472 ;;  prod            4   66[BANK0 ] struct .
  5473 ;;  grs             4   60[BANK0 ] unsigned long 
  5474 ;;  temp            2   70[BANK0 ] struct .
  5475 ;;  bexp            1   65[BANK0 ] unsigned char 
  5476 ;;  aexp            1   64[BANK0 ] unsigned char 
  5477 ;;  sign            1   59[BANK0 ] unsigned char 
  5478 ;; Return value:  Size  Location     Type
  5479 ;;                  4   46[BANK0 ] unsigned char 
  5480 ;; Registers used:
  5481 ;;		wreg, status,2, status,0, btemp+1, pclath, cstack
  5482 ;; Tracked objects:
  5483 ;;		On entry : 0/0
  5484 ;;		On exit  : 0/0
  5485 ;;		Unchanged: 0/0
  5486 ;; Data sizes:     COMMON   BANK0   BANK1   BANK3   BANK2
  5487 ;;      Params:         0       8       0       0       0
  5488 ;;      Locals:         0      13       0       0       0
  5489 ;;      Temps:          0       5       0       0       0
  5490 ;;      Totals:         0      26       0       0       0
  5491 ;;Total ram usage:       26 bytes
  5492 ;; Hardware stack levels used: 1
  5493 ;; Hardware stack levels required when called: 1
  5494 ;; This function calls:
  5495 ;;		__Umul8_16
  5496 ;; This function is called by:
  5497 ;;		_main
  5498 ;;		_convert
  5499 ;; This function uses a non-reentrant model
  5500 ;;
  5501                           
  5502                           
  5503                           ;psect for function ___flmul
  5504  0051                     ___flmul:
  5505  0051                     l2740:	
  5506                           ;incstack = 0
  5507                           ; Regs used in ___flmul: [wreg+status,2+status,0+btemp+1+pclath+cstack]
  5508                           
  5509  0051  1283               	bcf	3,5	;RP0=0, select bank0
  5510  0052  1303               	bcf	3,6	;RP1=0, select bank0
  5511  0053  0851               	movf	___flmul@b+3,w
  5512  0054  3980               	andlw	128
  5513  0055  00D6               	movwf	??___flmul
  5514  0056  0856               	movf	??___flmul,w
  5515  0057  00DB               	movwf	___flmul@sign
  5516  0058                     l2742:
  5517  0058  0851               	movf	___flmul@b+3,w
  5518  0059  00D6               	movwf	??___flmul
  5519  005A  0756               	addwf	??___flmul,w
  5520  005B  00D7               	movwf	??___flmul+1
  5521  005C  0857               	movf	??___flmul+1,w
  5522  005D  00E1               	movwf	___flmul@bexp
  5523  005E                     l2744:
  5524  005E  1FD0               	btfss	___flmul@b+2,7
  5525  005F  2861               	goto	u3311
  5526  0060  2862               	goto	u3310
  5527  0061                     u3311:
  5528  0061  2863               	goto	l2748
  5529  0062                     u3310:
  5530  0062                     l2746:
  5531  0062  1461               	bsf	___flmul@bexp,0
  5532  0063                     l2748:
  5533  0063  0861               	movf	___flmul@bexp,w
  5534  0064  1903               	btfsc	3,2
  5535  0065  2867               	goto	u3321
  5536  0066  2868               	goto	u3320
  5537  0067                     u3321:
  5538  0067  2877               	goto	l2756
  5539  0068                     u3320:
  5540  0068                     l2750:
  5541  0068  0A61               	incf	___flmul@bexp,w
  5542  0069  1D03               	btfss	3,2
  5543  006A  286C               	goto	u3331
  5544  006B  286D               	goto	u3330
  5545  006C                     u3331:
  5546  006C  2875               	goto	l2754
  5547  006D                     u3330:
  5548  006D                     l2752:
  5549  006D  3000               	movlw	0
  5550  006E  00D1               	movwf	___flmul@b+3
  5551  006F  3000               	movlw	0
  5552  0070  00D0               	movwf	___flmul@b+2
  5553  0071  3000               	movlw	0
  5554  0072  00CF               	movwf	___flmul@b+1
  5555  0073  3000               	movlw	0
  5556  0074  00CE               	movwf	___flmul@b
  5557  0075                     l2754:
  5558  0075  17D0               	bsf	___flmul@b+2,7
  5559  0076  287F               	goto	l2758
  5560  0077                     l2756:
  5561  0077  3000               	movlw	0
  5562  0078  00D1               	movwf	___flmul@b+3
  5563  0079  3000               	movlw	0
  5564  007A  00D0               	movwf	___flmul@b+2
  5565  007B  3000               	movlw	0
  5566  007C  00CF               	movwf	___flmul@b+1
  5567  007D  3000               	movlw	0
  5568  007E  00CE               	movwf	___flmul@b
  5569  007F                     l2758:
  5570  007F  0855               	movf	___flmul@a+3,w
  5571  0080  3980               	andlw	128
  5572  0081  00D6               	movwf	??___flmul
  5573  0082  0856               	movf	??___flmul,w
  5574  0083  06DB               	xorwf	___flmul@sign,f
  5575  0084                     l2760:
  5576  0084  0855               	movf	___flmul@a+3,w
  5577  0085  00D6               	movwf	??___flmul
  5578  0086  0756               	addwf	??___flmul,w
  5579  0087  00D7               	movwf	??___flmul+1
  5580  0088  0857               	movf	??___flmul+1,w
  5581  0089  00E0               	movwf	___flmul@aexp
  5582  008A                     l2762:
  5583  008A  1FD4               	btfss	___flmul@a+2,7
  5584  008B  288D               	goto	u3341
  5585  008C  288E               	goto	u3340
  5586  008D                     u3341:
  5587  008D  288F               	goto	l2766
  5588  008E                     u3340:
  5589  008E                     l2764:
  5590  008E  1460               	bsf	___flmul@aexp,0
  5591  008F                     l2766:
  5592  008F  0860               	movf	___flmul@aexp,w
  5593  0090  1903               	btfsc	3,2
  5594  0091  2893               	goto	u3351
  5595  0092  2894               	goto	u3350
  5596  0093                     u3351:
  5597  0093  28A3               	goto	l2774
  5598  0094                     u3350:
  5599  0094                     l2768:
  5600  0094  0A60               	incf	___flmul@aexp,w
  5601  0095  1D03               	btfss	3,2
  5602  0096  2898               	goto	u3361
  5603  0097  2899               	goto	u3360
  5604  0098                     u3361:
  5605  0098  28A1               	goto	l2772
  5606  0099                     u3360:
  5607  0099                     l2770:
  5608  0099  3000               	movlw	0
  5609  009A  00D5               	movwf	___flmul@a+3
  5610  009B  3000               	movlw	0
  5611  009C  00D4               	movwf	___flmul@a+2
  5612  009D  3000               	movlw	0
  5613  009E  00D3               	movwf	___flmul@a+1
  5614  009F  3000               	movlw	0
  5615  00A0  00D2               	movwf	___flmul@a
  5616  00A1                     l2772:
  5617  00A1  17D4               	bsf	___flmul@a+2,7
  5618  00A2  28AB               	goto	l2776
  5619  00A3                     l2774:
  5620  00A3  3000               	movlw	0
  5621  00A4  00D5               	movwf	___flmul@a+3
  5622  00A5  3000               	movlw	0
  5623  00A6  00D4               	movwf	___flmul@a+2
  5624  00A7  3000               	movlw	0
  5625  00A8  00D3               	movwf	___flmul@a+1
  5626  00A9  3000               	movlw	0
  5627  00AA  00D2               	movwf	___flmul@a
  5628  00AB                     l2776:
  5629  00AB  0860               	movf	___flmul@aexp,w
  5630  00AC  1903               	btfsc	3,2
  5631  00AD  28AF               	goto	u3371
  5632  00AE  28B0               	goto	u3370
  5633  00AF                     u3371:
  5634  00AF  28B5               	goto	l2780
  5635  00B0                     u3370:
  5636  00B0                     l2778:
  5637  00B0  0861               	movf	___flmul@bexp,w
  5638  00B1  1D03               	btfss	3,2
  5639  00B2  28B4               	goto	u3381
  5640  00B3  28B5               	goto	u3380
  5641  00B4                     u3381:
  5642  00B4  28BE               	goto	l2784
  5643  00B5                     u3380:
  5644  00B5                     l2780:
  5645  00B5  3000               	movlw	0
  5646  00B6  00D1               	movwf	?___flmul+3
  5647  00B7  3000               	movlw	0
  5648  00B8  00D0               	movwf	?___flmul+2
  5649  00B9  3000               	movlw	0
  5650  00BA  00CF               	movwf	?___flmul+1
  5651  00BB  3000               	movlw	0
  5652  00BC  00CE               	movwf	?___flmul
  5653  00BD  2BB1               	goto	l855
  5654  00BE                     l2784:
  5655  00BE  084E               	movf	___flmul@b,w
  5656  00BF  00D6               	movwf	??___flmul
  5657  00C0  0856               	movf	??___flmul,w
  5658  00C1  00F0               	movwf	__Umul8_16@multiplicand
  5659  00C2  0854               	movf	___flmul@a+2,w
  5660  00C3  160A  118A  2363  120A  118A  	fcall	__Umul8_16
  5661  00C8  0871               	movf	?__Umul8_16+1,w
  5662  00C9  1283               	bcf	3,5	;RP0=0, select bank0
  5663  00CA  1303               	bcf	3,6	;RP1=0, select bank0
  5664  00CB  00E7               	movwf	___flmul@temp+1
  5665  00CC  0870               	movf	?__Umul8_16,w
  5666  00CD  00E6               	movwf	___flmul@temp
  5667  00CE                     l2786:
  5668  00CE  0866               	movf	___flmul@temp,w
  5669  00CF  00D6               	movwf	??___flmul
  5670  00D0  01D7               	clrf	??___flmul+1
  5671  00D1  01D8               	clrf	??___flmul+2
  5672  00D2  01D9               	clrf	??___flmul+3
  5673  00D3  0859               	movf	??___flmul+3,w
  5674  00D4  00DF               	movwf	___flmul@grs+3
  5675  00D5  0858               	movf	??___flmul+2,w
  5676  00D6  00DE               	movwf	___flmul@grs+2
  5677  00D7  0857               	movf	??___flmul+1,w
  5678  00D8  00DD               	movwf	___flmul@grs+1
  5679  00D9  0856               	movf	??___flmul,w
  5680  00DA  00DC               	movwf	___flmul@grs
  5681  00DB                     l2788:
  5682  00DB  0867               	movf	___flmul@temp+1,w
  5683  00DC  00D6               	movwf	??___flmul
  5684  00DD  01D7               	clrf	??___flmul+1
  5685  00DE  01D8               	clrf	??___flmul+2
  5686  00DF  01D9               	clrf	??___flmul+3
  5687  00E0  0859               	movf	??___flmul+3,w
  5688  00E1  00E5               	movwf	___flmul@prod+3
  5689  00E2  0858               	movf	??___flmul+2,w
  5690  00E3  00E4               	movwf	___flmul@prod+2
  5691  00E4  0857               	movf	??___flmul+1,w
  5692  00E5  00E3               	movwf	___flmul@prod+1
  5693  00E6  0856               	movf	??___flmul,w
  5694  00E7  00E2               	movwf	___flmul@prod
  5695  00E8  084F               	movf	___flmul@b+1,w
  5696  00E9  00D6               	movwf	??___flmul
  5697  00EA  0856               	movf	??___flmul,w
  5698  00EB  00F0               	movwf	__Umul8_16@multiplicand
  5699  00EC  0853               	movf	___flmul@a+1,w
  5700  00ED  160A  118A  2363  120A  118A  	fcall	__Umul8_16
  5701  00F2  0871               	movf	?__Umul8_16+1,w
  5702  00F3  1283               	bcf	3,5	;RP0=0, select bank0
  5703  00F4  1303               	bcf	3,6	;RP1=0, select bank0
  5704  00F5  00E7               	movwf	___flmul@temp+1
  5705  00F6  0870               	movf	?__Umul8_16,w
  5706  00F7  00E6               	movwf	___flmul@temp
  5707  00F8                     l2790:
  5708  00F8  0866               	movf	___flmul@temp,w
  5709  00F9  00D6               	movwf	??___flmul
  5710  00FA  01D7               	clrf	??___flmul+1
  5711  00FB  01D8               	clrf	??___flmul+2
  5712  00FC  01D9               	clrf	??___flmul+3
  5713  00FD  0856               	movf	??___flmul,w
  5714  00FE  07DC               	addwf	___flmul@grs,f
  5715  00FF  0857               	movf	??___flmul+1,w
  5716  0100  1103               	clrz
  5717  0101  1803               	skipnc
  5718  0102  3E01               	addlw	1
  5719  0103  1903               	skipnz
  5720  0104  2906               	goto	u3391
  5721  0105  07DD               	addwf	___flmul@grs+1,f
  5722  0106                     u3391:
  5723  0106  0858               	movf	??___flmul+2,w
  5724  0107  1103               	clrz
  5725  0108  1803               	skipnc
  5726  0109  3E01               	addlw	1
  5727  010A  1903               	skipnz
  5728  010B  290D               	goto	u3392
  5729  010C  07DE               	addwf	___flmul@grs+2,f
  5730  010D                     u3392:
  5731  010D  0859               	movf	??___flmul+3,w
  5732  010E  1103               	clrz
  5733  010F  1803               	skipnc
  5734  0110  3E01               	addlw	1
  5735  0111  1903               	skipnz
  5736  0112  2914               	goto	u3393
  5737  0113  07DF               	addwf	___flmul@grs+3,f
  5738  0114                     u3393:
  5739  0114                     l2792:
  5740  0114  0867               	movf	___flmul@temp+1,w
  5741  0115  00D6               	movwf	??___flmul
  5742  0116  01D7               	clrf	??___flmul+1
  5743  0117  01D8               	clrf	??___flmul+2
  5744  0118  01D9               	clrf	??___flmul+3
  5745  0119  0856               	movf	??___flmul,w
  5746  011A  07E2               	addwf	___flmul@prod,f
  5747  011B  0857               	movf	??___flmul+1,w
  5748  011C  1103               	clrz
  5749  011D  1803               	skipnc
  5750  011E  3E01               	addlw	1
  5751  011F  1903               	skipnz
  5752  0120  2922               	goto	u3401
  5753  0121  07E3               	addwf	___flmul@prod+1,f
  5754  0122                     u3401:
  5755  0122  0858               	movf	??___flmul+2,w
  5756  0123  1103               	clrz
  5757  0124  1803               	skipnc
  5758  0125  3E01               	addlw	1
  5759  0126  1903               	skipnz
  5760  0127  2929               	goto	u3402
  5761  0128  07E4               	addwf	___flmul@prod+2,f
  5762  0129                     u3402:
  5763  0129  0859               	movf	??___flmul+3,w
  5764  012A  1103               	clrz
  5765  012B  1803               	skipnc
  5766  012C  3E01               	addlw	1
  5767  012D  1903               	skipnz
  5768  012E  2930               	goto	u3403
  5769  012F  07E5               	addwf	___flmul@prod+3,f
  5770  0130                     u3403:
  5771  0130  0850               	movf	___flmul@b+2,w
  5772  0131  00D6               	movwf	??___flmul
  5773  0132  0856               	movf	??___flmul,w
  5774  0133  00F0               	movwf	__Umul8_16@multiplicand
  5775  0134  0852               	movf	___flmul@a,w
  5776  0135  160A  118A  2363  120A  118A  	fcall	__Umul8_16
  5777  013A  0871               	movf	?__Umul8_16+1,w
  5778  013B  1283               	bcf	3,5	;RP0=0, select bank0
  5779  013C  1303               	bcf	3,6	;RP1=0, select bank0
  5780  013D  00E7               	movwf	___flmul@temp+1
  5781  013E  0870               	movf	?__Umul8_16,w
  5782  013F  00E6               	movwf	___flmul@temp
  5783  0140                     l2794:
  5784  0140  0866               	movf	___flmul@temp,w
  5785  0141  00D6               	movwf	??___flmul
  5786  0142  01D7               	clrf	??___flmul+1
  5787  0143  01D8               	clrf	??___flmul+2
  5788  0144  01D9               	clrf	??___flmul+3
  5789  0145  0856               	movf	??___flmul,w
  5790  0146  07DC               	addwf	___flmul@grs,f
  5791  0147  0857               	movf	??___flmul+1,w
  5792  0148  1103               	clrz
  5793  0149  1803               	skipnc
  5794  014A  3E01               	addlw	1
  5795  014B  1903               	skipnz
  5796  014C  294E               	goto	u3411
  5797  014D  07DD               	addwf	___flmul@grs+1,f
  5798  014E                     u3411:
  5799  014E  0858               	movf	??___flmul+2,w
  5800  014F  1103               	clrz
  5801  0150  1803               	skipnc
  5802  0151  3E01               	addlw	1
  5803  0152  1903               	skipnz
  5804  0153  2955               	goto	u3412
  5805  0154  07DE               	addwf	___flmul@grs+2,f
  5806  0155                     u3412:
  5807  0155  0859               	movf	??___flmul+3,w
  5808  0156  1103               	clrz
  5809  0157  1803               	skipnc
  5810  0158  3E01               	addlw	1
  5811  0159  1903               	skipnz
  5812  015A  295C               	goto	u3413
  5813  015B  07DF               	addwf	___flmul@grs+3,f
  5814  015C                     u3413:
  5815  015C                     l2796:
  5816  015C  0867               	movf	___flmul@temp+1,w
  5817  015D  00D6               	movwf	??___flmul
  5818  015E  01D7               	clrf	??___flmul+1
  5819  015F  01D8               	clrf	??___flmul+2
  5820  0160  01D9               	clrf	??___flmul+3
  5821  0161  0856               	movf	??___flmul,w
  5822  0162  07E2               	addwf	___flmul@prod,f
  5823  0163  0857               	movf	??___flmul+1,w
  5824  0164  1103               	clrz
  5825  0165  1803               	skipnc
  5826  0166  3E01               	addlw	1
  5827  0167  1903               	skipnz
  5828  0168  296A               	goto	u3421
  5829  0169  07E3               	addwf	___flmul@prod+1,f
  5830  016A                     u3421:
  5831  016A  0858               	movf	??___flmul+2,w
  5832  016B  1103               	clrz
  5833  016C  1803               	skipnc
  5834  016D  3E01               	addlw	1
  5835  016E  1903               	skipnz
  5836  016F  2971               	goto	u3422
  5837  0170  07E4               	addwf	___flmul@prod+2,f
  5838  0171                     u3422:
  5839  0171  0859               	movf	??___flmul+3,w
  5840  0172  1103               	clrz
  5841  0173  1803               	skipnc
  5842  0174  3E01               	addlw	1
  5843  0175  1903               	skipnz
  5844  0176  2978               	goto	u3423
  5845  0177  07E5               	addwf	___flmul@prod+3,f
  5846  0178                     u3423:
  5847  0178                     l2798:
  5848  0178  3008               	movlw	8
  5849  0179  00D6               	movwf	??___flmul
  5850  017A                     u3435:
  5851  017A  1003               	clrc
  5852  017B  0DDC               	rlf	___flmul@grs,f
  5853  017C  0DDD               	rlf	___flmul@grs+1,f
  5854  017D  0DDE               	rlf	___flmul@grs+2,f
  5855  017E  0DDF               	rlf	___flmul@grs+3,f
  5856  017F  0BD6               	decfsz	??___flmul,f
  5857  0180  297A               	goto	u3435
  5858  0181                     l2800:
  5859  0181  084F               	movf	___flmul@b+1,w
  5860  0182  00D6               	movwf	??___flmul
  5861  0183  0856               	movf	??___flmul,w
  5862  0184  00F0               	movwf	__Umul8_16@multiplicand
  5863  0185  0852               	movf	___flmul@a,w
  5864  0186  160A  118A  2363  120A  118A  	fcall	__Umul8_16
  5865  018B  0871               	movf	?__Umul8_16+1,w
  5866  018C  1283               	bcf	3,5	;RP0=0, select bank0
  5867  018D  1303               	bcf	3,6	;RP1=0, select bank0
  5868  018E  00E7               	movwf	___flmul@temp+1
  5869  018F  0870               	movf	?__Umul8_16,w
  5870  0190  00E6               	movwf	___flmul@temp
  5871  0191                     l2802:
  5872  0191  0866               	movf	___flmul@temp,w
  5873  0192  00D6               	movwf	??___flmul
  5874  0193  0867               	movf	___flmul@temp+1,w
  5875  0194  00D7               	movwf	??___flmul+1
  5876  0195  01D8               	clrf	??___flmul+2
  5877  0196  01D9               	clrf	??___flmul+3
  5878  0197  0856               	movf	??___flmul,w
  5879  0198  07DC               	addwf	___flmul@grs,f
  5880  0199  0857               	movf	??___flmul+1,w
  5881  019A  1103               	clrz
  5882  019B  1803               	skipnc
  5883  019C  3E01               	addlw	1
  5884  019D  1903               	skipnz
  5885  019E  29A0               	goto	u3441
  5886  019F  07DD               	addwf	___flmul@grs+1,f
  5887  01A0                     u3441:
  5888  01A0  0858               	movf	??___flmul+2,w
  5889  01A1  1103               	clrz
  5890  01A2  1803               	skipnc
  5891  01A3  3E01               	addlw	1
  5892  01A4  1903               	skipnz
  5893  01A5  29A7               	goto	u3442
  5894  01A6  07DE               	addwf	___flmul@grs+2,f
  5895  01A7                     u3442:
  5896  01A7  0859               	movf	??___flmul+3,w
  5897  01A8  1103               	clrz
  5898  01A9  1803               	skipnc
  5899  01AA  3E01               	addlw	1
  5900  01AB  1903               	skipnz
  5901  01AC  29AE               	goto	u3443
  5902  01AD  07DF               	addwf	___flmul@grs+3,f
  5903  01AE                     u3443:
  5904  01AE                     l2804:
  5905  01AE  084E               	movf	___flmul@b,w
  5906  01AF  00D6               	movwf	??___flmul
  5907  01B0  0856               	movf	??___flmul,w
  5908  01B1  00F0               	movwf	__Umul8_16@multiplicand
  5909  01B2  0853               	movf	___flmul@a+1,w
  5910  01B3  160A  118A  2363  120A  118A  	fcall	__Umul8_16
  5911  01B8  0871               	movf	?__Umul8_16+1,w
  5912  01B9  1283               	bcf	3,5	;RP0=0, select bank0
  5913  01BA  1303               	bcf	3,6	;RP1=0, select bank0
  5914  01BB  00E7               	movwf	___flmul@temp+1
  5915  01BC  0870               	movf	?__Umul8_16,w
  5916  01BD  00E6               	movwf	___flmul@temp
  5917  01BE                     l2806:
  5918  01BE  0866               	movf	___flmul@temp,w
  5919  01BF  00D6               	movwf	??___flmul
  5920  01C0  0867               	movf	___flmul@temp+1,w
  5921  01C1  00D7               	movwf	??___flmul+1
  5922  01C2  01D8               	clrf	??___flmul+2
  5923  01C3  01D9               	clrf	??___flmul+3
  5924  01C4  0856               	movf	??___flmul,w
  5925  01C5  07DC               	addwf	___flmul@grs,f
  5926  01C6  0857               	movf	??___flmul+1,w
  5927  01C7  1103               	clrz
  5928  01C8  1803               	skipnc
  5929  01C9  3E01               	addlw	1
  5930  01CA  1903               	skipnz
  5931  01CB  29CD               	goto	u3451
  5932  01CC  07DD               	addwf	___flmul@grs+1,f
  5933  01CD                     u3451:
  5934  01CD  0858               	movf	??___flmul+2,w
  5935  01CE  1103               	clrz
  5936  01CF  1803               	skipnc
  5937  01D0  3E01               	addlw	1
  5938  01D1  1903               	skipnz
  5939  01D2  29D4               	goto	u3452
  5940  01D3  07DE               	addwf	___flmul@grs+2,f
  5941  01D4                     u3452:
  5942  01D4  0859               	movf	??___flmul+3,w
  5943  01D5  1103               	clrz
  5944  01D6  1803               	skipnc
  5945  01D7  3E01               	addlw	1
  5946  01D8  1903               	skipnz
  5947  01D9  29DB               	goto	u3453
  5948  01DA  07DF               	addwf	___flmul@grs+3,f
  5949  01DB                     u3453:
  5950  01DB                     l2808:
  5951  01DB  3008               	movlw	8
  5952  01DC  00D6               	movwf	??___flmul
  5953  01DD                     u3465:
  5954  01DD  1003               	clrc
  5955  01DE  0DDC               	rlf	___flmul@grs,f
  5956  01DF  0DDD               	rlf	___flmul@grs+1,f
  5957  01E0  0DDE               	rlf	___flmul@grs+2,f
  5958  01E1  0DDF               	rlf	___flmul@grs+3,f
  5959  01E2  0BD6               	decfsz	??___flmul,f
  5960  01E3  29DD               	goto	u3465
  5961  01E4  084E               	movf	___flmul@b,w
  5962  01E5  00D6               	movwf	??___flmul
  5963  01E6  0856               	movf	??___flmul,w
  5964  01E7  00F0               	movwf	__Umul8_16@multiplicand
  5965  01E8  0852               	movf	___flmul@a,w
  5966  01E9  160A  118A  2363  120A  118A  	fcall	__Umul8_16
  5967  01EE  0871               	movf	?__Umul8_16+1,w
  5968  01EF  1283               	bcf	3,5	;RP0=0, select bank0
  5969  01F0  1303               	bcf	3,6	;RP1=0, select bank0
  5970  01F1  00E7               	movwf	___flmul@temp+1
  5971  01F2  0870               	movf	?__Umul8_16,w
  5972  01F3  00E6               	movwf	___flmul@temp
  5973  01F4                     l2810:
  5974  01F4  0866               	movf	___flmul@temp,w
  5975  01F5  00D6               	movwf	??___flmul
  5976  01F6  0867               	movf	___flmul@temp+1,w
  5977  01F7  00D7               	movwf	??___flmul+1
  5978  01F8  01D8               	clrf	??___flmul+2
  5979  01F9  01D9               	clrf	??___flmul+3
  5980  01FA  0856               	movf	??___flmul,w
  5981  01FB  07DC               	addwf	___flmul@grs,f
  5982  01FC  0857               	movf	??___flmul+1,w
  5983  01FD  1103               	clrz
  5984  01FE  1803               	skipnc
  5985  01FF  3E01               	addlw	1
  5986  0200  1903               	skipnz
  5987  0201  2A03               	goto	u3471
  5988  0202  07DD               	addwf	___flmul@grs+1,f
  5989  0203                     u3471:
  5990  0203  0858               	movf	??___flmul+2,w
  5991  0204  1103               	clrz
  5992  0205  1803               	skipnc
  5993  0206  3E01               	addlw	1
  5994  0207  1903               	skipnz
  5995  0208  2A0A               	goto	u3472
  5996  0209  07DE               	addwf	___flmul@grs+2,f
  5997  020A                     u3472:
  5998  020A  0859               	movf	??___flmul+3,w
  5999  020B  1103               	clrz
  6000  020C  1803               	skipnc
  6001  020D  3E01               	addlw	1
  6002  020E  1903               	skipnz
  6003  020F  2A11               	goto	u3473
  6004  0210  07DF               	addwf	___flmul@grs+3,f
  6005  0211                     u3473:
  6006  0211                     l2812:
  6007  0211  084F               	movf	___flmul@b+1,w
  6008  0212  00D6               	movwf	??___flmul
  6009  0213  0856               	movf	??___flmul,w
  6010  0214  00F0               	movwf	__Umul8_16@multiplicand
  6011  0215  0854               	movf	___flmul@a+2,w
  6012  0216  160A  118A  2363  120A  118A  	fcall	__Umul8_16
  6013  021B  0871               	movf	?__Umul8_16+1,w
  6014  021C  1283               	bcf	3,5	;RP0=0, select bank0
  6015  021D  1303               	bcf	3,6	;RP1=0, select bank0
  6016  021E  00E7               	movwf	___flmul@temp+1
  6017  021F  0870               	movf	?__Umul8_16,w
  6018  0220  00E6               	movwf	___flmul@temp
  6019  0221  0866               	movf	___flmul@temp,w
  6020  0222  00D6               	movwf	??___flmul
  6021  0223  0867               	movf	___flmul@temp+1,w
  6022  0224  00D7               	movwf	??___flmul+1
  6023  0225  01D8               	clrf	??___flmul+2
  6024  0226  01D9               	clrf	??___flmul+3
  6025  0227  0856               	movf	??___flmul,w
  6026  0228  07E2               	addwf	___flmul@prod,f
  6027  0229  0857               	movf	??___flmul+1,w
  6028  022A  1103               	clrz
  6029  022B  1803               	skipnc
  6030  022C  3E01               	addlw	1
  6031  022D  1903               	skipnz
  6032  022E  2A30               	goto	u3481
  6033  022F  07E3               	addwf	___flmul@prod+1,f
  6034  0230                     u3481:
  6035  0230  0858               	movf	??___flmul+2,w
  6036  0231  1103               	clrz
  6037  0232  1803               	skipnc
  6038  0233  3E01               	addlw	1
  6039  0234  1903               	skipnz
  6040  0235  2A37               	goto	u3482
  6041  0236  07E4               	addwf	___flmul@prod+2,f
  6042  0237                     u3482:
  6043  0237  0859               	movf	??___flmul+3,w
  6044  0238  1103               	clrz
  6045  0239  1803               	skipnc
  6046  023A  3E01               	addlw	1
  6047  023B  1903               	skipnz
  6048  023C  2A3E               	goto	u3483
  6049  023D  07E5               	addwf	___flmul@prod+3,f
  6050  023E                     u3483:
  6051  023E                     l2814:
  6052  023E  0850               	movf	___flmul@b+2,w
  6053  023F  00D6               	movwf	??___flmul
  6054  0240  0856               	movf	??___flmul,w
  6055  0241  00F0               	movwf	__Umul8_16@multiplicand
  6056  0242  0853               	movf	___flmul@a+1,w
  6057  0243  160A  118A  2363  120A  118A  	fcall	__Umul8_16
  6058  0248  0871               	movf	?__Umul8_16+1,w
  6059  0249  1283               	bcf	3,5	;RP0=0, select bank0
  6060  024A  1303               	bcf	3,6	;RP1=0, select bank0
  6061  024B  00E7               	movwf	___flmul@temp+1
  6062  024C  0870               	movf	?__Umul8_16,w
  6063  024D  00E6               	movwf	___flmul@temp
  6064  024E                     l2816:
  6065  024E  0866               	movf	___flmul@temp,w
  6066  024F  00D6               	movwf	??___flmul
  6067  0250  0867               	movf	___flmul@temp+1,w
  6068  0251  00D7               	movwf	??___flmul+1
  6069  0252  01D8               	clrf	??___flmul+2
  6070  0253  01D9               	clrf	??___flmul+3
  6071  0254  0856               	movf	??___flmul,w
  6072  0255  07E2               	addwf	___flmul@prod,f
  6073  0256  0857               	movf	??___flmul+1,w
  6074  0257  1103               	clrz
  6075  0258  1803               	skipnc
  6076  0259  3E01               	addlw	1
  6077  025A  1903               	skipnz
  6078  025B  2A5D               	goto	u3491
  6079  025C  07E3               	addwf	___flmul@prod+1,f
  6080  025D                     u3491:
  6081  025D  0858               	movf	??___flmul+2,w
  6082  025E  1103               	clrz
  6083  025F  1803               	skipnc
  6084  0260  3E01               	addlw	1
  6085  0261  1903               	skipnz
  6086  0262  2A64               	goto	u3492
  6087  0263  07E4               	addwf	___flmul@prod+2,f
  6088  0264                     u3492:
  6089  0264  0859               	movf	??___flmul+3,w
  6090  0265  1103               	clrz
  6091  0266  1803               	skipnc
  6092  0267  3E01               	addlw	1
  6093  0268  1903               	skipnz
  6094  0269  2A6B               	goto	u3493
  6095  026A  07E5               	addwf	___flmul@prod+3,f
  6096  026B                     u3493:
  6097  026B  0850               	movf	___flmul@b+2,w
  6098  026C  00D6               	movwf	??___flmul
  6099  026D  0856               	movf	??___flmul,w
  6100  026E  00F0               	movwf	__Umul8_16@multiplicand
  6101  026F  0854               	movf	___flmul@a+2,w
  6102  0270  160A  118A  2363  120A  118A  	fcall	__Umul8_16
  6103  0275  0871               	movf	?__Umul8_16+1,w
  6104  0276  1283               	bcf	3,5	;RP0=0, select bank0
  6105  0277  1303               	bcf	3,6	;RP1=0, select bank0
  6106  0278  00E7               	movwf	___flmul@temp+1
  6107  0279  0870               	movf	?__Umul8_16,w
  6108  027A  00E6               	movwf	___flmul@temp
  6109  027B                     l2818:
  6110  027B  0866               	movf	___flmul@temp,w
  6111  027C  00D6               	movwf	??___flmul
  6112  027D  0867               	movf	___flmul@temp+1,w
  6113  027E  00D7               	movwf	??___flmul+1
  6114  027F  01D8               	clrf	??___flmul+2
  6115  0280  01D9               	clrf	??___flmul+3
  6116  0281  3008               	movlw	8
  6117  0282                     u3505:
  6118  0282  1003               	clrc
  6119  0283  0DD6               	rlf	??___flmul,f
  6120  0284  0DD7               	rlf	??___flmul+1,f
  6121  0285  0DD8               	rlf	??___flmul+2,f
  6122  0286  0DD9               	rlf	??___flmul+3,f
  6123  0287                     u3500:
  6124  0287  3EFF               	addlw	-1
  6125  0288  1D03               	skipz
  6126  0289  2A82               	goto	u3505
  6127  028A  0856               	movf	??___flmul,w
  6128  028B  07E2               	addwf	___flmul@prod,f
  6129  028C  0857               	movf	??___flmul+1,w
  6130  028D  1103               	clrz
  6131  028E  1803               	skipnc
  6132  028F  3E01               	addlw	1
  6133  0290  1903               	skipnz
  6134  0291  2A93               	goto	u3511
  6135  0292  07E3               	addwf	___flmul@prod+1,f
  6136  0293                     u3511:
  6137  0293  0858               	movf	??___flmul+2,w
  6138  0294  1103               	clrz
  6139  0295  1803               	skipnc
  6140  0296  3E01               	addlw	1
  6141  0297  1903               	skipnz
  6142  0298  2A9A               	goto	u3512
  6143  0299  07E4               	addwf	___flmul@prod+2,f
  6144  029A                     u3512:
  6145  029A  0859               	movf	??___flmul+3,w
  6146  029B  1103               	clrz
  6147  029C  1803               	skipnc
  6148  029D  3E01               	addlw	1
  6149  029E  1903               	skipnz
  6150  029F  2AA1               	goto	u3513
  6151  02A0  07E5               	addwf	___flmul@prod+3,f
  6152  02A1                     u3513:
  6153  02A1                     l2820:
  6154  02A1  085C               	movf	___flmul@grs,w
  6155  02A2  00D6               	movwf	??___flmul
  6156  02A3  085D               	movf	___flmul@grs+1,w
  6157  02A4  00D7               	movwf	??___flmul+1
  6158  02A5  085E               	movf	___flmul@grs+2,w
  6159  02A6  00D8               	movwf	??___flmul+2
  6160  02A7  085F               	movf	___flmul@grs+3,w
  6161  02A8  00D9               	movwf	??___flmul+3
  6162  02A9  3018               	movlw	24
  6163  02AA                     u3525:
  6164  02AA  1003               	clrc
  6165  02AB  0CD9               	rrf	??___flmul+3,f
  6166  02AC  0CD8               	rrf	??___flmul+2,f
  6167  02AD  0CD7               	rrf	??___flmul+1,f
  6168  02AE  0CD6               	rrf	??___flmul,f
  6169  02AF                     u3520:
  6170  02AF  3EFF               	addlw	-1
  6171  02B0  1D03               	skipz
  6172  02B1  2AAA               	goto	u3525
  6173  02B2  0856               	movf	??___flmul,w
  6174  02B3  07E2               	addwf	___flmul@prod,f
  6175  02B4  0857               	movf	??___flmul+1,w
  6176  02B5  1103               	clrz
  6177  02B6  1803               	skipnc
  6178  02B7  3E01               	addlw	1
  6179  02B8  1903               	skipnz
  6180  02B9  2ABB               	goto	u3531
  6181  02BA  07E3               	addwf	___flmul@prod+1,f
  6182  02BB                     u3531:
  6183  02BB  0858               	movf	??___flmul+2,w
  6184  02BC  1103               	clrz
  6185  02BD  1803               	skipnc
  6186  02BE  3E01               	addlw	1
  6187  02BF  1903               	skipnz
  6188  02C0  2AC2               	goto	u3532
  6189  02C1  07E4               	addwf	___flmul@prod+2,f
  6190  02C2                     u3532:
  6191  02C2  0859               	movf	??___flmul+3,w
  6192  02C3  1103               	clrz
  6193  02C4  1803               	skipnc
  6194  02C5  3E01               	addlw	1
  6195  02C6  1903               	skipnz
  6196  02C7  2AC9               	goto	u3533
  6197  02C8  07E5               	addwf	___flmul@prod+3,f
  6198  02C9                     u3533:
  6199  02C9                     l2822:
  6200  02C9  3008               	movlw	8
  6201  02CA  00D6               	movwf	??___flmul
  6202  02CB                     u3545:
  6203  02CB  1003               	clrc
  6204  02CC  0DDC               	rlf	___flmul@grs,f
  6205  02CD  0DDD               	rlf	___flmul@grs+1,f
  6206  02CE  0DDE               	rlf	___flmul@grs+2,f
  6207  02CF  0DDF               	rlf	___flmul@grs+3,f
  6208  02D0  0BD6               	decfsz	??___flmul,f
  6209  02D1  2ACB               	goto	u3545
  6210  02D2                     l2824:
  6211  02D2  0861               	movf	___flmul@bexp,w
  6212  02D3  0760               	addwf	___flmul@aexp,w
  6213  02D4  00D6               	movwf	??___flmul
  6214  02D5  01D7               	clrf	??___flmul+1
  6215  02D6  0DD7               	rlf	??___flmul+1,f
  6216  02D7  0856               	movf	??___flmul,w
  6217  02D8  3E82               	addlw	130
  6218  02D9  00E6               	movwf	___flmul@temp
  6219  02DA  0857               	movf	??___flmul+1,w
  6220  02DB  1803               	skipnc
  6221  02DC  3E01               	addlw	1
  6222  02DD  3EFF               	addlw	255
  6223  02DE  00E7               	movwf	___flmul@temp+1
  6224  02DF  2AFD               	goto	l2836
  6225  02E0                     l2826:
  6226  02E0  3001               	movlw	1
  6227  02E1  00D6               	movwf	??___flmul
  6228  02E2                     u3555:
  6229  02E2  1003               	clrc
  6230  02E3  0DE2               	rlf	___flmul@prod,f
  6231  02E4  0DE3               	rlf	___flmul@prod+1,f
  6232  02E5  0DE4               	rlf	___flmul@prod+2,f
  6233  02E6  0DE5               	rlf	___flmul@prod+3,f
  6234  02E7  0BD6               	decfsz	??___flmul,f
  6235  02E8  2AE2               	goto	u3555
  6236  02E9                     l2828:
  6237  02E9  1FDF               	btfss	___flmul@grs+3,7
  6238  02EA  2AEC               	goto	u3561
  6239  02EB  2AED               	goto	u3560
  6240  02EC                     u3561:
  6241  02EC  2AEE               	goto	l2832
  6242  02ED                     u3560:
  6243  02ED                     l2830:
  6244  02ED  1462               	bsf	___flmul@prod,0
  6245  02EE                     l2832:
  6246  02EE  3001               	movlw	1
  6247  02EF  00D6               	movwf	??___flmul
  6248  02F0                     u3575:
  6249  02F0  1003               	clrc
  6250  02F1  0DDC               	rlf	___flmul@grs,f
  6251  02F2  0DDD               	rlf	___flmul@grs+1,f
  6252  02F3  0DDE               	rlf	___flmul@grs+2,f
  6253  02F4  0DDF               	rlf	___flmul@grs+3,f
  6254  02F5  0BD6               	decfsz	??___flmul,f
  6255  02F6  2AF0               	goto	u3575
  6256  02F7                     l2834:
  6257  02F7  30FF               	movlw	255
  6258  02F8  07E6               	addwf	___flmul@temp,f
  6259  02F9  1803               	skipnc
  6260  02FA  0AE7               	incf	___flmul@temp+1,f
  6261  02FB  30FF               	movlw	255
  6262  02FC  07E7               	addwf	___flmul@temp+1,f
  6263  02FD                     l2836:
  6264  02FD  1FE4               	btfss	___flmul@prod+2,7
  6265  02FE  2B00               	goto	u3581
  6266  02FF  2B01               	goto	u3580
  6267  0300                     u3581:
  6268  0300  2AE0               	goto	l2826
  6269  0301                     u3580:
  6270  0301                     l2838:
  6271  0301  01E0               	clrf	___flmul@aexp
  6272  0302                     l2840:
  6273  0302  1FDF               	btfss	___flmul@grs+3,7
  6274  0303  2B05               	goto	u3591
  6275  0304  2B06               	goto	u3590
  6276  0305                     u3591:
  6277  0305  2B22               	goto	l2848
  6278  0306                     u3590:
  6279  0306                     l2842:
  6280  0306  30FF               	movlw	255
  6281  0307  055C               	andwf	___flmul@grs,w
  6282  0308  00D6               	movwf	??___flmul
  6283  0309  30FF               	movlw	255
  6284  030A  055D               	andwf	___flmul@grs+1,w
  6285  030B  00D7               	movwf	??___flmul+1
  6286  030C  30FF               	movlw	255
  6287  030D  055E               	andwf	___flmul@grs+2,w
  6288  030E  00D8               	movwf	??___flmul+2
  6289  030F  307F               	movlw	127
  6290  0310  055F               	andwf	___flmul@grs+3,w
  6291  0311  00D9               	movwf	??___flmul+3
  6292  0312  0859               	movf	??___flmul+3,w
  6293  0313  0458               	iorwf	??___flmul+2,w
  6294  0314  0457               	iorwf	??___flmul+1,w
  6295  0315  0456               	iorwf	??___flmul,w
  6296  0316  1903               	skipnz
  6297  0317  2B19               	goto	u3601
  6298  0318  2B1A               	goto	u3600
  6299  0319                     u3601:
  6300  0319  2B1D               	goto	l861
  6301  031A                     u3600:
  6302  031A                     l2844:
  6303  031A  01E0               	clrf	___flmul@aexp
  6304  031B  0AE0               	incf	___flmul@aexp,f
  6305  031C  2B22               	goto	l2848
  6306  031D                     l861:
  6307  031D  1C62               	btfss	___flmul@prod,0
  6308  031E  2B20               	goto	u3611
  6309  031F  2B21               	goto	u3610
  6310  0320                     u3611:
  6311  0320  2B22               	goto	l2848
  6312  0321                     u3610:
  6313  0321  2B1A               	goto	l2844
  6314  0322                     l2848:
  6315  0322  0860               	movf	___flmul@aexp,w
  6316  0323  1903               	btfsc	3,2
  6317  0324  2B26               	goto	u3621
  6318  0325  2B27               	goto	u3620
  6319  0326                     u3621:
  6320  0326  2B58               	goto	l2858
  6321  0327                     u3620:
  6322  0327                     l2850:
  6323  0327  3001               	movlw	1
  6324  0328  07E2               	addwf	___flmul@prod,f
  6325  0329  3000               	movlw	0
  6326  032A  1803               	skipnc
  6327  032B  3001               	movlw	1
  6328  032C  07E3               	addwf	___flmul@prod+1,f
  6329  032D  3000               	movlw	0
  6330  032E  1803               	skipnc
  6331  032F  3001               	movlw	1
  6332  0330  07E4               	addwf	___flmul@prod+2,f
  6333  0331  3000               	movlw	0
  6334  0332  1803               	skipnc
  6335  0333  3001               	movlw	1
  6336  0334  07E5               	addwf	___flmul@prod+3,f
  6337  0335                     l2852:
  6338  0335  1C65               	btfss	___flmul@prod+3,0
  6339  0336  2B38               	goto	u3631
  6340  0337  2B39               	goto	u3630
  6341  0338                     u3631:
  6342  0338  2B58               	goto	l2858
  6343  0339                     u3630:
  6344  0339                     l2854:
  6345  0339  0862               	movf	___flmul@prod,w
  6346  033A  00D6               	movwf	??___flmul
  6347  033B  0863               	movf	___flmul@prod+1,w
  6348  033C  00D7               	movwf	??___flmul+1
  6349  033D  0864               	movf	___flmul@prod+2,w
  6350  033E  00D8               	movwf	??___flmul+2
  6351  033F  0865               	movf	___flmul@prod+3,w
  6352  0340  00D9               	movwf	??___flmul+3
  6353  0341  3001               	movlw	1
  6354  0342  00DA               	movwf	??___flmul+4
  6355  0343                     u3645:
  6356  0343  0D59               	rlf	??___flmul+3,w
  6357  0344  0CD9               	rrf	??___flmul+3,f
  6358  0345  0CD8               	rrf	??___flmul+2,f
  6359  0346  0CD7               	rrf	??___flmul+1,f
  6360  0347  0CD6               	rrf	??___flmul,f
  6361  0348                     u3640:
  6362  0348  0BDA               	decfsz	??___flmul+4,f
  6363  0349  2B43               	goto	u3645
  6364  034A  0859               	movf	??___flmul+3,w
  6365  034B  00E5               	movwf	___flmul@prod+3
  6366  034C  0858               	movf	??___flmul+2,w
  6367  034D  00E4               	movwf	___flmul@prod+2
  6368  034E  0857               	movf	??___flmul+1,w
  6369  034F  00E3               	movwf	___flmul@prod+1
  6370  0350  0856               	movf	??___flmul,w
  6371  0351  00E2               	movwf	___flmul@prod
  6372  0352                     l2856:
  6373  0352  3001               	movlw	1
  6374  0353  07E6               	addwf	___flmul@temp,f
  6375  0354  1803               	skipnc
  6376  0355  0AE7               	incf	___flmul@temp+1,f
  6377  0356  3000               	movlw	0
  6378  0357  07E7               	addwf	___flmul@temp+1,f
  6379  0358                     l2858:
  6380  0358  0867               	movf	___flmul@temp+1,w
  6381  0359  3A80               	xorlw	128
  6382  035A  00FF               	movwf	btemp+1
  6383  035B  3080               	movlw	128
  6384  035C  027F               	subwf	btemp+1,w
  6385  035D  1D03               	skipz
  6386  035E  2B61               	goto	u3655
  6387  035F  30FF               	movlw	255
  6388  0360  0266               	subwf	___flmul@temp,w
  6389  0361                     u3655:
  6390  0361  1C03               	skipc
  6391  0362  2B64               	goto	u3651
  6392  0363  2B65               	goto	u3650
  6393  0364                     u3651:
  6394  0364  2B70               	goto	l2862
  6395  0365                     u3650:
  6396  0365                     l2860:
  6397  0365  307F               	movlw	127
  6398  0366  1283               	bcf	3,5	;RP0=0, select bank0
  6399  0367  1303               	bcf	3,6	;RP1=0, select bank0
  6400  0368  00E5               	movwf	___flmul@prod+3
  6401  0369  3080               	movlw	128
  6402  036A  00E4               	movwf	___flmul@prod+2
  6403  036B  3000               	movlw	0
  6404  036C  00E3               	movwf	___flmul@prod+1
  6405  036D  3000               	movlw	0
  6406  036E  00E2               	movwf	___flmul@prod
  6407  036F  2BA5               	goto	l867
  6408  0370                     l2862:
  6409  0370  1283               	bcf	3,5	;RP0=0, select bank0
  6410  0371  1303               	bcf	3,6	;RP1=0, select bank0
  6411  0372  0867               	movf	___flmul@temp+1,w
  6412  0373  3A80               	xorlw	128
  6413  0374  00FF               	movwf	btemp+1
  6414  0375  3080               	movlw	128
  6415  0376  027F               	subwf	btemp+1,w
  6416  0377  1D03               	skipz
  6417  0378  2B7B               	goto	u3665
  6418  0379  3001               	movlw	1
  6419  037A  0266               	subwf	___flmul@temp,w
  6420  037B                     u3665:
  6421  037B  1803               	skipnc
  6422  037C  2B7E               	goto	u3661
  6423  037D  2B7F               	goto	u3660
  6424  037E                     u3661:
  6425  037E  2B8B               	goto	l2868
  6426  037F                     u3660:
  6427  037F                     l2864:
  6428  037F  3000               	movlw	0
  6429  0380  1283               	bcf	3,5	;RP0=0, select bank0
  6430  0381  1303               	bcf	3,6	;RP1=0, select bank0
  6431  0382  00E5               	movwf	___flmul@prod+3
  6432  0383  3000               	movlw	0
  6433  0384  00E4               	movwf	___flmul@prod+2
  6434  0385  3000               	movlw	0
  6435  0386  00E3               	movwf	___flmul@prod+1
  6436  0387  3000               	movlw	0
  6437  0388  00E2               	movwf	___flmul@prod
  6438  0389                     l2866:
  6439  0389  01DB               	clrf	___flmul@sign
  6440  038A  2BA5               	goto	l867
  6441  038B                     l2868:
  6442  038B  1283               	bcf	3,5	;RP0=0, select bank0
  6443  038C  1303               	bcf	3,6	;RP1=0, select bank0
  6444  038D  0866               	movf	___flmul@temp,w
  6445  038E  00D6               	movwf	??___flmul
  6446  038F  0856               	movf	??___flmul,w
  6447  0390  00E1               	movwf	___flmul@bexp
  6448  0391  30FF               	movlw	255
  6449  0392  05E2               	andwf	___flmul@prod,f
  6450  0393  30FF               	movlw	255
  6451  0394  05E3               	andwf	___flmul@prod+1,f
  6452  0395  307F               	movlw	127
  6453  0396  05E4               	andwf	___flmul@prod+2,f
  6454  0397  3000               	movlw	0
  6455  0398  05E5               	andwf	___flmul@prod+3,f
  6456  0399                     l2870:
  6457  0399  1C61               	btfss	___flmul@bexp,0
  6458  039A  2B9C               	goto	u3671
  6459  039B  2B9D               	goto	u3670
  6460  039C                     u3671:
  6461  039C  2B9E               	goto	l2874
  6462  039D                     u3670:
  6463  039D                     l2872:
  6464  039D  17E4               	bsf	___flmul@prod+2,7
  6465  039E                     l2874:
  6466  039E  0861               	movf	___flmul@bexp,w
  6467  039F  00D6               	movwf	??___flmul
  6468  03A0  1003               	clrc
  6469  03A1  0C56               	rrf	??___flmul,w
  6470  03A2  00D7               	movwf	??___flmul+1
  6471  03A3  0857               	movf	??___flmul+1,w
  6472  03A4  00E5               	movwf	___flmul@prod+3
  6473  03A5                     l867:
  6474  03A5  085B               	movf	___flmul@sign,w
  6475  03A6  00D6               	movwf	??___flmul
  6476  03A7  0856               	movf	??___flmul,w
  6477  03A8  04E5               	iorwf	___flmul@prod+3,f
  6478  03A9                     l2876:
  6479  03A9  0865               	movf	___flmul@prod+3,w
  6480  03AA  00D1               	movwf	?___flmul+3
  6481  03AB  0864               	movf	___flmul@prod+2,w
  6482  03AC  00D0               	movwf	?___flmul+2
  6483  03AD  0863               	movf	___flmul@prod+1,w
  6484  03AE  00CF               	movwf	?___flmul+1
  6485  03AF  0862               	movf	___flmul@prod,w
  6486  03B0  00CE               	movwf	?___flmul
  6487  03B1                     l855:
  6488  03B1  0008               	return
  6489  03B2                     __end_of___flmul:
  6490                           
  6491                           	psect	text14
  6492  1363                     __ptext14:	
  6493 ;; *************** function __Umul8_16 *****************
  6494 ;; Defined at:
  6495 ;;		line 4 in file "C:\Program Files\Microchip\xc8\v2.32\pic\sources\c90\common\Umul8_16.c"
  6496 ;; Parameters:    Size  Location     Type
  6497 ;;  multiplier      1    wreg     unsigned char 
  6498 ;;  multiplicand    1    0[COMMON] unsigned char 
  6499 ;; Auto vars:     Size  Location     Type
  6500 ;;  multiplier      1    8[COMMON] unsigned char 
  6501 ;;  word_mpld       2    6[COMMON] unsigned int 
  6502 ;;  product         2    4[COMMON] unsigned int 
  6503 ;; Return value:  Size  Location     Type
  6504 ;;                  2    0[COMMON] unsigned int 
  6505 ;; Registers used:
  6506 ;;		wreg, status,2, status,0
  6507 ;; Tracked objects:
  6508 ;;		On entry : 0/0
  6509 ;;		On exit  : 0/0
  6510 ;;		Unchanged: 0/0
  6511 ;; Data sizes:     COMMON   BANK0   BANK1   BANK3   BANK2
  6512 ;;      Params:         2       0       0       0       0
  6513 ;;      Locals:         5       0       0       0       0
  6514 ;;      Temps:          2       0       0       0       0
  6515 ;;      Totals:         9       0       0       0       0
  6516 ;;Total ram usage:        9 bytes
  6517 ;; Hardware stack levels used: 1
  6518 ;; This function calls:
  6519 ;;		Nothing
  6520 ;; This function is called by:
  6521 ;;		___flmul
  6522 ;; This function uses a non-reentrant model
  6523 ;;
  6524                           
  6525                           
  6526                           ;psect for function __Umul8_16
  6527  1363                     __Umul8_16:
  6528                           
  6529                           ;incstack = 0
  6530                           ; Regs used in __Umul8_16: [wreg+status,2+status,0]
  6531                           ;__Umul8_16@multiplier stored from wreg
  6532  1363  00F8               	movwf	__Umul8_16@multiplier
  6533  1364                     l2390:
  6534  1364  01F4               	clrf	__Umul8_16@product
  6535  1365  01F5               	clrf	__Umul8_16@product+1
  6536  1366                     l2392:
  6537  1366  0870               	movf	__Umul8_16@multiplicand,w
  6538  1367  00F2               	movwf	??__Umul8_16
  6539  1368  01F3               	clrf	??__Umul8_16+1
  6540  1369  0872               	movf	??__Umul8_16,w
  6541  136A  00F6               	movwf	__Umul8_16@word_mpld
  6542  136B  0873               	movf	??__Umul8_16+1,w
  6543  136C  00F7               	movwf	__Umul8_16@word_mpld+1
  6544  136D                     l2394:
  6545  136D  1C78               	btfss	__Umul8_16@multiplier,0
  6546  136E  2B70               	goto	u2561
  6547  136F  2B71               	goto	u2560
  6548  1370                     u2561:
  6549  1370  2B77               	goto	l874
  6550  1371                     u2560:
  6551  1371                     l2396:
  6552  1371  0876               	movf	__Umul8_16@word_mpld,w
  6553  1372  07F4               	addwf	__Umul8_16@product,f
  6554  1373  1803               	skipnc
  6555  1374  0AF5               	incf	__Umul8_16@product+1,f
  6556  1375  0877               	movf	__Umul8_16@word_mpld+1,w
  6557  1376  07F5               	addwf	__Umul8_16@product+1,f
  6558  1377                     l874:
  6559  1377  3001               	movlw	1
  6560  1378                     u2575:
  6561  1378  1003               	clrc
  6562  1379  0DF6               	rlf	__Umul8_16@word_mpld,f
  6563  137A  0DF7               	rlf	__Umul8_16@word_mpld+1,f
  6564  137B  3EFF               	addlw	-1
  6565  137C  1D03               	skipz
  6566  137D  2B78               	goto	u2575
  6567  137E  1003               	clrc
  6568  137F  0CF8               	rrf	__Umul8_16@multiplier,f
  6569  1380                     l2398:
  6570  1380  0878               	movf	__Umul8_16@multiplier,w
  6571  1381  1D03               	btfss	3,2
  6572  1382  2B84               	goto	u2581
  6573  1383  2B85               	goto	u2580
  6574  1384                     u2581:
  6575  1384  2B6D               	goto	l2394
  6576  1385                     u2580:
  6577  1385                     l2400:
  6578  1385  0875               	movf	__Umul8_16@product+1,w
  6579  1386  00F1               	movwf	?__Umul8_16+1
  6580  1387  0874               	movf	__Umul8_16@product,w
  6581  1388  00F0               	movwf	?__Umul8_16
  6582  1389                     l876:
  6583  1389  0008               	return
  6584  138A                     __end_of__Umul8_16:
  6585                           
  6586                           	psect	text15
  6587  0826                     __ptext15:	
  6588 ;; *************** function ___flge *****************
  6589 ;; Defined at:
  6590 ;;		line 4 in file "C:\Program Files\Microchip\xc8\v2.32\pic\sources\c90\common\flge.c"
  6591 ;; Parameters:    Size  Location     Type
  6592 ;;  ff1             4    0[COMMON] unsigned int 
  6593 ;;  ff2             4    4[COMMON] unsigned int 
  6594 ;; Auto vars:     Size  Location     Type
  6595 ;;		None
  6596 ;; Return value:  Size  Location     Type
  6597 ;;		None               void
  6598 ;; Registers used:
  6599 ;;		wreg, status,2, status,0
  6600 ;; Tracked objects:
  6601 ;;		On entry : 0/0
  6602 ;;		On exit  : 0/0
  6603 ;;		Unchanged: 0/0
  6604 ;; Data sizes:     COMMON   BANK0   BANK1   BANK3   BANK2
  6605 ;;      Params:         8       0       0       0       0
  6606 ;;      Locals:         0       0       0       0       0
  6607 ;;      Temps:          4       0       0       0       0
  6608 ;;      Totals:        12       0       0       0       0
  6609 ;;Total ram usage:       12 bytes
  6610 ;; Hardware stack levels used: 1
  6611 ;; This function calls:
  6612 ;;		Nothing
  6613 ;; This function is called by:
  6614 ;;		_convert
  6615 ;; This function uses a non-reentrant model
  6616 ;;
  6617                           
  6618                           
  6619                           ;psect for function ___flge
  6620  0826                     ___flge:
  6621  0826                     l2536:	
  6622                           ;incstack = 0
  6623                           ; Regs used in ___flge: [wreg+status,2+status,0]
  6624                           
  6625  0826  3000               	movlw	0
  6626  0827  0570               	andwf	___flge@ff1,w
  6627  0828  00F8               	movwf	??___flge
  6628  0829  3000               	movlw	0
  6629  082A  0571               	andwf	___flge@ff1+1,w
  6630  082B  00F9               	movwf	??___flge+1
  6631  082C  3080               	movlw	128
  6632  082D  0572               	andwf	___flge@ff1+2,w
  6633  082E  00FA               	movwf	??___flge+2
  6634  082F  307F               	movlw	127
  6635  0830  0573               	andwf	___flge@ff1+3,w
  6636  0831  00FB               	movwf	??___flge+3
  6637  0832  087B               	movf	??___flge+3,w
  6638  0833  047A               	iorwf	??___flge+2,w
  6639  0834  0479               	iorwf	??___flge+1,w
  6640  0835  0478               	iorwf	??___flge,w
  6641  0836  1D03               	skipz
  6642  0837  2839               	goto	u2851
  6643  0838  283A               	goto	u2850
  6644  0839                     u2851:
  6645  0839  2842               	goto	l640
  6646  083A                     u2850:
  6647  083A                     l2538:
  6648  083A  3000               	movlw	0
  6649  083B  00F3               	movwf	___flge@ff1+3
  6650  083C  3000               	movlw	0
  6651  083D  00F2               	movwf	___flge@ff1+2
  6652  083E  3000               	movlw	0
  6653  083F  00F1               	movwf	___flge@ff1+1
  6654  0840  3000               	movlw	0
  6655  0841  00F0               	movwf	___flge@ff1
  6656  0842                     l640:
  6657  0842  3000               	movlw	0
  6658  0843  0574               	andwf	___flge@ff2,w
  6659  0844  00F8               	movwf	??___flge
  6660  0845  3000               	movlw	0
  6661  0846  0575               	andwf	___flge@ff2+1,w
  6662  0847  00F9               	movwf	??___flge+1
  6663  0848  3080               	movlw	128
  6664  0849  0576               	andwf	___flge@ff2+2,w
  6665  084A  00FA               	movwf	??___flge+2
  6666  084B  307F               	movlw	127
  6667  084C  0577               	andwf	___flge@ff2+3,w
  6668  084D  00FB               	movwf	??___flge+3
  6669  084E  087B               	movf	??___flge+3,w
  6670  084F  047A               	iorwf	??___flge+2,w
  6671  0850  0479               	iorwf	??___flge+1,w
  6672  0851  0478               	iorwf	??___flge,w
  6673  0852  1D03               	skipz
  6674  0853  2855               	goto	u2861
  6675  0854  2856               	goto	u2860
  6676  0855                     u2861:
  6677  0855  285E               	goto	l2542
  6678  0856                     u2860:
  6679  0856                     l2540:
  6680  0856  3000               	movlw	0
  6681  0857  00F7               	movwf	___flge@ff2+3
  6682  0858  3000               	movlw	0
  6683  0859  00F6               	movwf	___flge@ff2+2
  6684  085A  3000               	movlw	0
  6685  085B  00F5               	movwf	___flge@ff2+1
  6686  085C  3000               	movlw	0
  6687  085D  00F4               	movwf	___flge@ff2
  6688  085E                     l2542:
  6689  085E  1FF3               	btfss	___flge@ff1+3,7
  6690  085F  2861               	goto	u2871
  6691  0860  2862               	goto	u2870
  6692  0861                     u2871:
  6693  0861  2886               	goto	l2546
  6694  0862                     u2870:
  6695  0862                     l2544:
  6696  0862  3000               	movlw	0
  6697  0863  00F8               	movwf	??___flge
  6698  0864  3000               	movlw	0
  6699  0865  00F9               	movwf	??___flge+1
  6700  0866  3000               	movlw	0
  6701  0867  00FA               	movwf	??___flge+2
  6702  0868  3080               	movlw	128
  6703  0869  00FB               	movwf	??___flge+3
  6704  086A  0870               	movf	___flge@ff1,w
  6705  086B  02F8               	subwf	??___flge,f
  6706  086C  0871               	movf	___flge@ff1+1,w
  6707  086D  1C03               	skipc
  6708  086E  0F71               	incfsz	___flge@ff1+1,w
  6709  086F  2871               	goto	u2881
  6710  0870  2872               	goto	u2882
  6711  0871                     u2881:
  6712  0871  02F9               	subwf	??___flge+1,f
  6713  0872                     u2882:
  6714  0872  0872               	movf	___flge@ff1+2,w
  6715  0873  1C03               	skipc
  6716  0874  0F72               	incfsz	___flge@ff1+2,w
  6717  0875  2877               	goto	u2883
  6718  0876  2878               	goto	u2884
  6719  0877                     u2883:
  6720  0877  02FA               	subwf	??___flge+2,f
  6721  0878                     u2884:
  6722  0878  0873               	movf	___flge@ff1+3,w
  6723  0879  1C03               	skipc
  6724  087A  0F73               	incfsz	___flge@ff1+3,w
  6725  087B  287D               	goto	u2885
  6726  087C  287E               	goto	u2886
  6727  087D                     u2885:
  6728  087D  02FB               	subwf	??___flge+3,f
  6729  087E                     u2886:
  6730  087E  087B               	movf	??___flge+3,w
  6731  087F  00F3               	movwf	___flge@ff1+3
  6732  0880  087A               	movf	??___flge+2,w
  6733  0881  00F2               	movwf	___flge@ff1+2
  6734  0882  0879               	movf	??___flge+1,w
  6735  0883  00F1               	movwf	___flge@ff1+1
  6736  0884  0878               	movf	??___flge,w
  6737  0885  00F0               	movwf	___flge@ff1
  6738  0886                     l2546:
  6739  0886  1FF7               	btfss	___flge@ff2+3,7
  6740  0887  2889               	goto	u2891
  6741  0888  288A               	goto	u2890
  6742  0889                     u2891:
  6743  0889  28AE               	goto	l643
  6744  088A                     u2890:
  6745  088A                     l2548:
  6746  088A  3000               	movlw	0
  6747  088B  00F8               	movwf	??___flge
  6748  088C  3000               	movlw	0
  6749  088D  00F9               	movwf	??___flge+1
  6750  088E  3000               	movlw	0
  6751  088F  00FA               	movwf	??___flge+2
  6752  0890  3080               	movlw	128
  6753  0891  00FB               	movwf	??___flge+3
  6754  0892  0874               	movf	___flge@ff2,w
  6755  0893  02F8               	subwf	??___flge,f
  6756  0894  0875               	movf	___flge@ff2+1,w
  6757  0895  1C03               	skipc
  6758  0896  0F75               	incfsz	___flge@ff2+1,w
  6759  0897  2899               	goto	u2901
  6760  0898  289A               	goto	u2902
  6761  0899                     u2901:
  6762  0899  02F9               	subwf	??___flge+1,f
  6763  089A                     u2902:
  6764  089A  0876               	movf	___flge@ff2+2,w
  6765  089B  1C03               	skipc
  6766  089C  0F76               	incfsz	___flge@ff2+2,w
  6767  089D  289F               	goto	u2903
  6768  089E  28A0               	goto	u2904
  6769  089F                     u2903:
  6770  089F  02FA               	subwf	??___flge+2,f
  6771  08A0                     u2904:
  6772  08A0  0877               	movf	___flge@ff2+3,w
  6773  08A1  1C03               	skipc
  6774  08A2  0F77               	incfsz	___flge@ff2+3,w
  6775  08A3  28A5               	goto	u2905
  6776  08A4  28A6               	goto	u2906
  6777  08A5                     u2905:
  6778  08A5  02FB               	subwf	??___flge+3,f
  6779  08A6                     u2906:
  6780  08A6  087B               	movf	??___flge+3,w
  6781  08A7  00F7               	movwf	___flge@ff2+3
  6782  08A8  087A               	movf	??___flge+2,w
  6783  08A9  00F6               	movwf	___flge@ff2+2
  6784  08AA  0879               	movf	??___flge+1,w
  6785  08AB  00F5               	movwf	___flge@ff2+1
  6786  08AC  0878               	movf	??___flge,w
  6787  08AD  00F4               	movwf	___flge@ff2
  6788  08AE                     l643:
  6789  08AE  3080               	movlw	128
  6790  08AF  06F3               	xorwf	___flge@ff1+3,f
  6791  08B0  3080               	movlw	128
  6792  08B1  06F7               	xorwf	___flge@ff2+3,f
  6793  08B2  0877               	movf	___flge@ff2+3,w
  6794  08B3  0273               	subwf	___flge@ff1+3,w
  6795  08B4  1D03               	skipz
  6796  08B5  28C0               	goto	u2915
  6797  08B6  0876               	movf	___flge@ff2+2,w
  6798  08B7  0272               	subwf	___flge@ff1+2,w
  6799  08B8  1D03               	skipz
  6800  08B9  28C0               	goto	u2915
  6801  08BA  0875               	movf	___flge@ff2+1,w
  6802  08BB  0271               	subwf	___flge@ff1+1,w
  6803  08BC  1D03               	skipz
  6804  08BD  28C0               	goto	u2915
  6805  08BE  0874               	movf	___flge@ff2,w
  6806  08BF  0270               	subwf	___flge@ff1,w
  6807  08C0                     u2915:
  6808  08C0  1803               	skipnc
  6809  08C1  28C3               	goto	u2911
  6810  08C2  28C4               	goto	u2910
  6811  08C3                     u2911:
  6812  08C3  28C6               	goto	l2552
  6813  08C4                     u2910:
  6814  08C4                     l2550:
  6815  08C4  1003               	clrc
  6816  08C5  28C7               	goto	l644
  6817  08C6                     l2552:
  6818  08C6  1403               	setc
  6819  08C7                     l644:
  6820  08C7  0008               	return
  6821  08C8                     __end_of___flge:
  6822                           
  6823                           	psect	text16
  6824  1623                     __ptext16:	
  6825 ;; *************** function ___fldiv *****************
  6826 ;; Defined at:
  6827 ;;		line 8 in file "C:\Program Files\Microchip\xc8\v2.32\pic\sources\c90\common\sprcdiv.c"
  6828 ;; Parameters:    Size  Location     Type
  6829 ;;  a               4   18[BANK0 ] unsigned int 
  6830 ;;  b               4   22[BANK0 ] unsigned int 
  6831 ;; Auto vars:     Size  Location     Type
  6832 ;;  grs             4   38[BANK0 ] unsigned long 
  6833 ;;  rem             4   31[BANK0 ] unsigned long 
  6834 ;;  new_exp         2   36[BANK0 ] int 
  6835 ;;  aexp            1   43[BANK0 ] unsigned char 
  6836 ;;  bexp            1   42[BANK0 ] unsigned char 
  6837 ;;  sign            1   35[BANK0 ] unsigned char 
  6838 ;; Return value:  Size  Location     Type
  6839 ;;                  4   18[BANK0 ] unsigned char 
  6840 ;; Registers used:
  6841 ;;		wreg, status,2, status,0, btemp+1
  6842 ;; Tracked objects:
  6843 ;;		On entry : 0/0
  6844 ;;		On exit  : 0/0
  6845 ;;		Unchanged: 0/0
  6846 ;; Data sizes:     COMMON   BANK0   BANK1   BANK3   BANK2
  6847 ;;      Params:         0       8       0       0       0
  6848 ;;      Locals:         0      13       0       0       0
  6849 ;;      Temps:          0       5       0       0       0
  6850 ;;      Totals:         0      26       0       0       0
  6851 ;;Total ram usage:       26 bytes
  6852 ;; Hardware stack levels used: 1
  6853 ;; This function calls:
  6854 ;;		Nothing
  6855 ;; This function is called by:
  6856 ;;		_main
  6857 ;;		_convert
  6858 ;; This function uses a non-reentrant model
  6859 ;;
  6860                           
  6861                           
  6862                           ;psect for function ___fldiv
  6863  1623                     ___fldiv:
  6864  1623                     l2598:	
  6865                           ;incstack = 0
  6866                           ; Regs used in ___fldiv: [wreg+status,2+status,0+btemp+1]
  6867                           
  6868  1623  1283               	bcf	3,5	;RP0=0, select bank0
  6869  1624  1303               	bcf	3,6	;RP1=0, select bank0
  6870  1625  0839               	movf	___fldiv@b+3,w
  6871  1626  3980               	andlw	128
  6872  1627  00BA               	movwf	??___fldiv
  6873  1628  083A               	movf	??___fldiv,w
  6874  1629  00C3               	movwf	___fldiv@sign
  6875  162A                     l2600:
  6876  162A  0839               	movf	___fldiv@b+3,w
  6877  162B  00BA               	movwf	??___fldiv
  6878  162C  073A               	addwf	??___fldiv,w
  6879  162D  00BB               	movwf	??___fldiv+1
  6880  162E  083B               	movf	??___fldiv+1,w
  6881  162F  00CA               	movwf	___fldiv@bexp
  6882  1630                     l2602:
  6883  1630  1FB8               	btfss	___fldiv@b+2,7
  6884  1631  2E33               	goto	u3021
  6885  1632  2E34               	goto	u3020
  6886  1633                     u3021:
  6887  1633  2E35               	goto	l2606
  6888  1634                     u3020:
  6889  1634                     l2604:
  6890  1634  144A               	bsf	___fldiv@bexp,0
  6891  1635                     l2606:
  6892  1635  084A               	movf	___fldiv@bexp,w
  6893  1636  1903               	btfsc	3,2
  6894  1637  2E39               	goto	u3031
  6895  1638  2E3A               	goto	u3030
  6896  1639                     u3031:
  6897  1639  2E4A               	goto	l2616
  6898  163A                     u3030:
  6899  163A                     l2608:
  6900  163A  0A4A               	incf	___fldiv@bexp,w
  6901  163B  1D03               	btfss	3,2
  6902  163C  2E3E               	goto	u3041
  6903  163D  2E3F               	goto	u3040
  6904  163E                     u3041:
  6905  163E  2E47               	goto	l2612
  6906  163F                     u3040:
  6907  163F                     l2610:
  6908  163F  3000               	movlw	0
  6909  1640  00B9               	movwf	___fldiv@b+3
  6910  1641  3000               	movlw	0
  6911  1642  00B8               	movwf	___fldiv@b+2
  6912  1643  3000               	movlw	0
  6913  1644  00B7               	movwf	___fldiv@b+1
  6914  1645  3000               	movlw	0
  6915  1646  00B6               	movwf	___fldiv@b
  6916  1647                     l2612:
  6917  1647  17B8               	bsf	___fldiv@b+2,7
  6918  1648                     l2614:
  6919  1648  01B9               	clrf	___fldiv@b+3
  6920  1649  2E52               	goto	l2618
  6921  164A                     l2616:
  6922  164A  3000               	movlw	0
  6923  164B  00B9               	movwf	___fldiv@b+3
  6924  164C  3000               	movlw	0
  6925  164D  00B8               	movwf	___fldiv@b+2
  6926  164E  3000               	movlw	0
  6927  164F  00B7               	movwf	___fldiv@b+1
  6928  1650  3000               	movlw	0
  6929  1651  00B6               	movwf	___fldiv@b
  6930  1652                     l2618:
  6931  1652  0835               	movf	___fldiv@a+3,w
  6932  1653  3980               	andlw	128
  6933  1654  00BA               	movwf	??___fldiv
  6934  1655  083A               	movf	??___fldiv,w
  6935  1656  06C3               	xorwf	___fldiv@sign,f
  6936  1657                     l2620:
  6937  1657  0835               	movf	___fldiv@a+3,w
  6938  1658  00BA               	movwf	??___fldiv
  6939  1659  073A               	addwf	??___fldiv,w
  6940  165A  00BB               	movwf	??___fldiv+1
  6941  165B  083B               	movf	??___fldiv+1,w
  6942  165C  00CB               	movwf	___fldiv@aexp
  6943  165D                     l2622:
  6944  165D  1FB4               	btfss	___fldiv@a+2,7
  6945  165E  2E60               	goto	u3051
  6946  165F  2E61               	goto	u3050
  6947  1660                     u3051:
  6948  1660  2E62               	goto	l2626
  6949  1661                     u3050:
  6950  1661                     l2624:
  6951  1661  144B               	bsf	___fldiv@aexp,0
  6952  1662                     l2626:
  6953  1662  084B               	movf	___fldiv@aexp,w
  6954  1663  1903               	btfsc	3,2
  6955  1664  2E66               	goto	u3061
  6956  1665  2E67               	goto	u3060
  6957  1666                     u3061:
  6958  1666  2E77               	goto	l2636
  6959  1667                     u3060:
  6960  1667                     l2628:
  6961  1667  0A4B               	incf	___fldiv@aexp,w
  6962  1668  1D03               	btfss	3,2
  6963  1669  2E6B               	goto	u3071
  6964  166A  2E6C               	goto	u3070
  6965  166B                     u3071:
  6966  166B  2E74               	goto	l2632
  6967  166C                     u3070:
  6968  166C                     l2630:
  6969  166C  3000               	movlw	0
  6970  166D  00B5               	movwf	___fldiv@a+3
  6971  166E  3000               	movlw	0
  6972  166F  00B4               	movwf	___fldiv@a+2
  6973  1670  3000               	movlw	0
  6974  1671  00B3               	movwf	___fldiv@a+1
  6975  1672  3000               	movlw	0
  6976  1673  00B2               	movwf	___fldiv@a
  6977  1674                     l2632:
  6978  1674  17B4               	bsf	___fldiv@a+2,7
  6979  1675                     l2634:
  6980  1675  01B5               	clrf	___fldiv@a+3
  6981  1676  2E7F               	goto	l815
  6982  1677                     l2636:
  6983  1677  3000               	movlw	0
  6984  1678  00B5               	movwf	___fldiv@a+3
  6985  1679  3000               	movlw	0
  6986  167A  00B4               	movwf	___fldiv@a+2
  6987  167B  3000               	movlw	0
  6988  167C  00B3               	movwf	___fldiv@a+1
  6989  167D  3000               	movlw	0
  6990  167E  00B2               	movwf	___fldiv@a
  6991  167F                     l815:
  6992  167F  0835               	movf	___fldiv@a+3,w
  6993  1680  0434               	iorwf	___fldiv@a+2,w
  6994  1681  0433               	iorwf	___fldiv@a+1,w
  6995  1682  0432               	iorwf	___fldiv@a,w
  6996  1683  1D03               	skipz
  6997  1684  2E86               	goto	u3081
  6998  1685  2E87               	goto	u3080
  6999  1686                     u3081:
  7000  1686  2EA0               	goto	l2646
  7001  1687                     u3080:
  7002  1687                     l2638:
  7003  1687  3000               	movlw	0
  7004  1688  00B9               	movwf	___fldiv@b+3
  7005  1689  3000               	movlw	0
  7006  168A  00B8               	movwf	___fldiv@b+2
  7007  168B  3000               	movlw	0
  7008  168C  00B7               	movwf	___fldiv@b+1
  7009  168D  3000               	movlw	0
  7010  168E  00B6               	movwf	___fldiv@b
  7011  168F  3080               	movlw	128
  7012  1690  04B8               	iorwf	___fldiv@b+2,f
  7013  1691  307F               	movlw	127
  7014  1692  04B9               	iorwf	___fldiv@b+3,f
  7015  1693                     l2640:
  7016  1693  0843               	movf	___fldiv@sign,w
  7017  1694  00BA               	movwf	??___fldiv
  7018  1695  083A               	movf	??___fldiv,w
  7019  1696  04B9               	iorwf	___fldiv@b+3,f
  7020  1697                     l2642:
  7021  1697  0839               	movf	___fldiv@b+3,w
  7022  1698  00B5               	movwf	?___fldiv+3
  7023  1699  0838               	movf	___fldiv@b+2,w
  7024  169A  00B4               	movwf	?___fldiv+2
  7025  169B  0837               	movf	___fldiv@b+1,w
  7026  169C  00B3               	movwf	?___fldiv+1
  7027  169D  0836               	movf	___fldiv@b,w
  7028  169E  00B2               	movwf	?___fldiv
  7029  169F  2FFF               	goto	l817
  7030  16A0                     l2646:
  7031  16A0  084A               	movf	___fldiv@bexp,w
  7032  16A1  1D03               	btfss	3,2
  7033  16A2  2EA4               	goto	u3091
  7034  16A3  2EA5               	goto	u3090
  7035  16A4                     u3091:
  7036  16A4  2EAE               	goto	l2652
  7037  16A5                     u3090:
  7038  16A5                     l2648:
  7039  16A5  3000               	movlw	0
  7040  16A6  00B5               	movwf	?___fldiv+3
  7041  16A7  3000               	movlw	0
  7042  16A8  00B4               	movwf	?___fldiv+2
  7043  16A9  3000               	movlw	0
  7044  16AA  00B3               	movwf	?___fldiv+1
  7045  16AB  3000               	movlw	0
  7046  16AC  00B2               	movwf	?___fldiv
  7047  16AD  2FFF               	goto	l817
  7048  16AE                     l2652:
  7049  16AE  084A               	movf	___fldiv@bexp,w
  7050  16AF  00BA               	movwf	??___fldiv
  7051  16B0  01BB               	clrf	??___fldiv+1
  7052  16B1  083B               	movf	??___fldiv+1,w
  7053  16B2  00BD               	movwf	??___fldiv+3
  7054  16B3  084B               	movf	___fldiv@aexp,w
  7055  16B4  023A               	subwf	??___fldiv,w
  7056  16B5  00BC               	movwf	??___fldiv+2
  7057  16B6  1C03               	skipc
  7058  16B7  03BD               	decf	??___fldiv+3,f
  7059  16B8  083C               	movf	??___fldiv+2,w
  7060  16B9  3E7F               	addlw	127
  7061  16BA  00C4               	movwf	___fldiv@new_exp
  7062  16BB  083D               	movf	??___fldiv+3,w
  7063  16BC  1803               	skipnc
  7064  16BD  3E01               	addlw	1
  7065  16BE  3E00               	addlw	0
  7066  16BF  00C5               	movwf	___fldiv@new_exp+1
  7067  16C0                     l2654:
  7068  16C0  0839               	movf	___fldiv@b+3,w
  7069  16C1  00C2               	movwf	___fldiv@rem+3
  7070  16C2  0838               	movf	___fldiv@b+2,w
  7071  16C3  00C1               	movwf	___fldiv@rem+2
  7072  16C4  0837               	movf	___fldiv@b+1,w
  7073  16C5  00C0               	movwf	___fldiv@rem+1
  7074  16C6  0836               	movf	___fldiv@b,w
  7075  16C7  00BF               	movwf	___fldiv@rem
  7076  16C8                     l2656:
  7077  16C8  3000               	movlw	0
  7078  16C9  00B9               	movwf	___fldiv@b+3
  7079  16CA  3000               	movlw	0
  7080  16CB  00B8               	movwf	___fldiv@b+2
  7081  16CC  3000               	movlw	0
  7082  16CD  00B7               	movwf	___fldiv@b+1
  7083  16CE  3000               	movlw	0
  7084  16CF  00B6               	movwf	___fldiv@b
  7085  16D0                     l2658:
  7086  16D0  3000               	movlw	0
  7087  16D1  00C9               	movwf	___fldiv@grs+3
  7088  16D2  3000               	movlw	0
  7089  16D3  00C8               	movwf	___fldiv@grs+2
  7090  16D4  3000               	movlw	0
  7091  16D5  00C7               	movwf	___fldiv@grs+1
  7092  16D6  3000               	movlw	0
  7093  16D7  00C6               	movwf	___fldiv@grs
  7094  16D8                     l2660:
  7095  16D8  01CB               	clrf	___fldiv@aexp
  7096  16D9  2F24               	goto	l2680
  7097  16DA                     l2662:
  7098  16DA  084B               	movf	___fldiv@aexp,w
  7099  16DB  1903               	btfsc	3,2
  7100  16DC  2EDE               	goto	u3101
  7101  16DD  2EDF               	goto	u3100
  7102  16DE                     u3101:
  7103  16DE  2EFF               	goto	l2672
  7104  16DF                     u3100:
  7105  16DF                     l2664:
  7106  16DF  3001               	movlw	1
  7107  16E0  00BA               	movwf	??___fldiv
  7108  16E1                     u3115:
  7109  16E1  1003               	clrc
  7110  16E2  0DBF               	rlf	___fldiv@rem,f
  7111  16E3  0DC0               	rlf	___fldiv@rem+1,f
  7112  16E4  0DC1               	rlf	___fldiv@rem+2,f
  7113  16E5  0DC2               	rlf	___fldiv@rem+3,f
  7114  16E6  0BBA               	decfsz	??___fldiv,f
  7115  16E7  2EE1               	goto	u3115
  7116  16E8  3001               	movlw	1
  7117  16E9  00BA               	movwf	??___fldiv
  7118  16EA                     u3125:
  7119  16EA  1003               	clrc
  7120  16EB  0DB6               	rlf	___fldiv@b,f
  7121  16EC  0DB7               	rlf	___fldiv@b+1,f
  7122  16ED  0DB8               	rlf	___fldiv@b+2,f
  7123  16EE  0DB9               	rlf	___fldiv@b+3,f
  7124  16EF  0BBA               	decfsz	??___fldiv,f
  7125  16F0  2EEA               	goto	u3125
  7126  16F1                     l2666:
  7127  16F1  1FC9               	btfss	___fldiv@grs+3,7
  7128  16F2  2EF4               	goto	u3131
  7129  16F3  2EF5               	goto	u3130
  7130  16F4                     u3131:
  7131  16F4  2EF6               	goto	l2670
  7132  16F5                     u3130:
  7133  16F5                     l2668:
  7134  16F5  1436               	bsf	___fldiv@b,0
  7135  16F6                     l2670:
  7136  16F6  3001               	movlw	1
  7137  16F7  00BA               	movwf	??___fldiv
  7138  16F8                     u3145:
  7139  16F8  1003               	clrc
  7140  16F9  0DC6               	rlf	___fldiv@grs,f
  7141  16FA  0DC7               	rlf	___fldiv@grs+1,f
  7142  16FB  0DC8               	rlf	___fldiv@grs+2,f
  7143  16FC  0DC9               	rlf	___fldiv@grs+3,f
  7144  16FD  0BBA               	decfsz	??___fldiv,f
  7145  16FE  2EF8               	goto	u3145
  7146  16FF                     l2672:
  7147  16FF  0835               	movf	___fldiv@a+3,w
  7148  1700  0242               	subwf	___fldiv@rem+3,w
  7149  1701  1D03               	skipz
  7150  1702  2F0D               	goto	u3155
  7151  1703  0834               	movf	___fldiv@a+2,w
  7152  1704  0241               	subwf	___fldiv@rem+2,w
  7153  1705  1D03               	skipz
  7154  1706  2F0D               	goto	u3155
  7155  1707  0833               	movf	___fldiv@a+1,w
  7156  1708  0240               	subwf	___fldiv@rem+1,w
  7157  1709  1D03               	skipz
  7158  170A  2F0D               	goto	u3155
  7159  170B  0832               	movf	___fldiv@a,w
  7160  170C  023F               	subwf	___fldiv@rem,w
  7161  170D                     u3155:
  7162  170D  1C03               	skipc
  7163  170E  2F10               	goto	u3151
  7164  170F  2F11               	goto	u3150
  7165  1710                     u3151:
  7166  1710  2F20               	goto	l2678
  7167  1711                     u3150:
  7168  1711                     l2674:
  7169  1711  1749               	bsf	___fldiv@grs+3,6
  7170  1712                     l2676:
  7171  1712  0832               	movf	___fldiv@a,w
  7172  1713  02BF               	subwf	___fldiv@rem,f
  7173  1714  0833               	movf	___fldiv@a+1,w
  7174  1715  1C03               	skipc
  7175  1716  0F33               	incfsz	___fldiv@a+1,w
  7176  1717  02C0               	subwf	___fldiv@rem+1,f
  7177  1718  0834               	movf	___fldiv@a+2,w
  7178  1719  1C03               	skipc
  7179  171A  0F34               	incfsz	___fldiv@a+2,w
  7180  171B  02C1               	subwf	___fldiv@rem+2,f
  7181  171C  0835               	movf	___fldiv@a+3,w
  7182  171D  1C03               	skipc
  7183  171E  0F35               	incfsz	___fldiv@a+3,w
  7184  171F  02C2               	subwf	___fldiv@rem+3,f
  7185  1720                     l2678:
  7186  1720  3001               	movlw	1
  7187  1721  00BA               	movwf	??___fldiv
  7188  1722  083A               	movf	??___fldiv,w
  7189  1723  07CB               	addwf	___fldiv@aexp,f
  7190  1724                     l2680:
  7191  1724  301A               	movlw	26
  7192  1725  024B               	subwf	___fldiv@aexp,w
  7193  1726  1C03               	skipc
  7194  1727  2F29               	goto	u3161
  7195  1728  2F2A               	goto	u3160
  7196  1729                     u3161:
  7197  1729  2EDA               	goto	l2662
  7198  172A                     u3160:
  7199  172A                     l2682:
  7200  172A  0842               	movf	___fldiv@rem+3,w
  7201  172B  0441               	iorwf	___fldiv@rem+2,w
  7202  172C  0440               	iorwf	___fldiv@rem+1,w
  7203  172D  043F               	iorwf	___fldiv@rem,w
  7204  172E  1903               	skipnz
  7205  172F  2F31               	goto	u3171
  7206  1730  2F32               	goto	u3170
  7207  1731                     u3171:
  7208  1731  2F51               	goto	l2696
  7209  1732                     u3170:
  7210  1732                     l2684:
  7211  1732  1446               	bsf	___fldiv@grs,0
  7212  1733  2F51               	goto	l2696
  7213  1734                     l2686:
  7214  1734  3001               	movlw	1
  7215  1735  00BA               	movwf	??___fldiv
  7216  1736                     u3185:
  7217  1736  1003               	clrc
  7218  1737  0DB6               	rlf	___fldiv@b,f
  7219  1738  0DB7               	rlf	___fldiv@b+1,f
  7220  1739  0DB8               	rlf	___fldiv@b+2,f
  7221  173A  0DB9               	rlf	___fldiv@b+3,f
  7222  173B  0BBA               	decfsz	??___fldiv,f
  7223  173C  2F36               	goto	u3185
  7224  173D                     l2688:
  7225  173D  1FC9               	btfss	___fldiv@grs+3,7
  7226  173E  2F40               	goto	u3191
  7227  173F  2F41               	goto	u3190
  7228  1740                     u3191:
  7229  1740  2F42               	goto	l2692
  7230  1741                     u3190:
  7231  1741                     l2690:
  7232  1741  1436               	bsf	___fldiv@b,0
  7233  1742                     l2692:
  7234  1742  3001               	movlw	1
  7235  1743  00BA               	movwf	??___fldiv
  7236  1744                     u3205:
  7237  1744  1003               	clrc
  7238  1745  0DC6               	rlf	___fldiv@grs,f
  7239  1746  0DC7               	rlf	___fldiv@grs+1,f
  7240  1747  0DC8               	rlf	___fldiv@grs+2,f
  7241  1748  0DC9               	rlf	___fldiv@grs+3,f
  7242  1749  0BBA               	decfsz	??___fldiv,f
  7243  174A  2F44               	goto	u3205
  7244  174B                     l2694:
  7245  174B  30FF               	movlw	255
  7246  174C  07C4               	addwf	___fldiv@new_exp,f
  7247  174D  1803               	skipnc
  7248  174E  0AC5               	incf	___fldiv@new_exp+1,f
  7249  174F  30FF               	movlw	255
  7250  1750  07C5               	addwf	___fldiv@new_exp+1,f
  7251  1751                     l2696:
  7252  1751  1FB8               	btfss	___fldiv@b+2,7
  7253  1752  2F54               	goto	u3211
  7254  1753  2F55               	goto	u3210
  7255  1754                     u3211:
  7256  1754  2F34               	goto	l2686
  7257  1755                     u3210:
  7258  1755                     l2698:
  7259  1755  01CB               	clrf	___fldiv@aexp
  7260  1756                     l2700:
  7261  1756  1FC9               	btfss	___fldiv@grs+3,7
  7262  1757  2F59               	goto	u3221
  7263  1758  2F5A               	goto	u3220
  7264  1759                     u3221:
  7265  1759  2F76               	goto	l2708
  7266  175A                     u3220:
  7267  175A                     l2702:
  7268  175A  30FF               	movlw	255
  7269  175B  0546               	andwf	___fldiv@grs,w
  7270  175C  00BA               	movwf	??___fldiv
  7271  175D  30FF               	movlw	255
  7272  175E  0547               	andwf	___fldiv@grs+1,w
  7273  175F  00BB               	movwf	??___fldiv+1
  7274  1760  30FF               	movlw	255
  7275  1761  0548               	andwf	___fldiv@grs+2,w
  7276  1762  00BC               	movwf	??___fldiv+2
  7277  1763  307F               	movlw	127
  7278  1764  0549               	andwf	___fldiv@grs+3,w
  7279  1765  00BD               	movwf	??___fldiv+3
  7280  1766  083D               	movf	??___fldiv+3,w
  7281  1767  043C               	iorwf	??___fldiv+2,w
  7282  1768  043B               	iorwf	??___fldiv+1,w
  7283  1769  043A               	iorwf	??___fldiv,w
  7284  176A  1903               	skipnz
  7285  176B  2F6D               	goto	u3231
  7286  176C  2F6E               	goto	u3230
  7287  176D                     u3231:
  7288  176D  2F71               	goto	l831
  7289  176E                     u3230:
  7290  176E                     l2704:
  7291  176E  01CB               	clrf	___fldiv@aexp
  7292  176F  0ACB               	incf	___fldiv@aexp,f
  7293  1770  2F76               	goto	l2708
  7294  1771                     l831:
  7295  1771  1C36               	btfss	___fldiv@b,0
  7296  1772  2F74               	goto	u3241
  7297  1773  2F75               	goto	u3240
  7298  1774                     u3241:
  7299  1774  2F76               	goto	l2708
  7300  1775                     u3240:
  7301  1775  2F6E               	goto	l2704
  7302  1776                     l2708:
  7303  1776  084B               	movf	___fldiv@aexp,w
  7304  1777  1903               	btfsc	3,2
  7305  1778  2F7A               	goto	u3251
  7306  1779  2F7B               	goto	u3250
  7307  177A                     u3251:
  7308  177A  2FAC               	goto	l2718
  7309  177B                     u3250:
  7310  177B                     l2710:
  7311  177B  3001               	movlw	1
  7312  177C  07B6               	addwf	___fldiv@b,f
  7313  177D  3000               	movlw	0
  7314  177E  1803               	skipnc
  7315  177F  3001               	movlw	1
  7316  1780  07B7               	addwf	___fldiv@b+1,f
  7317  1781  3000               	movlw	0
  7318  1782  1803               	skipnc
  7319  1783  3001               	movlw	1
  7320  1784  07B8               	addwf	___fldiv@b+2,f
  7321  1785  3000               	movlw	0
  7322  1786  1803               	skipnc
  7323  1787  3001               	movlw	1
  7324  1788  07B9               	addwf	___fldiv@b+3,f
  7325  1789                     l2712:
  7326  1789  1C39               	btfss	___fldiv@b+3,0
  7327  178A  2F8C               	goto	u3261
  7328  178B  2F8D               	goto	u3260
  7329  178C                     u3261:
  7330  178C  2FAC               	goto	l2718
  7331  178D                     u3260:
  7332  178D                     l2714:
  7333  178D  0836               	movf	___fldiv@b,w
  7334  178E  00BA               	movwf	??___fldiv
  7335  178F  0837               	movf	___fldiv@b+1,w
  7336  1790  00BB               	movwf	??___fldiv+1
  7337  1791  0838               	movf	___fldiv@b+2,w
  7338  1792  00BC               	movwf	??___fldiv+2
  7339  1793  0839               	movf	___fldiv@b+3,w
  7340  1794  00BD               	movwf	??___fldiv+3
  7341  1795  3001               	movlw	1
  7342  1796  00BE               	movwf	??___fldiv+4
  7343  1797                     u3275:
  7344  1797  0D3D               	rlf	??___fldiv+3,w
  7345  1798  0CBD               	rrf	??___fldiv+3,f
  7346  1799  0CBC               	rrf	??___fldiv+2,f
  7347  179A  0CBB               	rrf	??___fldiv+1,f
  7348  179B  0CBA               	rrf	??___fldiv,f
  7349  179C                     u3270:
  7350  179C  0BBE               	decfsz	??___fldiv+4,f
  7351  179D  2F97               	goto	u3275
  7352  179E  083D               	movf	??___fldiv+3,w
  7353  179F  00B9               	movwf	___fldiv@b+3
  7354  17A0  083C               	movf	??___fldiv+2,w
  7355  17A1  00B8               	movwf	___fldiv@b+2
  7356  17A2  083B               	movf	??___fldiv+1,w
  7357  17A3  00B7               	movwf	___fldiv@b+1
  7358  17A4  083A               	movf	??___fldiv,w
  7359  17A5  00B6               	movwf	___fldiv@b
  7360  17A6                     l2716:
  7361  17A6  3001               	movlw	1
  7362  17A7  07C4               	addwf	___fldiv@new_exp,f
  7363  17A8  1803               	skipnc
  7364  17A9  0AC5               	incf	___fldiv@new_exp+1,f
  7365  17AA  3000               	movlw	0
  7366  17AB  07C5               	addwf	___fldiv@new_exp+1,f
  7367  17AC                     l2718:
  7368  17AC  0845               	movf	___fldiv@new_exp+1,w
  7369  17AD  3A80               	xorlw	128
  7370  17AE  00FF               	movwf	btemp+1
  7371  17AF  3080               	movlw	128
  7372  17B0  027F               	subwf	btemp+1,w
  7373  17B1  1D03               	skipz
  7374  17B2  2FB5               	goto	u3285
  7375  17B3  30FF               	movlw	255
  7376  17B4  0244               	subwf	___fldiv@new_exp,w
  7377  17B5                     u3285:
  7378  17B5  1C03               	skipc
  7379  17B6  2FB8               	goto	u3281
  7380  17B7  2FB9               	goto	u3280
  7381  17B8                     u3281:
  7382  17B8  2FC7               	goto	l2722
  7383  17B9                     u3280:
  7384  17B9                     l2720:
  7385  17B9  30FF               	movlw	255
  7386  17BA  1283               	bcf	3,5	;RP0=0, select bank0
  7387  17BB  1303               	bcf	3,6	;RP1=0, select bank0
  7388  17BC  00C4               	movwf	___fldiv@new_exp
  7389  17BD  3000               	movlw	0
  7390  17BE  00C5               	movwf	___fldiv@new_exp+1
  7391  17BF  3000               	movlw	0
  7392  17C0  00B9               	movwf	___fldiv@b+3
  7393  17C1  3000               	movlw	0
  7394  17C2  00B8               	movwf	___fldiv@b+2
  7395  17C3  3000               	movlw	0
  7396  17C4  00B7               	movwf	___fldiv@b+1
  7397  17C5  3000               	movlw	0
  7398  17C6  00B6               	movwf	___fldiv@b
  7399  17C7                     l2722:
  7400  17C7  1283               	bcf	3,5	;RP0=0, select bank0
  7401  17C8  1303               	bcf	3,6	;RP1=0, select bank0
  7402  17C9  0845               	movf	___fldiv@new_exp+1,w
  7403  17CA  3A80               	xorlw	128
  7404  17CB  00FF               	movwf	btemp+1
  7405  17CC  3080               	movlw	128
  7406  17CD  027F               	subwf	btemp+1,w
  7407  17CE  1D03               	skipz
  7408  17CF  2FD2               	goto	u3295
  7409  17D0  3001               	movlw	1
  7410  17D1  0244               	subwf	___fldiv@new_exp,w
  7411  17D2                     u3295:
  7412  17D2  1803               	skipnc
  7413  17D3  2FD5               	goto	u3291
  7414  17D4  2FD6               	goto	u3290
  7415  17D5                     u3291:
  7416  17D5  2FE3               	goto	l837
  7417  17D6                     u3290:
  7418  17D6                     l2724:
  7419  17D6  1283               	bcf	3,5	;RP0=0, select bank0
  7420  17D7  1303               	bcf	3,6	;RP1=0, select bank0
  7421  17D8  01C4               	clrf	___fldiv@new_exp
  7422  17D9  01C5               	clrf	___fldiv@new_exp+1
  7423  17DA                     l2726:
  7424  17DA  3000               	movlw	0
  7425  17DB  00B9               	movwf	___fldiv@b+3
  7426  17DC  3000               	movlw	0
  7427  17DD  00B8               	movwf	___fldiv@b+2
  7428  17DE  3000               	movlw	0
  7429  17DF  00B7               	movwf	___fldiv@b+1
  7430  17E0  3000               	movlw	0
  7431  17E1  00B6               	movwf	___fldiv@b
  7432  17E2                     l2728:
  7433  17E2  01C3               	clrf	___fldiv@sign
  7434  17E3                     l837:
  7435  17E3  1283               	bcf	3,5	;RP0=0, select bank0
  7436  17E4  1303               	bcf	3,6	;RP1=0, select bank0
  7437  17E5  0844               	movf	___fldiv@new_exp,w
  7438  17E6  00BA               	movwf	??___fldiv
  7439  17E7  083A               	movf	??___fldiv,w
  7440  17E8  00CA               	movwf	___fldiv@bexp
  7441  17E9                     l2730:
  7442  17E9  1C4A               	btfss	___fldiv@bexp,0
  7443  17EA  2FEC               	goto	u3301
  7444  17EB  2FED               	goto	u3300
  7445  17EC                     u3301:
  7446  17EC  2FEF               	goto	l2734
  7447  17ED                     u3300:
  7448  17ED                     l2732:
  7449  17ED  17B8               	bsf	___fldiv@b+2,7
  7450  17EE  2FF3               	goto	l839
  7451  17EF                     l2734:
  7452  17EF  307F               	movlw	127
  7453  17F0  00BA               	movwf	??___fldiv
  7454  17F1  083A               	movf	??___fldiv,w
  7455  17F2  05B8               	andwf	___fldiv@b+2,f
  7456  17F3                     l839:
  7457  17F3  084A               	movf	___fldiv@bexp,w
  7458  17F4  00BA               	movwf	??___fldiv
  7459  17F5  1003               	clrc
  7460  17F6  0C3A               	rrf	??___fldiv,w
  7461  17F7  00BB               	movwf	??___fldiv+1
  7462  17F8  083B               	movf	??___fldiv+1,w
  7463  17F9  00B9               	movwf	___fldiv@b+3
  7464  17FA  0843               	movf	___fldiv@sign,w
  7465  17FB  00BA               	movwf	??___fldiv
  7466  17FC  083A               	movf	??___fldiv,w
  7467  17FD  04B9               	iorwf	___fldiv@b+3,f
  7468  17FE  2E97               	goto	l2642
  7469  17FF                     l817:
  7470  17FF  0008               	return
  7471  1800                     __end_of___fldiv:
  7472                           
  7473                           	psect	text17
  7474  12B4                     __ptext17:	
  7475 ;; *************** function _centenas *****************
  7476 ;; Defined at:
  7477 ;;		line 222 in file "Master.c"
  7478 ;; Parameters:    Size  Location     Type
  7479 ;;  dato            2    4[BANK0 ] int 
  7480 ;; Auto vars:     Size  Location     Type
  7481 ;;  out             1   13[COMMON] unsigned char 
  7482 ;; Return value:  Size  Location     Type
  7483 ;;                  1    wreg      unsigned char 
  7484 ;; Registers used:
  7485 ;;		wreg, status,2, status,0, pclath, cstack
  7486 ;; Tracked objects:
  7487 ;;		On entry : 0/0
  7488 ;;		On exit  : 0/0
  7489 ;;		Unchanged: 0/0
  7490 ;; Data sizes:     COMMON   BANK0   BANK1   BANK3   BANK2
  7491 ;;      Params:         0       2       0       0       0
  7492 ;;      Locals:         1       0       0       0       0
  7493 ;;      Temps:          1       0       0       0       0
  7494 ;;      Totals:         2       2       0       0       0
  7495 ;;Total ram usage:        4 bytes
  7496 ;; Hardware stack levels used: 1
  7497 ;; Hardware stack levels required when called: 1
  7498 ;; This function calls:
  7499 ;;		___awdiv
  7500 ;; This function is called by:
  7501 ;;		_main
  7502 ;; This function uses a non-reentrant model
  7503 ;;
  7504                           
  7505                           
  7506                           ;psect for function _centenas
  7507  12B4                     _centenas:
  7508  12B4                     l3102:	
  7509                           ;incstack = 0
  7510                           ; Regs used in _centenas: [wreg+status,2+status,0+pclath+cstack]
  7511                           
  7512                           
  7513                           ;Master.c: 223:     char out = dato / 100;
  7514  12B4  3064               	movlw	100
  7515  12B5  00F7               	movwf	___awdiv@divisor
  7516  12B6  3000               	movlw	0
  7517  12B7  00F8               	movwf	___awdiv@divisor+1
  7518  12B8  1283               	bcf	3,5	;RP0=0, select bank0
  7519  12B9  1303               	bcf	3,6	;RP1=0, select bank0
  7520  12BA  0825               	movf	centenas@dato+1,w
  7521  12BB  00FA               	movwf	___awdiv@dividend+1
  7522  12BC  0824               	movf	centenas@dato,w
  7523  12BD  00F9               	movwf	___awdiv@dividend
  7524  12BE  160A  118A  2540  160A  118A  	fcall	___awdiv
  7525  12C3  0877               	movf	?___awdiv,w
  7526  12C4  00FC               	movwf	??_centenas
  7527  12C5  087C               	movf	??_centenas,w
  7528  12C6  00FD               	movwf	centenas@out
  7529  12C7                     l3104:
  7530                           
  7531                           ;Master.c: 224:     return out;
  7532  12C7  087D               	movf	centenas@out,w
  7533  12C8                     l126:
  7534  12C8  0008               	return
  7535  12C9                     __end_of_centenas:
  7536                           
  7537                           	psect	text18
  7538  1540                     __ptext18:	
  7539 ;; *************** function ___awdiv *****************
  7540 ;; Defined at:
  7541 ;;		line 5 in file "C:\Program Files\Microchip\xc8\v2.32\pic\sources\c90\common\awdiv.c"
  7542 ;; Parameters:    Size  Location     Type
  7543 ;;  divisor         2    7[COMMON] int 
  7544 ;;  dividend        2    9[COMMON] int 
  7545 ;; Auto vars:     Size  Location     Type
  7546 ;;  quotient        2    2[BANK0 ] int 
  7547 ;;  sign            1    1[BANK0 ] unsigned char 
  7548 ;;  counter         1    0[BANK0 ] unsigned char 
  7549 ;; Return value:  Size  Location     Type
  7550 ;;                  2    7[COMMON] int 
  7551 ;; Registers used:
  7552 ;;		wreg, status,2, status,0
  7553 ;; Tracked objects:
  7554 ;;		On entry : 0/0
  7555 ;;		On exit  : 0/0
  7556 ;;		Unchanged: 0/0
  7557 ;; Data sizes:     COMMON   BANK0   BANK1   BANK3   BANK2
  7558 ;;      Params:         4       0       0       0       0
  7559 ;;      Locals:         0       4       0       0       0
  7560 ;;      Temps:          1       0       0       0       0
  7561 ;;      Totals:         5       4       0       0       0
  7562 ;;Total ram usage:        9 bytes
  7563 ;; Hardware stack levels used: 1
  7564 ;; This function calls:
  7565 ;;		Nothing
  7566 ;; This function is called by:
  7567 ;;		_centenas
  7568 ;;		_decenas
  7569 ;;		_convert
  7570 ;; This function uses a non-reentrant model
  7571 ;;
  7572                           
  7573                           
  7574                           ;psect for function ___awdiv
  7575  1540                     ___awdiv:
  7576  1540                     l2454:	
  7577                           ;incstack = 0
  7578                           ; Regs used in ___awdiv: [wreg+status,2+status,0]
  7579                           
  7580  1540  1283               	bcf	3,5	;RP0=0, select bank0
  7581  1541  1303               	bcf	3,6	;RP1=0, select bank0
  7582  1542  01A1               	clrf	___awdiv@sign
  7583  1543                     l2456:
  7584  1543  1FF8               	btfss	___awdiv@divisor+1,7
  7585  1544  2D46               	goto	u2661
  7586  1545  2D47               	goto	u2660
  7587  1546                     u2661:
  7588  1546  2D4E               	goto	l2462
  7589  1547                     u2660:
  7590  1547                     l2458:
  7591  1547  09F7               	comf	___awdiv@divisor,f
  7592  1548  09F8               	comf	___awdiv@divisor+1,f
  7593  1549  0AF7               	incf	___awdiv@divisor,f
  7594  154A  1903               	skipnz
  7595  154B  0AF8               	incf	___awdiv@divisor+1,f
  7596  154C                     l2460:
  7597  154C  01A1               	clrf	___awdiv@sign
  7598  154D  0AA1               	incf	___awdiv@sign,f
  7599  154E                     l2462:
  7600  154E  1FFA               	btfss	___awdiv@dividend+1,7
  7601  154F  2D51               	goto	u2671
  7602  1550  2D52               	goto	u2670
  7603  1551                     u2671:
  7604  1551  2D5B               	goto	l2468
  7605  1552                     u2670:
  7606  1552                     l2464:
  7607  1552  09F9               	comf	___awdiv@dividend,f
  7608  1553  09FA               	comf	___awdiv@dividend+1,f
  7609  1554  0AF9               	incf	___awdiv@dividend,f
  7610  1555  1903               	skipnz
  7611  1556  0AFA               	incf	___awdiv@dividend+1,f
  7612  1557                     l2466:
  7613  1557  3001               	movlw	1
  7614  1558  00FB               	movwf	??___awdiv
  7615  1559  087B               	movf	??___awdiv,w
  7616  155A  06A1               	xorwf	___awdiv@sign,f
  7617  155B                     l2468:
  7618  155B  01A2               	clrf	___awdiv@quotient
  7619  155C  01A3               	clrf	___awdiv@quotient+1
  7620  155D                     l2470:
  7621  155D  0877               	movf	___awdiv@divisor,w
  7622  155E  0478               	iorwf	___awdiv@divisor+1,w
  7623  155F  1903               	btfsc	3,2
  7624  1560  2D62               	goto	u2681
  7625  1561  2D63               	goto	u2680
  7626  1562                     u2681:
  7627  1562  2D9A               	goto	l2490
  7628  1563                     u2680:
  7629  1563                     l2472:
  7630  1563  01A0               	clrf	___awdiv@counter
  7631  1564  0AA0               	incf	___awdiv@counter,f
  7632  1565  2D71               	goto	l2478
  7633  1566                     l2474:
  7634  1566  3001               	movlw	1
  7635  1567                     u2695:
  7636  1567  1003               	clrc
  7637  1568  0DF7               	rlf	___awdiv@divisor,f
  7638  1569  0DF8               	rlf	___awdiv@divisor+1,f
  7639  156A  3EFF               	addlw	-1
  7640  156B  1D03               	skipz
  7641  156C  2D67               	goto	u2695
  7642  156D                     l2476:
  7643  156D  3001               	movlw	1
  7644  156E  00FB               	movwf	??___awdiv
  7645  156F  087B               	movf	??___awdiv,w
  7646  1570  07A0               	addwf	___awdiv@counter,f
  7647  1571                     l2478:
  7648  1571  1FF8               	btfss	___awdiv@divisor+1,7
  7649  1572  2D74               	goto	u2701
  7650  1573  2D75               	goto	u2700
  7651  1574                     u2701:
  7652  1574  2D66               	goto	l2474
  7653  1575                     u2700:
  7654  1575                     l2480:
  7655  1575  3001               	movlw	1
  7656  1576                     u2715:
  7657  1576  1003               	clrc
  7658  1577  0DA2               	rlf	___awdiv@quotient,f
  7659  1578  0DA3               	rlf	___awdiv@quotient+1,f
  7660  1579  3EFF               	addlw	-1
  7661  157A  1D03               	skipz
  7662  157B  2D76               	goto	u2715
  7663  157C  0878               	movf	___awdiv@divisor+1,w
  7664  157D  027A               	subwf	___awdiv@dividend+1,w
  7665  157E  1D03               	skipz
  7666  157F  2D82               	goto	u2725
  7667  1580  0877               	movf	___awdiv@divisor,w
  7668  1581  0279               	subwf	___awdiv@dividend,w
  7669  1582                     u2725:
  7670  1582  1C03               	skipc
  7671  1583  2D85               	goto	u2721
  7672  1584  2D86               	goto	u2720
  7673  1585                     u2721:
  7674  1585  2D8D               	goto	l2486
  7675  1586                     u2720:
  7676  1586                     l2482:
  7677  1586  0877               	movf	___awdiv@divisor,w
  7678  1587  02F9               	subwf	___awdiv@dividend,f
  7679  1588  0878               	movf	___awdiv@divisor+1,w
  7680  1589  1C03               	skipc
  7681  158A  03FA               	decf	___awdiv@dividend+1,f
  7682  158B  02FA               	subwf	___awdiv@dividend+1,f
  7683  158C                     l2484:
  7684  158C  1422               	bsf	___awdiv@quotient,0
  7685  158D                     l2486:
  7686  158D  3001               	movlw	1
  7687  158E                     u2735:
  7688  158E  1003               	clrc
  7689  158F  0CF8               	rrf	___awdiv@divisor+1,f
  7690  1590  0CF7               	rrf	___awdiv@divisor,f
  7691  1591  3EFF               	addlw	-1
  7692  1592  1D03               	skipz
  7693  1593  2D8E               	goto	u2735
  7694  1594                     l2488:
  7695  1594  3001               	movlw	1
  7696  1595  02A0               	subwf	___awdiv@counter,f
  7697  1596  1D03               	btfss	3,2
  7698  1597  2D99               	goto	u2741
  7699  1598  2D9A               	goto	u2740
  7700  1599                     u2741:
  7701  1599  2D75               	goto	l2480
  7702  159A                     u2740:
  7703  159A                     l2490:
  7704  159A  0821               	movf	___awdiv@sign,w
  7705  159B  1903               	btfsc	3,2
  7706  159C  2D9E               	goto	u2751
  7707  159D  2D9F               	goto	u2750
  7708  159E                     u2751:
  7709  159E  2DA4               	goto	l2494
  7710  159F                     u2750:
  7711  159F                     l2492:
  7712  159F  09A2               	comf	___awdiv@quotient,f
  7713  15A0  09A3               	comf	___awdiv@quotient+1,f
  7714  15A1  0AA2               	incf	___awdiv@quotient,f
  7715  15A2  1903               	skipnz
  7716  15A3  0AA3               	incf	___awdiv@quotient+1,f
  7717  15A4                     l2494:
  7718  15A4  0823               	movf	___awdiv@quotient+1,w
  7719  15A5  00F8               	movwf	?___awdiv+1
  7720  15A6  0822               	movf	___awdiv@quotient,w
  7721  15A7  00F7               	movwf	?___awdiv
  7722  15A8                     l619:
  7723  15A8  0008               	return
  7724  15A9                     __end_of___awdiv:
  7725                           
  7726                           	psect	text19
  7727  128E                     __ptext19:	
  7728 ;; *************** function _USART_Tx *****************
  7729 ;; Defined at:
  7730 ;;		line 239 in file "Master.c"
  7731 ;; Parameters:    Size  Location     Type
  7732 ;;  data            1    wreg     unsigned char 
  7733 ;; Auto vars:     Size  Location     Type
  7734 ;;  data            1    0[COMMON] unsigned char 
  7735 ;; Return value:  Size  Location     Type
  7736 ;;                  1    wreg      void 
  7737 ;; Registers used:
  7738 ;;		wreg
  7739 ;; Tracked objects:
  7740 ;;		On entry : 0/0
  7741 ;;		On exit  : 0/0
  7742 ;;		Unchanged: 0/0
  7743 ;; Data sizes:     COMMON   BANK0   BANK1   BANK3   BANK2
  7744 ;;      Params:         0       0       0       0       0
  7745 ;;      Locals:         1       0       0       0       0
  7746 ;;      Temps:          0       0       0       0       0
  7747 ;;      Totals:         1       0       0       0       0
  7748 ;;Total ram usage:        1 bytes
  7749 ;; Hardware stack levels used: 1
  7750 ;; This function calls:
  7751 ;;		Nothing
  7752 ;; This function is called by:
  7753 ;;		_main
  7754 ;;		_USART_Cadena
  7755 ;; This function uses a non-reentrant model
  7756 ;;
  7757                           
  7758                           
  7759                           ;psect for function _USART_Tx
  7760  128E                     _USART_Tx:
  7761                           
  7762                           ;incstack = 0
  7763                           ; Regs used in _USART_Tx: [wreg]
  7764                           ;USART_Tx@data stored from wreg
  7765  128E  00F0               	movwf	USART_Tx@data
  7766  128F                     l3124:
  7767  128F                     l135:	
  7768                           ;Master.c: 240:     while(TXSTAbits.TRMT == 0);
  7769                           
  7770  128F  1683               	bsf	3,5	;RP0=1, select bank1
  7771  1290  1303               	bcf	3,6	;RP1=0, select bank1
  7772  1291  1C98               	btfss	24,1	;volatile
  7773  1292  2A94               	goto	u3971
  7774  1293  2A95               	goto	u3970
  7775  1294                     u3971:
  7776  1294  2A8F               	goto	l135
  7777  1295                     u3970:
  7778  1295                     l3126:
  7779                           
  7780                           ;Master.c: 241:     TXREG = data;
  7781  1295  0870               	movf	USART_Tx@data,w
  7782  1296  1283               	bcf	3,5	;RP0=0, select bank0
  7783  1297  1303               	bcf	3,6	;RP1=0, select bank0
  7784  1298  0099               	movwf	25	;volatile
  7785  1299                     l138:
  7786  1299  0008               	return
  7787  129A                     __end_of_USART_Tx:
  7788                           
  7789                           	psect	text20
  7790  1269                     __ptext20:	
  7791 ;; *************** function _USART_Recieve *****************
  7792 ;; Defined at:
  7793 ;;		line 487 in file "Librerias.c"
  7794 ;; Parameters:    Size  Location     Type
  7795 ;;		None
  7796 ;; Auto vars:     Size  Location     Type
  7797 ;;		None
  7798 ;; Return value:  Size  Location     Type
  7799 ;;                  1    wreg      unsigned char 
  7800 ;; Registers used:
  7801 ;;		wreg
  7802 ;; Tracked objects:
  7803 ;;		On entry : 0/0
  7804 ;;		On exit  : 0/0
  7805 ;;		Unchanged: 0/0
  7806 ;; Data sizes:     COMMON   BANK0   BANK1   BANK3   BANK2
  7807 ;;      Params:         0       0       0       0       0
  7808 ;;      Locals:         0       0       0       0       0
  7809 ;;      Temps:          0       0       0       0       0
  7810 ;;      Totals:         0       0       0       0       0
  7811 ;;Total ram usage:        0 bytes
  7812 ;; Hardware stack levels used: 1
  7813 ;; This function calls:
  7814 ;;		Nothing
  7815 ;; This function is called by:
  7816 ;;		_main
  7817 ;; This function uses a non-reentrant model
  7818 ;;
  7819                           
  7820                           
  7821                           ;psect for function _USART_Recieve
  7822  1269                     _USART_Recieve:
  7823  1269                     l3120:	
  7824                           ;incstack = 0
  7825                           ; Regs used in _USART_Recieve: [wreg]
  7826                           
  7827                           
  7828                           ;Librerias.c: 488:     return RCREG;
  7829  1269  1283               	bcf	3,5	;RP0=0, select bank0
  7830  126A  1303               	bcf	3,6	;RP1=0, select bank0
  7831  126B  081A               	movf	26,w	;volatile
  7832  126C                     l380:
  7833  126C  0008               	return
  7834  126D                     __end_of_USART_Recieve:
  7835                           
  7836                           	psect	text21
  7837  143F                     __ptext21:	
  7838 ;; *************** function _Lcd_Write_String *****************
  7839 ;; Defined at:
  7840 ;;		line 186 in file "Librerias.c"
  7841 ;; Parameters:    Size  Location     Type
  7842 ;;  a               2    3[COMMON] PTR unsigned char 
  7843 ;;		 -> STR_5(2), STR_4(2), humedad(10), lcd1(10), 
  7844 ;;		 -> STR_3(4), STR_2(4), STR_1(5), 
  7845 ;; Auto vars:     Size  Location     Type
  7846 ;;  i               2    8[COMMON] int 
  7847 ;; Return value:  Size  Location     Type
  7848 ;;                  1    wreg      void 
  7849 ;; Registers used:
  7850 ;;		wreg, fsr0l, fsr0h, status,2, status,0, btemp+1, pclath, cstack
  7851 ;; Tracked objects:
  7852 ;;		On entry : 0/0
  7853 ;;		On exit  : 0/0
  7854 ;;		Unchanged: 0/0
  7855 ;; Data sizes:     COMMON   BANK0   BANK1   BANK3   BANK2
  7856 ;;      Params:         2       0       0       0       0
  7857 ;;      Locals:         2       0       0       0       0
  7858 ;;      Temps:          3       0       0       0       0
  7859 ;;      Totals:         7       0       0       0       0
  7860 ;;Total ram usage:        7 bytes
  7861 ;; Hardware stack levels used: 1
  7862 ;; Hardware stack levels required when called: 2
  7863 ;; This function calls:
  7864 ;;		_Lcd_Write_Char
  7865 ;; This function is called by:
  7866 ;;		_main
  7867 ;; This function uses a non-reentrant model
  7868 ;;
  7869                           
  7870                           
  7871                           ;psect for function _Lcd_Write_String
  7872  143F                     _Lcd_Write_String:
  7873  143F                     l2964:	
  7874                           ;incstack = 0
  7875                           ; Regs used in _Lcd_Write_String: [wreg-fsr0h+status,2+status,0+btemp+1+pclath+cstack]
  7876                           
  7877                           
  7878                           ;Librerias.c: 187:     int i;;Librerias.c: 188:     for (i = 0; a[i] != '\0'; i++)
  7879  143F  01F8               	clrf	Lcd_Write_String@i
  7880  1440  01F9               	clrf	Lcd_Write_String@i+1
  7881  1441  2C64               	goto	l2970
  7882  1442                     l2966:
  7883                           
  7884                           ;Librerias.c: 189:         Lcd_Write_Char(a[i]);
  7885  1442  0878               	movf	Lcd_Write_String@i,w
  7886  1443  0773               	addwf	Lcd_Write_String@a,w
  7887  1444  00F6               	movwf	??_Lcd_Write_String+1
  7888  1445  0874               	movf	Lcd_Write_String@a+1,w
  7889  1446  00F5               	movwf	??_Lcd_Write_String
  7890  1447  1803               	skipnc
  7891  1448  0AF5               	incf	??_Lcd_Write_String,f
  7892  1449  1FF8               	btfss	Lcd_Write_String@i,7
  7893  144A  2C4C               	goto	u3840
  7894  144B  03F5               	decf	??_Lcd_Write_String,f
  7895  144C                     u3840:
  7896  144C  0875               	movf	??_Lcd_Write_String,w
  7897  144D  00F7               	movwf	??_Lcd_Write_String+2
  7898  144E  0877               	movf	??_Lcd_Write_String+2,w
  7899  144F  1283               	bcf	3,5	;RP0=0, select bank0
  7900  1450  1303               	bcf	3,6	;RP1=0, select bank0
  7901  1451  00FF               	movwf	btemp+1
  7902  1452  0876               	movf	??_Lcd_Write_String+1,w
  7903  1453  0084               	movwf	4
  7904  1454  160A  118A  2000  160A  118A  	fcall	stringtab
  7905  1459  160A  118A  22C9  160A  118A  	fcall	_Lcd_Write_Char
  7906  145E                     l2968:
  7907  145E  3001               	movlw	1
  7908  145F  07F8               	addwf	Lcd_Write_String@i,f
  7909  1460  1803               	skipnc
  7910  1461  0AF9               	incf	Lcd_Write_String@i+1,f
  7911  1462  3000               	movlw	0
  7912  1463  07F9               	addwf	Lcd_Write_String@i+1,f
  7913  1464                     l2970:
  7914  1464  0878               	movf	Lcd_Write_String@i,w
  7915  1465  0773               	addwf	Lcd_Write_String@a,w
  7916  1466  00F6               	movwf	??_Lcd_Write_String+1
  7917  1467  0874               	movf	Lcd_Write_String@a+1,w
  7918  1468  00F5               	movwf	??_Lcd_Write_String
  7919  1469  1803               	skipnc
  7920  146A  0AF5               	incf	??_Lcd_Write_String,f
  7921  146B  1FF8               	btfss	Lcd_Write_String@i,7
  7922  146C  2C6E               	goto	u3850
  7923  146D  03F5               	decf	??_Lcd_Write_String,f
  7924  146E                     u3850:
  7925  146E  0875               	movf	??_Lcd_Write_String,w
  7926  146F  00F7               	movwf	??_Lcd_Write_String+2
  7927  1470  0877               	movf	??_Lcd_Write_String+2,w
  7928  1471  1283               	bcf	3,5	;RP0=0, select bank0
  7929  1472  1303               	bcf	3,6	;RP1=0, select bank0
  7930  1473  00FF               	movwf	btemp+1
  7931  1474  0876               	movf	??_Lcd_Write_String+1,w
  7932  1475  0084               	movwf	4
  7933  1476  160A  118A  2000  160A  118A  	fcall	stringtab
  7934  147B  3A00               	xorlw	0
  7935  147C  1D03               	skipz
  7936  147D  2C7F               	goto	u3861
  7937  147E  2C80               	goto	u3860
  7938  147F                     u3861:
  7939  147F  2C42               	goto	l2966
  7940  1480                     u3860:
  7941  1480                     l278:
  7942  1480  0008               	return
  7943  1481                     __end_of_Lcd_Write_String:
  7944                           
  7945                           	psect	text22
  7946  12C9                     __ptext22:	
  7947 ;; *************** function _Lcd_Write_Char *****************
  7948 ;; Defined at:
  7949 ;;		line 178 in file "Librerias.c"
  7950 ;; Parameters:    Size  Location     Type
  7951 ;;  a               1    wreg     unsigned char 
  7952 ;; Auto vars:     Size  Location     Type
  7953 ;;  a               1    2[COMMON] unsigned char 
  7954 ;; Return value:  Size  Location     Type
  7955 ;;                  1    wreg      void 
  7956 ;; Registers used:
  7957 ;;		wreg, status,2, status,0, pclath, cstack
  7958 ;; Tracked objects:
  7959 ;;		On entry : 0/0
  7960 ;;		On exit  : 0/0
  7961 ;;		Unchanged: 0/0
  7962 ;; Data sizes:     COMMON   BANK0   BANK1   BANK3   BANK2
  7963 ;;      Params:         0       0       0       0       0
  7964 ;;      Locals:         1       0       0       0       0
  7965 ;;      Temps:          1       0       0       0       0
  7966 ;;      Totals:         2       0       0       0       0
  7967 ;;Total ram usage:        2 bytes
  7968 ;; Hardware stack levels used: 1
  7969 ;; Hardware stack levels required when called: 1
  7970 ;; This function calls:
  7971 ;;		_Lcd_Port
  7972 ;; This function is called by:
  7973 ;;		_Lcd_Write_String
  7974 ;; This function uses a non-reentrant model
  7975 ;;
  7976                           
  7977                           
  7978                           ;psect for function _Lcd_Write_Char
  7979  12C9                     _Lcd_Write_Char:
  7980                           
  7981                           ;incstack = 0
  7982                           ; Regs used in _Lcd_Write_Char: [wreg+status,2+status,0+pclath+cstack]
  7983                           ;Lcd_Write_Char@a stored from wreg
  7984  12C9  00F2               	movwf	Lcd_Write_Char@a
  7985  12CA                     l2430:
  7986                           
  7987                           ;Librerias.c: 179:     PORTEbits.RE0 = 1;
  7988  12CA  1283               	bcf	3,5	;RP0=0, select bank0
  7989  12CB  1303               	bcf	3,6	;RP1=0, select bank0
  7990  12CC  1409               	bsf	9,0	;volatile
  7991  12CD                     l2432:
  7992                           
  7993                           ;Librerias.c: 180:     Lcd_Port(a);
  7994  12CD  0872               	movf	Lcd_Write_Char@a,w
  7995  12CE  160A  118A  226D  160A  118A  	fcall	_Lcd_Port
  7996  12D3                     l2434:
  7997                           
  7998                           ;Librerias.c: 181:     PORTEbits.RE2 = 1;
  7999  12D3  1283               	bcf	3,5	;RP0=0, select bank0
  8000  12D4  1303               	bcf	3,6	;RP1=0, select bank0
  8001  12D5  1509               	bsf	9,2	;volatile
  8002  12D6                     l2436:
  8003                           
  8004                           ;Librerias.c: 182:     _delay((unsigned long)((10)*(8000000/4000000.0)));
  8005  12D6  3006               	movlw	6
  8006  12D7  00F1               	movwf	??_Lcd_Write_Char
  8007  12D8                     u4087:
  8008  12D8  0BF1               	decfsz	??_Lcd_Write_Char,f
  8009  12D9  2AD8               	goto	u4087
  8010  12DA  0000               	nop
  8011  12DB                     l2438:
  8012                           
  8013                           ;Librerias.c: 183:     PORTEbits.RE2 = 0;
  8014  12DB  1283               	bcf	3,5	;RP0=0, select bank0
  8015  12DC  1303               	bcf	3,6	;RP1=0, select bank0
  8016  12DD  1109               	bcf	9,2	;volatile
  8017  12DE                     l272:
  8018  12DE  0008               	return
  8019  12DF                     __end_of_Lcd_Write_Char:
  8020                           
  8021                           	psect	text23
  8022  131B                     __ptext23:	
  8023 ;; *************** function _Lcd_Set_Cursor *****************
  8024 ;; Defined at:
  8025 ;;		line 153 in file "Librerias.c"
  8026 ;; Parameters:    Size  Location     Type
  8027 ;;  a               1    wreg     unsigned char 
  8028 ;;  b               1    4[COMMON] unsigned char 
  8029 ;; Auto vars:     Size  Location     Type
  8030 ;;  a               1    6[COMMON] unsigned char 
  8031 ;;  temp            1    7[COMMON] unsigned char 
  8032 ;; Return value:  Size  Location     Type
  8033 ;;                  1    wreg      void 
  8034 ;; Registers used:
  8035 ;;		wreg, status,2, status,0, pclath, cstack
  8036 ;; Tracked objects:
  8037 ;;		On entry : 0/0
  8038 ;;		On exit  : 0/0
  8039 ;;		Unchanged: 0/0
  8040 ;; Data sizes:     COMMON   BANK0   BANK1   BANK3   BANK2
  8041 ;;      Params:         1       0       0       0       0
  8042 ;;      Locals:         2       0       0       0       0
  8043 ;;      Temps:          1       0       0       0       0
  8044 ;;      Totals:         4       0       0       0       0
  8045 ;;Total ram usage:        4 bytes
  8046 ;; Hardware stack levels used: 1
  8047 ;; Hardware stack levels required when called: 2
  8048 ;; This function calls:
  8049 ;;		_Lcd_Cmd
  8050 ;; This function is called by:
  8051 ;;		_main
  8052 ;; This function uses a non-reentrant model
  8053 ;;
  8054                           
  8055                           
  8056                           ;psect for function _Lcd_Set_Cursor
  8057  131B                     _Lcd_Set_Cursor:
  8058                           
  8059                           ;incstack = 0
  8060                           ; Regs used in _Lcd_Set_Cursor: [wreg+status,2+status,0+pclath+cstack]
  8061                           ;Lcd_Set_Cursor@a stored from wreg
  8062  131B  00F6               	movwf	Lcd_Set_Cursor@a
  8063  131C                     l2952:
  8064                           
  8065                           ;Librerias.c: 154:     char temp;;Librerias.c: 155:     if (a == 1) {
  8066  131C  0376               	decf	Lcd_Set_Cursor@a,w
  8067  131D  1D03               	btfss	3,2
  8068  131E  2B20               	goto	u3821
  8069  131F  2B21               	goto	u3820
  8070  1320                     u3821:
  8071  1320  2B2D               	goto	l2958
  8072  1321                     u3820:
  8073  1321                     l2954:
  8074                           
  8075                           ;Librerias.c: 156:         temp = 0x80 + b - 1;
  8076  1321  0874               	movf	Lcd_Set_Cursor@b,w
  8077  1322  3E7F               	addlw	127
  8078  1323  00F5               	movwf	??_Lcd_Set_Cursor
  8079  1324  0875               	movf	??_Lcd_Set_Cursor,w
  8080  1325  00F7               	movwf	Lcd_Set_Cursor@temp
  8081  1326                     l2956:
  8082                           
  8083                           ;Librerias.c: 157:         Lcd_Cmd(temp);
  8084  1326  0877               	movf	Lcd_Set_Cursor@temp,w
  8085  1327  160A  118A  22DF  160A  118A  	fcall	_Lcd_Cmd
  8086                           
  8087                           ;Librerias.c: 158:     } else if (a == 2) {
  8088  132C  2B3E               	goto	l266
  8089  132D                     l2958:
  8090  132D  3002               	movlw	2
  8091  132E  0676               	xorwf	Lcd_Set_Cursor@a,w
  8092  132F  1D03               	btfss	3,2
  8093  1330  2B32               	goto	u3831
  8094  1331  2B33               	goto	u3830
  8095  1332                     u3831:
  8096  1332  2B3E               	goto	l266
  8097  1333                     u3830:
  8098  1333                     l2960:
  8099                           
  8100                           ;Librerias.c: 159:         temp = 0xC0 + b - 1;
  8101  1333  0874               	movf	Lcd_Set_Cursor@b,w
  8102  1334  3EBF               	addlw	191
  8103  1335  00F5               	movwf	??_Lcd_Set_Cursor
  8104  1336  0875               	movf	??_Lcd_Set_Cursor,w
  8105  1337  00F7               	movwf	Lcd_Set_Cursor@temp
  8106  1338                     l2962:
  8107                           
  8108                           ;Librerias.c: 160:         Lcd_Cmd(temp);
  8109  1338  0877               	movf	Lcd_Set_Cursor@temp,w
  8110  1339  160A  118A  22DF  160A  118A  	fcall	_Lcd_Cmd
  8111  133E                     l266:
  8112  133E  0008               	return
  8113  133F                     __end_of_Lcd_Set_Cursor:
  8114                           
  8115                           	psect	text24
  8116  000C                     __ptext24:	
  8117 ;; *************** function _Lcd_Init *****************
  8118 ;; Defined at:
  8119 ;;		line 164 in file "Librerias.c"
  8120 ;; Parameters:    Size  Location     Type
  8121 ;;		None
  8122 ;; Auto vars:     Size  Location     Type
  8123 ;;		None
  8124 ;; Return value:  Size  Location     Type
  8125 ;;                  1    wreg      void 
  8126 ;; Registers used:
  8127 ;;		wreg, status,2, status,0, pclath, cstack
  8128 ;; Tracked objects:
  8129 ;;		On entry : 0/0
  8130 ;;		On exit  : 0/0
  8131 ;;		Unchanged: 0/0
  8132 ;; Data sizes:     COMMON   BANK0   BANK1   BANK3   BANK2
  8133 ;;      Params:         0       0       0       0       0
  8134 ;;      Locals:         0       0       0       0       0
  8135 ;;      Temps:          2       0       0       0       0
  8136 ;;      Totals:         2       0       0       0       0
  8137 ;;Total ram usage:        2 bytes
  8138 ;; Hardware stack levels used: 1
  8139 ;; Hardware stack levels required when called: 2
  8140 ;; This function calls:
  8141 ;;		_Lcd_Cmd
  8142 ;;		_Lcd_Port
  8143 ;; This function is called by:
  8144 ;;		_main
  8145 ;; This function uses a non-reentrant model
  8146 ;;
  8147                           
  8148                           
  8149                           ;psect for function _Lcd_Init
  8150  000C                     _Lcd_Init:
  8151  000C                     l2940:	
  8152                           ;incstack = 0
  8153                           ; Regs used in _Lcd_Init: [wreg+status,2+status,0+pclath+cstack]
  8154                           
  8155                           
  8156                           ;Librerias.c: 165:     Lcd_Port(0x00);
  8157  000C  3000               	movlw	0
  8158  000D  160A  118A  226D  120A  118A  	fcall	_Lcd_Port
  8159  0012                     l2942:
  8160                           
  8161                           ;Librerias.c: 166:     _delay((unsigned long)((20)*(8000000/4000.0)));
  8162  0012  3034               	movlw	52
  8163  0013  00F5               	movwf	??_Lcd_Init+1
  8164  0014  30F1               	movlw	241
  8165  0015  00F4               	movwf	??_Lcd_Init
  8166  0016                     u4097:
  8167  0016  0BF4               	decfsz	??_Lcd_Init,f
  8168  0017  2816               	goto	u4097
  8169  0018  0BF5               	decfsz	??_Lcd_Init+1,f
  8170  0019  2816               	goto	u4097
  8171  001A  281B               	nop2
  8172  001B                     l2944:
  8173                           
  8174                           ;Librerias.c: 167:     Lcd_Cmd(0x30);
  8175  001B  3030               	movlw	48
  8176  001C  160A  118A  22DF  120A  118A  	fcall	_Lcd_Cmd
  8177                           
  8178                           ;Librerias.c: 168:     _delay((unsigned long)((5)*(8000000/4000.0)));
  8179  0021  300D               	movlw	13
  8180  0022  00F5               	movwf	??_Lcd_Init+1
  8181  0023  30FB               	movlw	251
  8182  0024  00F4               	movwf	??_Lcd_Init
  8183  0025                     u4107:
  8184  0025  0BF4               	decfsz	??_Lcd_Init,f
  8185  0026  2825               	goto	u4107
  8186  0027  0BF5               	decfsz	??_Lcd_Init+1,f
  8187  0028  2825               	goto	u4107
  8188  0029  282A               	nop2
  8189  002A                     l2946:
  8190                           
  8191                           ;Librerias.c: 169:     Lcd_Cmd(0x30);
  8192  002A  3030               	movlw	48
  8193  002B  160A  118A  22DF  120A  118A  	fcall	_Lcd_Cmd
  8194  0030                     l2948:
  8195                           
  8196                           ;Librerias.c: 170:     _delay((unsigned long)((11)*(8000000/4000.0)));
  8197  0030  301D               	movlw	29
  8198  0031  00F5               	movwf	??_Lcd_Init+1
  8199  0032  3091               	movlw	145
  8200  0033  00F4               	movwf	??_Lcd_Init
  8201  0034                     u4117:
  8202  0034  0BF4               	decfsz	??_Lcd_Init,f
  8203  0035  2834               	goto	u4117
  8204  0036  0BF5               	decfsz	??_Lcd_Init+1,f
  8205  0037  2834               	goto	u4117
  8206                           
  8207                           ;Librerias.c: 171:     Lcd_Cmd(0x30);
  8208  0038  3030               	movlw	48
  8209  0039  160A  118A  22DF  120A  118A  	fcall	_Lcd_Cmd
  8210                           
  8211                           ;Librerias.c: 173:     Lcd_Cmd(0x38);
  8212  003E  3038               	movlw	56
  8213  003F  160A  118A  22DF  120A  118A  	fcall	_Lcd_Cmd
  8214                           
  8215                           ;Librerias.c: 174:     Lcd_Cmd(0x0C);
  8216  0044  300C               	movlw	12
  8217  0045  160A  118A  22DF  120A  118A  	fcall	_Lcd_Cmd
  8218                           
  8219                           ;Librerias.c: 175:     Lcd_Cmd(0x06);
  8220  004A  3006               	movlw	6
  8221  004B  160A  118A  22DF  120A  118A  	fcall	_Lcd_Cmd
  8222  0050                     l269:
  8223  0050  0008               	return
  8224  0051                     __end_of_Lcd_Init:
  8225                           
  8226                           	psect	text25
  8227  12A7                     __ptext25:	
  8228 ;; *************** function _Lcd_Clear *****************
  8229 ;; Defined at:
  8230 ;;		line 148 in file "Librerias.c"
  8231 ;; Parameters:    Size  Location     Type
  8232 ;;		None
  8233 ;; Auto vars:     Size  Location     Type
  8234 ;;		None
  8235 ;; Return value:  Size  Location     Type
  8236 ;;                  1    wreg      void 
  8237 ;; Registers used:
  8238 ;;		wreg, status,2, status,0, pclath, cstack
  8239 ;; Tracked objects:
  8240 ;;		On entry : 0/0
  8241 ;;		On exit  : 0/0
  8242 ;;		Unchanged: 0/0
  8243 ;; Data sizes:     COMMON   BANK0   BANK1   BANK3   BANK2
  8244 ;;      Params:         0       0       0       0       0
  8245 ;;      Locals:         0       0       0       0       0
  8246 ;;      Temps:          0       0       0       0       0
  8247 ;;      Totals:         0       0       0       0       0
  8248 ;;Total ram usage:        0 bytes
  8249 ;; Hardware stack levels used: 1
  8250 ;; Hardware stack levels required when called: 2
  8251 ;; This function calls:
  8252 ;;		_Lcd_Cmd
  8253 ;; This function is called by:
  8254 ;;		_main
  8255 ;; This function uses a non-reentrant model
  8256 ;;
  8257                           
  8258                           
  8259                           ;psect for function _Lcd_Clear
  8260  12A7                     _Lcd_Clear:
  8261  12A7                     l2950:	
  8262                           ;incstack = 0
  8263                           ; Regs used in _Lcd_Clear: [wreg+status,2+status,0+pclath+cstack]
  8264                           
  8265                           
  8266                           ;Librerias.c: 149:     Lcd_Cmd(0);
  8267  12A7  3000               	movlw	0
  8268  12A8  160A  118A  22DF  160A  118A  	fcall	_Lcd_Cmd
  8269                           
  8270                           ;Librerias.c: 150:     Lcd_Cmd(1);
  8271  12AD  3001               	movlw	1
  8272  12AE  160A  118A  22DF  160A  118A  	fcall	_Lcd_Cmd
  8273  12B3                     l260:
  8274  12B3  0008               	return
  8275  12B4                     __end_of_Lcd_Clear:
  8276                           
  8277                           	psect	text26
  8278  12DF                     __ptext26:	
  8279 ;; *************** function _Lcd_Cmd *****************
  8280 ;; Defined at:
  8281 ;;		line 140 in file "Librerias.c"
  8282 ;; Parameters:    Size  Location     Type
  8283 ;;  a               1    wreg     unsigned char 
  8284 ;; Auto vars:     Size  Location     Type
  8285 ;;  a               1    3[COMMON] unsigned char 
  8286 ;; Return value:  Size  Location     Type
  8287 ;;                  1    wreg      void 
  8288 ;; Registers used:
  8289 ;;		wreg, status,2, status,0, pclath, cstack
  8290 ;; Tracked objects:
  8291 ;;		On entry : 0/0
  8292 ;;		On exit  : 0/0
  8293 ;;		Unchanged: 0/0
  8294 ;; Data sizes:     COMMON   BANK0   BANK1   BANK3   BANK2
  8295 ;;      Params:         0       0       0       0       0
  8296 ;;      Locals:         1       0       0       0       0
  8297 ;;      Temps:          2       0       0       0       0
  8298 ;;      Totals:         3       0       0       0       0
  8299 ;;Total ram usage:        3 bytes
  8300 ;; Hardware stack levels used: 1
  8301 ;; Hardware stack levels required when called: 1
  8302 ;; This function calls:
  8303 ;;		_Lcd_Port
  8304 ;; This function is called by:
  8305 ;;		_Lcd_Clear
  8306 ;;		_Lcd_Set_Cursor
  8307 ;;		_Lcd_Init
  8308 ;;		_Lcd_Shift_Right
  8309 ;;		_Lcd_Shift_Left
  8310 ;; This function uses a non-reentrant model
  8311 ;;
  8312                           
  8313                           
  8314                           ;psect for function _Lcd_Cmd
  8315  12DF                     _Lcd_Cmd:
  8316                           
  8317                           ;incstack = 0
  8318                           ; Regs used in _Lcd_Cmd: [wreg+status,2+status,0+pclath+cstack]
  8319                           ;Lcd_Cmd@a stored from wreg
  8320  12DF  00F3               	movwf	Lcd_Cmd@a
  8321  12E0                     l2420:
  8322                           
  8323                           ;Librerias.c: 141:     PORTEbits.RE0 = 0;
  8324  12E0  1283               	bcf	3,5	;RP0=0, select bank0
  8325  12E1  1303               	bcf	3,6	;RP1=0, select bank0
  8326  12E2  1009               	bcf	9,0	;volatile
  8327  12E3                     l2422:
  8328                           
  8329                           ;Librerias.c: 142:     Lcd_Port(a);
  8330  12E3  0873               	movf	Lcd_Cmd@a,w
  8331  12E4  160A  118A  226D  160A  118A  	fcall	_Lcd_Port
  8332  12E9                     l2424:
  8333                           
  8334                           ;Librerias.c: 143:     PORTEbits.RE2 = 1;
  8335  12E9  1283               	bcf	3,5	;RP0=0, select bank0
  8336  12EA  1303               	bcf	3,6	;RP1=0, select bank0
  8337  12EB  1509               	bsf	9,2	;volatile
  8338  12EC                     l2426:
  8339                           
  8340                           ;Librerias.c: 144:     _delay((unsigned long)((4)*(8000000/4000.0)));
  8341  12EC  300B               	movlw	11
  8342  12ED  00F2               	movwf	??_Lcd_Cmd+1
  8343  12EE  3062               	movlw	98
  8344  12EF  00F1               	movwf	??_Lcd_Cmd
  8345  12F0                     u4127:
  8346  12F0  0BF1               	decfsz	??_Lcd_Cmd,f
  8347  12F1  2AF0               	goto	u4127
  8348  12F2  0BF2               	decfsz	??_Lcd_Cmd+1,f
  8349  12F3  2AF0               	goto	u4127
  8350  12F4  0000               	nop
  8351  12F5                     l2428:
  8352                           
  8353                           ;Librerias.c: 145:     PORTEbits.RE2 = 0;
  8354  12F5  1283               	bcf	3,5	;RP0=0, select bank0
  8355  12F6  1303               	bcf	3,6	;RP1=0, select bank0
  8356  12F7  1109               	bcf	9,2	;volatile
  8357  12F8                     l257:
  8358  12F8  0008               	return
  8359  12F9                     __end_of_Lcd_Cmd:
  8360                           
  8361                           	psect	text27
  8362  126D                     __ptext27:	
  8363 ;; *************** function _Lcd_Port *****************
  8364 ;; Defined at:
  8365 ;;		line 136 in file "Librerias.c"
  8366 ;; Parameters:    Size  Location     Type
  8367 ;;  a               1    wreg     unsigned char 
  8368 ;; Auto vars:     Size  Location     Type
  8369 ;;  a               1    0[COMMON] unsigned char 
  8370 ;; Return value:  Size  Location     Type
  8371 ;;                  1    wreg      void 
  8372 ;; Registers used:
  8373 ;;		wreg
  8374 ;; Tracked objects:
  8375 ;;		On entry : 0/0
  8376 ;;		On exit  : 0/0
  8377 ;;		Unchanged: 0/0
  8378 ;; Data sizes:     COMMON   BANK0   BANK1   BANK3   BANK2
  8379 ;;      Params:         0       0       0       0       0
  8380 ;;      Locals:         1       0       0       0       0
  8381 ;;      Temps:          0       0       0       0       0
  8382 ;;      Totals:         1       0       0       0       0
  8383 ;;Total ram usage:        1 bytes
  8384 ;; Hardware stack levels used: 1
  8385 ;; This function calls:
  8386 ;;		Nothing
  8387 ;; This function is called by:
  8388 ;;		_Lcd_Cmd
  8389 ;;		_Lcd_Init
  8390 ;;		_Lcd_Write_Char
  8391 ;; This function uses a non-reentrant model
  8392 ;;
  8393                           
  8394                           
  8395                           ;psect for function _Lcd_Port
  8396  126D                     _Lcd_Port:
  8397                           
  8398                           ;incstack = 0
  8399                           ; Regs used in _Lcd_Port: [wreg]
  8400                           ;Lcd_Port@a stored from wreg
  8401  126D  00F0               	movwf	Lcd_Port@a
  8402  126E                     l2170:
  8403                           
  8404                           ;Librerias.c: 137:     PORTB = a;
  8405  126E  0870               	movf	Lcd_Port@a,w
  8406  126F  1283               	bcf	3,5	;RP0=0, select bank0
  8407  1270  1303               	bcf	3,6	;RP1=0, select bank0
  8408  1271  0086               	movwf	6	;volatile
  8409  1272                     l254:
  8410  1272  0008               	return
  8411  1273                     __end_of_Lcd_Port:
  8412                           
  8413                           	psect	text28
  8414  1284                     __ptext28:	
  8415 ;; *************** function _I2C_Master_Write *****************
  8416 ;; Defined at:
  8417 ;;		line 63 in file "Librerias.c"
  8418 ;; Parameters:    Size  Location     Type
  8419 ;;  d               2    0[COMMON] unsigned int 
  8420 ;; Auto vars:     Size  Location     Type
  8421 ;;		None
  8422 ;; Return value:  Size  Location     Type
  8423 ;;                  1    wreg      void 
  8424 ;; Registers used:
  8425 ;;		wreg, status,2, status,0, pclath, cstack
  8426 ;; Tracked objects:
  8427 ;;		On entry : 0/0
  8428 ;;		On exit  : 0/0
  8429 ;;		Unchanged: 0/0
  8430 ;; Data sizes:     COMMON   BANK0   BANK1   BANK3   BANK2
  8431 ;;      Params:         2       0       0       0       0
  8432 ;;      Locals:         0       0       0       0       0
  8433 ;;      Temps:          0       0       0       0       0
  8434 ;;      Totals:         2       0       0       0       0
  8435 ;;Total ram usage:        2 bytes
  8436 ;; Hardware stack levels used: 1
  8437 ;; Hardware stack levels required when called: 1
  8438 ;; This function calls:
  8439 ;;		_I2C_Master_Wait
  8440 ;; This function is called by:
  8441 ;;		_main
  8442 ;; This function uses a non-reentrant model
  8443 ;;
  8444                           
  8445                           
  8446                           ;psect for function _I2C_Master_Write
  8447  1284                     _I2C_Master_Write:
  8448  1284                     l2976:	
  8449                           ;incstack = 0
  8450                           ; Regs used in _I2C_Master_Write: [wreg+status,2+status,0+pclath+cstack]
  8451                           
  8452                           
  8453                           ;Librerias.c: 63: void I2C_Master_Write(unsigned d);Librerias.c: 64: {;Librerias.c: 65: 
      +                              I2C_Master_Wait();
  8454  1284  160A  118A  229A  160A  118A  	fcall	_I2C_Master_Wait
  8455  1289                     l2978:
  8456                           
  8457                           ;Librerias.c: 66:     SSPBUF = d;
  8458  1289  0870               	movf	I2C_Master_Write@d,w
  8459  128A  1283               	bcf	3,5	;RP0=0, select bank0
  8460  128B  1303               	bcf	3,6	;RP1=0, select bank0
  8461  128C  0093               	movwf	19	;volatile
  8462  128D                     l230:
  8463  128D  0008               	return
  8464  128E                     __end_of_I2C_Master_Write:
  8465                           
  8466                           	psect	text29
  8467  0003                     __ptext29:	
  8468 ;; *************** function _I2C_Master_Stop *****************
  8469 ;; Defined at:
  8470 ;;		line 53 in file "Librerias.c"
  8471 ;; Parameters:    Size  Location     Type
  8472 ;;		None
  8473 ;; Auto vars:     Size  Location     Type
  8474 ;;		None
  8475 ;; Return value:  Size  Location     Type
  8476 ;;                  1    wreg      void 
  8477 ;; Registers used:
  8478 ;;		wreg, status,2, status,0, pclath, cstack
  8479 ;; Tracked objects:
  8480 ;;		On entry : 0/0
  8481 ;;		On exit  : 0/0
  8482 ;;		Unchanged: 0/0
  8483 ;; Data sizes:     COMMON   BANK0   BANK1   BANK3   BANK2
  8484 ;;      Params:         0       0       0       0       0
  8485 ;;      Locals:         0       0       0       0       0
  8486 ;;      Temps:          0       0       0       0       0
  8487 ;;      Totals:         0       0       0       0       0
  8488 ;;Total ram usage:        0 bytes
  8489 ;; Hardware stack levels used: 1
  8490 ;; Hardware stack levels required when called: 1
  8491 ;; This function calls:
  8492 ;;		_I2C_Master_Wait
  8493 ;; This function is called by:
  8494 ;;		_main
  8495 ;; This function uses a non-reentrant model
  8496 ;;
  8497                           
  8498                           
  8499                           ;psect for function _I2C_Master_Stop
  8500  0003                     _I2C_Master_Stop:
  8501  0003                     l2980:	
  8502                           ;incstack = 0
  8503                           ; Regs used in _I2C_Master_Stop: [wreg+status,2+status,0+pclath+cstack]
  8504                           
  8505                           
  8506                           ;Librerias.c: 55:     I2C_Master_Wait();
  8507  0003  160A  118A  229A  120A  118A  	fcall	_I2C_Master_Wait
  8508  0008                     l2982:
  8509                           
  8510                           ;Librerias.c: 56:     SSPCON2bits.PEN = 1;
  8511  0008  1683               	bsf	3,5	;RP0=1, select bank1
  8512  0009  1303               	bcf	3,6	;RP1=0, select bank1
  8513  000A  1511               	bsf	17,2	;volatile
  8514  000B                     l227:
  8515  000B  0008               	return
  8516  000C                     __end_of_I2C_Master_Stop:
  8517                           
  8518                           	psect	text30
  8519  127B                     __ptext30:	
  8520 ;; *************** function _I2C_Master_Start *****************
  8521 ;; Defined at:
  8522 ;;		line 37 in file "Librerias.c"
  8523 ;; Parameters:    Size  Location     Type
  8524 ;;		None
  8525 ;; Auto vars:     Size  Location     Type
  8526 ;;		None
  8527 ;; Return value:  Size  Location     Type
  8528 ;;                  1    wreg      void 
  8529 ;; Registers used:
  8530 ;;		wreg, status,2, status,0, pclath, cstack
  8531 ;; Tracked objects:
  8532 ;;		On entry : 0/0
  8533 ;;		On exit  : 0/0
  8534 ;;		Unchanged: 0/0
  8535 ;; Data sizes:     COMMON   BANK0   BANK1   BANK3   BANK2
  8536 ;;      Params:         0       0       0       0       0
  8537 ;;      Locals:         0       0       0       0       0
  8538 ;;      Temps:          0       0       0       0       0
  8539 ;;      Totals:         0       0       0       0       0
  8540 ;;Total ram usage:        0 bytes
  8541 ;; Hardware stack levels used: 1
  8542 ;; Hardware stack levels required when called: 1
  8543 ;; This function calls:
  8544 ;;		_I2C_Master_Wait
  8545 ;; This function is called by:
  8546 ;;		_main
  8547 ;; This function uses a non-reentrant model
  8548 ;;
  8549                           
  8550                           
  8551                           ;psect for function _I2C_Master_Start
  8552  127B                     _I2C_Master_Start:
  8553  127B                     l2972:	
  8554                           ;incstack = 0
  8555                           ; Regs used in _I2C_Master_Start: [wreg+status,2+status,0+pclath+cstack]
  8556                           
  8557                           
  8558                           ;Librerias.c: 39:     I2C_Master_Wait();
  8559  127B  160A  118A  229A  160A  118A  	fcall	_I2C_Master_Wait
  8560  1280                     l2974:
  8561                           
  8562                           ;Librerias.c: 40:     SSPCON2bits.SEN = 1;
  8563  1280  1683               	bsf	3,5	;RP0=1, select bank1
  8564  1281  1303               	bcf	3,6	;RP1=0, select bank1
  8565  1282  1411               	bsf	17,0	;volatile
  8566  1283                     l221:
  8567  1283  0008               	return
  8568  1284                     __end_of_I2C_Master_Start:
  8569                           
  8570                           	psect	text31
  8571  13D9                     __ptext31:	
  8572 ;; *************** function _I2C_Master_Read *****************
  8573 ;; Defined at:
  8574 ;;		line 72 in file "Librerias.c"
  8575 ;; Parameters:    Size  Location     Type
  8576 ;;  a               2    0[COMMON] unsigned short 
  8577 ;; Auto vars:     Size  Location     Type
  8578 ;;  temp            2    4[COMMON] unsigned short 
  8579 ;; Return value:  Size  Location     Type
  8580 ;;                  2    0[COMMON] unsigned short 
  8581 ;; Registers used:
  8582 ;;		wreg, status,2, status,0, pclath, cstack
  8583 ;; Tracked objects:
  8584 ;;		On entry : 0/0
  8585 ;;		On exit  : 0/0
  8586 ;;		Unchanged: 0/0
  8587 ;; Data sizes:     COMMON   BANK0   BANK1   BANK3   BANK2
  8588 ;;      Params:         2       0       0       0       0
  8589 ;;      Locals:         2       0       0       0       0
  8590 ;;      Temps:          2       0       0       0       0
  8591 ;;      Totals:         6       0       0       0       0
  8592 ;;Total ram usage:        6 bytes
  8593 ;; Hardware stack levels used: 1
  8594 ;; Hardware stack levels required when called: 1
  8595 ;; This function calls:
  8596 ;;		_I2C_Master_Wait
  8597 ;; This function is called by:
  8598 ;;		_main
  8599 ;; This function uses a non-reentrant model
  8600 ;;
  8601                           
  8602                           
  8603                           ;psect for function _I2C_Master_Read
  8604  13D9                     _I2C_Master_Read:
  8605  13D9                     l2984:	
  8606                           ;incstack = 0
  8607                           ; Regs used in _I2C_Master_Read: [wreg+status,2+status,0+pclath+cstack]
  8608                           
  8609                           
  8610                           ;Librerias.c: 72: unsigned short I2C_Master_Read(unsigned short a);Librerias.c: 73: {;Li
      +                          brerias.c: 74:     unsigned short temp;;Librerias.c: 75:     I2C_Master_Wait();
  8611  13D9  160A  118A  229A  160A  118A  	fcall	_I2C_Master_Wait
  8612  13DE                     l2986:
  8613                           
  8614                           ;Librerias.c: 76:     SSPCON2bits.RCEN = 1;
  8615  13DE  1683               	bsf	3,5	;RP0=1, select bank1
  8616  13DF  1303               	bcf	3,6	;RP1=0, select bank1
  8617  13E0  1591               	bsf	17,3	;volatile
  8618                           
  8619                           ;Librerias.c: 77:     I2C_Master_Wait();
  8620  13E1  160A  118A  229A  160A  118A  	fcall	_I2C_Master_Wait
  8621  13E6                     l2988:
  8622                           
  8623                           ;Librerias.c: 78:     temp = SSPBUF;
  8624  13E6  1283               	bcf	3,5	;RP0=0, select bank0
  8625  13E7  1303               	bcf	3,6	;RP1=0, select bank0
  8626  13E8  0813               	movf	19,w	;volatile
  8627  13E9  00F2               	movwf	??_I2C_Master_Read
  8628  13EA  01F3               	clrf	??_I2C_Master_Read+1
  8629  13EB  0872               	movf	??_I2C_Master_Read,w
  8630  13EC  00F4               	movwf	I2C_Master_Read@temp
  8631  13ED  0873               	movf	??_I2C_Master_Read+1,w
  8632  13EE  00F5               	movwf	I2C_Master_Read@temp+1
  8633  13EF                     l2990:
  8634                           
  8635                           ;Librerias.c: 79:     I2C_Master_Wait();
  8636  13EF  160A  118A  229A  160A  118A  	fcall	_I2C_Master_Wait
  8637  13F4                     l2992:
  8638                           
  8639                           ;Librerias.c: 80:     if(a == 1){
  8640  13F4  0370               	decf	I2C_Master_Read@a,w
  8641  13F5  0471               	iorwf	I2C_Master_Read@a+1,w
  8642  13F6  1D03               	btfss	3,2
  8643  13F7  2BF9               	goto	u3871
  8644  13F8  2BFA               	goto	u3870
  8645  13F9                     u3871:
  8646  13F9  2BFE               	goto	l233
  8647  13FA                     u3870:
  8648  13FA                     l2994:
  8649                           
  8650                           ;Librerias.c: 81:         SSPCON2bits.ACKDT = 0;
  8651  13FA  1683               	bsf	3,5	;RP0=1, select bank1
  8652  13FB  1303               	bcf	3,6	;RP1=0, select bank1
  8653  13FC  1291               	bcf	17,5	;volatile
  8654                           
  8655                           ;Librerias.c: 82:     }else{
  8656  13FD  2C01               	goto	l234
  8657  13FE                     l233:
  8658                           
  8659                           ;Librerias.c: 83:         SSPCON2bits.ACKDT = 1;
  8660  13FE  1683               	bsf	3,5	;RP0=1, select bank1
  8661  13FF  1303               	bcf	3,6	;RP1=0, select bank1
  8662  1400  1691               	bsf	17,5	;volatile
  8663  1401                     l234:	
  8664                           ;Librerias.c: 84:     }
  8665                           
  8666                           
  8667                           ;Librerias.c: 85:     SSPCON2bits.ACKEN = 1;
  8668  1401  1611               	bsf	17,4	;volatile
  8669  1402                     l2996:
  8670                           
  8671                           ;Librerias.c: 86:     return temp;
  8672  1402  0875               	movf	I2C_Master_Read@temp+1,w
  8673  1403  00F1               	movwf	?_I2C_Master_Read+1
  8674  1404  0874               	movf	I2C_Master_Read@temp,w
  8675  1405  00F0               	movwf	?_I2C_Master_Read
  8676  1406                     l235:
  8677  1406  0008               	return
  8678  1407                     __end_of_I2C_Master_Read:
  8679                           
  8680                           	psect	text32
  8681  129A                     __ptext32:	
  8682 ;; *************** function _I2C_Master_Wait *****************
  8683 ;; Defined at:
  8684 ;;		line 30 in file "Librerias.c"
  8685 ;; Parameters:    Size  Location     Type
  8686 ;;		None
  8687 ;; Auto vars:     Size  Location     Type
  8688 ;;		None
  8689 ;; Return value:  Size  Location     Type
  8690 ;;                  1    wreg      void 
  8691 ;; Registers used:
  8692 ;;		wreg, status,2
  8693 ;; Tracked objects:
  8694 ;;		On entry : 0/0
  8695 ;;		On exit  : 0/0
  8696 ;;		Unchanged: 0/0
  8697 ;; Data sizes:     COMMON   BANK0   BANK1   BANK3   BANK2
  8698 ;;      Params:         0       0       0       0       0
  8699 ;;      Locals:         0       0       0       0       0
  8700 ;;      Temps:          0       0       0       0       0
  8701 ;;      Totals:         0       0       0       0       0
  8702 ;;Total ram usage:        0 bytes
  8703 ;; Hardware stack levels used: 1
  8704 ;; This function calls:
  8705 ;;		Nothing
  8706 ;; This function is called by:
  8707 ;;		_I2C_Master_Start
  8708 ;;		_I2C_Master_Stop
  8709 ;;		_I2C_Master_Write
  8710 ;;		_I2C_Master_Read
  8711 ;;		_I2C_Master_RepeatedStart
  8712 ;; This function uses a non-reentrant model
  8713 ;;
  8714                           
  8715                           
  8716                           ;psect for function _I2C_Master_Wait
  8717  129A                     _I2C_Master_Wait:
  8718  129A                     l2416:	
  8719                           ;incstack = 0
  8720                           ; Regs used in _I2C_Master_Wait: [wreg+status,2]
  8721                           
  8722  129A                     l215:	
  8723                           ;Librerias.c: 32:     while ((SSPSTAT & 0x04) || (SSPCON2 & 0x1F));
  8724                           
  8725  129A  1683               	bsf	3,5	;RP0=1, select bank1
  8726  129B  1303               	bcf	3,6	;RP1=0, select bank1
  8727  129C  1914               	btfsc	20,2	;volatile
  8728  129D  2A9F               	goto	u2601
  8729  129E  2AA0               	goto	u2600
  8730  129F                     u2601:
  8731  129F  2A9A               	goto	l215
  8732  12A0                     u2600:
  8733  12A0                     l2418:
  8734  12A0  0811               	movf	17,w	;volatile
  8735  12A1  391F               	andlw	31
  8736  12A2  1D03               	btfss	3,2
  8737  12A3  2AA5               	goto	u2611
  8738  12A4  2AA6               	goto	u2610
  8739  12A5                     u2611:
  8740  12A5  2A9A               	goto	l215
  8741  12A6                     u2610:
  8742  12A6                     l218:
  8743  12A6  0008               	return
  8744  12A7                     __end_of_I2C_Master_Wait:
  8745  007E                     btemp	set	126	;btemp
  8746  007E                     wtemp0	set	126
  8747                           
  8748                           	psect	config
  8749                           
  8750                           ;Config register CONFIG1 @ 0x2007
  8751                           ;	Oscillator Selection bits
  8752                           ;	FOSC = INTRC_NOCLKOUT, INTOSCIO oscillator: I/O function on RA6/OSC2/CLKOUT pin, I/O f
      +                          unction on RA7/OSC1/CLKIN
  8753                           ;	Watchdog Timer Enable bit
  8754                           ;	WDTE = OFF, WDT disabled and can be enabled by SWDTEN bit of the WDTCON register
  8755                           ;	Power-up Timer Enable bit
  8756                           ;	PWRTE = OFF, PWRT disabled
  8757                           ;	RE3/MCLR pin function select bit
  8758                           ;	MCLRE = OFF, RE3/MCLR pin function is digital input, MCLR internally tied to VDD
  8759                           ;	Code Protection bit
  8760                           ;	CP = OFF, Program memory code protection is disabled
  8761                           ;	Data Code Protection bit
  8762                           ;	CPD = OFF, Data memory code protection is disabled
  8763                           ;	Brown Out Reset Selection bits
  8764                           ;	BOREN = OFF, BOR disabled
  8765                           ;	Internal External Switchover bit
  8766                           ;	IESO = OFF, Internal/External Switchover mode is disabled
  8767                           ;	Fail-Safe Clock Monitor Enabled bit
  8768                           ;	FCMEN = OFF, Fail-Safe Clock Monitor is disabled
  8769                           ;	Low Voltage Programming Enable bit
  8770                           ;	LVP = OFF, RB3 pin has digital I/O, HV on MCLR must be used for programming
  8771                           ;	In-Circuit Debugger Mode bit
  8772                           ;	DEBUG = 0x1, unprogrammed default
  8773  2007                     	org	8199
  8774  2007  20D4               	dw	8404
  8775                           
  8776                           ;Config register CONFIG2 @ 0x2008
  8777                           ;	Brown-out Reset Selection bit
  8778                           ;	BOR4V = BOR40V, Brown-out Reset set to 4.0V
  8779                           ;	Flash Program Memory Self Write Enable bits
  8780                           ;	WRT = OFF, Write protection off
  8781  2008                     	org	8200
  8782  2008  3FFF               	dw	16383

Data Sizes:
    Strings     15
    Constant    0
    Data        0
    BSS         71
    Persistent  0
    Stack       0

Auto Spaces:
    Space          Size  Autos    Used
    COMMON           14     14      14
    BANK0            80     80      80
    BANK1            80     19      80
    BANK3            96      0      10
    BANK2            96      0       0

Pointer List with Targets:

    convert@data	PTR unsigned char  size(1) Largest target is 10
		 -> humedad(BANK1[10]), lcd1(BANK1[10]), 

    Lcd_Write_String@a	PTR unsigned char  size(2) Largest target is 10
		 -> STR_5(CODE[2]), STR_4(CODE[2]), humedad(BANK1[10]), lcd1(BANK1[10]), 
		 -> STR_3(CODE[4]), STR_2(CODE[4]), STR_1(CODE[5]), 


Critical Paths under _main in COMMON

    _main->_centenas
    _main->_decenas
    _main->_unidades
    _unidades->___fltol
    _I2C_Master_Init->___lldiv
    _decenas->___awdiv
    _convert->___wmul
    ___xxtofl->___wmul
    ___wmul->___fltol
    ___flsub->___wmul
    _centenas->___awdiv
    ___awdiv->___awmod
    _Lcd_Write_String->_Lcd_Write_Char
    _Lcd_Write_Char->_Lcd_Port
    _Lcd_Set_Cursor->_Lcd_Cmd
    _Lcd_Init->_Lcd_Cmd
    _Lcd_Clear->_Lcd_Cmd
    _Lcd_Cmd->_Lcd_Port

Critical Paths under _main in BANK0

    _main->_convert
    _setup->_I2C_Master_Init
    _decenas->___awdiv
    _convert->___flmul
    ___xxtofl->___wmul
    ___flsub->___fladd
    ___fladd->___xxtofl
    ___flmul->___flsub
    ___fldiv->___xxtofl
    _centenas->___awdiv

Critical Paths under _main in BANK1

    _main->_convert

Critical Paths under _main in BANK3

    None.

Critical Paths under _main in BANK2

    None.

Call Graph Tables:

 ---------------------------------------------------------------------------------
 (Depth) Function   	        Calls       Base Space   Used Autos Params    Refs
 ---------------------------------------------------------------------------------
 (0) _main                                                 4     4      0   27707
                                             15 BANK1      4     4      0
                    _I2C_Master_Read
                   _I2C_Master_Start
                    _I2C_Master_Stop
                   _I2C_Master_Write
                          _Lcd_Clear
                           _Lcd_Init
                     _Lcd_Set_Cursor
                   _Lcd_Write_String
                      _USART_Recieve
                           _USART_Tx
                            ___fladd
                            ___fldiv
                            ___flmul
                            ___fltol
                           ___xxtofl
                           _centenas
                            _convert
                            _decenas
                              _setup
                           _unidades
 ---------------------------------------------------------------------------------
 (1) _unidades                                             6     4      2     972
                                             11 COMMON     3     1      2
                                              0 BANK0      3     3      0
                            ___awmod
                            ___fltol (ARG)
 ---------------------------------------------------------------------------------
 (1) _setup                                                0     0      0     412
                    _I2C_Master_Init
 ---------------------------------------------------------------------------------
 (2) _I2C_Master_Init                                      8     4      4     412
                                              0 BANK0      8     4      4
                            ___lldiv
 ---------------------------------------------------------------------------------
 (3) ___lldiv                                             14     6      8     314
                                              0 COMMON    14     6      8
 ---------------------------------------------------------------------------------
 (1) _decenas                                              4     2      2    1705
                                             12 COMMON     2     2      0
                                              4 BANK0      2     0      2
                            ___awdiv
                            ___awmod
                            ___fltol (ARG)
 ---------------------------------------------------------------------------------
 (2) ___awmod                                              7     3      4     752
                                              0 COMMON     7     3      4
 ---------------------------------------------------------------------------------
 (1) _convert                                             23    17      6   12597
                                             72 BANK0      8     2      6
                                              0 BANK1     15    15      0
                            ___awdiv
                            ___fldiv
                             ___flge
                            ___flmul
                            ___flsub
                            ___fltol
                             ___wmul
                           ___xxtofl
 ---------------------------------------------------------------------------------
 (2) ___xxtofl                                            14    10      4    1006
                                              4 BANK0     14    10      4
                            ___fltol (ARG)
                             ___wmul (ARG)
 ---------------------------------------------------------------------------------
 (2) ___wmul                                               6     2      4     852
                                             11 COMMON     2     2      0
                                              0 BANK0      4     0      4
                            ___fltol (ARG)
 ---------------------------------------------------------------------------------
 (2) ___fltol                                             11     7      4     989
                                              0 COMMON    11     7      4
 ---------------------------------------------------------------------------------
 (2) ___flsub                                              8     0      8    2789
                                             38 BANK0      8     0      8
                            ___fladd
                            ___fltol (ARG)
                             ___wmul (ARG)
                           ___xxtofl (ARG)
 ---------------------------------------------------------------------------------
 (3) ___fladd                                             20    12      8    2288
                                             18 BANK0     20    12      8
                           ___xxtofl (ARG)
 ---------------------------------------------------------------------------------
 (2) ___flmul                                             26    18      8    2873
                                             46 BANK0     26    18      8
                          __Umul8_16
                            ___fldiv (ARG)
                            ___flsub (ARG)
                            ___fltol (ARG)
                           ___xxtofl (ARG)
 ---------------------------------------------------------------------------------
 (3) __Umul8_16                                            9     7      2     799
                                              0 COMMON     9     7      2
 ---------------------------------------------------------------------------------
 (2) ___flge                                              12     4      8     334
                                              0 COMMON    12     4      8
 ---------------------------------------------------------------------------------
 (2) ___fldiv                                             26    18      8    1577
                                             18 BANK0     26    18      8
                           ___xxtofl (ARG)
 ---------------------------------------------------------------------------------
 (1) _centenas                                             4     2      2     953
                                             12 COMMON     2     2      0
                                              4 BANK0      2     0      2
                            ___awdiv
                            ___fltol (ARG)
 ---------------------------------------------------------------------------------
 (2) ___awdiv                                              9     5      4     756
                                              7 COMMON     5     1      4
                                              0 BANK0      4     4      0
                            ___awmod (ARG)
 ---------------------------------------------------------------------------------
 (1) _USART_Tx                                             1     1      0      22
                                              0 COMMON     1     1      0
 ---------------------------------------------------------------------------------
 (1) _USART_Recieve                                        0     0      0       0
 ---------------------------------------------------------------------------------
 (1) _Lcd_Write_String                                     7     5      2     666
                                              3 COMMON     7     5      2
                     _Lcd_Write_Char
 ---------------------------------------------------------------------------------
 (2) _Lcd_Write_Char                                       2     2      0      44
                                              1 COMMON     2     2      0
                           _Lcd_Port
 ---------------------------------------------------------------------------------
 (1) _Lcd_Set_Cursor                                       4     3      1     710
                                              4 COMMON     4     3      1
                            _Lcd_Cmd
 ---------------------------------------------------------------------------------
 (1) _Lcd_Init                                             2     2      0      66
                                              4 COMMON     2     2      0
                            _Lcd_Cmd
                           _Lcd_Port
 ---------------------------------------------------------------------------------
 (1) _Lcd_Clear                                            0     0      0      44
                            _Lcd_Cmd
 ---------------------------------------------------------------------------------
 (2) _Lcd_Cmd                                              3     3      0      44
                                              1 COMMON     3     3      0
                           _Lcd_Port
 ---------------------------------------------------------------------------------
 (3) _Lcd_Port                                             1     1      0      22
                                              0 COMMON     1     1      0
 ---------------------------------------------------------------------------------
 (1) _I2C_Master_Write                                     2     0      2     554
                                              0 COMMON     2     0      2
                    _I2C_Master_Wait
 ---------------------------------------------------------------------------------
 (1) _I2C_Master_Stop                                      0     0      0       0
                    _I2C_Master_Wait
 ---------------------------------------------------------------------------------
 (1) _I2C_Master_Start                                     0     0      0       0
                    _I2C_Master_Wait
 ---------------------------------------------------------------------------------
 (1) _I2C_Master_Read                                      6     4      2     273
                                              0 COMMON     6     4      2
                    _I2C_Master_Wait
 ---------------------------------------------------------------------------------
 (2) _I2C_Master_Wait                                      0     0      0       0
 ---------------------------------------------------------------------------------
 Estimated maximum stack depth 3
 ---------------------------------------------------------------------------------

 Call Graph Graphs:

 _main (ROOT)
   _I2C_Master_Read
     _I2C_Master_Wait
   _I2C_Master_Start
     _I2C_Master_Wait
   _I2C_Master_Stop
     _I2C_Master_Wait
   _I2C_Master_Write
     _I2C_Master_Wait
   _Lcd_Clear
     _Lcd_Cmd
       _Lcd_Port
   _Lcd_Init
     _Lcd_Cmd
     _Lcd_Port
   _Lcd_Set_Cursor
     _Lcd_Cmd
   _Lcd_Write_String
     _Lcd_Write_Char
       _Lcd_Port
   _USART_Recieve
   _USART_Tx
   ___fladd
     ___xxtofl (ARG)
       ___fltol (ARG)
       ___wmul (ARG)
         ___fltol (ARG)
   ___fldiv
     ___xxtofl (ARG)
   ___flmul
     __Umul8_16
     ___fldiv (ARG)
     ___flsub (ARG)
       ___fladd
       ___fltol (ARG)
       ___wmul (ARG)
       ___xxtofl (ARG)
     ___fltol (ARG)
     ___xxtofl (ARG)
   ___fltol
   ___xxtofl
   _centenas
     ___awdiv
       ___awmod (ARG)
     ___fltol (ARG)
   _convert
     ___awdiv
     ___fldiv
     ___flge
     ___flmul
     ___flsub
     ___fltol
     ___wmul
     ___xxtofl
   _decenas
     ___awdiv
     ___awmod
     ___fltol (ARG)
   _setup
     _I2C_Master_Init
       ___lldiv
   _unidades
     ___awmod
     ___fltol (ARG)

 Address spaces:
Name               Size   Autos  Total    Cost      Usage
BITCOMMON            E      0       0       0        0.0%
EEDATA             100      0       0       0        0.0%
NULL                 0      0       0       0        0.0%
CODE                 0      0       0       0        0.0%
COMMON               E      E       E       1      100.0%
BITSFR0              0      0       0       1        0.0%
SFR0                 0      0       0       1        0.0%
BITSFR1              0      0       0       2        0.0%
SFR1                 0      0       0       2        0.0%
STACK                0      0       0       2        0.0%
ABS                  0      0      B8       3        0.0%
BITBANK0            50      0       0       4        0.0%
BITSFR3              0      0       0       4        0.0%
SFR3                 0      0       0       4        0.0%
BANK0               50     50      50       5      100.0%
BITSFR2              0      0       0       5        0.0%
SFR2                 0      0       0       5        0.0%
BITBANK1            50      0       0       6        0.0%
BANK1               50     13      50       7      100.0%
BITBANK3            60      0       0       8        0.0%
BANK3               60      0       A       9       10.4%
BITBANK2            60      0       0      10        0.0%
BANK2               60      0       0      11        0.0%
DATA                 0      0      B8      12        0.0%


Microchip Technology PIC Macro Assembler V2.32 build 20210201212658 
Symbol Table                                                                                   Mon Sep 06 17:02:11 2021

             ___fldiv@aexp 004B               ___fldiv@bexp 004A                          pc 0002  
             ___fldiv@sign 0043               ___awdiv@sign 0021                         fsr 0004  
      ___wmul@multiplicand 0022        __Umul8_16@word_mpld 0076                        l113 03C1  
                      l123 0825                        l212 143E                        l132 13D8  
                      l221 1283                        l230 128D                        l126 12C8  
                      l310 0FFF                        l215 129A                        l135 128F  
                      l233 13FE                        l129 131A                        l218 12A6  
                      l234 1401                        l138 1299                        l235 1406  
                      l227 000B                        l260 12B3                        l254 1272  
                      l502 153F                        l272 12DE                        l257 12F8  
                      l266 133E                        l380 126C                        l269 0050  
                      l278 1480                        l640 0842                        l632 14D9  
                      l801 0BFF                        l802 0C0B                        l466 1398  
                      l619 15A8                        l643 08AE                        l644 08C7  
                      l652 1622                        l468 13B0                        l805 1362  
                      l901 0983                        l662 1622                        l831 1771  
                      l815 167F                        l912 094D                        l817 17FF  
                      l913 0959                        l905 0931                        l763 0A8E  
                      l659 160D                        l780 0B59                        l772 0C0B  
                      l837 17E3                        l861 031D                        l765 0A65  
                      l790 0B9F                        l839 17F3                        l855 03B1  
                      l759 09E7                        l784 0B7D                        l793 0BDD  
                      l874 1377                        l867 03A5                        l876 1389  
                      l899 08EC                        _GIE 005F                        _ada 00BD  
                      fsr0 0004                        indf 0000               ___awmod@sign 0076  
             ___flmul@aexp 0060               ___flmul@bexp 0061               ___flmul@sign 005B  
             ___flmul@temp 0066               ___flmul@prod 0062             ?_USART_Recieve 0070  
             ___fltol@exp1 007A                       l2200 0991                       l3000 0C0F  
                     l2210 09A8                       l2202 0995                       l3010 0C2C  
                     l3002 0C24                       l2300 0AA0                       l2220 09BE  
                     l2212 09A9                       l2204 0996                       l3100 0FEF  
                     l3020 0C7C                       l3012 0C2C                       l3004 0C24  
                     l3102 12B4                       l2310 0ACA                       l2302 0AB7  
                     l2230 09CF                       l2222 09BF                       l2206 099B  
                     l2214 09AB                       l3030 0CA9                       l3022 0C8F  
                     l3014 0C47                       l3006 0C26                       l3110 1319  
                     l3120 1269                       l3104 12C7                       l2400 1385  
                     l2320 0AF3                       l2312 0ACE                       l2304 0ABB  
                     l2240 09ED                       l2232 09D4                       l2224 09C5  
                     l2216 09B3                       l2208 09A0                       l3040 0D87  
                     l3032 0CAE                       l3016 0C68                       l3024 0C95  
                     l3008 0C28                       l3200 0752                       l2170 126E  
                     l2330 0B61                       l2322 0B31                       l2314 0ACF  
                     l2306 0ABF                       l2250 0A01                       l2242 09F1  
                     l2234 09DC                       l2226 09C9                       l2218 09B8  
                     l3050 0DBF                       l3042 0DA7                       l3034 0CCF  
                     l3026 0C9E                       l3018 0C73                       l2410 143B  
                     l3114 13B1                       l3210 079C                       l3202 0762  
                     l3130 03C9                       l2420 12E0                       l3124 128F  
                     l2340 0B7C                       l2332 0B66                       l2324 0B37  
                     l2316 0AD8                       l2308 0AC8                       l2260 0A15  
                     l2252 0A05                       l2244 09F5                       l2236 09DD  
                     l2228 09CA                       l3060 0DFD                       l3052 0DCF  
                     l3044 0DAF                       l3036 0CD5                       l3028 0CA4  
                     l2500 1482                       l3108 12F9                       l2180 14FE  
                     l2172 14DA                       l2412 143C                       l2404 1407  
                     l3116 13D7                       l3220 07D8                       l3212 07A2  
                     l3204 0772                       l3140 0427                       l3132 03D2  
                     l2422 12E3                       l2430 12CA                       l3126 1295  
                     l2342 0B81                       l2350 0B8D                       l2326 0B3C  
                     l2318 0ADD                       l2270 0A29                       l2262 0A19  
                     l2254 0A09                       l2246 09F9                       l2238 09DF  
                     l3070 0EBB                       l3062 0E03                       l3054 0DD7  
                     l3046 0DB5                       l3038 0CEB                       l2510 1496  
                     l2502 1486                       l2190 1531                       l2182 1507  
                     l2174 14EA                       l2414 143D                       l2406 140B  
                     l3214 07B9                       l3206 078C                       l3150 0473  
                     l3142 042C                       l3134 03E7                       l2416 129A  
                     l2424 12E9                       l2432 12CD                       l2600 162A  
                     l2344 0B84                       l2336 0B6F                       l2328 0B4B  
                     l2352 0B91                       l2280 0A69                       l2272 0A2D  
                     l2264 0A1D                       l2256 0A0D                       l2248 09FD  
                     l2440 138A                       l3080 0ED9                       l3072 0EBB  
                     l3064 0E1B                       l3056 0DD7                       l3048 0DB9  
                     l2520 14AE                       l2512 149C                       l2504 148B  
                     l2184 1519                       l2176 14ED                       l2192 1537  
                     l2408 140E                       l3216 07BF                       l3208 0792  
                     l3160 04A3                       l3152 0482                       l3144 0435  
                     l3136 03F3                       l3128 03B2                       l2418 12A0  
                     l2426 12EC                       l2434 12D3                       l2610 163F  
                     l2602 1630                       l2370 0BD9                       l2362 0BA4  
                     l2354 0B92                       l2346 0B86                       l2338 0B78  
                     l2290 0A82                       l2282 0A72                       l2266 0A21  
                     l2258 0A11                       l2274 0A31                       l2450 13AC  
                     l2442 138C                       l3090 0FB7                       l3082 0EDE  
                     l3074 0EC1                       l3066 0E98                       l3058 0DDC  
                     l2530 14D0                       l2522 14B8                       l2514 149F  
                     l2506 148D                       l2186 1527                       l2178 14FA  
                     l3218 07D5                       l3170 05CD                       l3162 04D3  
                     l3154 0487                       l3146 0443                       l3138 0418  
                     l2428 12F5                       l2436 12D6                       l2460 154C  
                     l2700 1756                       l2620 1657                       l2612 1647  
                     l2604 1634                       l2540 0856                       l2380 0BF5  
                     l2372 0BE2                       l2364 0BA9                       l2356 0B96  
                     l2348 0B8B                       l2284 0A74                       l2292 0A86  
                     l2276 0A32                       l2268 0A25                       l2196 0984  
                     l2444 1392                       l3092 0FD7                       l3084 0EFF  
                     l3076 0ECE                       l3068 0EAE                       l2532 14D5  
                     l2524 14BE                       l2516 14A6                       l2508 1491  
                     l2188 1528                       l3180 0646                       l3172 060C  
                     l3164 04E2                       l3156 0490                       l3148 0448  
                     l2438 12DB                       l2470 155D                       l2462 154E  
                     l2454 1540                       l2710 177B                       l2702 175A  
                     l2630 166C                       l2622 165D                       l2614 1648  
                     l2606 1635                       l2550 08C4                       l2542 085E  
                     l2390 1364                       l2382 0BF9                       l2374 0BE7  
                     l2366 0BB7                       l2358 0B9C                       l2294 0A92  
                     l2286 0A78                       l2278 0A49                       l2198 098B  
                     l2446 139F                       l3094 0FDF                       l3086 0F05  
                     l3078 0ED4                       l2526 14C5                       l2518 14AA  
                     l3190 06DA                       l3182 069F                       l3174 0614  
                     l3166 0517                       l3158 049E                       l2480 1575  
                     l2472 1563                       l2464 1552                       l2456 1543  
                     l2720 17B9                       l2712 1789                       l2704 176E  
                     l2640 1693                       l2632 1674                       l2624 1661  
                     l2608 163A                       l2616 164A                       l2552 08C6  
                     l2544 0862                       l2536 0826                       l2392 1366  
                     l2800 0181                       l2384 0BFB                       l2376 0BEF  
                     l2368 0BBB                       l2296 0A97                       l2288 0A79  
                     l2448 13A6                       l3096 0FE5                       l3088 0F1B  
                     l2528 14CB                       l3192 06E6                       l3184 06A7  
                     l3176 061C                       l3168 0577                       l2482 1586  
                     l2474 1566                       l2490 159A                       l2466 1557  
                     l2458 1547                       l2730 17E9                       l2722 17C7  
                     l2714 178D                       l2642 1697                       l2634 1675  
                     l2626 1662                       l2618 1652                       l2546 0886  
                     l2538 083A                       l2394 136D                       l2810 01F4  
                     l2802 0191                       l2386 0C06                       l2378 0BF4  
                     l2570 15DD                       l2562 15BD                       l3098 0FE9  
                     l3194 0746                       l3186 06BC                       l3178 063C  
                     l2492 159F                       l2484 158C                       l2476 156D  
                     l2468 155B                       l2732 17ED                       l2724 17D6  
                     l2716 17A6                       l2708 1776                       l2660 16D8  
                     l2652 16AE                       l2628 1667                       l2636 1677  
                     l2548 088A                       l2396 1371                       l2820 02A1  
                     l2812 0211                       l2804 01AE                       l2740 0051  
                     l2388 0C0A                       l2572 15E1                       l2580 15FB  
                     l2564 15D2                       l2556 15A9                       l2900 091A  
                     l3196 074A                       l3188 06C5                       l2494 15A4  
                     l2486 158D                       l2478 1571                       l2734 17EF  
                     l2726 17DA                       l2718 17AC                       l2670 16F6  
                     l2662 16DA                       l2654 16C0                       l2638 1687  
                     l2646 16A0                       l2398 1380                       l2830 02ED  
                     l2822 02C9                       l2814 023E                       l2806 01BE  
                     l2750 0068                       l2742 0058                       l2590 1617  
                     l2566 15D3                       l2558 15B4                       l2910 0951  
                     l2902 0928                       l3198 074E                       l2488 1594  
                     l2728 17E2                       l2664 16DF                       l2672 16FF  
                     l2680 1724                       l2656 16C8                       l2648 16A5  
                     l2840 0302                       l2832 02EE                       l2824 02D2  
                     l2816 024E                       l2808 01DB                       l2760 0084  
                     l2752 006D                       l2744 005E                       l2592 133F  
                     l2568 15DB                       l2920 097B                       l2912 095B  
                     l2904 0938                       l2690 1741                       l2682 172A  
                     l2674 1711                       l2666 16F1                       l2658 16D0  
                     l2850 0327                       l2842 0306                       l2834 02F7  
                     l2826 02E0                       l2818 027B                       l2770 0099  
                     l2762 008A                       l2754 0075                       l2746 0062  
                     l2594 1343                       l2586 1602                       l2578 15E9  
                     l2914 0971                       l2906 0943                       l2498 1481  
                     l2930 0812                       l2940 000C                       l2692 1742  
                     l2684 1732                       l2676 1712                       l2668 16F5  
                     l2860 0365                       l2852 0335                       l2844 031A  
                     l2828 02E9                       l2836 02FD                       l2780 00B5  
                     l2772 00A1                       l2764 008E                       l2756 0077  
                     l2748 0063                       l2588 1612                       l2916 0976  
                     l2908 0947                       l2932 081F                       l2924 0802  
                     l2950 12A7                       l2942 0012                       l2694 174B  
                     l2686 1734                       l2678 1720                       l2598 1623  
                     l2870 0399                       l2862 0370                       l2854 0339  
                     l2838 0301                       l2790 00F8                       l2774 00A3  
                     l2766 008F                       l2758 007F                       l2918 097A  
                     l2934 0822                       l2926 0806                       l2944 001B  
                     l2960 1333                       l2952 131C                       l2688 173D  
                     l2696 1751                       l2872 039D                       l2864 037F  
                     l2856 0352                       l2848 0322                       l2792 0114  
                     l2784 00BE                       l2776 00AB                       l2768 0094  
                     l2880 08CB                       l2936 0823                       l2928 0809  
                     l2946 002A                       l2962 1338                       l2954 1321  
                     l2970 1464                       l2698 1755                       l2874 039E  
                     l2866 0389                       l2858 0358                       l2794 0140  
                     l2786 00CE                       l2778 00B0                       l2882 08D0  
                     l2938 0824                       l2972 127B                       l2980 0003  
                     l2948 0030                       l2956 1326                       l2964 143F  
                     l2876 03A9                       l2868 038B                       l2796 015C  
                     l2788 00DB                       l2892 08FD                       l2884 08D4  
                     l2990 13EF                       l2974 1280                       l2982 0008  
                     l2958 132D                       l2966 1442                       l2798 0178  
                     l2894 0902                       l2886 08E4                       l2992 13F4  
                     l2984 13D9                       l2976 1284                       l2968 145E  
                     l2896 090F                       l2888 08F4                       l2994 13FA  
                     l2986 13DE                       l2978 1289                       l2898 0916  
                     l2996 1402                       l2988 13E6                       STR_1 1010  
                     STR_2 1015                       STR_3 1019                       STR_4 101D  
                     STR_5 101D                       u2100 0995                       u2101 0994  
                     u2110 099B                       u2030 14EA                       u2111 099A  
                     u2031 14E9                       u2200 0A54                       u2120 09A0  
                     u3000 1612                       u2201 0A52                       u2121 099F  
                     u3001 1611                       u2210 0A55                       u2130 09BE  
                     u3010 1617                       u2050 14FE                       u2131 09BD  
                     u3011 1616                       u2051 14FD                       u3100 16DF  
                     u3020 1634                       u2300 0ABF                       u2220 0A69  
                     u2140 09C9                       u3101 16DE                       u3021 1633  
                     u2301 0ABE                       u2221 0A68                       u2141 09C8  
                     u2045 14EF                       u3030 163A                       u2310 0ACE  
                     u2230 0A78                       u2150 09CF                       u2070 1519  
                     u3031 1639                       u2311 0ACD                       u2231 0A77  
                     u2151 09CE                       u2071 1518                       u3040 163F  
                     u2400 0B7C                       u2160 09D4                       u4000 07BF  
                     u3041 163E                       u2401 0B7B                       u2161 09D3  
                     u2065 1500                       u4001 07BE                       u3210 1755  
                     u3130 16F5                       u3050 1661                       u2410 0B81  
                     u2330 0AF3                       u2250 0A8E                       u2170 09ED  
                     u2090 1537                       u3211 1754                       u3131 16F4  
                     u3115 16E1                       u3051 1660                       u2411 0B80  
                     u2331 0AF2                       u2251 0A8D                       u2171 09EC  
                     u2091 1536                       u2075 1515                       u3300 17ED  
                     u3220 175A                       u3060 1667                       u2500 0BD9  
                     u2420 0B8B                       u2260 0A92                       u2180 09F1  
                     u3301 17EC                       u3221 1759                       u3205 1744  
                     u3125 16EA                       u3061 1666                       u2501 0BD8  
                     u2421 0B8A                       u2341 0B0A                       u2333 0AEF  
                     u2325 0AD1                       u2261 0A91                       u2245 0A7B  
                     u2181 09F0                       u2085 1529                       u3230 176E  
                     u3150 1711                       u3070 166C                       u3310 0062  
                     u2510 0BE2                       u2430 0B91                       u2350 0B1E  
                     u2342 0B0B                       u2270 0A97                       u2190 0A49  
                     u3231 176D                       u3151 1710                       u3071 166B  
                     u3311 0061                       u2511 0BE1                       u2431 0B90  
                     u2351 0B1F                       u2343 0B10                       u2271 0A96  
                     u2191 0A48                       u2600 12A0                       u3240 1775  
                     u3160 172A                       u3080 1687                       u3320 0068  
                     u2520 0BE7                       u2440 0B96                       u2360 0B3C  
                     u2352 0B24                       u2344 0B11                       u2601 129F  
                     u3241 1774                       u3161 1729                       u3145 16F8  
                     u3081 1686                       u3401 0122                       u3321 0067  
                     u2521 0BE6                       u2441 0B95                       u2361 0B3B  
                     u2353 0B25                       u2345 0B16                       u2281 0AA9  
                     u2610 12A6                       u3250 177B                       u3170 1732  
                     u3090 16A5                       u3402 0129                       u3330 006D  
                     u2530 0BF4                       u2450 0B9C                       u2370 0B61  
                     u2346 0B17                       u2290 0ABB                       u2282 0AB0  
                     u2611 12A5                       u4107 0025                       u3251 177A  
                     u3171 1731                       u3155 170D                       u3091 16A4  
                     u3411 014E                       u3403 0130                       u3331 006C  
                     u2531 0BF3                       u2451 0B9B                       u2371 0B60  
                     u2291 0ABA                       u2283 0AB7                       u2195 0A45  
                     u4027 0420                       u2700 1575                       u3260 178D  
                     u3500 0287                       u3412 0155                       u3340 008E  
                     u2540 0BF9                       u2460 0BA3                       u2380 0B66  
                     u2620 1392                       u4117 0034                       u2701 1574  
                     u3261 178C                       u3421 016A                       u3413 015C  
                     u3341 008D                       u2541 0BF8                       u2461 0BA2  
                     u2381 0B65                       u2621 1391                       u4037 0450  
                     u3270 179C                       u3190 1741                       u3422 0171  
                     u3350 0094                       u2550 0C0A                       u2470 0BA9  
                     u4127 12F0                       u3191 1740                       u3511 0293  
                     u3423 0178                       u3351 0093                       u2551 0C09  
                     u2471 0BA8                       u4047 047B                       u2720 1586  
                     u3280 17B9                       u2560 1371                       u3600 031A  
                     u3520 02AF                       u3512 029A                       u3360 0099  
                     u2480 0BBB                       u2800 14AE                       u2721 1585  
                     u3281 17B8                       u3185 1736                       u2561 1370  
                     u3601 0319                       u3513 02A1                       u3505 0282  
                     u3441 01A0                       u3361 0098                       u2481 0BBA  
                     u2801 14AD                       u4057 04AB                       u3290 17D6  
                     u3610 0321                       u3442 01A7                       u3370 00B0  
                     u2490 0BCA                       u2650 13AC                       u2810 14B8  
                     u2715 1576                       u3291 17D5                       u3275 1797  
                     u3611 0320                       u3531 02BB                       u3451 01CD  
                     u3443 01AE                       u3435 017A                       u3371 00AF  
                     u2395 0B71                       u2651 13AB                       u2635 1399  
                     u2811 14B7                       u4067 04DB                       u2740 159A  
                     u2660 1547                       u2580 1385                       u3620 0327  
                     u3532 02C2                       u3452 01D4                       u3380 00B5  
                     u3700 08F4                       u2741 1599                       u2725 1582  
                     u2661 1546                       u3285 17B5                       u2901 0899  
                     u2581 1384                       u3621 0326                       u3533 02C9  
                     u3525 02AA                       u3453 01DB                       u3381 00B4  
                     u2645 13A0                       u3701 08F3                       u4077 07E0  
                     u2750 159F                       u2670 1552                       u2910 08C4  
                     u2902 089A                       u3630 0339                       u2830 14CB  
                     u2590 141E                       u4087 12D8                       u2751 159E  
                     u2735 158E                       u2671 1551                       u3295 17D2  
                     u2911 08C3                       u2903 089F                       u2575 1378  
                     u3631 0338                       u3471 0203                       u3391 0106  
                     u2495 0BC5                       u2831 14CA                       u2815 14B4  
                     u2680 1563                       u2904 08A0                       u3640 0348  
                     u3560 02ED                       u3472 020A                       u3392 010D  
                     u2920 15B4                       u3800 0976                       u3720 0915  
                     u2840 14D0                       u2760 1486                       u4097 0016  
                     u2681 1562                       u2905 08A5                       u3561 02EC  
                     u3545 02CB                       u3481 0230                       u3473 0211  
                     u3465 01DD                       u3393 0114                       u2921 15B3  
                     u3801 0975                       u3721 0914                       u2841 14CF  
                     u2825 14BF                       u2761 1485                       u2906 08A6  
                     u2850 083A                       u3650 0365                       u3482 0237  
                     u2930 15CB                       u3810 097A                       u2770 1491  
                     u2915 08C0                       u2851 0839                       u3651 0364  
                     u3555 02E2                       u3491 025D                       u3483 023E  
                     u3811 0979                       u3715 0907                       u2771 1490  
                     u2595 1419                       _PEIE 005E                       u3820 1321  
                     u2860 0856                       u3660 037F                       u3580 0301  
                     u3492 0264                       u2940 15E1                       u3740 0937  
                     u3900 0CA4                       u2780 149C                       u3821 1320  
                     u2861 0855                       u3661 037E                       u3645 0343  
                     u3581 0300                       u3493 026B                       u2941 15E0  
                     u3741 0936                       u3901 0CA3                       u2781 149B  
                     u3830 1333                       u2870 0862                       u3670 039D  
                     u3590 0306                       u2950 15E8                       u3910 0CEB  
                     u3831 1332                       u2695 1567                       u2871 0861  
                     u3671 039C                       u3655 0361                       u3591 0305  
                     u3575 02F0                       u2951 15E7                       u2935 15C6  
                     u3735 0929                       u3911 0CEA                       u3840 144C  
                     u3760 0947                       u3680 08D0                       u3920 0DBF  
                     u2881 0871                       u3665 037B                       u3761 0946  
                     u3681 08CF                       u3921 0DBE                       u3850 146E  
                     u2890 088A                       u2882 0872                       u2970 15FA  
                     u3770 094D                       u3690 08D4                       u3930 0E1B  
                     u2891 0889                       u2883 0877                       u2971 15F9  
                     u3771 094C                       u3755 093C                       u3691 08D3  
                     u3931 0E1A                       u3915 0CE7                       u2795 14A0  
                     u3860 1480                       u2884 0878                       u2980 1601  
                     u3780 0951                       u3940 0ED4                       u3861 147F  
                     u2885 087D                       u2981 1600                       u2965 15EA  
                     u3781 0950                       u3941 0ED3                       u3870 13FA  
                     u2886 087E                       u3790 0966                       u3950 0F1B  
                     u3871 13F9                       u3951 0F1A                       u3935 0E17  
                     u3960 0FEF                       u3880 0C47                       u3961 0FEE  
                     u3881 0C46                       u3970 1295                       u3890 0C9D  
                     u3971 1294                       u2995 1604                       u3795 0961  
                     u3955 0F17                       u3891 0C9C                       u3980 0792  
                     u3981 0791                       u3990 07A2                       u3991 07A1  
                     _dech 00C1                       _lcd1 00D3                       _lcd3 0190  
                     _dect 00C4                       _cenh 00C2          ?_Lcd_Write_String 0073  
                     _dato 00BB                       _cent 00C5                       _main 03B2  
                     _tem1 00C8                       _tem2 00C7                       _temp 00B4  
                     _unih 00C0                       _unit 00C3                       btemp 007E  
                     _volt 00B0                       start 0000         ??_Lcd_Write_String 0075  
          ___fldiv@new_exp 0044            __end_of_Lcd_Cmd 12F9           ?_I2C_Master_Init 0020  
         ?_I2C_Master_Read 0070           ?_I2C_Master_Wait 0070           ?_I2C_Master_Stop 0070  
            ___fltol@sign1 0079            __end_of___fladd 0C0C                      ?_main 0070  
          __end_of___fldiv 1800            __end_of___awdiv 15A9            __end_of___awmod 14DA  
          __end_of___flmul 03B2            __end_of___flsub 1363            __end_of___fltol 1623  
                    _ANSEL 0188            __end_of___lldiv 1540            ___awdiv@divisor 0077  
          ___awdiv@counter 0020                      _RCREG 001A                      _SPBRG 0099  
                    _PORTB 0006                      _PORTD 0008                      _PORTE 0009  
  __size_of_Lcd_Set_Cursor 0024                      _TRISB 0086                      _TRISD 0088  
                    _SSPIE 0463                      _TRISE 0089                      _SSPIF 0063  
          __end_of_decenas 131B                      _TXREG 0019                convert@data 00E1  
              convert@temp 00DD            __end_of_convert 1000               unidades@dato 007B  
                    _conv0 00A4                      _conv1 00A8                      _conv3 00A0  
                    _setup 0802           __end_of_USART_Tx 129A               USART_Tx@data 0070  
                    pclath 000A                      status 0003                      wtemp0 007E  
         __end_of_Lcd_Init 0051           __end_of_Lcd_Port 1273            __initialization 07EA  
             __end_of_main 07EA                     ??_main 00EC         __size_of_Lcd_Clear 000D  
        ?_I2C_Master_Start 0070          ?_I2C_Master_Write 0070            ??_USART_Recieve 0070  
       ??_I2C_Master_Start 0070         ??_I2C_Master_Write 0072           ___awdiv@dividend 0079  
                   ?_setup 0070                     _ANSELH 0189                  ??_Lcd_Cmd 0071  
                   _SPBRGH 009A    __size_of_Lcd_Write_Char 0016                     _SSPADD 0093  
                   _TRISC3 043B                     _TRISC4 043C                     _SSPCON 0014  
                   _SSPBUF 0013           __end_of___xxtofl 0984           __end_of_centenas 12C9  
                   ___flge 0826               convert@place 006C                  ??___fladd 003A  
                   ___wmul 138A                  ??___fldiv 003A                  ??___awdiv 007B  
                ??___awmod 0074                  ??___flmul 0056                  ??___flsub 007D  
                ??___fltol 0074                  ??___lldiv 0078                  ??_decenas 007C  
         ___awdiv@quotient 0022            ___awmod@divisor 0070            ___awmod@counter 0075  
                ??_convert 006E         __size_of__Umul8_16 0027           __end_of_unidades 13D9  
          Lcd_Set_Cursor@a 0076            Lcd_Set_Cursor@b 0074                 ___flge@ff1 0070  
               ___flge@ff2 0074               ___xxtofl@arg 002E               ___xxtofl@exp 002D  
             ___xxtofl@val 0024    __end_of__initialization 07FC          __end_of_Lcd_Clear 12B4  
               ___fltol@f1 0070             __pcstackCOMMON 0070              __end_of_setup 0826  
                ?_USART_Tx 0070             _Lcd_Set_Cursor 131B                  ?_Lcd_Init 0070  
                ?_Lcd_Port 0070                    ??_setup 007E                 __pbssBANK1 00A0  
               __pbssBANK3 0190          __end_of__Umul8_16 138A                 __pmaintext 03B2  
                  ?___flge 0070                    ?___wmul 0020  __size_of_Lcd_Write_String 0042  
               ??_USART_Tx 0070     __end_of_Lcd_Set_Cursor 133F                  ?___xxtofl 0024  
                ?_centenas 0024                 ??_Lcd_Init 0074                 ??_Lcd_Port 0070  
             _datos_sensor 00B8                    _SSPCON2 0091                    _SSPSTAT 0094  
               __stringtab 1000             _Lcd_Write_Char 12C9                    _Lcd_Cmd 12DF  
               decenas@out 007D              convert@digits 00E8            __size_of___flge 00A2  
                  ___fladd 0984                    ___fldiv 1623                    ___awdiv 1540  
                  ___awmod 1481                  ?_unidades 007B                    ___flmul 0051  
                  ___flsub 133F                    ___fltol 15A9                    ___lldiv 14DA  
          __size_of___wmul 0027                    _decenas 12F9                  _ANSELbits 0188  
          ?_Lcd_Set_Cursor 0074                    __ptext1 13B1                    __ptext2 0802  
                  __ptext3 1407                    __ptext4 14DA                    __ptext5 12F9  
                  __ptext6 1481                    __ptext7 0C0C                    __ptext8 08C8  
                  __ptext9 138A                    _convert 0C0C                    _ingreso 00BF  
               ??___xxtofl 0028                    _humedad 00C9           ___awmod@dividend 0072  
 __size_of_I2C_Master_Init 0038   __size_of_I2C_Master_Read 002E                    _var_hum 00C6  
 __size_of_I2C_Master_Wait 000D                 ??_centenas 007C   __size_of_I2C_Master_Stop 0009  
                  clrloop0 1274     __end_of_Lcd_Write_Char 12DF       end_of_initialization 07FC  
__size_of_I2C_Master_Start 0009  __size_of_I2C_Master_Write 000A            ___lldiv@divisor 0070  
          ___lldiv@counter 007D                  _RCSTAbits 0018           I2C_Master_Init@c 0020  
         I2C_Master_Read@a 0070                 ??_unidades 007D                  Lcd_Port@a 0070  
                _PORTEbits 0009                ___fladd@grs 0045              ___xxtofl@sign 002C  
                _TRISCbits 0087                ___fldiv@grs 0046                ___fldiv@rem 003F  
    __end_of_USART_Recieve 126D            ?_Lcd_Write_Char 0070          Lcd_Write_String@a 0073  
        Lcd_Write_String@i 0078                ___flmul@grs 005C                  _TXSTAbits 0098  
                _Lcd_Clear 12A7             __end_of___flge 08C8             __end_of___wmul 13B1  
         _Lcd_Write_String 143F                _BAUDCTLbits 0187                unidades@out 0022  
        __size_of_USART_Tx 000C        start_initialization 07EA          __size_of_Lcd_Init 0045  
        __size_of_Lcd_Port 0006          ??_I2C_Master_Init 0024          ??_I2C_Master_Read 0072  
        ??_I2C_Master_Wait 0070          ??_I2C_Master_Stop 0070                 ?_Lcd_Clear 0070  
                 ??___flge 0078                   ??___wmul 007B                  __Umul8_16 1363  
          Lcd_Write_Char@a 0072                  ___fladd@a 0036                  ___fladd@b 0032  
                ___fldiv@a 0032                  ___fldiv@b 0036                  ___flmul@a 0052  
                ___flmul@b 004E                  ___flsub@a 0046                  ___flsub@b 004A  
                ___latbits 0002              __pcstackBANK0 0020              __pcstackBANK1 00DD  
        __size_of___xxtofl 00BC          __size_of_centenas 0015                   ?_Lcd_Cmd 0070  
         _I2C_Master_Start 127B           _I2C_Master_Write 1284           ??_Lcd_Set_Cursor 0075  
                 ?___fladd 0032                   ?___fldiv 0032                   ?___awdiv 0077  
                 ?___awmod 0070                   ?___flmul 004E                   ?___flsub 0046  
                 ?___fltol 0070                   ?___lldiv 0070                 ?__Umul8_16 0070  
                 ?_decenas 0024          __size_of_unidades 0028                  __pstrings 1000  
                 ?_convert 0068             __size_of_setup 0024             ___wmul@product 007B  
                clear_ram0 1273                   _PIE1bits 008C                   Lcd_Cmd@a 0073  
                 _PIR1bits 000C                ??_Lcd_Clear 0074                   _USART_Tx 128E  
               _ADCON0bits 001F                __stringbase 100F                 _ADCON1bits 009F  
        ___wmul@multiplier 0020           ??_Lcd_Write_Char 0071                   _Lcd_Init 000C  
                 _Lcd_Port 126D        I2C_Master_Read@temp 0074                  convert@mu 00EA  
 __end_of_Lcd_Write_String 1481           __size_of_Lcd_Cmd 001A                decenas@dato 0024  
              ??__Umul8_16 0072           __size_of___fladd 0288           __size_of___fldiv 01DD  
         __size_of___awdiv 0069           __size_of___awmod 0059           __size_of___flmul 0361  
         __size_of___flsub 0024           __size_of___fltol 007A           __size_of___lldiv 0066  
       __end_of__stringtab 1010           __size_of_decenas 0022                 _ANSELHbits 0189  
         __size_of_convert 03F4            _I2C_Master_Init 1407            _I2C_Master_Read 13D9  
                 ___xxtofl 08C8            _I2C_Master_Wait 129A            _I2C_Master_Stop 0003  
             centenas@dato 0024                   _centenas 12B4                   __ptext10 15A9  
                 __ptext11 133F                   __ptext20 1269                   __ptext12 0984  
                 __ptext21 143F                   __ptext13 0051                   __ptext30 127B  
                 __ptext22 12C9                   __ptext14 1363                   __ptext31 13D9  
                 __ptext23 131B                   __ptext15 0826                   __ptext32 129A  
                 __ptext24 000C                   __ptext16 1623                   __ptext25 12A7  
                 __ptext17 12B4                   __ptext26 12DF                   __ptext18 1540  
                 __ptext27 126D                   __ptext19 128E                   __ptext28 1284  
                 __ptext29 0003              __size_of_main 0438                   _posicion 00BE  
                 _unidades 13B1     __size_of_USART_Recieve 0004                   convert@a 0068  
                 convert@i 00E6                   convert@j 00DF                   convert@x 00E2  
 __end_of_I2C_Master_Start 1284   __end_of_I2C_Master_Write 128E                 _INTCONbits 000B  
              centenas@out 007D           ___lldiv@dividend 0074                  stringcode 100A  
               _OSCCONbits 008F    __end_of_I2C_Master_Init 143F    __end_of_I2C_Master_Read 1407  
  __end_of_I2C_Master_Wait 12A7    __end_of_I2C_Master_Stop 000C         Lcd_Set_Cursor@temp 0077  
            _unidades$1379 0020     __Umul8_16@multiplicand 0070                _temperatura 00AC  
         ___lldiv@quotient 0079          I2C_Master_Write@d 0070                   stringdir 100A  
                 stringtab 1000                _SSPCON2bits 0091              ___fladd@signs 0042  
            _USART_Recieve 1269               ___fladd@aexp 0043               ___fladd@bexp 0044  
     __Umul8_16@multiplier 0078          __Umul8_16@product 0074  
