

Microchip MPLAB XC8 Assembler V2.31 build 20201012212115 
                                                                                               Sat Sep 04 23:16:41 2021

Microchip MPLAB XC8 C Compiler v2.31 (Free license) build 20201012212115 Og1 
     1                           	processor	16F887
     2                           	pagewidth 120
     3                           	opt	flic
     4                           	psect	strings,global,class=STRING,delta=2,noexec
     5                           	psect	cinit,global,class=CODE,merge=1,delta=2
     6                           	psect	bssCOMMON,global,class=COMMON,space=1,delta=1,noexec
     7                           	psect	bssBANK1,global,class=BANK1,space=1,delta=1,noexec
     8                           	psect	clrtext,global,class=CODE,delta=2
     9                           	psect	cstackBANK3,global,class=BANK3,space=1,delta=1,noexec
    10                           	psect	cstackBANK1,global,class=BANK1,space=1,delta=1,noexec
    11                           	psect	cstackCOMMON,global,class=COMMON,space=1,delta=1,noexec
    12                           	psect	cstackBANK0,global,class=BANK0,space=1,delta=1,noexec
    13                           	psect	maintext,global,class=CODE,split=1,delta=2
    14                           	psect	text1,local,class=CODE,merge=1,delta=2
    15                           	psect	text2,local,class=CODE,merge=1,delta=2
    16                           	psect	text3,local,class=CODE,merge=1,delta=2,group=1
    17                           	psect	text4,local,class=CODE,merge=1,delta=2,group=1
    18                           	psect	text5,local,class=CODE,merge=1,delta=2,group=1
    19                           	psect	text6,local,class=CODE,merge=1,delta=2,group=1
    20                           	psect	text7,local,class=CODE,merge=1,delta=2,group=1
    21                           	psect	text8,local,class=CODE,merge=1,delta=2,group=1
    22                           	psect	text9,local,class=CODE,merge=1,delta=2,group=1
    23                           	psect	text10,local,class=CODE,merge=1,delta=2,group=1
    24                           	psect	text11,local,class=CODE,merge=1,delta=2,group=1
    25                           	psect	text12,local,class=CODE,merge=1,delta=2,group=1
    26                           	psect	text13,local,class=CODE,merge=1,delta=2
    27                           	psect	text14,local,class=CODE,merge=1,delta=2
    28                           	psect	text15,local,class=CODE,merge=1,delta=2
    29                           	psect	text16,local,class=CODE,merge=1,delta=2
    30                           	psect	text17,local,class=CODE,merge=1,delta=2
    31                           	psect	text18,local,class=CODE,merge=1,delta=2
    32                           	psect	text19,local,class=CODE,merge=1,delta=2
    33                           	psect	text20,local,class=CODE,merge=1,delta=2
    34                           	psect	intentry,global,class=CODE,delta=2
    35                           	psect	config,global,abs,ovrld,class=CONFIG,space=4,delta=2,noexec
    36                           	dabs	1,0x7E,2
    37  0000                     
    38                           ; Version 2.20
    39                           ; Generated 12/02/2020 GMT
    40                           ; 
    41                           ; Copyright © 2020, Microchip Technology Inc. and its subsidiaries ("Microchip")
    42                           ; All rights reserved.
    43                           ; 
    44                           ; This software is developed by Microchip Technology Inc. and its subsidiaries ("Microch
      +                          ip").
    45                           ; 
    46                           ; Redistribution and use in source and binary forms, with or without modification, are
    47                           ; permitted provided that the following conditions are met:
    48                           ; 
    49                           ;     1. Redistributions of source code must retain the above copyright notice, this lis
      +                          t of
    50                           ;        conditions and the following disclaimer.
    51                           ; 
    52                           ;     2. Redistributions in binary form must reproduce the above copyright notice, this 
      +                          list
    53                           ;        of conditions and the following disclaimer in the documentation and/or other
    54                           ;        materials provided with the distribution.
    55                           ; 
    56                           ;     3. Microchip's name may not be used to endorse or promote products derived from th
      +                          is
    57                           ;        software without specific prior written permission.
    58                           ; 
    59                           ; THIS SOFTWARE IS PROVIDED BY MICROCHIP "AS IS" AND ANY EXPRESS OR IMPLIED WARRANTIES,
    60                           ; INCLUDING, BUT NOT LIMITED TO, THE IMPLIED WARRANTIES OF MERCHANTABILITY AND FITNESS F
      +                          OR
    61                           ; PURPOSE ARE DISCLAIMED.  IN NO EVENT SHALL MICROCHIP BE LIABLE FOR ANY DIRECT, INDIREC
      +                          T,
    62                           ; INCIDENTAL, SPECIAL, EXEMPLARY, OR CONSEQUENTIAL DAMAGES (INCLUDING BUT NOT LIMITED TO
    63                           ; PROCUREMENT OF SUBSTITUTE GOODS OR SERVICES; LOSS OF USE, DATA OR PROFITS; OR BUSINESS
    64                           ; INTERRUPTION) HOWSOEVER CAUSED AND ON ANY THEORY OF LIABILITY, WHETHER IN CONTRACT, ST
      +                          RICT
    65                           ; LIABILITY, OR TORT (INCLUDING NEGLIGENCE OR OTHERWISE) ARISING IN ANY WAY OUT OF THE U
      +                          SE OF
    66                           ; THIS SOFTWARE, EVEN IF ADVISED OF THE POSSIBILITY OF SUCH DAMAGE.
    67                           ; 
    68                           ; 
    69                           ; Code-generator required, PIC16F887 Definitions
    70                           ; 
    71                           ; SFR Addresses
    72  0000                     	;# 
    73  0001                     	;# 
    74  0002                     	;# 
    75  0003                     	;# 
    76  0004                     	;# 
    77  0005                     	;# 
    78  0006                     	;# 
    79  0007                     	;# 
    80  0008                     	;# 
    81  0009                     	;# 
    82  000A                     	;# 
    83  000B                     	;# 
    84  000C                     	;# 
    85  000D                     	;# 
    86  000E                     	;# 
    87  000E                     	;# 
    88  000F                     	;# 
    89  0010                     	;# 
    90  0011                     	;# 
    91  0012                     	;# 
    92  0013                     	;# 
    93  0014                     	;# 
    94  0015                     	;# 
    95  0015                     	;# 
    96  0016                     	;# 
    97  0017                     	;# 
    98  0018                     	;# 
    99  0019                     	;# 
   100  001A                     	;# 
   101  001B                     	;# 
   102  001B                     	;# 
   103  001C                     	;# 
   104  001D                     	;# 
   105  001E                     	;# 
   106  001F                     	;# 
   107  0081                     	;# 
   108  0085                     	;# 
   109  0086                     	;# 
   110  0087                     	;# 
   111  0088                     	;# 
   112  0089                     	;# 
   113  008C                     	;# 
   114  008D                     	;# 
   115  008E                     	;# 
   116  008F                     	;# 
   117  0090                     	;# 
   118  0091                     	;# 
   119  0092                     	;# 
   120  0093                     	;# 
   121  0093                     	;# 
   122  0093                     	;# 
   123  0094                     	;# 
   124  0095                     	;# 
   125  0096                     	;# 
   126  0097                     	;# 
   127  0098                     	;# 
   128  0099                     	;# 
   129  009A                     	;# 
   130  009B                     	;# 
   131  009C                     	;# 
   132  009D                     	;# 
   133  009E                     	;# 
   134  009F                     	;# 
   135  0105                     	;# 
   136  0107                     	;# 
   137  0108                     	;# 
   138  0109                     	;# 
   139  010C                     	;# 
   140  010C                     	;# 
   141  010D                     	;# 
   142  010E                     	;# 
   143  010F                     	;# 
   144  0185                     	;# 
   145  0187                     	;# 
   146  0188                     	;# 
   147  0189                     	;# 
   148  018C                     	;# 
   149  018D                     	;# 
   150  0000                     	;# 
   151  0001                     	;# 
   152  0002                     	;# 
   153  0003                     	;# 
   154  0004                     	;# 
   155  0005                     	;# 
   156  0006                     	;# 
   157  0007                     	;# 
   158  0008                     	;# 
   159  0009                     	;# 
   160  000A                     	;# 
   161  000B                     	;# 
   162  000C                     	;# 
   163  000D                     	;# 
   164  000E                     	;# 
   165  000E                     	;# 
   166  000F                     	;# 
   167  0010                     	;# 
   168  0011                     	;# 
   169  0012                     	;# 
   170  0013                     	;# 
   171  0014                     	;# 
   172  0015                     	;# 
   173  0015                     	;# 
   174  0016                     	;# 
   175  0017                     	;# 
   176  0018                     	;# 
   177  0019                     	;# 
   178  001A                     	;# 
   179  001B                     	;# 
   180  001B                     	;# 
   181  001C                     	;# 
   182  001D                     	;# 
   183  001E                     	;# 
   184  001F                     	;# 
   185  0081                     	;# 
   186  0085                     	;# 
   187  0086                     	;# 
   188  0087                     	;# 
   189  0088                     	;# 
   190  0089                     	;# 
   191  008C                     	;# 
   192  008D                     	;# 
   193  008E                     	;# 
   194  008F                     	;# 
   195  0090                     	;# 
   196  0091                     	;# 
   197  0092                     	;# 
   198  0093                     	;# 
   199  0093                     	;# 
   200  0093                     	;# 
   201  0094                     	;# 
   202  0095                     	;# 
   203  0096                     	;# 
   204  0097                     	;# 
   205  0098                     	;# 
   206  0099                     	;# 
   207  009A                     	;# 
   208  009B                     	;# 
   209  009C                     	;# 
   210  009D                     	;# 
   211  009E                     	;# 
   212  009F                     	;# 
   213  0105                     	;# 
   214  0107                     	;# 
   215  0108                     	;# 
   216  0109                     	;# 
   217  010C                     	;# 
   218  010C                     	;# 
   219  010D                     	;# 
   220  010E                     	;# 
   221  010F                     	;# 
   222  0185                     	;# 
   223  0187                     	;# 
   224  0188                     	;# 
   225  0189                     	;# 
   226  018C                     	;# 
   227  018D                     	;# 
   228  0000                     	;# 
   229  0001                     	;# 
   230  0002                     	;# 
   231  0003                     	;# 
   232  0004                     	;# 
   233  0005                     	;# 
   234  0006                     	;# 
   235  0007                     	;# 
   236  0008                     	;# 
   237  0009                     	;# 
   238  000A                     	;# 
   239  000B                     	;# 
   240  000C                     	;# 
   241  000D                     	;# 
   242  000E                     	;# 
   243  000E                     	;# 
   244  000F                     	;# 
   245  0010                     	;# 
   246  0011                     	;# 
   247  0012                     	;# 
   248  0013                     	;# 
   249  0014                     	;# 
   250  0015                     	;# 
   251  0015                     	;# 
   252  0016                     	;# 
   253  0017                     	;# 
   254  0018                     	;# 
   255  0019                     	;# 
   256  001A                     	;# 
   257  001B                     	;# 
   258  001B                     	;# 
   259  001C                     	;# 
   260  001D                     	;# 
   261  001E                     	;# 
   262  001F                     	;# 
   263  0081                     	;# 
   264  0085                     	;# 
   265  0086                     	;# 
   266  0087                     	;# 
   267  0088                     	;# 
   268  0089                     	;# 
   269  008C                     	;# 
   270  008D                     	;# 
   271  008E                     	;# 
   272  008F                     	;# 
   273  0090                     	;# 
   274  0091                     	;# 
   275  0092                     	;# 
   276  0093                     	;# 
   277  0093                     	;# 
   278  0093                     	;# 
   279  0094                     	;# 
   280  0095                     	;# 
   281  0096                     	;# 
   282  0097                     	;# 
   283  0098                     	;# 
   284  0099                     	;# 
   285  009A                     	;# 
   286  009B                     	;# 
   287  009C                     	;# 
   288  009D                     	;# 
   289  009E                     	;# 
   290  009F                     	;# 
   291  0105                     	;# 
   292  0107                     	;# 
   293  0108                     	;# 
   294  0109                     	;# 
   295  010C                     	;# 
   296  010C                     	;# 
   297  010D                     	;# 
   298  010E                     	;# 
   299  010F                     	;# 
   300  0185                     	;# 
   301  0187                     	;# 
   302  0188                     	;# 
   303  0189                     	;# 
   304  018C                     	;# 
   305  018D                     	;# 
   306  0007                     _PORTCbits	set	7
   307  0007                     _PORTC	set	7
   308  0006                     _PORTB	set	6
   309  0005                     _PORTA	set	5
   310  0008                     _PORTDbits	set	8
   311  0001                     _TMR0	set	1
   312  000B                     _INTCONbits	set	11
   313  0008                     _PORTD	set	8
   314  001E                     _ADRESH	set	30
   315  001F                     _ADCON0bits	set	31
   316  000C                     _PIR1bits	set	12
   317  0081                     _OPTION_REGbits	set	129
   318  009F                     _ADCON1bits	set	159
   319  008C                     _PIE1bits	set	140
   320  008F                     _OSCCONbits	set	143
   321  0088                     _TRISD	set	136
   322  0087                     _TRISC	set	135
   323  0086                     _TRISB	set	134
   324  0085                     _TRISA	set	133
   325  009E                     _ADRESL	set	158
   326  0189                     _ANSELH	set	393
   327  0188                     _ANSEL	set	392
   328                           
   329                           	psect	strings
   330  1000                     __pstrings:
   331  1000                     stringtab:
   332  1000                     __stringtab:
   333                           
   334                           ;	String table - string pointers are 1 byte each
   335  1000  1BFF               	btfsc	btemp+1,7
   336  1001  280A               	ljmp	stringcode
   337  1002  1383               	bcf	3,7
   338  1003  187F               	btfsc	btemp+1,0
   339  1004  1783               	bsf	3,7
   340  1005  0800               	movf	0,w
   341  1006  0A84               	incf	4,f
   342  1007  1903               	skipnz
   343  1008  0AFF               	incf	btemp+1,f
   344  1009  0008               	return
   345  100A                     stringcode:
   346  100A                     stringdir:
   347  100A  3010               	movlw	high stringdir
   348  100B  008A               	movwf	10
   349  100C  0804               	movf	4,w
   350  100D  0A84               	incf	4,f
   351  100E  0782               	addwf	2,f
   352  100F                     __stringbase:
   353  100F  3400               	retlw	0
   354  1010                     __end_of__stringtab:
   355  1010                     STR_1:
   356  1010  3454               	retlw	84	;'T'
   357  1011  3465               	retlw	101	;'e'
   358  1012  346D               	retlw	109	;'m'
   359  1013  3470               	retlw	112	;'p'
   360  1014  3400               	retlw	0
   361  1015                     STR_2:
   362  1015  3453               	retlw	83	;'S'
   363  1016  3432               	retlw	50	;'2'
   364  1017  343A               	retlw	58	;':'
   365  1018  3400               	retlw	0
   366  1019                     STR_3:
   367  1019  3453               	retlw	83	;'S'
   368  101A  3433               	retlw	51	;'3'
   369  101B  343A               	retlw	58	;':'
   370  101C  3400               	retlw	0
   371  101D                     STR_4:
   372  101D  3443               	retlw	67	;'C'
   373  101E  3400               	retlw	0
   374                           
   375                           	psect	cinit
   376  0013                     start_initialization:	
   377                           ; #config settings
   378                           
   379  0013                     __initialization:
   380                           
   381                           ; Clear objects allocated to COMMON
   382  0013  01F5               	clrf	__pbssCOMMON& (0+127)
   383  0014  01F6               	clrf	(__pbssCOMMON+1)& (0+127)
   384  0015  01F7               	clrf	(__pbssCOMMON+2)& (0+127)
   385  0016  01F8               	clrf	(__pbssCOMMON+3)& (0+127)
   386                           
   387                           ; Clear objects allocated to BANK1
   388  0017  1383               	bcf	3,7	;select IRP bank0
   389  0018  30A0               	movlw	low __pbssBANK1
   390  0019  0084               	movwf	4
   391  001A  30D5               	movlw	low (__pbssBANK1+53)
   392  001B  160A  118A  22D3  120A  118A  	fcall	clear_ram0
   393  0020                     end_of_initialization:	
   394                           ;End of C runtime variable initialization code
   395                           
   396  0020                     __end_of__initialization:
   397  0020  0183               	clrf	3
   398  0021  120A  118A  2D83   	ljmp	_main	;jump to C main() function
   399                           
   400                           	psect	bssCOMMON
   401  0075                     __pbssCOMMON:
   402  0075                     _contador:
   403  0075                     	ds	1
   404  0076                     _adc2:
   405  0076                     	ds	1
   406  0077                     _adc1:
   407  0077                     	ds	1
   408  0078                     _counter:
   409  0078                     	ds	1
   410                           
   411                           	psect	bssBANK1
   412  00A0                     __pbssBANK1:
   413  00A0                     _cont1:
   414  00A0                     	ds	10
   415  00AA                     _sensor2:
   416  00AA                     	ds	10
   417  00B4                     _conv3:
   418  00B4                     	ds	4
   419  00B8                     _conv2:
   420  00B8                     	ds	4
   421  00BC                     _conv1:
   422  00BC                     	ds	4
   423  00C0                     _sen_temp:
   424  00C0                     	ds	4
   425  00C4                     _volt1:
   426  00C4                     	ds	4
   427  00C8                     _lec1:
   428  00C8                     	ds	2
   429  00CA                     _speed:
   430  00CA                     	ds	1
   431  00CB                     _temperatura:
   432  00CB                     	ds	10
   433                           
   434                           	psect	clrtext
   435  12D3                     clear_ram0:	
   436                           ;	Called with FSR containing the base address, and
   437                           ;	W with the last address+1
   438                           
   439  12D3  0064               	clrwdt	;clear the watchdog before getting into this loop
   440  12D4                     clrloop0:
   441  12D4  0180               	clrf	0	;clear RAM location pointed to by FSR
   442  12D5  0A84               	incf	4,f	;increment pointer
   443  12D6  0604               	xorwf	4,w	;XOR with final address
   444  12D7  1903               	btfsc	3,2	;have we reached the end yet?
   445  12D8  3400               	retlw	0	;all done for this memory range, return
   446  12D9  0604               	xorwf	4,w	;XOR again to restore value
   447  12DA  2AD4               	goto	clrloop0	;do the next byte
   448                           
   449                           	psect	cstackBANK3
   450  0190                     __pcstackBANK3:
   451  0190                     convert@temp:
   452                           
   453                           ; 2 bytes @ 0x0
   454  0190                     	ds	2
   455  0192                     convert@j:
   456                           
   457                           ; 2 bytes @ 0x2
   458  0192                     	ds	2
   459  0194                     convert@data:
   460                           
   461                           ; 1 bytes @ 0x4
   462  0194                     	ds	1
   463  0195                     convert@x:
   464                           
   465                           ; 4 bytes @ 0x5
   466  0195                     	ds	4
   467  0199                     convert@i:
   468                           
   469                           ; 2 bytes @ 0x9
   470  0199                     	ds	2
   471  019B                     convert@digits:
   472                           
   473                           ; 2 bytes @ 0xB
   474  019B                     	ds	2
   475  019D                     convert@mu:
   476                           
   477                           ; 2 bytes @ 0xD
   478  019D                     	ds	2
   479                           
   480                           	psect	cstackBANK1
   481  00D5                     __pcstackBANK1:
   482  00D5                     ___flmul@sign:
   483                           
   484                           ; 1 bytes @ 0x0
   485  00D5                     	ds	1
   486  00D6                     ___flmul@aexp:
   487                           
   488                           ; 1 bytes @ 0x1
   489  00D6                     	ds	1
   490  00D7                     ___flmul@grs:
   491                           
   492                           ; 4 bytes @ 0x2
   493  00D7                     	ds	4
   494  00DB                     ___flmul@bexp:
   495                           
   496                           ; 1 bytes @ 0x6
   497  00DB                     	ds	1
   498  00DC                     ___flmul@prod:
   499                           
   500                           ; 4 bytes @ 0x7
   501  00DC                     	ds	4
   502  00E0                     ___flmul@temp:
   503                           
   504                           ; 2 bytes @ 0xB
   505  00E0                     	ds	2
   506  00E2                     ?_convert:
   507  00E2                     convert@a:	
   508                           ; 1 bytes @ 0xD
   509                           
   510                           
   511                           ; 4 bytes @ 0xD
   512  00E2                     	ds	4
   513  00E6                     convert@place:
   514                           
   515                           ; 2 bytes @ 0x11
   516  00E6                     	ds	2
   517                           
   518                           	psect	cstackCOMMON
   519  0070                     __pcstackCOMMON:
   520  0070                     ?_setup:
   521  0070                     ?_Lcd_Init:	
   522                           ; 1 bytes @ 0x0
   523                           
   524  0070                     ?_Lcd_Clear:	
   525                           ; 1 bytes @ 0x0
   526                           
   527  0070                     ?_isr:	
   528                           ; 1 bytes @ 0x0
   529                           
   530  0070                     ??_isr:	
   531                           ; 1 bytes @ 0x0
   532                           
   533  0070                     ?_main:	
   534                           ; 1 bytes @ 0x0
   535                           
   536  0070                     ?_Lcd_Port:	
   537                           ; 1 bytes @ 0x0
   538                           
   539  0070                     ?_Lcd_Cmd:	
   540                           ; 1 bytes @ 0x0
   541                           
   542  0070                     ?_Lcd_Write_Char:	
   543                           ; 1 bytes @ 0x0
   544                           
   545                           
   546                           ; 1 bytes @ 0x0
   547  0070                     	ds	5
   548  0075                     ??_Lcd_Clear:
   549  0075                     ??_Lcd_Port:	
   550                           ; 1 bytes @ 0x5
   551                           
   552  0075                     ??___wmul:	
   553                           ; 1 bytes @ 0x5
   554                           
   555  0075                     ??___flsub:	
   556                           ; 1 bytes @ 0x5
   557                           
   558                           
   559                           	psect	cstackBANK0
   560  0020                     __pcstackBANK0:	
   561                           ; 1 bytes @ 0x5
   562                           
   563  0020                     ?___flge:
   564  0020                     ??_setup:	
   565                           ; 1 bit 
   566                           
   567  0020                     ?__Umul8_16:	
   568                           ; 1 bytes @ 0x0
   569                           
   570  0020                     ?___awdiv:	
   571                           ; 2 bytes @ 0x0
   572                           
   573  0020                     ?___fltol:	
   574                           ; 2 bytes @ 0x0
   575                           
   576  0020                     ?___fladd:	
   577                           ; 4 bytes @ 0x0
   578                           
   579  0020                     Lcd_Port@a:	
   580                           ; 4 bytes @ 0x0
   581                           
   582  0020                     __Umul8_16@multiplicand:	
   583                           ; 1 bytes @ 0x0
   584                           
   585  0020                     ___awdiv@divisor:	
   586                           ; 1 bytes @ 0x0
   587                           
   588  0020                     ___flge@ff1:	
   589                           ; 2 bytes @ 0x0
   590                           
   591  0020                     ___fltol@f1:	
   592                           ; 4 bytes @ 0x0
   593                           
   594  0020                     ___fladd@b:	
   595                           ; 4 bytes @ 0x0
   596                           
   597                           
   598                           ; 4 bytes @ 0x0
   599  0020                     	ds	1
   600  0021                     ??_Lcd_Cmd:
   601  0021                     ??_Lcd_Write_Char:	
   602                           ; 1 bytes @ 0x1
   603                           
   604                           
   605                           ; 1 bytes @ 0x1
   606  0021                     	ds	1
   607  0022                     ??__Umul8_16:
   608  0022                     Lcd_Write_Char@a:	
   609                           ; 1 bytes @ 0x2
   610                           
   611  0022                     ___awdiv@dividend:	
   612                           ; 1 bytes @ 0x2
   613                           
   614                           
   615                           ; 2 bytes @ 0x2
   616  0022                     	ds	1
   617  0023                     ?_Lcd_Write_String:
   618  0023                     Lcd_Cmd@a:	
   619                           ; 1 bytes @ 0x3
   620                           
   621  0023                     Lcd_Write_String@a:	
   622                           ; 1 bytes @ 0x3
   623                           
   624                           
   625                           ; 2 bytes @ 0x3
   626  0023                     	ds	1
   627  0024                     ??_Lcd_Init:
   628  0024                     ?_Lcd_Set_Cursor:	
   629                           ; 1 bytes @ 0x4
   630                           
   631  0024                     ??___awdiv:	
   632                           ; 1 bytes @ 0x4
   633                           
   634  0024                     ??___fltol:	
   635                           ; 1 bytes @ 0x4
   636                           
   637  0024                     Lcd_Set_Cursor@b:	
   638                           ; 1 bytes @ 0x4
   639                           
   640  0024                     __Umul8_16@product:	
   641                           ; 1 bytes @ 0x4
   642                           
   643  0024                     ___flge@ff2:	
   644                           ; 2 bytes @ 0x4
   645                           
   646  0024                     ___fladd@a:	
   647                           ; 4 bytes @ 0x4
   648                           
   649                           
   650                           ; 4 bytes @ 0x4
   651  0024                     	ds	1
   652  0025                     ??_Lcd_Set_Cursor:
   653  0025                     ??_Lcd_Write_String:	
   654                           ; 1 bytes @ 0x5
   655                           
   656  0025                     ___awdiv@counter:	
   657                           ; 1 bytes @ 0x5
   658                           
   659                           
   660                           ; 1 bytes @ 0x5
   661  0025                     	ds	1
   662  0026                     Lcd_Set_Cursor@a:
   663  0026                     ___awdiv@sign:	
   664                           ; 1 bytes @ 0x6
   665                           
   666  0026                     __Umul8_16@word_mpld:	
   667                           ; 1 bytes @ 0x6
   668                           
   669                           
   670                           ; 2 bytes @ 0x6
   671  0026                     	ds	1
   672  0027                     Lcd_Set_Cursor@temp:
   673  0027                     ___awdiv@quotient:	
   674                           ; 1 bytes @ 0x7
   675                           
   676                           
   677                           ; 2 bytes @ 0x7
   678  0027                     	ds	1
   679  0028                     ??___flge:
   680  0028                     ??___fladd:	
   681                           ; 1 bytes @ 0x8
   682                           
   683  0028                     __Umul8_16@multiplier:	
   684                           ; 1 bytes @ 0x8
   685                           
   686  0028                     Lcd_Write_String@i:	
   687                           ; 1 bytes @ 0x8
   688                           
   689                           
   690                           ; 2 bytes @ 0x8
   691  0028                     	ds	1
   692  0029                     ___fltol@sign1:
   693                           
   694                           ; 1 bytes @ 0x9
   695  0029                     	ds	1
   696  002A                     ___fltol@exp1:
   697                           
   698                           ; 1 bytes @ 0xA
   699  002A                     	ds	1
   700  002B                     ?___wmul:
   701  002B                     ___wmul@multiplier:	
   702                           ; 2 bytes @ 0xB
   703                           
   704                           
   705                           ; 2 bytes @ 0xB
   706  002B                     	ds	2
   707  002D                     ___wmul@multiplicand:
   708                           
   709                           ; 2 bytes @ 0xD
   710  002D                     	ds	2
   711  002F                     ___wmul@product:
   712                           
   713                           ; 2 bytes @ 0xF
   714  002F                     	ds	1
   715  0030                     ___fladd@signs:
   716                           
   717                           ; 1 bytes @ 0x10
   718  0030                     	ds	1
   719  0031                     ?___xxtofl:
   720  0031                     ___fladd@aexp:	
   721                           ; 4 bytes @ 0x11
   722                           
   723  0031                     ___xxtofl@val:	
   724                           ; 1 bytes @ 0x11
   725                           
   726                           
   727                           ; 4 bytes @ 0x11
   728  0031                     	ds	1
   729  0032                     ___fladd@bexp:
   730                           
   731                           ; 1 bytes @ 0x12
   732  0032                     	ds	1
   733  0033                     ___fladd@grs:
   734                           
   735                           ; 1 bytes @ 0x13
   736  0033                     	ds	2
   737  0035                     ??___xxtofl:
   738                           
   739                           ; 1 bytes @ 0x15
   740  0035                     	ds	4
   741  0039                     ___xxtofl@sign:
   742                           
   743                           ; 1 bytes @ 0x19
   744  0039                     	ds	1
   745  003A                     ___xxtofl@exp:
   746                           
   747                           ; 1 bytes @ 0x1A
   748  003A                     	ds	1
   749  003B                     ___xxtofl@arg:
   750                           
   751                           ; 4 bytes @ 0x1B
   752  003B                     	ds	4
   753  003F                     ?___flsub:
   754  003F                     ?___fldiv:	
   755                           ; 4 bytes @ 0x1F
   756                           
   757  003F                     ___flsub@a:	
   758                           ; 4 bytes @ 0x1F
   759                           
   760  003F                     ___fldiv@a:	
   761                           ; 4 bytes @ 0x1F
   762                           
   763                           
   764                           ; 4 bytes @ 0x1F
   765  003F                     	ds	4
   766  0043                     ___flsub@b:
   767  0043                     ___fldiv@b:	
   768                           ; 4 bytes @ 0x23
   769                           
   770                           
   771                           ; 4 bytes @ 0x23
   772  0043                     	ds	4
   773  0047                     ??___fldiv:
   774                           
   775                           ; 1 bytes @ 0x27
   776  0047                     	ds	5
   777  004C                     ___fldiv@rem:
   778                           
   779                           ; 4 bytes @ 0x2C
   780  004C                     	ds	4
   781  0050                     ___fldiv@sign:
   782                           
   783                           ; 1 bytes @ 0x30
   784  0050                     	ds	1
   785  0051                     ___fldiv@new_exp:
   786                           
   787                           ; 2 bytes @ 0x31
   788  0051                     	ds	2
   789  0053                     ___fldiv@grs:
   790                           
   791                           ; 4 bytes @ 0x33
   792  0053                     	ds	4
   793  0057                     ___fldiv@bexp:
   794                           
   795                           ; 1 bytes @ 0x37
   796  0057                     	ds	1
   797  0058                     ___fldiv@aexp:
   798                           
   799                           ; 1 bytes @ 0x38
   800  0058                     	ds	1
   801  0059                     ?___flmul:
   802  0059                     ___flmul@b:	
   803                           ; 4 bytes @ 0x39
   804                           
   805                           
   806                           ; 4 bytes @ 0x39
   807  0059                     	ds	4
   808  005D                     ___flmul@a:
   809                           
   810                           ; 4 bytes @ 0x3D
   811  005D                     	ds	4
   812  0061                     ??___flmul:
   813                           
   814                           ; 1 bytes @ 0x41
   815  0061                     	ds	5
   816  0066                     ??_convert:
   817                           
   818                           ; 1 bytes @ 0x46
   819  0066                     	ds	2
   820  0068                     ??_main:
   821                           
   822                           ; 1 bytes @ 0x48
   823  0068                     	ds	1
   824                           
   825                           	psect	maintext
   826  0583                     __pmaintext:	
   827 ;;
   828 ;;Main: autosize = 0, tempsize = 1, incstack = 0, save=0
   829 ;;
   830 ;; *************** function _main *****************
   831 ;; Defined at:
   832 ;;		line 117 in file "Slave3.c"
   833 ;; Parameters:    Size  Location     Type
   834 ;;		None
   835 ;; Auto vars:     Size  Location     Type
   836 ;;  a               2    0        unsigned int 
   837 ;; Return value:  Size  Location     Type
   838 ;;                  1    wreg      void 
   839 ;; Registers used:
   840 ;;		wreg, fsr0l, fsr0h, status,2, status,0, btemp+1, pclath, cstack
   841 ;; Tracked objects:
   842 ;;		On entry : B00/0
   843 ;;		On exit  : 0/0
   844 ;;		Unchanged: 0/0
   845 ;; Data sizes:     COMMON   BANK0   BANK1   BANK3   BANK2
   846 ;;      Params:         0       0       0       0       0
   847 ;;      Locals:         0       0       0       0       0
   848 ;;      Temps:          0       1       0       0       0
   849 ;;      Totals:         0       1       0       0       0
   850 ;;Total ram usage:        1 bytes
   851 ;; Hardware stack levels required when called:    4
   852 ;; This function calls:
   853 ;;		_Lcd_Clear
   854 ;;		_Lcd_Init
   855 ;;		_Lcd_Set_Cursor
   856 ;;		_Lcd_Write_String
   857 ;;		___fldiv
   858 ;;		___flmul
   859 ;;		___xxtofl
   860 ;;		_convert
   861 ;;		_setup
   862 ;; This function is called by:
   863 ;;		Startup code after reset
   864 ;; This function uses a non-reentrant model
   865 ;;
   866                           
   867                           
   868                           ;psect for function _main
   869  0583                     _main:
   870  0583                     l3598:	
   871                           ;incstack = 0
   872                           ; Regs used in _main: [wreg-fsr0h+status,2+status,0+btemp+1+pclath+cstack]
   873                           
   874                           
   875                           ;Slave3.c: 118:     setup();
   876  0583  160A  118A  23E4  120A  118A  	fcall	_setup
   877                           
   878                           ;Slave3.c: 119:     unsigned int a;;Slave3.c: 120:     Lcd_Init();
   879  0588  160A  118A  242C  120A  118A  	fcall	_Lcd_Init
   880                           
   881                           ;Slave3.c: 121:     Lcd_Clear();
   882  058D  160A  118A  22DB  120A  118A  	fcall	_Lcd_Clear
   883  0592                     l3600:
   884                           
   885                           ;Slave3.c: 122:     ADCON0bits.GO = 1;
   886  0592  1283               	bcf	3,5	;RP0=0, select bank0
   887  0593  1303               	bcf	3,6	;RP1=0, select bank0
   888  0594  149F               	bsf	31,1	;volatile
   889  0595                     l101:	
   890                           ;Slave3.c: 127:     while(1){
   891                           
   892                           
   893                           ;Slave3.c: 130:         Lcd_Set_Cursor(1, 1);
   894  0595  1283               	bcf	3,5	;RP0=0, select bank0
   895  0596  01A4               	clrf	Lcd_Set_Cursor@b
   896  0597  0AA4               	incf	Lcd_Set_Cursor@b,f
   897  0598  3001               	movlw	1
   898  0599  160A  118A  2328  120A  118A  	fcall	_Lcd_Set_Cursor
   899  059E                     l3602:
   900                           
   901                           ;Slave3.c: 131:         Lcd_Write_String("Temp");
   902  059E  3001               	movlw	(low ((STR_1-__stringbase)| (0+32768)))& (0+255)
   903  059F  1283               	bcf	3,5	;RP0=0, select bank0
   904  05A0  1303               	bcf	3,6	;RP1=0, select bank0
   905  05A1  00A3               	movwf	Lcd_Write_String@a
   906  05A2  3080               	movlw	128
   907  05A3  00A4               	movwf	Lcd_Write_String@a+1
   908  05A4  160A  118A  239E  120A  118A  	fcall	_Lcd_Write_String
   909  05A9                     l3604:
   910                           
   911                           ;Slave3.c: 132:         Lcd_Set_Cursor(1, 8);
   912  05A9  3008               	movlw	8
   913  05AA  1283               	bcf	3,5	;RP0=0, select bank0
   914  05AB  1303               	bcf	3,6	;RP1=0, select bank0
   915  05AC  00E8               	movwf	??_main
   916  05AD  0868               	movf	??_main,w
   917  05AE  00A4               	movwf	Lcd_Set_Cursor@b
   918  05AF  3001               	movlw	1
   919  05B0  160A  118A  2328  120A  118A  	fcall	_Lcd_Set_Cursor
   920                           
   921                           ;Slave3.c: 133:         Lcd_Write_String("S2:");
   922  05B5  3006               	movlw	(low ((STR_2-__stringbase)| (0+32768)))& (0+255)
   923  05B6  1283               	bcf	3,5	;RP0=0, select bank0
   924  05B7  1303               	bcf	3,6	;RP1=0, select bank0
   925  05B8  00A3               	movwf	Lcd_Write_String@a
   926  05B9  3080               	movlw	128
   927  05BA  00A4               	movwf	Lcd_Write_String@a+1
   928  05BB  160A  118A  239E  120A  118A  	fcall	_Lcd_Write_String
   929  05C0                     l3606:
   930                           
   931                           ;Slave3.c: 134:         Lcd_Set_Cursor(1, 14);
   932  05C0  300E               	movlw	14
   933  05C1  1283               	bcf	3,5	;RP0=0, select bank0
   934  05C2  1303               	bcf	3,6	;RP1=0, select bank0
   935  05C3  00E8               	movwf	??_main
   936  05C4  0868               	movf	??_main,w
   937  05C5  00A4               	movwf	Lcd_Set_Cursor@b
   938  05C6  3001               	movlw	1
   939  05C7  160A  118A  2328  120A  118A  	fcall	_Lcd_Set_Cursor
   940  05CC                     l3608:
   941                           
   942                           ;Slave3.c: 135:         Lcd_Write_String("S3:");
   943  05CC  300A               	movlw	(low ((STR_3-__stringbase)| (0+32768)))& (0+255)
   944  05CD  1283               	bcf	3,5	;RP0=0, select bank0
   945  05CE  1303               	bcf	3,6	;RP1=0, select bank0
   946  05CF  00A3               	movwf	Lcd_Write_String@a
   947  05D0  3080               	movlw	128
   948  05D1  00A4               	movwf	Lcd_Write_String@a+1
   949  05D2  160A  118A  239E  120A  118A  	fcall	_Lcd_Write_String
   950  05D7                     l3610:
   951                           
   952                           ;Slave3.c: 137:         volt1 = (lec1/ (float) 1023)*5;
   953  05D7  3040               	movlw	64
   954  05D8  1283               	bcf	3,5	;RP0=0, select bank0
   955  05D9  1303               	bcf	3,6	;RP1=0, select bank0
   956  05DA  00DC               	movwf	___flmul@b+3
   957  05DB  30A0               	movlw	160
   958  05DC  00DB               	movwf	___flmul@b+2
   959  05DD  3000               	movlw	0
   960  05DE  00DA               	movwf	___flmul@b+1
   961  05DF  3000               	movlw	0
   962  05E0  00D9               	movwf	___flmul@b
   963  05E1  3044               	movlw	68
   964  05E2  00C2               	movwf	___fldiv@a+3
   965  05E3  307F               	movlw	127
   966  05E4  00C1               	movwf	___fldiv@a+2
   967  05E5  30C0               	movlw	192
   968  05E6  00C0               	movwf	___fldiv@a+1
   969  05E7  3000               	movlw	0
   970  05E8  00BF               	movwf	___fldiv@a
   971  05E9  1683               	bsf	3,5	;RP0=1, select bank1
   972  05EA  1303               	bcf	3,6	;RP1=0, select bank1
   973  05EB  0848               	movf	_lec1^(0+128),w
   974  05EC  1283               	bcf	3,5	;RP0=0, select bank0
   975  05ED  1303               	bcf	3,6	;RP1=0, select bank0
   976  05EE  00B1               	movwf	___xxtofl@val
   977  05EF  1683               	bsf	3,5	;RP0=1, select bank1
   978  05F0  1303               	bcf	3,6	;RP1=0, select bank1
   979  05F1  0849               	movf	(_lec1+1)^(0+128),w
   980  05F2  1283               	bcf	3,5	;RP0=0, select bank0
   981  05F3  1303               	bcf	3,6	;RP1=0, select bank0
   982  05F4  00B2               	movwf	___xxtofl@val+1
   983  05F5  01B3               	clrf	___xxtofl@val+2
   984  05F6  01B4               	clrf	___xxtofl@val+3
   985  05F7  3000               	movlw	0
   986  05F8  160A  118A  2567  120A  118A  	fcall	___xxtofl
   987  05FD  1283               	bcf	3,5	;RP0=0, select bank0
   988  05FE  1303               	bcf	3,6	;RP1=0, select bank0
   989  05FF  0834               	movf	?___xxtofl+3,w
   990  0600  00C6               	movwf	___fldiv@b+3
   991  0601  0833               	movf	?___xxtofl+2,w
   992  0602  00C5               	movwf	___fldiv@b+2
   993  0603  0832               	movf	?___xxtofl+1,w
   994  0604  00C4               	movwf	___fldiv@b+1
   995  0605  0831               	movf	?___xxtofl,w
   996  0606  00C3               	movwf	___fldiv@b
   997  0607  160A  118A  2623  120A  118A  	fcall	___fldiv
   998  060C  1283               	bcf	3,5	;RP0=0, select bank0
   999  060D  1303               	bcf	3,6	;RP1=0, select bank0
  1000  060E  0842               	movf	?___fldiv+3,w
  1001  060F  00E0               	movwf	___flmul@a+3
  1002  0610  0841               	movf	?___fldiv+2,w
  1003  0611  00DF               	movwf	___flmul@a+2
  1004  0612  0840               	movf	?___fldiv+1,w
  1005  0613  00DE               	movwf	___flmul@a+1
  1006  0614  083F               	movf	?___fldiv,w
  1007  0615  00DD               	movwf	___flmul@a
  1008  0616  120A  118A  2024  120A  118A  	fcall	___flmul
  1009  061B  1283               	bcf	3,5	;RP0=0, select bank0
  1010  061C  1303               	bcf	3,6	;RP1=0, select bank0
  1011  061D  085C               	movf	?___flmul+3,w
  1012  061E  1683               	bsf	3,5	;RP0=1, select bank1
  1013  061F  1303               	bcf	3,6	;RP1=0, select bank1
  1014  0620  00C7               	movwf	(_volt1+3)^(0+128)
  1015  0621  1283               	bcf	3,5	;RP0=0, select bank0
  1016  0622  1303               	bcf	3,6	;RP1=0, select bank0
  1017  0623  085B               	movf	?___flmul+2,w
  1018  0624  1683               	bsf	3,5	;RP0=1, select bank1
  1019  0625  1303               	bcf	3,6	;RP1=0, select bank1
  1020  0626  00C6               	movwf	(_volt1+2)^(0+128)
  1021  0627  1283               	bcf	3,5	;RP0=0, select bank0
  1022  0628  1303               	bcf	3,6	;RP1=0, select bank0
  1023  0629  085A               	movf	?___flmul+1,w
  1024  062A  1683               	bsf	3,5	;RP0=1, select bank1
  1025  062B  1303               	bcf	3,6	;RP1=0, select bank1
  1026  062C  00C5               	movwf	(_volt1+1)^(0+128)
  1027  062D  1283               	bcf	3,5	;RP0=0, select bank0
  1028  062E  1303               	bcf	3,6	;RP1=0, select bank0
  1029  062F  0859               	movf	?___flmul,w
  1030  0630  1683               	bsf	3,5	;RP0=1, select bank1
  1031  0631  1303               	bcf	3,6	;RP1=0, select bank1
  1032  0632  00C4               	movwf	_volt1^(0+128)
  1033  0633                     l3612:
  1034                           
  1035                           ;Slave3.c: 138:         sen_temp = (volt1* (float) 100);
  1036  0633  3042               	movlw	66
  1037  0634  1283               	bcf	3,5	;RP0=0, select bank0
  1038  0635  1303               	bcf	3,6	;RP1=0, select bank0
  1039  0636  00DC               	movwf	___flmul@b+3
  1040  0637  30C8               	movlw	200
  1041  0638  00DB               	movwf	___flmul@b+2
  1042  0639  3000               	movlw	0
  1043  063A  00DA               	movwf	___flmul@b+1
  1044  063B  3000               	movlw	0
  1045  063C  00D9               	movwf	___flmul@b
  1046  063D  1683               	bsf	3,5	;RP0=1, select bank1
  1047  063E  1303               	bcf	3,6	;RP1=0, select bank1
  1048  063F  0847               	movf	(_volt1+3)^(0+128),w
  1049  0640  1283               	bcf	3,5	;RP0=0, select bank0
  1050  0641  1303               	bcf	3,6	;RP1=0, select bank0
  1051  0642  00E0               	movwf	___flmul@a+3
  1052  0643  1683               	bsf	3,5	;RP0=1, select bank1
  1053  0644  1303               	bcf	3,6	;RP1=0, select bank1
  1054  0645  0846               	movf	(_volt1+2)^(0+128),w
  1055  0646  1283               	bcf	3,5	;RP0=0, select bank0
  1056  0647  1303               	bcf	3,6	;RP1=0, select bank0
  1057  0648  00DF               	movwf	___flmul@a+2
  1058  0649  1683               	bsf	3,5	;RP0=1, select bank1
  1059  064A  1303               	bcf	3,6	;RP1=0, select bank1
  1060  064B  0845               	movf	(_volt1+1)^(0+128),w
  1061  064C  1283               	bcf	3,5	;RP0=0, select bank0
  1062  064D  1303               	bcf	3,6	;RP1=0, select bank0
  1063  064E  00DE               	movwf	___flmul@a+1
  1064  064F  1683               	bsf	3,5	;RP0=1, select bank1
  1065  0650  1303               	bcf	3,6	;RP1=0, select bank1
  1066  0651  0844               	movf	_volt1^(0+128),w
  1067  0652  1283               	bcf	3,5	;RP0=0, select bank0
  1068  0653  1303               	bcf	3,6	;RP1=0, select bank0
  1069  0654  00DD               	movwf	___flmul@a
  1070  0655  120A  118A  2024  120A  118A  	fcall	___flmul
  1071  065A  1283               	bcf	3,5	;RP0=0, select bank0
  1072  065B  1303               	bcf	3,6	;RP1=0, select bank0
  1073  065C  085C               	movf	?___flmul+3,w
  1074  065D  1683               	bsf	3,5	;RP0=1, select bank1
  1075  065E  1303               	bcf	3,6	;RP1=0, select bank1
  1076  065F  00C3               	movwf	(_sen_temp+3)^(0+128)
  1077  0660  1283               	bcf	3,5	;RP0=0, select bank0
  1078  0661  1303               	bcf	3,6	;RP1=0, select bank0
  1079  0662  085B               	movf	?___flmul+2,w
  1080  0663  1683               	bsf	3,5	;RP0=1, select bank1
  1081  0664  1303               	bcf	3,6	;RP1=0, select bank1
  1082  0665  00C2               	movwf	(_sen_temp+2)^(0+128)
  1083  0666  1283               	bcf	3,5	;RP0=0, select bank0
  1084  0667  1303               	bcf	3,6	;RP1=0, select bank0
  1085  0668  085A               	movf	?___flmul+1,w
  1086  0669  1683               	bsf	3,5	;RP0=1, select bank1
  1087  066A  1303               	bcf	3,6	;RP1=0, select bank1
  1088  066B  00C1               	movwf	(_sen_temp+1)^(0+128)
  1089  066C  1283               	bcf	3,5	;RP0=0, select bank0
  1090  066D  1303               	bcf	3,6	;RP1=0, select bank0
  1091  066E  0859               	movf	?___flmul,w
  1092  066F  1683               	bsf	3,5	;RP0=1, select bank1
  1093  0670  1303               	bcf	3,6	;RP1=0, select bank1
  1094  0671  00C0               	movwf	_sen_temp^(0+128)
  1095  0672                     l3614:
  1096                           
  1097                           ;Slave3.c: 140:         if (ADCON0bits.GO == 0){
  1098  0672  1283               	bcf	3,5	;RP0=0, select bank0
  1099  0673  1303               	bcf	3,6	;RP1=0, select bank0
  1100  0674  189F               	btfsc	31,1	;volatile
  1101  0675  2E77               	goto	u5531
  1102  0676  2E78               	goto	u5530
  1103  0677                     u5531:
  1104  0677  2E92               	goto	l3626
  1105  0678                     u5530:
  1106  0678                     l3616:
  1107                           
  1108                           ;Slave3.c: 141:             if (ADCON0bits.CHS == 0) {
  1109  0678  0C1F               	rrf	31,w	;volatile
  1110  0679  00E8               	movwf	??_main
  1111  067A  0C68               	rrf	??_main,w
  1112  067B  390F               	andlw	15
  1113  067C  3A00               	xorlw	0
  1114  067D  1D03               	skipz
  1115  067E  2E80               	goto	u5541
  1116  067F  2E81               	goto	u5540
  1117  0680                     u5541:
  1118  0680  2E86               	goto	l3620
  1119  0681                     u5540:
  1120  0681                     l3618:
  1121                           
  1122                           ;Slave3.c: 142:                 ADCON0bits.CHS = 1;
  1123  0681  081F               	movf	31,w	;volatile
  1124  0682  39C3               	andlw	-61
  1125  0683  3804               	iorlw	4
  1126  0684  009F               	movwf	31	;volatile
  1127                           
  1128                           ;Slave3.c: 143:             }
  1129  0685  2E88               	goto	l3622
  1130  0686                     l3620:
  1131                           
  1132                           ;Slave3.c: 145:                 ADCON0bits.CHS = 0;
  1133  0686  30C3               	movlw	-61
  1134  0687  059F               	andwf	31,f	;volatile
  1135  0688                     l3622:
  1136                           
  1137                           ;Slave3.c: 148:             _delay((unsigned long)((200)*(8000000/4000000.0)));
  1138  0688  3084               	movlw	132
  1139  0689  1283               	bcf	3,5	;RP0=0, select bank0
  1140  068A  1303               	bcf	3,6	;RP1=0, select bank0
  1141  068B  00E8               	movwf	??_main
  1142  068C                     u5647:
  1143  068C  0BE8               	decfsz	??_main,f
  1144  068D  2E8C               	goto	u5647
  1145  068E  0000               	nop
  1146  068F                     l3624:
  1147                           
  1148                           ;Slave3.c: 149:             ADCON0bits.GO = 1;
  1149  068F  1283               	bcf	3,5	;RP0=0, select bank0
  1150  0690  1303               	bcf	3,6	;RP1=0, select bank0
  1151  0691  149F               	bsf	31,1	;volatile
  1152  0692                     l3626:
  1153                           
  1154                           ;Slave3.c: 153:         Lcd_Set_Cursor(2, 1);
  1155  0692  01A4               	clrf	Lcd_Set_Cursor@b
  1156  0693  0AA4               	incf	Lcd_Set_Cursor@b,f
  1157  0694  3002               	movlw	2
  1158  0695  160A  118A  2328  120A  118A  	fcall	_Lcd_Set_Cursor
  1159  069A                     l3628:
  1160                           
  1161                           ;Slave3.c: 154:         Lcd_Write_String(temperatura);
  1162  069A  30CB               	movlw	(low (_temperatura| 0))& (0+255)
  1163  069B  1283               	bcf	3,5	;RP0=0, select bank0
  1164  069C  1303               	bcf	3,6	;RP1=0, select bank0
  1165  069D  00A3               	movwf	Lcd_Write_String@a
  1166  069E  3000               	movlw	0
  1167  069F  00A4               	movwf	Lcd_Write_String@a+1
  1168  06A0  160A  118A  239E  120A  118A  	fcall	_Lcd_Write_String
  1169  06A5                     l3630:
  1170                           
  1171                           ;Slave3.c: 155:         Lcd_Set_Cursor(2, 6);
  1172  06A5  3006               	movlw	6
  1173  06A6  1283               	bcf	3,5	;RP0=0, select bank0
  1174  06A7  1303               	bcf	3,6	;RP1=0, select bank0
  1175  06A8  00E8               	movwf	??_main
  1176  06A9  0868               	movf	??_main,w
  1177  06AA  00A4               	movwf	Lcd_Set_Cursor@b
  1178  06AB  3002               	movlw	2
  1179  06AC  160A  118A  2328  120A  118A  	fcall	_Lcd_Set_Cursor
  1180  06B1                     l3632:
  1181                           
  1182                           ;Slave3.c: 156:         Lcd_Write_String("C");
  1183  06B1  300E               	movlw	(low ((STR_4-__stringbase)| (0+32768)))& (0+255)
  1184  06B2  1283               	bcf	3,5	;RP0=0, select bank0
  1185  06B3  1303               	bcf	3,6	;RP1=0, select bank0
  1186  06B4  00A3               	movwf	Lcd_Write_String@a
  1187  06B5  3080               	movlw	128
  1188  06B6  00A4               	movwf	Lcd_Write_String@a+1
  1189  06B7  160A  118A  239E  120A  118A  	fcall	_Lcd_Write_String
  1190  06BC                     l3634:
  1191                           
  1192                           ;Slave3.c: 160:         conv1 = 0;
  1193  06BC  3000               	movlw	0
  1194  06BD  1683               	bsf	3,5	;RP0=1, select bank1
  1195  06BE  1303               	bcf	3,6	;RP1=0, select bank1
  1196  06BF  00BF               	movwf	(_conv1+3)^(0+128)
  1197  06C0  3000               	movlw	0
  1198  06C1  00BE               	movwf	(_conv1+2)^(0+128)
  1199  06C2  3000               	movlw	0
  1200  06C3  00BD               	movwf	(_conv1+1)^(0+128)
  1201  06C4  3000               	movlw	0
  1202  06C5  00BC               	movwf	_conv1^(0+128)
  1203  06C6                     l3636:
  1204                           
  1205                           ;Slave3.c: 161:         conv2 = 0;
  1206  06C6  3000               	movlw	0
  1207  06C7  00BB               	movwf	(_conv2+3)^(0+128)
  1208  06C8  3000               	movlw	0
  1209  06C9  00BA               	movwf	(_conv2+2)^(0+128)
  1210  06CA  3000               	movlw	0
  1211  06CB  00B9               	movwf	(_conv2+1)^(0+128)
  1212  06CC  3000               	movlw	0
  1213  06CD  00B8               	movwf	_conv2^(0+128)
  1214  06CE                     l3638:
  1215                           
  1216                           ;Slave3.c: 163:         conv1 = sen_temp;
  1217  06CE  0843               	movf	(_sen_temp+3)^(0+128),w
  1218  06CF  00BF               	movwf	(_conv1+3)^(0+128)
  1219  06D0  0842               	movf	(_sen_temp+2)^(0+128),w
  1220  06D1  00BE               	movwf	(_conv1+2)^(0+128)
  1221  06D2  0841               	movf	(_sen_temp+1)^(0+128),w
  1222  06D3  00BD               	movwf	(_conv1+1)^(0+128)
  1223  06D4  0840               	movf	_sen_temp^(0+128),w
  1224  06D5  00BC               	movwf	_conv1^(0+128)
  1225  06D6                     l3640:
  1226                           
  1227                           ;Slave3.c: 165:         convert(temperatura, conv1, 2);
  1228  06D6  083F               	movf	(_conv1+3)^(0+128),w
  1229  06D7  00E5               	movwf	(convert@a+3)^(0+128)
  1230  06D8  083E               	movf	(_conv1+2)^(0+128),w
  1231  06D9  00E4               	movwf	(convert@a+2)^(0+128)
  1232  06DA  083D               	movf	(_conv1+1)^(0+128),w
  1233  06DB  00E3               	movwf	(convert@a+1)^(0+128)
  1234  06DC  083C               	movf	_conv1^(0+128),w
  1235  06DD  00E2               	movwf	convert@a^(0+128)
  1236  06DE  3002               	movlw	2
  1237  06DF  00E6               	movwf	convert@place^(0+128)
  1238  06E0  3000               	movlw	0
  1239  06E1  00E7               	movwf	(convert@place^(0+128)+1)
  1240  06E2  30CB               	movlw	(low (_temperatura| 0))& (0+255)
  1241  06E3  120A  158A  22F6  120A  118A  	fcall	_convert
  1242  06E8                     l3642:
  1243                           
  1244                           ;Slave3.c: 167:         if (lec1 > 0 && lec1 < 50) {
  1245  06E8  1683               	bsf	3,5	;RP0=1, select bank1
  1246  06E9  1303               	bcf	3,6	;RP1=0, select bank1
  1247  06EA  0848               	movf	_lec1^(0+128),w
  1248  06EB  0449               	iorwf	(_lec1+1)^(0+128),w
  1249  06EC  1903               	btfsc	3,2
  1250  06ED  2EEF               	goto	u5551
  1251  06EE  2EF0               	goto	u5550
  1252  06EF                     u5551:
  1253  06EF  2F02               	goto	l3648
  1254  06F0                     u5550:
  1255  06F0                     l3644:
  1256  06F0  3000               	movlw	0
  1257  06F1  0249               	subwf	(_lec1+1)^(0+128),w
  1258  06F2  3032               	movlw	50
  1259  06F3  1903               	skipnz
  1260  06F4  0248               	subwf	_lec1^(0+128),w
  1261  06F5  1803               	skipnc
  1262  06F6  2EF8               	goto	u5561
  1263  06F7  2EF9               	goto	u5560
  1264  06F8                     u5561:
  1265  06F8  2F02               	goto	l3648
  1266  06F9                     u5560:
  1267  06F9                     l3646:
  1268                           
  1269                           ;Slave3.c: 168:                 speed = 255;
  1270  06F9  30FF               	movlw	255
  1271  06FA  1283               	bcf	3,5	;RP0=0, select bank0
  1272  06FB  1303               	bcf	3,6	;RP1=0, select bank0
  1273  06FC  00E8               	movwf	??_main
  1274  06FD  0868               	movf	??_main,w
  1275  06FE  1683               	bsf	3,5	;RP0=1, select bank1
  1276  06FF  1303               	bcf	3,6	;RP1=0, select bank1
  1277  0700  00CA               	movwf	_speed^(0+128)
  1278                           
  1279                           ;Slave3.c: 169:         }
  1280  0701  2D95               	goto	l101
  1281  0702                     l3648:
  1282  0702  3000               	movlw	0
  1283  0703  0249               	subwf	(_lec1+1)^(0+128),w
  1284  0704  3033               	movlw	51
  1285  0705  1903               	skipnz
  1286  0706  0248               	subwf	_lec1^(0+128),w
  1287  0707  1C03               	skipc
  1288  0708  2F0A               	goto	u5571
  1289  0709  2F0B               	goto	u5570
  1290  070A                     u5571:
  1291  070A  2F1D               	goto	l3654
  1292  070B                     u5570:
  1293  070B                     l3650:
  1294  070B  3000               	movlw	0
  1295  070C  0249               	subwf	(_lec1+1)^(0+128),w
  1296  070D  307D               	movlw	125
  1297  070E  1903               	skipnz
  1298  070F  0248               	subwf	_lec1^(0+128),w
  1299  0710  1803               	skipnc
  1300  0711  2F13               	goto	u5581
  1301  0712  2F14               	goto	u5580
  1302  0713                     u5581:
  1303  0713  2F1D               	goto	l3654
  1304  0714                     u5580:
  1305  0714                     l3652:
  1306                           
  1307                           ;Slave3.c: 172:                 speed = 180;
  1308  0714  30B4               	movlw	180
  1309  0715  1283               	bcf	3,5	;RP0=0, select bank0
  1310  0716  1303               	bcf	3,6	;RP1=0, select bank0
  1311  0717  00E8               	movwf	??_main
  1312  0718  0868               	movf	??_main,w
  1313  0719  1683               	bsf	3,5	;RP0=1, select bank1
  1314  071A  1303               	bcf	3,6	;RP1=0, select bank1
  1315  071B  00CA               	movwf	_speed^(0+128)
  1316                           
  1317                           ;Slave3.c: 173:         }
  1318  071C  2D95               	goto	l101
  1319  071D                     l3654:
  1320  071D  3000               	movlw	0
  1321  071E  0249               	subwf	(_lec1+1)^(0+128),w
  1322  071F  307E               	movlw	126
  1323  0720  1903               	skipnz
  1324  0721  0248               	subwf	_lec1^(0+128),w
  1325  0722  1C03               	skipc
  1326  0723  2F25               	goto	u5591
  1327  0724  2F26               	goto	u5590
  1328  0725                     u5591:
  1329  0725  2F38               	goto	l3660
  1330  0726                     u5590:
  1331  0726                     l3656:
  1332  0726  3000               	movlw	0
  1333  0727  0249               	subwf	(_lec1+1)^(0+128),w
  1334  0728  30C8               	movlw	200
  1335  0729  1903               	skipnz
  1336  072A  0248               	subwf	_lec1^(0+128),w
  1337  072B  1803               	skipnc
  1338  072C  2F2E               	goto	u5601
  1339  072D  2F2F               	goto	u5600
  1340  072E                     u5601:
  1341  072E  2F38               	goto	l3660
  1342  072F                     u5600:
  1343  072F                     l3658:
  1344                           
  1345                           ;Slave3.c: 176:                 speed = 120;
  1346  072F  3078               	movlw	120
  1347  0730  1283               	bcf	3,5	;RP0=0, select bank0
  1348  0731  1303               	bcf	3,6	;RP1=0, select bank0
  1349  0732  00E8               	movwf	??_main
  1350  0733  0868               	movf	??_main,w
  1351  0734  1683               	bsf	3,5	;RP0=1, select bank1
  1352  0735  1303               	bcf	3,6	;RP1=0, select bank1
  1353  0736  00CA               	movwf	_speed^(0+128)
  1354                           
  1355                           ;Slave3.c: 177:         }
  1356  0737  2D95               	goto	l101
  1357  0738                     l3660:
  1358  0738  3000               	movlw	0
  1359  0739  0249               	subwf	(_lec1+1)^(0+128),w
  1360  073A  30C9               	movlw	201
  1361  073B  1903               	skipnz
  1362  073C  0248               	subwf	_lec1^(0+128),w
  1363  073D  1C03               	skipc
  1364  073E  2F40               	goto	u5611
  1365  073F  2F41               	goto	u5610
  1366  0740                     u5611:
  1367  0740  2F53               	goto	l3666
  1368  0741                     u5610:
  1369  0741                     l3662:
  1370  0741  3001               	movlw	1
  1371  0742  0249               	subwf	(_lec1+1)^(0+128),w
  1372  0743  302C               	movlw	44
  1373  0744  1903               	skipnz
  1374  0745  0248               	subwf	_lec1^(0+128),w
  1375  0746  1803               	skipnc
  1376  0747  2F49               	goto	u5621
  1377  0748  2F4A               	goto	u5620
  1378  0749                     u5621:
  1379  0749  2F53               	goto	l3666
  1380  074A                     u5620:
  1381  074A                     l3664:
  1382                           
  1383                           ;Slave3.c: 180:                 speed = 80;
  1384  074A  3050               	movlw	80
  1385  074B  1283               	bcf	3,5	;RP0=0, select bank0
  1386  074C  1303               	bcf	3,6	;RP1=0, select bank0
  1387  074D  00E8               	movwf	??_main
  1388  074E  0868               	movf	??_main,w
  1389  074F  1683               	bsf	3,5	;RP0=1, select bank1
  1390  0750  1303               	bcf	3,6	;RP1=0, select bank1
  1391  0751  00CA               	movwf	_speed^(0+128)
  1392                           
  1393                           ;Slave3.c: 181:         }
  1394  0752  2D95               	goto	l101
  1395  0753                     l3666:
  1396  0753  3001               	movlw	1
  1397  0754  0249               	subwf	(_lec1+1)^(0+128),w
  1398  0755  302D               	movlw	45
  1399  0756  1903               	skipnz
  1400  0757  0248               	subwf	_lec1^(0+128),w
  1401  0758  1C03               	skipc
  1402  0759  2F5B               	goto	u5631
  1403  075A  2F5C               	goto	u5630
  1404  075B                     u5631:
  1405  075B  2F65               	goto	l108
  1406  075C                     u5630:
  1407  075C                     l3668:
  1408                           
  1409                           ;Slave3.c: 184:                 speed = 20;
  1410  075C  3014               	movlw	20
  1411  075D  1283               	bcf	3,5	;RP0=0, select bank0
  1412  075E  1303               	bcf	3,6	;RP1=0, select bank0
  1413  075F  00E8               	movwf	??_main
  1414  0760  0868               	movf	??_main,w
  1415  0761  1683               	bsf	3,5	;RP0=1, select bank1
  1416  0762  1303               	bcf	3,6	;RP1=0, select bank1
  1417  0763  00CA               	movwf	_speed^(0+128)
  1418  0764  2D95               	goto	l101
  1419  0765                     l108:
  1420  0765  2D95               	goto	l101
  1421  0766  120A  118A  2810   	ljmp	start
  1422  0769                     __end_of_main:
  1423                           
  1424                           	psect	text1
  1425  13E4                     __ptext1:	
  1426 ;; *************** function _setup *****************
  1427 ;; Defined at:
  1428 ;;		line 191 in file "Slave3.c"
  1429 ;; Parameters:    Size  Location     Type
  1430 ;;		None
  1431 ;; Auto vars:     Size  Location     Type
  1432 ;;		None
  1433 ;; Return value:  Size  Location     Type
  1434 ;;                  1    wreg      void 
  1435 ;; Registers used:
  1436 ;;		wreg, status,2, status,0
  1437 ;; Tracked objects:
  1438 ;;		On entry : 0/0
  1439 ;;		On exit  : 0/0
  1440 ;;		Unchanged: 0/0
  1441 ;; Data sizes:     COMMON   BANK0   BANK1   BANK3   BANK2
  1442 ;;      Params:         0       0       0       0       0
  1443 ;;      Locals:         0       0       0       0       0
  1444 ;;      Temps:          0       1       0       0       0
  1445 ;;      Totals:         0       1       0       0       0
  1446 ;;Total ram usage:        1 bytes
  1447 ;; Hardware stack levels used:    1
  1448 ;; Hardware stack levels required when called:    1
  1449 ;; This function calls:
  1450 ;;		Nothing
  1451 ;; This function is called by:
  1452 ;;		_main
  1453 ;; This function uses a non-reentrant model
  1454 ;;
  1455                           
  1456                           
  1457                           ;psect for function _setup
  1458  13E4                     _setup:
  1459  13E4                     l3408:	
  1460                           ;incstack = 0
  1461                           ; Regs used in _setup: [wreg+status,2+status,0]
  1462                           
  1463                           
  1464                           ;Slave3.c: 193:     ANSEL = 0X03;
  1465  13E4  3003               	movlw	3
  1466  13E5  1683               	bsf	3,5	;RP0=1, select bank3
  1467  13E6  1703               	bsf	3,6	;RP1=1, select bank3
  1468  13E7  0088               	movwf	8	;volatile
  1469  13E8                     l3410:
  1470                           
  1471                           ;Slave3.c: 194:     ANSELH = 0X00;
  1472  13E8  0189               	clrf	9	;volatile
  1473  13E9                     l3412:
  1474                           
  1475                           ;Slave3.c: 196:     TRISA = 0X03;
  1476  13E9  3003               	movlw	3
  1477  13EA  1683               	bsf	3,5	;RP0=1, select bank1
  1478  13EB  1303               	bcf	3,6	;RP1=0, select bank1
  1479  13EC  0085               	movwf	5	;volatile
  1480                           
  1481                           ;Slave3.c: 197:     TRISB = 0X00;
  1482  13ED  0186               	clrf	6	;volatile
  1483                           
  1484                           ;Slave3.c: 198:     TRISC = 0X00;
  1485  13EE  0187               	clrf	7	;volatile
  1486                           
  1487                           ;Slave3.c: 199:     TRISD = 0X00;
  1488  13EF  0188               	clrf	8	;volatile
  1489                           
  1490                           ;Slave3.c: 201:     PORTA = 0X00;
  1491  13F0  1283               	bcf	3,5	;RP0=0, select bank0
  1492  13F1  1303               	bcf	3,6	;RP1=0, select bank0
  1493  13F2  0185               	clrf	5	;volatile
  1494                           
  1495                           ;Slave3.c: 202:     PORTB = 0X00;
  1496  13F3  0186               	clrf	6	;volatile
  1497                           
  1498                           ;Slave3.c: 203:     PORTC = 0X00;
  1499  13F4  0187               	clrf	7	;volatile
  1500                           
  1501                           ;Slave3.c: 204:     PORTD = 0X00;
  1502  13F5  0188               	clrf	8	;volatile
  1503  13F6                     l3414:
  1504                           
  1505                           ;Slave3.c: 207:     OSCCONbits.IRCF2 = 1;
  1506  13F6  1683               	bsf	3,5	;RP0=1, select bank1
  1507  13F7  1303               	bcf	3,6	;RP1=0, select bank1
  1508  13F8  170F               	bsf	15,6	;volatile
  1509  13F9                     l3416:
  1510                           
  1511                           ;Slave3.c: 208:     OSCCONbits.IRCF1 = 1;
  1512  13F9  168F               	bsf	15,5	;volatile
  1513  13FA                     l3418:
  1514                           
  1515                           ;Slave3.c: 209:     OSCCONbits.IRCF0 = 1;
  1516  13FA  160F               	bsf	15,4	;volatile
  1517  13FB                     l3420:
  1518                           
  1519                           ;Slave3.c: 210:     OSCCONbits.SCS = 1;
  1520  13FB  140F               	bsf	15,0	;volatile
  1521  13FC                     l3422:
  1522                           
  1523                           ;Slave3.c: 213:     INTCONbits.GIE = 1;
  1524  13FC  178B               	bsf	11,7	;volatile
  1525  13FD                     l3424:
  1526                           
  1527                           ;Slave3.c: 214:     INTCONbits.PEIE = 1;
  1528  13FD  170B               	bsf	11,6	;volatile
  1529  13FE                     l3426:
  1530                           
  1531                           ;Slave3.c: 215:     PIE1bits.ADIE = 1;
  1532  13FE  170C               	bsf	12,6	;volatile
  1533  13FF                     l3428:
  1534                           
  1535                           ;Slave3.c: 216:     INTCONbits.T0IE = 1;
  1536  13FF  168B               	bsf	11,5	;volatile
  1537  1400                     l3430:
  1538                           
  1539                           ;Slave3.c: 218:     PIR1bits.ADIF = 0;
  1540  1400  1283               	bcf	3,5	;RP0=0, select bank0
  1541  1401  1303               	bcf	3,6	;RP1=0, select bank0
  1542  1402  130C               	bcf	12,6	;volatile
  1543  1403                     l3432:
  1544                           
  1545                           ;Slave3.c: 219:     INTCONbits.T0IF = 0;
  1546  1403  110B               	bcf	11,2	;volatile
  1547  1404                     l3434:
  1548                           
  1549                           ;Slave3.c: 222:     ADCON1bits.ADFM = 1;
  1550  1404  1683               	bsf	3,5	;RP0=1, select bank1
  1551  1405  1303               	bcf	3,6	;RP1=0, select bank1
  1552  1406  179F               	bsf	31,7	;volatile
  1553  1407                     l3436:
  1554                           
  1555                           ;Slave3.c: 223:     ADCON1bits.VCFG0 = 0;
  1556  1407  121F               	bcf	31,4	;volatile
  1557  1408                     l3438:
  1558                           
  1559                           ;Slave3.c: 224:     ADCON1bits.VCFG1 = 0;
  1560  1408  129F               	bcf	31,5	;volatile
  1561  1409                     l3440:
  1562                           
  1563                           ;Slave3.c: 226:     ADCON0bits.ADCS1 = 1;
  1564  1409  1283               	bcf	3,5	;RP0=0, select bank0
  1565  140A  1303               	bcf	3,6	;RP1=0, select bank0
  1566  140B  179F               	bsf	31,7	;volatile
  1567  140C                     l3442:
  1568                           
  1569                           ;Slave3.c: 227:     ADCON0bits.CHS = 0;
  1570  140C  30C3               	movlw	-61
  1571  140D  059F               	andwf	31,f	;volatile
  1572  140E                     l3444:
  1573                           
  1574                           ;Slave3.c: 228:     _delay((unsigned long)((200)*(8000000/4000000.0)));
  1575  140E  3084               	movlw	132
  1576  140F  1283               	bcf	3,5	;RP0=0, select bank0
  1577  1410  1303               	bcf	3,6	;RP1=0, select bank0
  1578  1411  00A0               	movwf	??_setup
  1579  1412                     u5657:
  1580  1412  0BA0               	decfsz	??_setup,f
  1581  1413  2C12               	goto	u5657
  1582  1414  0000               	nop
  1583  1415                     l3446:
  1584                           
  1585                           ;Slave3.c: 229:     ADCON0bits.ADON = 1;
  1586  1415  1283               	bcf	3,5	;RP0=0, select bank0
  1587  1416  1303               	bcf	3,6	;RP1=0, select bank0
  1588  1417  141F               	bsf	31,0	;volatile
  1589  1418                     l3448:
  1590                           
  1591                           ;Slave3.c: 230:     _delay((unsigned long)((200)*(8000000/4000000.0)));
  1592  1418  3084               	movlw	132
  1593  1419  1283               	bcf	3,5	;RP0=0, select bank0
  1594  141A  1303               	bcf	3,6	;RP1=0, select bank0
  1595  141B  00A0               	movwf	??_setup
  1596  141C                     u5667:
  1597  141C  0BA0               	decfsz	??_setup,f
  1598  141D  2C1C               	goto	u5667
  1599  141E  0000               	nop
  1600  141F                     l3450:
  1601                           
  1602                           ;Slave3.c: 234:     OPTION_REGbits.T0CS = 0;
  1603  141F  1683               	bsf	3,5	;RP0=1, select bank1
  1604  1420  1303               	bcf	3,6	;RP1=0, select bank1
  1605  1421  1281               	bcf	1,5	;volatile
  1606  1422                     l3452:
  1607                           
  1608                           ;Slave3.c: 235:     OPTION_REGbits.T0SE = 0;
  1609  1422  1201               	bcf	1,4	;volatile
  1610  1423                     l3454:
  1611                           
  1612                           ;Slave3.c: 236:     OPTION_REGbits.PSA = 0;
  1613  1423  1181               	bcf	1,3	;volatile
  1614  1424                     l3456:
  1615                           
  1616                           ;Slave3.c: 237:     OPTION_REGbits.PS2 = 1;
  1617  1424  1501               	bsf	1,2	;volatile
  1618  1425                     l3458:
  1619                           
  1620                           ;Slave3.c: 238:     OPTION_REGbits.PS1 = 0;
  1621  1425  1081               	bcf	1,1	;volatile
  1622  1426                     l3460:
  1623                           
  1624                           ;Slave3.c: 239:     OPTION_REGbits.PS0 = 1;
  1625  1426  1401               	bsf	1,0	;volatile
  1626  1427                     l3462:
  1627                           
  1628                           ;Slave3.c: 240:     TMR0 = 131;
  1629  1427  3083               	movlw	131
  1630  1428  1283               	bcf	3,5	;RP0=0, select bank0
  1631  1429  1303               	bcf	3,6	;RP1=0, select bank0
  1632  142A  0081               	movwf	1	;volatile
  1633  142B                     l119:
  1634  142B  0008               	return
  1635  142C                     __end_of_setup:
  1636                           
  1637                           	psect	text2
  1638  0AF6                     __ptext2:	
  1639 ;; *************** function _convert *****************
  1640 ;; Defined at:
  1641 ;;		line 84 in file "Librerias.c"
  1642 ;; Parameters:    Size  Location     Type
  1643 ;;  data            1    wreg     PTR unsigned char 
  1644 ;;		 -> temperatura(10), 
  1645 ;;  a               4   13[BANK1 ] float 
  1646 ;;  place           2   17[BANK1 ] int 
  1647 ;; Auto vars:     Size  Location     Type
  1648 ;;  data            1    4[BANK3 ] PTR unsigned char 
  1649 ;;		 -> temperatura(10), 
  1650 ;;  x               4    5[BANK3 ] float 
  1651 ;;  mu              2   13[BANK3 ] int 
  1652 ;;  digits          2   11[BANK3 ] int 
  1653 ;;  i               2    9[BANK3 ] int 
  1654 ;;  j               2    2[BANK3 ] int 
  1655 ;;  temp            2    0[BANK3 ] int 
  1656 ;; Return value:  Size  Location     Type
  1657 ;;                  1    wreg      void 
  1658 ;; Registers used:
  1659 ;;		wreg, fsr0l, fsr0h, status,2, status,0, btemp+1, pclath, cstack
  1660 ;; Tracked objects:
  1661 ;;		On entry : 0/0
  1662 ;;		On exit  : 0/0
  1663 ;;		Unchanged: 0/0
  1664 ;; Data sizes:     COMMON   BANK0   BANK1   BANK3   BANK2
  1665 ;;      Params:         0       0       6       0       0
  1666 ;;      Locals:         0       0       0      15       0
  1667 ;;      Temps:          0       2       0       0       0
  1668 ;;      Totals:         0       2       6      15       0
  1669 ;;Total ram usage:       23 bytes
  1670 ;; Hardware stack levels used:    1
  1671 ;; Hardware stack levels required when called:    3
  1672 ;; This function calls:
  1673 ;;		___awdiv
  1674 ;;		___fldiv
  1675 ;;		___flge
  1676 ;;		___flmul
  1677 ;;		___flsub
  1678 ;;		___fltol
  1679 ;;		___wmul
  1680 ;;		___xxtofl
  1681 ;; This function is called by:
  1682 ;;		_main
  1683 ;; This function uses a non-reentrant model
  1684 ;;
  1685                           
  1686                           
  1687                           ;psect for function _convert
  1688  0AF6                     _convert:
  1689                           
  1690                           ;incstack = 0
  1691                           ; Regs used in _convert: [wreg-fsr0h+status,2+status,0+btemp+1+pclath+cstack]
  1692                           ;convert@data stored from wreg
  1693  0AF6  1683               	bsf	3,5	;RP0=1, select bank3
  1694  0AF7  1703               	bsf	3,6	;RP1=1, select bank3
  1695  0AF8  0094               	movwf	convert@data^(0+384)
  1696  0AF9                     l3496:
  1697                           
  1698                           ;Librerias.c: 84: void convert(char *data,float a, int place);Librerias.c: 85: {;Libreri
      +                          as.c: 86:      int temp=a;
  1699  0AF9  1683               	bsf	3,5	;RP0=1, select bank1
  1700  0AFA  1303               	bcf	3,6	;RP1=0, select bank1
  1701  0AFB  0865               	movf	(convert@a+3)^(0+128),w
  1702  0AFC  1283               	bcf	3,5	;RP0=0, select bank0
  1703  0AFD  1303               	bcf	3,6	;RP1=0, select bank0
  1704  0AFE  00A3               	movwf	___fltol@f1+3
  1705  0AFF  1683               	bsf	3,5	;RP0=1, select bank1
  1706  0B00  1303               	bcf	3,6	;RP1=0, select bank1
  1707  0B01  0864               	movf	(convert@a+2)^(0+128),w
  1708  0B02  1283               	bcf	3,5	;RP0=0, select bank0
  1709  0B03  1303               	bcf	3,6	;RP1=0, select bank0
  1710  0B04  00A2               	movwf	___fltol@f1+2
  1711  0B05  1683               	bsf	3,5	;RP0=1, select bank1
  1712  0B06  1303               	bcf	3,6	;RP1=0, select bank1
  1713  0B07  0863               	movf	(convert@a+1)^(0+128),w
  1714  0B08  1283               	bcf	3,5	;RP0=0, select bank0
  1715  0B09  1303               	bcf	3,6	;RP1=0, select bank0
  1716  0B0A  00A1               	movwf	___fltol@f1+1
  1717  0B0B  1683               	bsf	3,5	;RP0=1, select bank1
  1718  0B0C  1303               	bcf	3,6	;RP1=0, select bank1
  1719  0B0D  0862               	movf	convert@a^(0+128),w
  1720  0B0E  1283               	bcf	3,5	;RP0=0, select bank0
  1721  0B0F  1303               	bcf	3,6	;RP1=0, select bank0
  1722  0B10  00A0               	movwf	___fltol@f1
  1723  0B11  120A  118A  2769  120A  158A  	fcall	___fltol
  1724  0B16  1283               	bcf	3,5	;RP0=0, select bank0
  1725  0B17  1303               	bcf	3,6	;RP1=0, select bank0
  1726  0B18  0821               	movf	?___fltol+1,w
  1727  0B19  1683               	bsf	3,5	;RP0=1, select bank3
  1728  0B1A  1703               	bsf	3,6	;RP1=1, select bank3
  1729  0B1B  0091               	movwf	(convert@temp+1)^(0+384)
  1730  0B1C  1283               	bcf	3,5	;RP0=0, select bank0
  1731  0B1D  1303               	bcf	3,6	;RP1=0, select bank0
  1732  0B1E  0820               	movf	?___fltol,w
  1733  0B1F  1683               	bsf	3,5	;RP0=1, select bank3
  1734  0B20  1703               	bsf	3,6	;RP1=1, select bank3
  1735  0B21  0090               	movwf	convert@temp^(0+384)
  1736  0B22                     l3498:
  1737  0B22                     l3500:
  1738                           
  1739                           ;Librerias.c: 88:      int digits=0;
  1740  0B22  019B               	clrf	convert@digits^(0+384)
  1741  0B23  019C               	clrf	(convert@digits+1)^(0+384)
  1742  0B24                     l3502:
  1743                           
  1744                           ;Librerias.c: 89:      int i=0,mu=1;
  1745  0B24  0199               	clrf	convert@i^(0+384)
  1746  0B25  019A               	clrf	(convert@i+1)^(0+384)
  1747  0B26                     l3504:
  1748  0B26  3001               	movlw	1
  1749  0B27  009D               	movwf	convert@mu^(0+384)
  1750  0B28  3000               	movlw	0
  1751  0B29  009E               	movwf	(convert@mu^(0+384)+1)
  1752  0B2A                     l3506:
  1753  0B2A                     l3508:
  1754                           
  1755                           ;Librerias.c: 91:      if(a<0)
  1756  0B2A  1683               	bsf	3,5	;RP0=1, select bank1
  1757  0B2B  1303               	bcf	3,6	;RP1=0, select bank1
  1758  0B2C  0865               	movf	(convert@a+3)^(0+128),w
  1759  0B2D  1283               	bcf	3,5	;RP0=0, select bank0
  1760  0B2E  1303               	bcf	3,6	;RP1=0, select bank0
  1761  0B2F  00A3               	movwf	___flge@ff1+3
  1762  0B30  1683               	bsf	3,5	;RP0=1, select bank1
  1763  0B31  1303               	bcf	3,6	;RP1=0, select bank1
  1764  0B32  0864               	movf	(convert@a+2)^(0+128),w
  1765  0B33  1283               	bcf	3,5	;RP0=0, select bank0
  1766  0B34  1303               	bcf	3,6	;RP1=0, select bank0
  1767  0B35  00A2               	movwf	___flge@ff1+2
  1768  0B36  1683               	bsf	3,5	;RP0=1, select bank1
  1769  0B37  1303               	bcf	3,6	;RP1=0, select bank1
  1770  0B38  0863               	movf	(convert@a+1)^(0+128),w
  1771  0B39  1283               	bcf	3,5	;RP0=0, select bank0
  1772  0B3A  1303               	bcf	3,6	;RP1=0, select bank0
  1773  0B3B  00A1               	movwf	___flge@ff1+1
  1774  0B3C  1683               	bsf	3,5	;RP0=1, select bank1
  1775  0B3D  1303               	bcf	3,6	;RP1=0, select bank1
  1776  0B3E  0862               	movf	convert@a^(0+128),w
  1777  0B3F  1283               	bcf	3,5	;RP0=0, select bank0
  1778  0B40  1303               	bcf	3,6	;RP1=0, select bank0
  1779  0B41  00A0               	movwf	___flge@ff1
  1780  0B42  3000               	movlw	0
  1781  0B43  00A7               	movwf	___flge@ff2+3
  1782  0B44  3000               	movlw	0
  1783  0B45  00A6               	movwf	___flge@ff2+2
  1784  0B46  3000               	movlw	0
  1785  0B47  00A5               	movwf	___flge@ff2+1
  1786  0B48  3000               	movlw	0
  1787  0B49  00A4               	movwf	___flge@ff2
  1788  0B4A  160A  118A  24C3  120A  158A  	fcall	___flge
  1789  0B4F  1803               	btfsc	3,0
  1790  0B50  2B52               	goto	u5441
  1791  0B51  2B53               	goto	u5440
  1792  0B52                     u5441:
  1793  0B52  2BD1               	goto	l3520
  1794  0B53                     u5440:
  1795  0B53                     l3510:
  1796                           
  1797                           ;Librerias.c: 92:      {;Librerias.c: 93:             a=a*-1;
  1798  0B53  30BF               	movlw	191
  1799  0B54  1283               	bcf	3,5	;RP0=0, select bank0
  1800  0B55  1303               	bcf	3,6	;RP1=0, select bank0
  1801  0B56  00DC               	movwf	___flmul@b+3
  1802  0B57  3080               	movlw	128
  1803  0B58  00DB               	movwf	___flmul@b+2
  1804  0B59  3000               	movlw	0
  1805  0B5A  00DA               	movwf	___flmul@b+1
  1806  0B5B  3000               	movlw	0
  1807  0B5C  00D9               	movwf	___flmul@b
  1808  0B5D  1683               	bsf	3,5	;RP0=1, select bank1
  1809  0B5E  1303               	bcf	3,6	;RP1=0, select bank1
  1810  0B5F  0865               	movf	(convert@a+3)^(0+128),w
  1811  0B60  1283               	bcf	3,5	;RP0=0, select bank0
  1812  0B61  1303               	bcf	3,6	;RP1=0, select bank0
  1813  0B62  00E0               	movwf	___flmul@a+3
  1814  0B63  1683               	bsf	3,5	;RP0=1, select bank1
  1815  0B64  1303               	bcf	3,6	;RP1=0, select bank1
  1816  0B65  0864               	movf	(convert@a+2)^(0+128),w
  1817  0B66  1283               	bcf	3,5	;RP0=0, select bank0
  1818  0B67  1303               	bcf	3,6	;RP1=0, select bank0
  1819  0B68  00DF               	movwf	___flmul@a+2
  1820  0B69  1683               	bsf	3,5	;RP0=1, select bank1
  1821  0B6A  1303               	bcf	3,6	;RP1=0, select bank1
  1822  0B6B  0863               	movf	(convert@a+1)^(0+128),w
  1823  0B6C  1283               	bcf	3,5	;RP0=0, select bank0
  1824  0B6D  1303               	bcf	3,6	;RP1=0, select bank0
  1825  0B6E  00DE               	movwf	___flmul@a+1
  1826  0B6F  1683               	bsf	3,5	;RP0=1, select bank1
  1827  0B70  1303               	bcf	3,6	;RP1=0, select bank1
  1828  0B71  0862               	movf	convert@a^(0+128),w
  1829  0B72  1283               	bcf	3,5	;RP0=0, select bank0
  1830  0B73  1303               	bcf	3,6	;RP1=0, select bank0
  1831  0B74  00DD               	movwf	___flmul@a
  1832  0B75  120A  118A  2024  120A  158A  	fcall	___flmul
  1833  0B7A  1283               	bcf	3,5	;RP0=0, select bank0
  1834  0B7B  1303               	bcf	3,6	;RP1=0, select bank0
  1835  0B7C  085C               	movf	?___flmul+3,w
  1836  0B7D  1683               	bsf	3,5	;RP0=1, select bank1
  1837  0B7E  1303               	bcf	3,6	;RP1=0, select bank1
  1838  0B7F  00E5               	movwf	(convert@a+3)^(0+128)
  1839  0B80  1283               	bcf	3,5	;RP0=0, select bank0
  1840  0B81  1303               	bcf	3,6	;RP1=0, select bank0
  1841  0B82  085B               	movf	?___flmul+2,w
  1842  0B83  1683               	bsf	3,5	;RP0=1, select bank1
  1843  0B84  1303               	bcf	3,6	;RP1=0, select bank1
  1844  0B85  00E4               	movwf	(convert@a+2)^(0+128)
  1845  0B86  1283               	bcf	3,5	;RP0=0, select bank0
  1846  0B87  1303               	bcf	3,6	;RP1=0, select bank0
  1847  0B88  085A               	movf	?___flmul+1,w
  1848  0B89  1683               	bsf	3,5	;RP0=1, select bank1
  1849  0B8A  1303               	bcf	3,6	;RP1=0, select bank1
  1850  0B8B  00E3               	movwf	(convert@a+1)^(0+128)
  1851  0B8C  1283               	bcf	3,5	;RP0=0, select bank0
  1852  0B8D  1303               	bcf	3,6	;RP1=0, select bank0
  1853  0B8E  0859               	movf	?___flmul,w
  1854  0B8F  1683               	bsf	3,5	;RP0=1, select bank1
  1855  0B90  1303               	bcf	3,6	;RP1=0, select bank1
  1856  0B91  00E2               	movwf	convert@a^(0+128)
  1857  0B92                     l3512:
  1858                           
  1859                           ;Librerias.c: 94:             data[i]='-';
  1860  0B92  302D               	movlw	45
  1861  0B93  1283               	bcf	3,5	;RP0=0, select bank0
  1862  0B94  1303               	bcf	3,6	;RP1=0, select bank0
  1863  0B95  00E6               	movwf	??_convert
  1864  0B96  1683               	bsf	3,5	;RP0=1, select bank3
  1865  0B97  1703               	bsf	3,6	;RP1=1, select bank3
  1866  0B98  0814               	movf	convert@data^(0+384),w
  1867  0B99  0084               	movwf	4
  1868  0B9A  1283               	bcf	3,5	;RP0=0, select bank0
  1869  0B9B  1303               	bcf	3,6	;RP1=0, select bank0
  1870  0B9C  0866               	movf	??_convert,w
  1871  0B9D  1383               	bcf	3,7	;select IRP bank0
  1872  0B9E  0080               	movwf	0
  1873  0B9F                     l3514:
  1874                           
  1875                           ;Librerias.c: 95:             i++;
  1876  0B9F  3001               	movlw	1
  1877  0BA0  1683               	bsf	3,5	;RP0=1, select bank3
  1878  0BA1  1703               	bsf	3,6	;RP1=1, select bank3
  1879  0BA2  0799               	addwf	convert@i^(0+384),f
  1880  0BA3  1803               	skipnc
  1881  0BA4  0A9A               	incf	(convert@i+1)^(0+384),f
  1882  0BA5  3000               	movlw	0
  1883  0BA6  079A               	addwf	(convert@i+1)^(0+384),f
  1884  0BA7  2BD1               	goto	l3520
  1885  0BA8                     l3516:
  1886                           
  1887                           ;Librerias.c: 99:      {;Librerias.c: 100:          temp=temp/10;
  1888  0BA8  300A               	movlw	10
  1889  0BA9  1283               	bcf	3,5	;RP0=0, select bank0
  1890  0BAA  1303               	bcf	3,6	;RP1=0, select bank0
  1891  0BAB  00A0               	movwf	___awdiv@divisor
  1892  0BAC  3000               	movlw	0
  1893  0BAD  00A1               	movwf	___awdiv@divisor+1
  1894  0BAE  1683               	bsf	3,5	;RP0=1, select bank3
  1895  0BAF  1703               	bsf	3,6	;RP1=1, select bank3
  1896  0BB0  0811               	movf	(convert@temp+1)^(0+384),w
  1897  0BB1  1283               	bcf	3,5	;RP0=0, select bank0
  1898  0BB2  1303               	bcf	3,6	;RP1=0, select bank0
  1899  0BB3  00A3               	movwf	___awdiv@dividend+1
  1900  0BB4  1683               	bsf	3,5	;RP0=1, select bank3
  1901  0BB5  1703               	bsf	3,6	;RP1=1, select bank3
  1902  0BB6  0810               	movf	convert@temp^(0+384),w
  1903  0BB7  1283               	bcf	3,5	;RP0=0, select bank0
  1904  0BB8  1303               	bcf	3,6	;RP1=0, select bank0
  1905  0BB9  00A2               	movwf	___awdiv@dividend
  1906  0BBA  120A  158A  2005  120A  158A  	fcall	___awdiv
  1907  0BBF  1283               	bcf	3,5	;RP0=0, select bank0
  1908  0BC0  1303               	bcf	3,6	;RP1=0, select bank0
  1909  0BC1  0821               	movf	?___awdiv+1,w
  1910  0BC2  1683               	bsf	3,5	;RP0=1, select bank3
  1911  0BC3  1703               	bsf	3,6	;RP1=1, select bank3
  1912  0BC4  0091               	movwf	(convert@temp+1)^(0+384)
  1913  0BC5  1283               	bcf	3,5	;RP0=0, select bank0
  1914  0BC6  1303               	bcf	3,6	;RP1=0, select bank0
  1915  0BC7  0820               	movf	?___awdiv,w
  1916  0BC8  1683               	bsf	3,5	;RP0=1, select bank3
  1917  0BC9  1703               	bsf	3,6	;RP1=1, select bank3
  1918  0BCA  0090               	movwf	convert@temp^(0+384)
  1919  0BCB                     l3518:
  1920                           
  1921                           ;Librerias.c: 101:          digits++;
  1922  0BCB  3001               	movlw	1
  1923  0BCC  079B               	addwf	convert@digits^(0+384),f
  1924  0BCD  1803               	skipnc
  1925  0BCE  0A9C               	incf	(convert@digits+1)^(0+384),f
  1926  0BCF  3000               	movlw	0
  1927  0BD0  079C               	addwf	(convert@digits+1)^(0+384),f
  1928  0BD1                     l3520:
  1929                           
  1930                           ;Librerias.c: 98:      while(temp!=0)
  1931  0BD1  1683               	bsf	3,5	;RP0=1, select bank3
  1932  0BD2  1703               	bsf	3,6	;RP1=1, select bank3
  1933  0BD3  0810               	movf	convert@temp^(0+384),w
  1934  0BD4  0411               	iorwf	(convert@temp+1)^(0+384),w
  1935  0BD5  1D03               	btfss	3,2
  1936  0BD6  2BD8               	goto	u5451
  1937  0BD7  2BD9               	goto	u5450
  1938  0BD8                     u5451:
  1939  0BD8  2BA8               	goto	l3516
  1940  0BD9                     u5450:
  1941  0BD9  2D3F               	goto	l3544
  1942  0BDA                     l3522:
  1943                           
  1944                           ;Librerias.c: 104:      {;Librerias.c: 105:          if(digits==1)mu=1;
  1945  0BDA  031B               	decf	convert@digits^(0+384),w
  1946  0BDB  041C               	iorwf	(convert@digits+1)^(0+384),w
  1947  0BDC  1D03               	btfss	3,2
  1948  0BDD  2BDF               	goto	u5461
  1949  0BDE  2BE0               	goto	u5460
  1950  0BDF                     u5461:
  1951  0BDF  2BE5               	goto	l3526
  1952  0BE0                     u5460:
  1953  0BE0                     l3524:
  1954  0BE0  3001               	movlw	1
  1955  0BE1  009D               	movwf	convert@mu^(0+384)
  1956  0BE2  3000               	movlw	0
  1957  0BE3  009E               	movwf	(convert@mu^(0+384)+1)
  1958  0BE4  2C27               	goto	l3534
  1959  0BE5                     l3526:
  1960  0BE5  3002               	movlw	2
  1961  0BE6  0092               	movwf	convert@j^(0+384)
  1962  0BE7  3000               	movlw	0
  1963  0BE8  0093               	movwf	(convert@j^(0+384)+1)
  1964  0BE9  2C11               	goto	l3532
  1965  0BEA                     l3528:
  1966  0BEA  1683               	bsf	3,5	;RP0=1, select bank3
  1967  0BEB  1703               	bsf	3,6	;RP1=1, select bank3
  1968  0BEC  081E               	movf	(convert@mu+1)^(0+384),w
  1969  0BED  1283               	bcf	3,5	;RP0=0, select bank0
  1970  0BEE  1303               	bcf	3,6	;RP1=0, select bank0
  1971  0BEF  00AC               	movwf	___wmul@multiplier+1
  1972  0BF0  1683               	bsf	3,5	;RP0=1, select bank3
  1973  0BF1  1703               	bsf	3,6	;RP1=1, select bank3
  1974  0BF2  081D               	movf	convert@mu^(0+384),w
  1975  0BF3  1283               	bcf	3,5	;RP0=0, select bank0
  1976  0BF4  1303               	bcf	3,6	;RP1=0, select bank0
  1977  0BF5  00AB               	movwf	___wmul@multiplier
  1978  0BF6  300A               	movlw	10
  1979  0BF7  00AD               	movwf	___wmul@multiplicand
  1980  0BF8  3000               	movlw	0
  1981  0BF9  00AE               	movwf	___wmul@multiplicand+1
  1982  0BFA  160A  118A  234E  120A  158A  	fcall	___wmul
  1983  0BFF  1283               	bcf	3,5	;RP0=0, select bank0
  1984  0C00  1303               	bcf	3,6	;RP1=0, select bank0
  1985  0C01  082C               	movf	?___wmul+1,w
  1986  0C02  1683               	bsf	3,5	;RP0=1, select bank3
  1987  0C03  1703               	bsf	3,6	;RP1=1, select bank3
  1988  0C04  009E               	movwf	(convert@mu+1)^(0+384)
  1989  0C05  1283               	bcf	3,5	;RP0=0, select bank0
  1990  0C06  1303               	bcf	3,6	;RP1=0, select bank0
  1991  0C07  082B               	movf	?___wmul,w
  1992  0C08  1683               	bsf	3,5	;RP0=1, select bank3
  1993  0C09  1703               	bsf	3,6	;RP1=1, select bank3
  1994  0C0A  009D               	movwf	convert@mu^(0+384)
  1995  0C0B                     l3530:
  1996  0C0B  3001               	movlw	1
  1997  0C0C  0792               	addwf	convert@j^(0+384),f
  1998  0C0D  1803               	skipnc
  1999  0C0E  0A93               	incf	(convert@j+1)^(0+384),f
  2000  0C0F  3000               	movlw	0
  2001  0C10  0793               	addwf	(convert@j+1)^(0+384),f
  2002  0C11                     l3532:
  2003  0C11  081C               	movf	(convert@digits+1)^(0+384),w
  2004  0C12  3A80               	xorlw	128
  2005  0C13  1283               	bcf	3,5	;RP0=0, select bank0
  2006  0C14  1303               	bcf	3,6	;RP1=0, select bank0
  2007  0C15  00E6               	movwf	??_convert
  2008  0C16  1683               	bsf	3,5	;RP0=1, select bank3
  2009  0C17  1703               	bsf	3,6	;RP1=1, select bank3
  2010  0C18  0813               	movf	(convert@j+1)^(0+384),w
  2011  0C19  3A80               	xorlw	128
  2012  0C1A  1283               	bcf	3,5	;RP0=0, select bank0
  2013  0C1B  1303               	bcf	3,6	;RP1=0, select bank0
  2014  0C1C  0266               	subwf	??_convert,w
  2015  0C1D  1D03               	skipz
  2016  0C1E  2C23               	goto	u5475
  2017  0C1F  1683               	bsf	3,5	;RP0=1, select bank3
  2018  0C20  1703               	bsf	3,6	;RP1=1, select bank3
  2019  0C21  0812               	movf	convert@j^(0+384),w
  2020  0C22  021B               	subwf	convert@digits^(0+384),w
  2021  0C23                     u5475:
  2022  0C23  1803               	skipnc
  2023  0C24  2C26               	goto	u5471
  2024  0C25  2C27               	goto	u5470
  2025  0C26                     u5471:
  2026  0C26  2BEA               	goto	l3528
  2027  0C27                     u5470:
  2028  0C27                     l3534:
  2029                           
  2030                           ;Librerias.c: 108:          x=a/mu;
  2031  0C27  1683               	bsf	3,5	;RP0=1, select bank3
  2032  0C28  1703               	bsf	3,6	;RP1=1, select bank3
  2033  0C29  081D               	movf	convert@mu^(0+384),w
  2034  0C2A  1283               	bcf	3,5	;RP0=0, select bank0
  2035  0C2B  1303               	bcf	3,6	;RP1=0, select bank0
  2036  0C2C  00B1               	movwf	___xxtofl@val
  2037  0C2D  1683               	bsf	3,5	;RP0=1, select bank3
  2038  0C2E  1703               	bsf	3,6	;RP1=1, select bank3
  2039  0C2F  081E               	movf	(convert@mu+1)^(0+384),w
  2040  0C30  1283               	bcf	3,5	;RP0=0, select bank0
  2041  0C31  1303               	bcf	3,6	;RP1=0, select bank0
  2042  0C32  00B2               	movwf	___xxtofl@val+1
  2043  0C33  3000               	movlw	0
  2044  0C34  1BB2               	btfsc	___xxtofl@val+1,7
  2045  0C35  30FF               	movlw	255
  2046  0C36  00B3               	movwf	___xxtofl@val+2
  2047  0C37  00B4               	movwf	___xxtofl@val+3
  2048  0C38  3001               	movlw	1
  2049  0C39  160A  118A  2567  120A  158A  	fcall	___xxtofl
  2050  0C3E  1283               	bcf	3,5	;RP0=0, select bank0
  2051  0C3F  1303               	bcf	3,6	;RP1=0, select bank0
  2052  0C40  0834               	movf	?___xxtofl+3,w
  2053  0C41  00C2               	movwf	___fldiv@a+3
  2054  0C42  0833               	movf	?___xxtofl+2,w
  2055  0C43  00C1               	movwf	___fldiv@a+2
  2056  0C44  0832               	movf	?___xxtofl+1,w
  2057  0C45  00C0               	movwf	___fldiv@a+1
  2058  0C46  0831               	movf	?___xxtofl,w
  2059  0C47  00BF               	movwf	___fldiv@a
  2060  0C48  1683               	bsf	3,5	;RP0=1, select bank1
  2061  0C49  1303               	bcf	3,6	;RP1=0, select bank1
  2062  0C4A  0865               	movf	(convert@a+3)^(0+128),w
  2063  0C4B  1283               	bcf	3,5	;RP0=0, select bank0
  2064  0C4C  1303               	bcf	3,6	;RP1=0, select bank0
  2065  0C4D  00C6               	movwf	___fldiv@b+3
  2066  0C4E  1683               	bsf	3,5	;RP0=1, select bank1
  2067  0C4F  1303               	bcf	3,6	;RP1=0, select bank1
  2068  0C50  0864               	movf	(convert@a+2)^(0+128),w
  2069  0C51  1283               	bcf	3,5	;RP0=0, select bank0
  2070  0C52  1303               	bcf	3,6	;RP1=0, select bank0
  2071  0C53  00C5               	movwf	___fldiv@b+2
  2072  0C54  1683               	bsf	3,5	;RP0=1, select bank1
  2073  0C55  1303               	bcf	3,6	;RP1=0, select bank1
  2074  0C56  0863               	movf	(convert@a+1)^(0+128),w
  2075  0C57  1283               	bcf	3,5	;RP0=0, select bank0
  2076  0C58  1303               	bcf	3,6	;RP1=0, select bank0
  2077  0C59  00C4               	movwf	___fldiv@b+1
  2078  0C5A  1683               	bsf	3,5	;RP0=1, select bank1
  2079  0C5B  1303               	bcf	3,6	;RP1=0, select bank1
  2080  0C5C  0862               	movf	convert@a^(0+128),w
  2081  0C5D  1283               	bcf	3,5	;RP0=0, select bank0
  2082  0C5E  1303               	bcf	3,6	;RP1=0, select bank0
  2083  0C5F  00C3               	movwf	___fldiv@b
  2084  0C60  160A  118A  2623  120A  158A  	fcall	___fldiv
  2085  0C65  1283               	bcf	3,5	;RP0=0, select bank0
  2086  0C66  1303               	bcf	3,6	;RP1=0, select bank0
  2087  0C67  0842               	movf	?___fldiv+3,w
  2088  0C68  1683               	bsf	3,5	;RP0=1, select bank3
  2089  0C69  1703               	bsf	3,6	;RP1=1, select bank3
  2090  0C6A  0098               	movwf	(convert@x+3)^(0+384)
  2091  0C6B  1283               	bcf	3,5	;RP0=0, select bank0
  2092  0C6C  1303               	bcf	3,6	;RP1=0, select bank0
  2093  0C6D  0841               	movf	?___fldiv+2,w
  2094  0C6E  1683               	bsf	3,5	;RP0=1, select bank3
  2095  0C6F  1703               	bsf	3,6	;RP1=1, select bank3
  2096  0C70  0097               	movwf	(convert@x+2)^(0+384)
  2097  0C71  1283               	bcf	3,5	;RP0=0, select bank0
  2098  0C72  1303               	bcf	3,6	;RP1=0, select bank0
  2099  0C73  0840               	movf	?___fldiv+1,w
  2100  0C74  1683               	bsf	3,5	;RP0=1, select bank3
  2101  0C75  1703               	bsf	3,6	;RP1=1, select bank3
  2102  0C76  0096               	movwf	(convert@x+1)^(0+384)
  2103  0C77  1283               	bcf	3,5	;RP0=0, select bank0
  2104  0C78  1303               	bcf	3,6	;RP1=0, select bank0
  2105  0C79  083F               	movf	?___fldiv,w
  2106  0C7A  1683               	bsf	3,5	;RP0=1, select bank3
  2107  0C7B  1703               	bsf	3,6	;RP1=1, select bank3
  2108  0C7C  0095               	movwf	convert@x^(0+384)
  2109                           
  2110                           ;Librerias.c: 109:          a=a-((int)x*mu);
  2111  0C7D  081E               	movf	(convert@mu+1)^(0+384),w
  2112  0C7E  1283               	bcf	3,5	;RP0=0, select bank0
  2113  0C7F  1303               	bcf	3,6	;RP1=0, select bank0
  2114  0C80  00AE               	movwf	___wmul@multiplicand+1
  2115  0C81  1683               	bsf	3,5	;RP0=1, select bank3
  2116  0C82  1703               	bsf	3,6	;RP1=1, select bank3
  2117  0C83  081D               	movf	convert@mu^(0+384),w
  2118  0C84  1283               	bcf	3,5	;RP0=0, select bank0
  2119  0C85  1303               	bcf	3,6	;RP1=0, select bank0
  2120  0C86  00AD               	movwf	___wmul@multiplicand
  2121  0C87  1683               	bsf	3,5	;RP0=1, select bank3
  2122  0C88  1703               	bsf	3,6	;RP1=1, select bank3
  2123  0C89  0818               	movf	(convert@x+3)^(0+384),w
  2124  0C8A  1283               	bcf	3,5	;RP0=0, select bank0
  2125  0C8B  1303               	bcf	3,6	;RP1=0, select bank0
  2126  0C8C  00A3               	movwf	___fltol@f1+3
  2127  0C8D  1683               	bsf	3,5	;RP0=1, select bank3
  2128  0C8E  1703               	bsf	3,6	;RP1=1, select bank3
  2129  0C8F  0817               	movf	(convert@x+2)^(0+384),w
  2130  0C90  1283               	bcf	3,5	;RP0=0, select bank0
  2131  0C91  1303               	bcf	3,6	;RP1=0, select bank0
  2132  0C92  00A2               	movwf	___fltol@f1+2
  2133  0C93  1683               	bsf	3,5	;RP0=1, select bank3
  2134  0C94  1703               	bsf	3,6	;RP1=1, select bank3
  2135  0C95  0816               	movf	(convert@x+1)^(0+384),w
  2136  0C96  1283               	bcf	3,5	;RP0=0, select bank0
  2137  0C97  1303               	bcf	3,6	;RP1=0, select bank0
  2138  0C98  00A1               	movwf	___fltol@f1+1
  2139  0C99  1683               	bsf	3,5	;RP0=1, select bank3
  2140  0C9A  1703               	bsf	3,6	;RP1=1, select bank3
  2141  0C9B  0815               	movf	convert@x^(0+384),w
  2142  0C9C  1283               	bcf	3,5	;RP0=0, select bank0
  2143  0C9D  1303               	bcf	3,6	;RP1=0, select bank0
  2144  0C9E  00A0               	movwf	___fltol@f1
  2145  0C9F  120A  118A  2769  120A  158A  	fcall	___fltol
  2146  0CA4  1283               	bcf	3,5	;RP0=0, select bank0
  2147  0CA5  1303               	bcf	3,6	;RP1=0, select bank0
  2148  0CA6  0821               	movf	?___fltol+1,w
  2149  0CA7  00AC               	movwf	___wmul@multiplier+1
  2150  0CA8  0820               	movf	?___fltol,w
  2151  0CA9  00AB               	movwf	___wmul@multiplier
  2152  0CAA  160A  118A  234E  120A  158A  	fcall	___wmul
  2153  0CAF  1283               	bcf	3,5	;RP0=0, select bank0
  2154  0CB0  1303               	bcf	3,6	;RP1=0, select bank0
  2155  0CB1  082B               	movf	?___wmul,w
  2156  0CB2  00B1               	movwf	___xxtofl@val
  2157  0CB3  082C               	movf	?___wmul+1,w
  2158  0CB4  00B2               	movwf	___xxtofl@val+1
  2159  0CB5  3000               	movlw	0
  2160  0CB6  1BB2               	btfsc	___xxtofl@val+1,7
  2161  0CB7  30FF               	movlw	255
  2162  0CB8  00B3               	movwf	___xxtofl@val+2
  2163  0CB9  00B4               	movwf	___xxtofl@val+3
  2164  0CBA  3001               	movlw	1
  2165  0CBB  160A  118A  2567  120A  158A  	fcall	___xxtofl
  2166  0CC0  1283               	bcf	3,5	;RP0=0, select bank0
  2167  0CC1  1303               	bcf	3,6	;RP1=0, select bank0
  2168  0CC2  0834               	movf	?___xxtofl+3,w
  2169  0CC3  00C2               	movwf	___flsub@a+3
  2170  0CC4  0833               	movf	?___xxtofl+2,w
  2171  0CC5  00C1               	movwf	___flsub@a+2
  2172  0CC6  0832               	movf	?___xxtofl+1,w
  2173  0CC7  00C0               	movwf	___flsub@a+1
  2174  0CC8  0831               	movf	?___xxtofl,w
  2175  0CC9  00BF               	movwf	___flsub@a
  2176  0CCA  1683               	bsf	3,5	;RP0=1, select bank1
  2177  0CCB  1303               	bcf	3,6	;RP1=0, select bank1
  2178  0CCC  0865               	movf	(convert@a+3)^(0+128),w
  2179  0CCD  1283               	bcf	3,5	;RP0=0, select bank0
  2180  0CCE  1303               	bcf	3,6	;RP1=0, select bank0
  2181  0CCF  00C6               	movwf	___flsub@b+3
  2182  0CD0  1683               	bsf	3,5	;RP0=1, select bank1
  2183  0CD1  1303               	bcf	3,6	;RP1=0, select bank1
  2184  0CD2  0864               	movf	(convert@a+2)^(0+128),w
  2185  0CD3  1283               	bcf	3,5	;RP0=0, select bank0
  2186  0CD4  1303               	bcf	3,6	;RP1=0, select bank0
  2187  0CD5  00C5               	movwf	___flsub@b+2
  2188  0CD6  1683               	bsf	3,5	;RP0=1, select bank1
  2189  0CD7  1303               	bcf	3,6	;RP1=0, select bank1
  2190  0CD8  0863               	movf	(convert@a+1)^(0+128),w
  2191  0CD9  1283               	bcf	3,5	;RP0=0, select bank0
  2192  0CDA  1303               	bcf	3,6	;RP1=0, select bank0
  2193  0CDB  00C4               	movwf	___flsub@b+1
  2194  0CDC  1683               	bsf	3,5	;RP0=1, select bank1
  2195  0CDD  1303               	bcf	3,6	;RP1=0, select bank1
  2196  0CDE  0862               	movf	convert@a^(0+128),w
  2197  0CDF  1283               	bcf	3,5	;RP0=0, select bank0
  2198  0CE0  1303               	bcf	3,6	;RP1=0, select bank0
  2199  0CE1  00C3               	movwf	___flsub@b
  2200  0CE2  160A  118A  2304  120A  158A  	fcall	___flsub
  2201  0CE7  1283               	bcf	3,5	;RP0=0, select bank0
  2202  0CE8  1303               	bcf	3,6	;RP1=0, select bank0
  2203  0CE9  0842               	movf	?___flsub+3,w
  2204  0CEA  1683               	bsf	3,5	;RP0=1, select bank1
  2205  0CEB  1303               	bcf	3,6	;RP1=0, select bank1
  2206  0CEC  00E5               	movwf	(convert@a+3)^(0+128)
  2207  0CED  1283               	bcf	3,5	;RP0=0, select bank0
  2208  0CEE  1303               	bcf	3,6	;RP1=0, select bank0
  2209  0CEF  0841               	movf	?___flsub+2,w
  2210  0CF0  1683               	bsf	3,5	;RP0=1, select bank1
  2211  0CF1  1303               	bcf	3,6	;RP1=0, select bank1
  2212  0CF2  00E4               	movwf	(convert@a+2)^(0+128)
  2213  0CF3  1283               	bcf	3,5	;RP0=0, select bank0
  2214  0CF4  1303               	bcf	3,6	;RP1=0, select bank0
  2215  0CF5  0840               	movf	?___flsub+1,w
  2216  0CF6  1683               	bsf	3,5	;RP0=1, select bank1
  2217  0CF7  1303               	bcf	3,6	;RP1=0, select bank1
  2218  0CF8  00E3               	movwf	(convert@a+1)^(0+128)
  2219  0CF9  1283               	bcf	3,5	;RP0=0, select bank0
  2220  0CFA  1303               	bcf	3,6	;RP1=0, select bank0
  2221  0CFB  083F               	movf	?___flsub,w
  2222  0CFC  1683               	bsf	3,5	;RP0=1, select bank1
  2223  0CFD  1303               	bcf	3,6	;RP1=0, select bank1
  2224  0CFE  00E2               	movwf	convert@a^(0+128)
  2225  0CFF                     l3536:
  2226                           
  2227                           ;Librerias.c: 110:          data[i]=0x30+((int)x);
  2228  0CFF  1683               	bsf	3,5	;RP0=1, select bank3
  2229  0D00  1703               	bsf	3,6	;RP1=1, select bank3
  2230  0D01  0818               	movf	(convert@x+3)^(0+384),w
  2231  0D02  1283               	bcf	3,5	;RP0=0, select bank0
  2232  0D03  1303               	bcf	3,6	;RP1=0, select bank0
  2233  0D04  00A3               	movwf	___fltol@f1+3
  2234  0D05  1683               	bsf	3,5	;RP0=1, select bank3
  2235  0D06  1703               	bsf	3,6	;RP1=1, select bank3
  2236  0D07  0817               	movf	(convert@x+2)^(0+384),w
  2237  0D08  1283               	bcf	3,5	;RP0=0, select bank0
  2238  0D09  1303               	bcf	3,6	;RP1=0, select bank0
  2239  0D0A  00A2               	movwf	___fltol@f1+2
  2240  0D0B  1683               	bsf	3,5	;RP0=1, select bank3
  2241  0D0C  1703               	bsf	3,6	;RP1=1, select bank3
  2242  0D0D  0816               	movf	(convert@x+1)^(0+384),w
  2243  0D0E  1283               	bcf	3,5	;RP0=0, select bank0
  2244  0D0F  1303               	bcf	3,6	;RP1=0, select bank0
  2245  0D10  00A1               	movwf	___fltol@f1+1
  2246  0D11  1683               	bsf	3,5	;RP0=1, select bank3
  2247  0D12  1703               	bsf	3,6	;RP1=1, select bank3
  2248  0D13  0815               	movf	convert@x^(0+384),w
  2249  0D14  1283               	bcf	3,5	;RP0=0, select bank0
  2250  0D15  1303               	bcf	3,6	;RP1=0, select bank0
  2251  0D16  00A0               	movwf	___fltol@f1
  2252  0D17  120A  118A  2769  120A  158A  	fcall	___fltol
  2253  0D1C  1283               	bcf	3,5	;RP0=0, select bank0
  2254  0D1D  1303               	bcf	3,6	;RP1=0, select bank0
  2255  0D1E  0820               	movf	?___fltol,w
  2256  0D1F  3E30               	addlw	48
  2257  0D20  00E6               	movwf	??_convert
  2258  0D21  1683               	bsf	3,5	;RP0=1, select bank3
  2259  0D22  1703               	bsf	3,6	;RP1=1, select bank3
  2260  0D23  0819               	movf	convert@i^(0+384),w
  2261  0D24  0714               	addwf	convert@data^(0+384),w
  2262  0D25  1283               	bcf	3,5	;RP0=0, select bank0
  2263  0D26  1303               	bcf	3,6	;RP1=0, select bank0
  2264  0D27  00E7               	movwf	??_convert+1
  2265  0D28  0867               	movf	??_convert+1,w
  2266  0D29  0084               	movwf	4
  2267  0D2A  0866               	movf	??_convert,w
  2268  0D2B  1383               	bcf	3,7	;select IRP bank0
  2269  0D2C  0080               	movwf	0
  2270  0D2D                     l3538:
  2271                           
  2272                           ;Librerias.c: 111:          i++;
  2273  0D2D  3001               	movlw	1
  2274  0D2E  1683               	bsf	3,5	;RP0=1, select bank3
  2275  0D2F  1703               	bsf	3,6	;RP1=1, select bank3
  2276  0D30  0799               	addwf	convert@i^(0+384),f
  2277  0D31  1803               	skipnc
  2278  0D32  0A9A               	incf	(convert@i+1)^(0+384),f
  2279  0D33  3000               	movlw	0
  2280  0D34  079A               	addwf	(convert@i+1)^(0+384),f
  2281  0D35                     l3540:
  2282                           
  2283                           ;Librerias.c: 112:          digits--;
  2284  0D35  30FF               	movlw	255
  2285  0D36  079B               	addwf	convert@digits^(0+384),f
  2286  0D37  1803               	skipnc
  2287  0D38  0A9C               	incf	(convert@digits+1)^(0+384),f
  2288  0D39  30FF               	movlw	255
  2289  0D3A  079C               	addwf	(convert@digits+1)^(0+384),f
  2290  0D3B                     l3542:
  2291                           
  2292                           ;Librerias.c: 113:          mu=1;
  2293  0D3B  3001               	movlw	1
  2294  0D3C  009D               	movwf	convert@mu^(0+384)
  2295  0D3D  3000               	movlw	0
  2296  0D3E  009E               	movwf	(convert@mu^(0+384)+1)
  2297  0D3F                     l3544:
  2298                           
  2299                           ;Librerias.c: 103:      while(digits!=0)
  2300  0D3F  081B               	movf	convert@digits^(0+384),w
  2301  0D40  041C               	iorwf	(convert@digits+1)^(0+384),w
  2302  0D41  1D03               	btfss	3,2
  2303  0D42  2D44               	goto	u5481
  2304  0D43  2D45               	goto	u5480
  2305  0D44                     u5481:
  2306  0D44  2BDA               	goto	l3522
  2307  0D45                     u5480:
  2308  0D45                     l3546:
  2309                           
  2310                           ;Librerias.c: 116:      data[i]='.';
  2311  0D45  302E               	movlw	46
  2312  0D46  1283               	bcf	3,5	;RP0=0, select bank0
  2313  0D47  1303               	bcf	3,6	;RP1=0, select bank0
  2314  0D48  00E6               	movwf	??_convert
  2315  0D49  1683               	bsf	3,5	;RP0=1, select bank3
  2316  0D4A  1703               	bsf	3,6	;RP1=1, select bank3
  2317  0D4B  0819               	movf	convert@i^(0+384),w
  2318  0D4C  0714               	addwf	convert@data^(0+384),w
  2319  0D4D  1283               	bcf	3,5	;RP0=0, select bank0
  2320  0D4E  1303               	bcf	3,6	;RP1=0, select bank0
  2321  0D4F  00E7               	movwf	??_convert+1
  2322  0D50  0867               	movf	??_convert+1,w
  2323  0D51  0084               	movwf	4
  2324  0D52  0866               	movf	??_convert,w
  2325  0D53  1383               	bcf	3,7	;select IRP bank0
  2326  0D54  0080               	movwf	0
  2327  0D55                     l3548:
  2328                           
  2329                           ;Librerias.c: 117:      i++;
  2330  0D55  3001               	movlw	1
  2331  0D56  1683               	bsf	3,5	;RP0=1, select bank3
  2332  0D57  1703               	bsf	3,6	;RP1=1, select bank3
  2333  0D58  0799               	addwf	convert@i^(0+384),f
  2334  0D59  1803               	skipnc
  2335  0D5A  0A9A               	incf	(convert@i+1)^(0+384),f
  2336  0D5B  3000               	movlw	0
  2337  0D5C  079A               	addwf	(convert@i+1)^(0+384),f
  2338  0D5D                     l3550:
  2339  0D5D                     l3552:
  2340                           
  2341                           ;Librerias.c: 119:      for(j=1;j<=place;j++)mu=mu*10;
  2342  0D5D  3001               	movlw	1
  2343  0D5E  0092               	movwf	convert@j^(0+384)
  2344  0D5F  3000               	movlw	0
  2345  0D60  0093               	movwf	(convert@j^(0+384)+1)
  2346  0D61  2D89               	goto	l3558
  2347  0D62                     l3554:
  2348  0D62  1683               	bsf	3,5	;RP0=1, select bank3
  2349  0D63  1703               	bsf	3,6	;RP1=1, select bank3
  2350  0D64  081E               	movf	(convert@mu+1)^(0+384),w
  2351  0D65  1283               	bcf	3,5	;RP0=0, select bank0
  2352  0D66  1303               	bcf	3,6	;RP1=0, select bank0
  2353  0D67  00AC               	movwf	___wmul@multiplier+1
  2354  0D68  1683               	bsf	3,5	;RP0=1, select bank3
  2355  0D69  1703               	bsf	3,6	;RP1=1, select bank3
  2356  0D6A  081D               	movf	convert@mu^(0+384),w
  2357  0D6B  1283               	bcf	3,5	;RP0=0, select bank0
  2358  0D6C  1303               	bcf	3,6	;RP1=0, select bank0
  2359  0D6D  00AB               	movwf	___wmul@multiplier
  2360  0D6E  300A               	movlw	10
  2361  0D6F  00AD               	movwf	___wmul@multiplicand
  2362  0D70  3000               	movlw	0
  2363  0D71  00AE               	movwf	___wmul@multiplicand+1
  2364  0D72  160A  118A  234E  120A  158A  	fcall	___wmul
  2365  0D77  1283               	bcf	3,5	;RP0=0, select bank0
  2366  0D78  1303               	bcf	3,6	;RP1=0, select bank0
  2367  0D79  082C               	movf	?___wmul+1,w
  2368  0D7A  1683               	bsf	3,5	;RP0=1, select bank3
  2369  0D7B  1703               	bsf	3,6	;RP1=1, select bank3
  2370  0D7C  009E               	movwf	(convert@mu+1)^(0+384)
  2371  0D7D  1283               	bcf	3,5	;RP0=0, select bank0
  2372  0D7E  1303               	bcf	3,6	;RP1=0, select bank0
  2373  0D7F  082B               	movf	?___wmul,w
  2374  0D80  1683               	bsf	3,5	;RP0=1, select bank3
  2375  0D81  1703               	bsf	3,6	;RP1=1, select bank3
  2376  0D82  009D               	movwf	convert@mu^(0+384)
  2377  0D83                     l3556:
  2378  0D83  3001               	movlw	1
  2379  0D84  0792               	addwf	convert@j^(0+384),f
  2380  0D85  1803               	skipnc
  2381  0D86  0A93               	incf	(convert@j+1)^(0+384),f
  2382  0D87  3000               	movlw	0
  2383  0D88  0793               	addwf	(convert@j+1)^(0+384),f
  2384  0D89                     l3558:
  2385  0D89  1683               	bsf	3,5	;RP0=1, select bank1
  2386  0D8A  1303               	bcf	3,6	;RP1=0, select bank1
  2387  0D8B  0867               	movf	(convert@place+1)^(0+128),w
  2388  0D8C  3A80               	xorlw	128
  2389  0D8D  1283               	bcf	3,5	;RP0=0, select bank0
  2390  0D8E  1303               	bcf	3,6	;RP1=0, select bank0
  2391  0D8F  00E6               	movwf	??_convert
  2392  0D90  1683               	bsf	3,5	;RP0=1, select bank3
  2393  0D91  1703               	bsf	3,6	;RP1=1, select bank3
  2394  0D92  0813               	movf	(convert@j+1)^(0+384),w
  2395  0D93  3A80               	xorlw	128
  2396  0D94  1283               	bcf	3,5	;RP0=0, select bank0
  2397  0D95  1303               	bcf	3,6	;RP1=0, select bank0
  2398  0D96  0266               	subwf	??_convert,w
  2399  0D97  1D03               	skipz
  2400  0D98  2D9F               	goto	u5495
  2401  0D99  1683               	bsf	3,5	;RP0=1, select bank3
  2402  0D9A  1703               	bsf	3,6	;RP1=1, select bank3
  2403  0D9B  0812               	movf	convert@j^(0+384),w
  2404  0D9C  1683               	bsf	3,5	;RP0=1, select bank1
  2405  0D9D  1303               	bcf	3,6	;RP1=0, select bank1
  2406  0D9E  0266               	subwf	convert@place^(0+128),w
  2407  0D9F                     u5495:
  2408  0D9F  1803               	skipnc
  2409  0DA0  2DA2               	goto	u5491
  2410  0DA1  2DA3               	goto	u5490
  2411  0DA2                     u5491:
  2412  0DA2  2D62               	goto	l3554
  2413  0DA3                     u5490:
  2414  0DA3                     l3560:
  2415                           
  2416                           ;Librerias.c: 120:      x=(a-(int)a)*mu;
  2417  0DA3  1683               	bsf	3,5	;RP0=1, select bank3
  2418  0DA4  1703               	bsf	3,6	;RP1=1, select bank3
  2419  0DA5  081D               	movf	convert@mu^(0+384),w
  2420  0DA6  1283               	bcf	3,5	;RP0=0, select bank0
  2421  0DA7  1303               	bcf	3,6	;RP1=0, select bank0
  2422  0DA8  00B1               	movwf	___xxtofl@val
  2423  0DA9  1683               	bsf	3,5	;RP0=1, select bank3
  2424  0DAA  1703               	bsf	3,6	;RP1=1, select bank3
  2425  0DAB  081E               	movf	(convert@mu+1)^(0+384),w
  2426  0DAC  1283               	bcf	3,5	;RP0=0, select bank0
  2427  0DAD  1303               	bcf	3,6	;RP1=0, select bank0
  2428  0DAE  00B2               	movwf	___xxtofl@val+1
  2429  0DAF  3000               	movlw	0
  2430  0DB0  1BB2               	btfsc	___xxtofl@val+1,7
  2431  0DB1  30FF               	movlw	255
  2432  0DB2  00B3               	movwf	___xxtofl@val+2
  2433  0DB3  00B4               	movwf	___xxtofl@val+3
  2434  0DB4  3001               	movlw	1
  2435  0DB5  160A  118A  2567  120A  158A  	fcall	___xxtofl
  2436  0DBA  1283               	bcf	3,5	;RP0=0, select bank0
  2437  0DBB  1303               	bcf	3,6	;RP1=0, select bank0
  2438  0DBC  0834               	movf	?___xxtofl+3,w
  2439  0DBD  00DC               	movwf	___flmul@b+3
  2440  0DBE  0833               	movf	?___xxtofl+2,w
  2441  0DBF  00DB               	movwf	___flmul@b+2
  2442  0DC0  0832               	movf	?___xxtofl+1,w
  2443  0DC1  00DA               	movwf	___flmul@b+1
  2444  0DC2  0831               	movf	?___xxtofl,w
  2445  0DC3  00D9               	movwf	___flmul@b
  2446  0DC4  1683               	bsf	3,5	;RP0=1, select bank1
  2447  0DC5  1303               	bcf	3,6	;RP1=0, select bank1
  2448  0DC6  0865               	movf	(convert@a+3)^(0+128),w
  2449  0DC7  1283               	bcf	3,5	;RP0=0, select bank0
  2450  0DC8  1303               	bcf	3,6	;RP1=0, select bank0
  2451  0DC9  00A3               	movwf	___fltol@f1+3
  2452  0DCA  1683               	bsf	3,5	;RP0=1, select bank1
  2453  0DCB  1303               	bcf	3,6	;RP1=0, select bank1
  2454  0DCC  0864               	movf	(convert@a+2)^(0+128),w
  2455  0DCD  1283               	bcf	3,5	;RP0=0, select bank0
  2456  0DCE  1303               	bcf	3,6	;RP1=0, select bank0
  2457  0DCF  00A2               	movwf	___fltol@f1+2
  2458  0DD0  1683               	bsf	3,5	;RP0=1, select bank1
  2459  0DD1  1303               	bcf	3,6	;RP1=0, select bank1
  2460  0DD2  0863               	movf	(convert@a+1)^(0+128),w
  2461  0DD3  1283               	bcf	3,5	;RP0=0, select bank0
  2462  0DD4  1303               	bcf	3,6	;RP1=0, select bank0
  2463  0DD5  00A1               	movwf	___fltol@f1+1
  2464  0DD6  1683               	bsf	3,5	;RP0=1, select bank1
  2465  0DD7  1303               	bcf	3,6	;RP1=0, select bank1
  2466  0DD8  0862               	movf	convert@a^(0+128),w
  2467  0DD9  1283               	bcf	3,5	;RP0=0, select bank0
  2468  0DDA  1303               	bcf	3,6	;RP1=0, select bank0
  2469  0DDB  00A0               	movwf	___fltol@f1
  2470  0DDC  120A  118A  2769  120A  158A  	fcall	___fltol
  2471  0DE1  1283               	bcf	3,5	;RP0=0, select bank0
  2472  0DE2  1303               	bcf	3,6	;RP1=0, select bank0
  2473  0DE3  0820               	movf	?___fltol,w
  2474  0DE4  00B1               	movwf	___xxtofl@val
  2475  0DE5  0821               	movf	?___fltol+1,w
  2476  0DE6  00B2               	movwf	___xxtofl@val+1
  2477  0DE7  3000               	movlw	0
  2478  0DE8  1BB2               	btfsc	___xxtofl@val+1,7
  2479  0DE9  30FF               	movlw	255
  2480  0DEA  00B3               	movwf	___xxtofl@val+2
  2481  0DEB  00B4               	movwf	___xxtofl@val+3
  2482  0DEC  3001               	movlw	1
  2483  0DED  160A  118A  2567  120A  158A  	fcall	___xxtofl
  2484  0DF2  1283               	bcf	3,5	;RP0=0, select bank0
  2485  0DF3  1303               	bcf	3,6	;RP1=0, select bank0
  2486  0DF4  0834               	movf	?___xxtofl+3,w
  2487  0DF5  00C2               	movwf	___flsub@a+3
  2488  0DF6  0833               	movf	?___xxtofl+2,w
  2489  0DF7  00C1               	movwf	___flsub@a+2
  2490  0DF8  0832               	movf	?___xxtofl+1,w
  2491  0DF9  00C0               	movwf	___flsub@a+1
  2492  0DFA  0831               	movf	?___xxtofl,w
  2493  0DFB  00BF               	movwf	___flsub@a
  2494  0DFC  1683               	bsf	3,5	;RP0=1, select bank1
  2495  0DFD  1303               	bcf	3,6	;RP1=0, select bank1
  2496  0DFE  0865               	movf	(convert@a+3)^(0+128),w
  2497  0DFF  1283               	bcf	3,5	;RP0=0, select bank0
  2498  0E00  1303               	bcf	3,6	;RP1=0, select bank0
  2499  0E01  00C6               	movwf	___flsub@b+3
  2500  0E02  1683               	bsf	3,5	;RP0=1, select bank1
  2501  0E03  1303               	bcf	3,6	;RP1=0, select bank1
  2502  0E04  0864               	movf	(convert@a+2)^(0+128),w
  2503  0E05  1283               	bcf	3,5	;RP0=0, select bank0
  2504  0E06  1303               	bcf	3,6	;RP1=0, select bank0
  2505  0E07  00C5               	movwf	___flsub@b+2
  2506  0E08  1683               	bsf	3,5	;RP0=1, select bank1
  2507  0E09  1303               	bcf	3,6	;RP1=0, select bank1
  2508  0E0A  0863               	movf	(convert@a+1)^(0+128),w
  2509  0E0B  1283               	bcf	3,5	;RP0=0, select bank0
  2510  0E0C  1303               	bcf	3,6	;RP1=0, select bank0
  2511  0E0D  00C4               	movwf	___flsub@b+1
  2512  0E0E  1683               	bsf	3,5	;RP0=1, select bank1
  2513  0E0F  1303               	bcf	3,6	;RP1=0, select bank1
  2514  0E10  0862               	movf	convert@a^(0+128),w
  2515  0E11  1283               	bcf	3,5	;RP0=0, select bank0
  2516  0E12  1303               	bcf	3,6	;RP1=0, select bank0
  2517  0E13  00C3               	movwf	___flsub@b
  2518  0E14  160A  118A  2304  120A  158A  	fcall	___flsub
  2519  0E19  1283               	bcf	3,5	;RP0=0, select bank0
  2520  0E1A  1303               	bcf	3,6	;RP1=0, select bank0
  2521  0E1B  0842               	movf	?___flsub+3,w
  2522  0E1C  00E0               	movwf	___flmul@a+3
  2523  0E1D  0841               	movf	?___flsub+2,w
  2524  0E1E  00DF               	movwf	___flmul@a+2
  2525  0E1F  0840               	movf	?___flsub+1,w
  2526  0E20  00DE               	movwf	___flmul@a+1
  2527  0E21  083F               	movf	?___flsub,w
  2528  0E22  00DD               	movwf	___flmul@a
  2529  0E23  120A  118A  2024  120A  158A  	fcall	___flmul
  2530  0E28  1283               	bcf	3,5	;RP0=0, select bank0
  2531  0E29  1303               	bcf	3,6	;RP1=0, select bank0
  2532  0E2A  085C               	movf	?___flmul+3,w
  2533  0E2B  1683               	bsf	3,5	;RP0=1, select bank3
  2534  0E2C  1703               	bsf	3,6	;RP1=1, select bank3
  2535  0E2D  0098               	movwf	(convert@x+3)^(0+384)
  2536  0E2E  1283               	bcf	3,5	;RP0=0, select bank0
  2537  0E2F  1303               	bcf	3,6	;RP1=0, select bank0
  2538  0E30  085B               	movf	?___flmul+2,w
  2539  0E31  1683               	bsf	3,5	;RP0=1, select bank3
  2540  0E32  1703               	bsf	3,6	;RP1=1, select bank3
  2541  0E33  0097               	movwf	(convert@x+2)^(0+384)
  2542  0E34  1283               	bcf	3,5	;RP0=0, select bank0
  2543  0E35  1303               	bcf	3,6	;RP1=0, select bank0
  2544  0E36  085A               	movf	?___flmul+1,w
  2545  0E37  1683               	bsf	3,5	;RP0=1, select bank3
  2546  0E38  1703               	bsf	3,6	;RP1=1, select bank3
  2547  0E39  0096               	movwf	(convert@x+1)^(0+384)
  2548  0E3A  1283               	bcf	3,5	;RP0=0, select bank0
  2549  0E3B  1303               	bcf	3,6	;RP1=0, select bank0
  2550  0E3C  0859               	movf	?___flmul,w
  2551  0E3D  1683               	bsf	3,5	;RP0=1, select bank3
  2552  0E3E  1703               	bsf	3,6	;RP1=1, select bank3
  2553  0E3F  0095               	movwf	convert@x^(0+384)
  2554  0E40                     l3562:
  2555                           
  2556                           ;Librerias.c: 121:      a=x;
  2557  0E40  0818               	movf	(convert@x+3)^(0+384),w
  2558  0E41  1683               	bsf	3,5	;RP0=1, select bank1
  2559  0E42  1303               	bcf	3,6	;RP1=0, select bank1
  2560  0E43  00E5               	movwf	(convert@a+3)^(0+128)
  2561  0E44  1683               	bsf	3,5	;RP0=1, select bank3
  2562  0E45  1703               	bsf	3,6	;RP1=1, select bank3
  2563  0E46  0817               	movf	(convert@x+2)^(0+384),w
  2564  0E47  1683               	bsf	3,5	;RP0=1, select bank1
  2565  0E48  1303               	bcf	3,6	;RP1=0, select bank1
  2566  0E49  00E4               	movwf	(convert@a+2)^(0+128)
  2567  0E4A  1683               	bsf	3,5	;RP0=1, select bank3
  2568  0E4B  1703               	bsf	3,6	;RP1=1, select bank3
  2569  0E4C  0816               	movf	(convert@x+1)^(0+384),w
  2570  0E4D  1683               	bsf	3,5	;RP0=1, select bank1
  2571  0E4E  1303               	bcf	3,6	;RP1=0, select bank1
  2572  0E4F  00E3               	movwf	(convert@a+1)^(0+128)
  2573  0E50  1683               	bsf	3,5	;RP0=1, select bank3
  2574  0E51  1703               	bsf	3,6	;RP1=1, select bank3
  2575  0E52  0815               	movf	convert@x^(0+384),w
  2576  0E53  1683               	bsf	3,5	;RP0=1, select bank1
  2577  0E54  1303               	bcf	3,6	;RP1=0, select bank1
  2578  0E55  00E2               	movwf	convert@a^(0+128)
  2579  0E56                     l3564:
  2580  0E56  0865               	movf	(convert@a+3)^(0+128),w
  2581  0E57  1283               	bcf	3,5	;RP0=0, select bank0
  2582  0E58  1303               	bcf	3,6	;RP1=0, select bank0
  2583  0E59  00A3               	movwf	___fltol@f1+3
  2584  0E5A  1683               	bsf	3,5	;RP0=1, select bank1
  2585  0E5B  1303               	bcf	3,6	;RP1=0, select bank1
  2586  0E5C  0864               	movf	(convert@a+2)^(0+128),w
  2587  0E5D  1283               	bcf	3,5	;RP0=0, select bank0
  2588  0E5E  1303               	bcf	3,6	;RP1=0, select bank0
  2589  0E5F  00A2               	movwf	___fltol@f1+2
  2590  0E60  1683               	bsf	3,5	;RP0=1, select bank1
  2591  0E61  1303               	bcf	3,6	;RP1=0, select bank1
  2592  0E62  0863               	movf	(convert@a+1)^(0+128),w
  2593  0E63  1283               	bcf	3,5	;RP0=0, select bank0
  2594  0E64  1303               	bcf	3,6	;RP1=0, select bank0
  2595  0E65  00A1               	movwf	___fltol@f1+1
  2596  0E66  1683               	bsf	3,5	;RP0=1, select bank1
  2597  0E67  1303               	bcf	3,6	;RP1=0, select bank1
  2598  0E68  0862               	movf	convert@a^(0+128),w
  2599  0E69  1283               	bcf	3,5	;RP0=0, select bank0
  2600  0E6A  1303               	bcf	3,6	;RP1=0, select bank0
  2601  0E6B  00A0               	movwf	___fltol@f1
  2602  0E6C  120A  118A  2769  120A  158A  	fcall	___fltol
  2603  0E71                     l3566:
  2604  0E71                     l3568:
  2605                           
  2606                           ;Librerias.c: 124:      mu=1;
  2607  0E71  3001               	movlw	1
  2608  0E72  1683               	bsf	3,5	;RP0=1, select bank3
  2609  0E73  1703               	bsf	3,6	;RP1=1, select bank3
  2610  0E74  009D               	movwf	convert@mu^(0+384)
  2611  0E75  3000               	movlw	0
  2612  0E76  009E               	movwf	(convert@mu^(0+384)+1)
  2613  0E77                     l3570:
  2614                           
  2615                           ;Librerias.c: 125:      digits=place;
  2616  0E77  1683               	bsf	3,5	;RP0=1, select bank1
  2617  0E78  1303               	bcf	3,6	;RP1=0, select bank1
  2618  0E79  0867               	movf	(convert@place+1)^(0+128),w
  2619  0E7A  1683               	bsf	3,5	;RP0=1, select bank3
  2620  0E7B  1703               	bsf	3,6	;RP1=1, select bank3
  2621  0E7C  009C               	movwf	(convert@digits+1)^(0+384)
  2622  0E7D  1683               	bsf	3,5	;RP0=1, select bank1
  2623  0E7E  1303               	bcf	3,6	;RP1=0, select bank1
  2624  0E7F  0866               	movf	convert@place^(0+128),w
  2625  0E80  1683               	bsf	3,5	;RP0=1, select bank3
  2626  0E81  1703               	bsf	3,6	;RP1=1, select bank3
  2627  0E82  009B               	movwf	convert@digits^(0+384)
  2628                           
  2629                           ;Librerias.c: 126:      while(digits!=0)
  2630  0E83  2FE9               	goto	l3594
  2631  0E84                     l3572:
  2632                           
  2633                           ;Librerias.c: 127:      {;Librerias.c: 128:          if(digits==1)mu=1;
  2634  0E84  031B               	decf	convert@digits^(0+384),w
  2635  0E85  041C               	iorwf	(convert@digits+1)^(0+384),w
  2636  0E86  1D03               	btfss	3,2
  2637  0E87  2E89               	goto	u5501
  2638  0E88  2E8A               	goto	u5500
  2639  0E89                     u5501:
  2640  0E89  2E8F               	goto	l3576
  2641  0E8A                     u5500:
  2642  0E8A                     l3574:
  2643  0E8A  3001               	movlw	1
  2644  0E8B  009D               	movwf	convert@mu^(0+384)
  2645  0E8C  3000               	movlw	0
  2646  0E8D  009E               	movwf	(convert@mu^(0+384)+1)
  2647  0E8E  2ED1               	goto	l3584
  2648  0E8F                     l3576:
  2649  0E8F  3002               	movlw	2
  2650  0E90  0092               	movwf	convert@j^(0+384)
  2651  0E91  3000               	movlw	0
  2652  0E92  0093               	movwf	(convert@j^(0+384)+1)
  2653  0E93  2EBB               	goto	l3582
  2654  0E94                     l3578:
  2655  0E94  1683               	bsf	3,5	;RP0=1, select bank3
  2656  0E95  1703               	bsf	3,6	;RP1=1, select bank3
  2657  0E96  081E               	movf	(convert@mu+1)^(0+384),w
  2658  0E97  1283               	bcf	3,5	;RP0=0, select bank0
  2659  0E98  1303               	bcf	3,6	;RP1=0, select bank0
  2660  0E99  00AC               	movwf	___wmul@multiplier+1
  2661  0E9A  1683               	bsf	3,5	;RP0=1, select bank3
  2662  0E9B  1703               	bsf	3,6	;RP1=1, select bank3
  2663  0E9C  081D               	movf	convert@mu^(0+384),w
  2664  0E9D  1283               	bcf	3,5	;RP0=0, select bank0
  2665  0E9E  1303               	bcf	3,6	;RP1=0, select bank0
  2666  0E9F  00AB               	movwf	___wmul@multiplier
  2667  0EA0  300A               	movlw	10
  2668  0EA1  00AD               	movwf	___wmul@multiplicand
  2669  0EA2  3000               	movlw	0
  2670  0EA3  00AE               	movwf	___wmul@multiplicand+1
  2671  0EA4  160A  118A  234E  120A  158A  	fcall	___wmul
  2672  0EA9  1283               	bcf	3,5	;RP0=0, select bank0
  2673  0EAA  1303               	bcf	3,6	;RP1=0, select bank0
  2674  0EAB  082C               	movf	?___wmul+1,w
  2675  0EAC  1683               	bsf	3,5	;RP0=1, select bank3
  2676  0EAD  1703               	bsf	3,6	;RP1=1, select bank3
  2677  0EAE  009E               	movwf	(convert@mu+1)^(0+384)
  2678  0EAF  1283               	bcf	3,5	;RP0=0, select bank0
  2679  0EB0  1303               	bcf	3,6	;RP1=0, select bank0
  2680  0EB1  082B               	movf	?___wmul,w
  2681  0EB2  1683               	bsf	3,5	;RP0=1, select bank3
  2682  0EB3  1703               	bsf	3,6	;RP1=1, select bank3
  2683  0EB4  009D               	movwf	convert@mu^(0+384)
  2684  0EB5                     l3580:
  2685  0EB5  3001               	movlw	1
  2686  0EB6  0792               	addwf	convert@j^(0+384),f
  2687  0EB7  1803               	skipnc
  2688  0EB8  0A93               	incf	(convert@j+1)^(0+384),f
  2689  0EB9  3000               	movlw	0
  2690  0EBA  0793               	addwf	(convert@j+1)^(0+384),f
  2691  0EBB                     l3582:
  2692  0EBB  081C               	movf	(convert@digits+1)^(0+384),w
  2693  0EBC  3A80               	xorlw	128
  2694  0EBD  1283               	bcf	3,5	;RP0=0, select bank0
  2695  0EBE  1303               	bcf	3,6	;RP1=0, select bank0
  2696  0EBF  00E6               	movwf	??_convert
  2697  0EC0  1683               	bsf	3,5	;RP0=1, select bank3
  2698  0EC1  1703               	bsf	3,6	;RP1=1, select bank3
  2699  0EC2  0813               	movf	(convert@j+1)^(0+384),w
  2700  0EC3  3A80               	xorlw	128
  2701  0EC4  1283               	bcf	3,5	;RP0=0, select bank0
  2702  0EC5  1303               	bcf	3,6	;RP1=0, select bank0
  2703  0EC6  0266               	subwf	??_convert,w
  2704  0EC7  1D03               	skipz
  2705  0EC8  2ECD               	goto	u5515
  2706  0EC9  1683               	bsf	3,5	;RP0=1, select bank3
  2707  0ECA  1703               	bsf	3,6	;RP1=1, select bank3
  2708  0ECB  0812               	movf	convert@j^(0+384),w
  2709  0ECC  021B               	subwf	convert@digits^(0+384),w
  2710  0ECD                     u5515:
  2711  0ECD  1803               	skipnc
  2712  0ECE  2ED0               	goto	u5511
  2713  0ECF  2ED1               	goto	u5510
  2714  0ED0                     u5511:
  2715  0ED0  2E94               	goto	l3578
  2716  0ED1                     u5510:
  2717  0ED1                     l3584:
  2718                           
  2719                           ;Librerias.c: 131:          x=a/mu;
  2720  0ED1  1683               	bsf	3,5	;RP0=1, select bank3
  2721  0ED2  1703               	bsf	3,6	;RP1=1, select bank3
  2722  0ED3  081D               	movf	convert@mu^(0+384),w
  2723  0ED4  1283               	bcf	3,5	;RP0=0, select bank0
  2724  0ED5  1303               	bcf	3,6	;RP1=0, select bank0
  2725  0ED6  00B1               	movwf	___xxtofl@val
  2726  0ED7  1683               	bsf	3,5	;RP0=1, select bank3
  2727  0ED8  1703               	bsf	3,6	;RP1=1, select bank3
  2728  0ED9  081E               	movf	(convert@mu+1)^(0+384),w
  2729  0EDA  1283               	bcf	3,5	;RP0=0, select bank0
  2730  0EDB  1303               	bcf	3,6	;RP1=0, select bank0
  2731  0EDC  00B2               	movwf	___xxtofl@val+1
  2732  0EDD  3000               	movlw	0
  2733  0EDE  1BB2               	btfsc	___xxtofl@val+1,7
  2734  0EDF  30FF               	movlw	255
  2735  0EE0  00B3               	movwf	___xxtofl@val+2
  2736  0EE1  00B4               	movwf	___xxtofl@val+3
  2737  0EE2  3001               	movlw	1
  2738  0EE3  160A  118A  2567  120A  158A  	fcall	___xxtofl
  2739  0EE8  1283               	bcf	3,5	;RP0=0, select bank0
  2740  0EE9  1303               	bcf	3,6	;RP1=0, select bank0
  2741  0EEA  0834               	movf	?___xxtofl+3,w
  2742  0EEB  00C2               	movwf	___fldiv@a+3
  2743  0EEC  0833               	movf	?___xxtofl+2,w
  2744  0EED  00C1               	movwf	___fldiv@a+2
  2745  0EEE  0832               	movf	?___xxtofl+1,w
  2746  0EEF  00C0               	movwf	___fldiv@a+1
  2747  0EF0  0831               	movf	?___xxtofl,w
  2748  0EF1  00BF               	movwf	___fldiv@a
  2749  0EF2  1683               	bsf	3,5	;RP0=1, select bank1
  2750  0EF3  1303               	bcf	3,6	;RP1=0, select bank1
  2751  0EF4  0865               	movf	(convert@a+3)^(0+128),w
  2752  0EF5  1283               	bcf	3,5	;RP0=0, select bank0
  2753  0EF6  1303               	bcf	3,6	;RP1=0, select bank0
  2754  0EF7  00C6               	movwf	___fldiv@b+3
  2755  0EF8  1683               	bsf	3,5	;RP0=1, select bank1
  2756  0EF9  1303               	bcf	3,6	;RP1=0, select bank1
  2757  0EFA  0864               	movf	(convert@a+2)^(0+128),w
  2758  0EFB  1283               	bcf	3,5	;RP0=0, select bank0
  2759  0EFC  1303               	bcf	3,6	;RP1=0, select bank0
  2760  0EFD  00C5               	movwf	___fldiv@b+2
  2761  0EFE  1683               	bsf	3,5	;RP0=1, select bank1
  2762  0EFF  1303               	bcf	3,6	;RP1=0, select bank1
  2763  0F00  0863               	movf	(convert@a+1)^(0+128),w
  2764  0F01  1283               	bcf	3,5	;RP0=0, select bank0
  2765  0F02  1303               	bcf	3,6	;RP1=0, select bank0
  2766  0F03  00C4               	movwf	___fldiv@b+1
  2767  0F04  1683               	bsf	3,5	;RP0=1, select bank1
  2768  0F05  1303               	bcf	3,6	;RP1=0, select bank1
  2769  0F06  0862               	movf	convert@a^(0+128),w
  2770  0F07  1283               	bcf	3,5	;RP0=0, select bank0
  2771  0F08  1303               	bcf	3,6	;RP1=0, select bank0
  2772  0F09  00C3               	movwf	___fldiv@b
  2773  0F0A  160A  118A  2623  120A  158A  	fcall	___fldiv
  2774  0F0F  1283               	bcf	3,5	;RP0=0, select bank0
  2775  0F10  1303               	bcf	3,6	;RP1=0, select bank0
  2776  0F11  0842               	movf	?___fldiv+3,w
  2777  0F12  1683               	bsf	3,5	;RP0=1, select bank3
  2778  0F13  1703               	bsf	3,6	;RP1=1, select bank3
  2779  0F14  0098               	movwf	(convert@x+3)^(0+384)
  2780  0F15  1283               	bcf	3,5	;RP0=0, select bank0
  2781  0F16  1303               	bcf	3,6	;RP1=0, select bank0
  2782  0F17  0841               	movf	?___fldiv+2,w
  2783  0F18  1683               	bsf	3,5	;RP0=1, select bank3
  2784  0F19  1703               	bsf	3,6	;RP1=1, select bank3
  2785  0F1A  0097               	movwf	(convert@x+2)^(0+384)
  2786  0F1B  1283               	bcf	3,5	;RP0=0, select bank0
  2787  0F1C  1303               	bcf	3,6	;RP1=0, select bank0
  2788  0F1D  0840               	movf	?___fldiv+1,w
  2789  0F1E  1683               	bsf	3,5	;RP0=1, select bank3
  2790  0F1F  1703               	bsf	3,6	;RP1=1, select bank3
  2791  0F20  0096               	movwf	(convert@x+1)^(0+384)
  2792  0F21  1283               	bcf	3,5	;RP0=0, select bank0
  2793  0F22  1303               	bcf	3,6	;RP1=0, select bank0
  2794  0F23  083F               	movf	?___fldiv,w
  2795  0F24  1683               	bsf	3,5	;RP0=1, select bank3
  2796  0F25  1703               	bsf	3,6	;RP1=1, select bank3
  2797  0F26  0095               	movwf	convert@x^(0+384)
  2798                           
  2799                           ;Librerias.c: 132:          a=a-((int)x*mu);
  2800  0F27  081E               	movf	(convert@mu+1)^(0+384),w
  2801  0F28  1283               	bcf	3,5	;RP0=0, select bank0
  2802  0F29  1303               	bcf	3,6	;RP1=0, select bank0
  2803  0F2A  00AE               	movwf	___wmul@multiplicand+1
  2804  0F2B  1683               	bsf	3,5	;RP0=1, select bank3
  2805  0F2C  1703               	bsf	3,6	;RP1=1, select bank3
  2806  0F2D  081D               	movf	convert@mu^(0+384),w
  2807  0F2E  1283               	bcf	3,5	;RP0=0, select bank0
  2808  0F2F  1303               	bcf	3,6	;RP1=0, select bank0
  2809  0F30  00AD               	movwf	___wmul@multiplicand
  2810  0F31  1683               	bsf	3,5	;RP0=1, select bank3
  2811  0F32  1703               	bsf	3,6	;RP1=1, select bank3
  2812  0F33  0818               	movf	(convert@x+3)^(0+384),w
  2813  0F34  1283               	bcf	3,5	;RP0=0, select bank0
  2814  0F35  1303               	bcf	3,6	;RP1=0, select bank0
  2815  0F36  00A3               	movwf	___fltol@f1+3
  2816  0F37  1683               	bsf	3,5	;RP0=1, select bank3
  2817  0F38  1703               	bsf	3,6	;RP1=1, select bank3
  2818  0F39  0817               	movf	(convert@x+2)^(0+384),w
  2819  0F3A  1283               	bcf	3,5	;RP0=0, select bank0
  2820  0F3B  1303               	bcf	3,6	;RP1=0, select bank0
  2821  0F3C  00A2               	movwf	___fltol@f1+2
  2822  0F3D  1683               	bsf	3,5	;RP0=1, select bank3
  2823  0F3E  1703               	bsf	3,6	;RP1=1, select bank3
  2824  0F3F  0816               	movf	(convert@x+1)^(0+384),w
  2825  0F40  1283               	bcf	3,5	;RP0=0, select bank0
  2826  0F41  1303               	bcf	3,6	;RP1=0, select bank0
  2827  0F42  00A1               	movwf	___fltol@f1+1
  2828  0F43  1683               	bsf	3,5	;RP0=1, select bank3
  2829  0F44  1703               	bsf	3,6	;RP1=1, select bank3
  2830  0F45  0815               	movf	convert@x^(0+384),w
  2831  0F46  1283               	bcf	3,5	;RP0=0, select bank0
  2832  0F47  1303               	bcf	3,6	;RP1=0, select bank0
  2833  0F48  00A0               	movwf	___fltol@f1
  2834  0F49  120A  118A  2769  120A  158A  	fcall	___fltol
  2835  0F4E  1283               	bcf	3,5	;RP0=0, select bank0
  2836  0F4F  1303               	bcf	3,6	;RP1=0, select bank0
  2837  0F50  0821               	movf	?___fltol+1,w
  2838  0F51  00AC               	movwf	___wmul@multiplier+1
  2839  0F52  0820               	movf	?___fltol,w
  2840  0F53  00AB               	movwf	___wmul@multiplier
  2841  0F54  160A  118A  234E  120A  158A  	fcall	___wmul
  2842  0F59  1283               	bcf	3,5	;RP0=0, select bank0
  2843  0F5A  1303               	bcf	3,6	;RP1=0, select bank0
  2844  0F5B  082B               	movf	?___wmul,w
  2845  0F5C  00B1               	movwf	___xxtofl@val
  2846  0F5D  082C               	movf	?___wmul+1,w
  2847  0F5E  00B2               	movwf	___xxtofl@val+1
  2848  0F5F  3000               	movlw	0
  2849  0F60  1BB2               	btfsc	___xxtofl@val+1,7
  2850  0F61  30FF               	movlw	255
  2851  0F62  00B3               	movwf	___xxtofl@val+2
  2852  0F63  00B4               	movwf	___xxtofl@val+3
  2853  0F64  3001               	movlw	1
  2854  0F65  160A  118A  2567  120A  158A  	fcall	___xxtofl
  2855  0F6A  1283               	bcf	3,5	;RP0=0, select bank0
  2856  0F6B  1303               	bcf	3,6	;RP1=0, select bank0
  2857  0F6C  0834               	movf	?___xxtofl+3,w
  2858  0F6D  00C2               	movwf	___flsub@a+3
  2859  0F6E  0833               	movf	?___xxtofl+2,w
  2860  0F6F  00C1               	movwf	___flsub@a+2
  2861  0F70  0832               	movf	?___xxtofl+1,w
  2862  0F71  00C0               	movwf	___flsub@a+1
  2863  0F72  0831               	movf	?___xxtofl,w
  2864  0F73  00BF               	movwf	___flsub@a
  2865  0F74  1683               	bsf	3,5	;RP0=1, select bank1
  2866  0F75  1303               	bcf	3,6	;RP1=0, select bank1
  2867  0F76  0865               	movf	(convert@a+3)^(0+128),w
  2868  0F77  1283               	bcf	3,5	;RP0=0, select bank0
  2869  0F78  1303               	bcf	3,6	;RP1=0, select bank0
  2870  0F79  00C6               	movwf	___flsub@b+3
  2871  0F7A  1683               	bsf	3,5	;RP0=1, select bank1
  2872  0F7B  1303               	bcf	3,6	;RP1=0, select bank1
  2873  0F7C  0864               	movf	(convert@a+2)^(0+128),w
  2874  0F7D  1283               	bcf	3,5	;RP0=0, select bank0
  2875  0F7E  1303               	bcf	3,6	;RP1=0, select bank0
  2876  0F7F  00C5               	movwf	___flsub@b+2
  2877  0F80  1683               	bsf	3,5	;RP0=1, select bank1
  2878  0F81  1303               	bcf	3,6	;RP1=0, select bank1
  2879  0F82  0863               	movf	(convert@a+1)^(0+128),w
  2880  0F83  1283               	bcf	3,5	;RP0=0, select bank0
  2881  0F84  1303               	bcf	3,6	;RP1=0, select bank0
  2882  0F85  00C4               	movwf	___flsub@b+1
  2883  0F86  1683               	bsf	3,5	;RP0=1, select bank1
  2884  0F87  1303               	bcf	3,6	;RP1=0, select bank1
  2885  0F88  0862               	movf	convert@a^(0+128),w
  2886  0F89  1283               	bcf	3,5	;RP0=0, select bank0
  2887  0F8A  1303               	bcf	3,6	;RP1=0, select bank0
  2888  0F8B  00C3               	movwf	___flsub@b
  2889  0F8C  160A  118A  2304  120A  158A  	fcall	___flsub
  2890  0F91  1283               	bcf	3,5	;RP0=0, select bank0
  2891  0F92  1303               	bcf	3,6	;RP1=0, select bank0
  2892  0F93  0842               	movf	?___flsub+3,w
  2893  0F94  1683               	bsf	3,5	;RP0=1, select bank1
  2894  0F95  1303               	bcf	3,6	;RP1=0, select bank1
  2895  0F96  00E5               	movwf	(convert@a+3)^(0+128)
  2896  0F97  1283               	bcf	3,5	;RP0=0, select bank0
  2897  0F98  1303               	bcf	3,6	;RP1=0, select bank0
  2898  0F99  0841               	movf	?___flsub+2,w
  2899  0F9A  1683               	bsf	3,5	;RP0=1, select bank1
  2900  0F9B  1303               	bcf	3,6	;RP1=0, select bank1
  2901  0F9C  00E4               	movwf	(convert@a+2)^(0+128)
  2902  0F9D  1283               	bcf	3,5	;RP0=0, select bank0
  2903  0F9E  1303               	bcf	3,6	;RP1=0, select bank0
  2904  0F9F  0840               	movf	?___flsub+1,w
  2905  0FA0  1683               	bsf	3,5	;RP0=1, select bank1
  2906  0FA1  1303               	bcf	3,6	;RP1=0, select bank1
  2907  0FA2  00E3               	movwf	(convert@a+1)^(0+128)
  2908  0FA3  1283               	bcf	3,5	;RP0=0, select bank0
  2909  0FA4  1303               	bcf	3,6	;RP1=0, select bank0
  2910  0FA5  083F               	movf	?___flsub,w
  2911  0FA6  1683               	bsf	3,5	;RP0=1, select bank1
  2912  0FA7  1303               	bcf	3,6	;RP1=0, select bank1
  2913  0FA8  00E2               	movwf	convert@a^(0+128)
  2914  0FA9                     l3586:
  2915                           
  2916                           ;Librerias.c: 133:          data[i]=0x30+((int)x);
  2917  0FA9  1683               	bsf	3,5	;RP0=1, select bank3
  2918  0FAA  1703               	bsf	3,6	;RP1=1, select bank3
  2919  0FAB  0818               	movf	(convert@x+3)^(0+384),w
  2920  0FAC  1283               	bcf	3,5	;RP0=0, select bank0
  2921  0FAD  1303               	bcf	3,6	;RP1=0, select bank0
  2922  0FAE  00A3               	movwf	___fltol@f1+3
  2923  0FAF  1683               	bsf	3,5	;RP0=1, select bank3
  2924  0FB0  1703               	bsf	3,6	;RP1=1, select bank3
  2925  0FB1  0817               	movf	(convert@x+2)^(0+384),w
  2926  0FB2  1283               	bcf	3,5	;RP0=0, select bank0
  2927  0FB3  1303               	bcf	3,6	;RP1=0, select bank0
  2928  0FB4  00A2               	movwf	___fltol@f1+2
  2929  0FB5  1683               	bsf	3,5	;RP0=1, select bank3
  2930  0FB6  1703               	bsf	3,6	;RP1=1, select bank3
  2931  0FB7  0816               	movf	(convert@x+1)^(0+384),w
  2932  0FB8  1283               	bcf	3,5	;RP0=0, select bank0
  2933  0FB9  1303               	bcf	3,6	;RP1=0, select bank0
  2934  0FBA  00A1               	movwf	___fltol@f1+1
  2935  0FBB  1683               	bsf	3,5	;RP0=1, select bank3
  2936  0FBC  1703               	bsf	3,6	;RP1=1, select bank3
  2937  0FBD  0815               	movf	convert@x^(0+384),w
  2938  0FBE  1283               	bcf	3,5	;RP0=0, select bank0
  2939  0FBF  1303               	bcf	3,6	;RP1=0, select bank0
  2940  0FC0  00A0               	movwf	___fltol@f1
  2941  0FC1  120A  118A  2769  120A  158A  	fcall	___fltol
  2942  0FC6  1283               	bcf	3,5	;RP0=0, select bank0
  2943  0FC7  1303               	bcf	3,6	;RP1=0, select bank0
  2944  0FC8  0820               	movf	?___fltol,w
  2945  0FC9  3E30               	addlw	48
  2946  0FCA  00E6               	movwf	??_convert
  2947  0FCB  1683               	bsf	3,5	;RP0=1, select bank3
  2948  0FCC  1703               	bsf	3,6	;RP1=1, select bank3
  2949  0FCD  0819               	movf	convert@i^(0+384),w
  2950  0FCE  0714               	addwf	convert@data^(0+384),w
  2951  0FCF  1283               	bcf	3,5	;RP0=0, select bank0
  2952  0FD0  1303               	bcf	3,6	;RP1=0, select bank0
  2953  0FD1  00E7               	movwf	??_convert+1
  2954  0FD2  0867               	movf	??_convert+1,w
  2955  0FD3  0084               	movwf	4
  2956  0FD4  0866               	movf	??_convert,w
  2957  0FD5  1383               	bcf	3,7	;select IRP bank0
  2958  0FD6  0080               	movwf	0
  2959  0FD7                     l3588:
  2960                           
  2961                           ;Librerias.c: 134:          i++;
  2962  0FD7  3001               	movlw	1
  2963  0FD8  1683               	bsf	3,5	;RP0=1, select bank3
  2964  0FD9  1703               	bsf	3,6	;RP1=1, select bank3
  2965  0FDA  0799               	addwf	convert@i^(0+384),f
  2966  0FDB  1803               	skipnc
  2967  0FDC  0A9A               	incf	(convert@i+1)^(0+384),f
  2968  0FDD  3000               	movlw	0
  2969  0FDE  079A               	addwf	(convert@i+1)^(0+384),f
  2970  0FDF                     l3590:
  2971                           
  2972                           ;Librerias.c: 135:          digits--;
  2973  0FDF  30FF               	movlw	255
  2974  0FE0  079B               	addwf	convert@digits^(0+384),f
  2975  0FE1  1803               	skipnc
  2976  0FE2  0A9C               	incf	(convert@digits+1)^(0+384),f
  2977  0FE3  30FF               	movlw	255
  2978  0FE4  079C               	addwf	(convert@digits+1)^(0+384),f
  2979  0FE5                     l3592:
  2980                           
  2981                           ;Librerias.c: 136:          mu=1;
  2982  0FE5  3001               	movlw	1
  2983  0FE6  009D               	movwf	convert@mu^(0+384)
  2984  0FE7  3000               	movlw	0
  2985  0FE8  009E               	movwf	(convert@mu^(0+384)+1)
  2986  0FE9                     l3594:
  2987                           
  2988                           ;Librerias.c: 126:      while(digits!=0)
  2989  0FE9  081B               	movf	convert@digits^(0+384),w
  2990  0FEA  041C               	iorwf	(convert@digits+1)^(0+384),w
  2991  0FEB  1D03               	btfss	3,2
  2992  0FEC  2FEE               	goto	u5521
  2993  0FED  2FEF               	goto	u5520
  2994  0FEE                     u5521:
  2995  0FEE  2E84               	goto	l3572
  2996  0FEF                     u5520:
  2997  0FEF                     l3596:
  2998                           
  2999                           ;Librerias.c: 139:     data[i]='\n';
  3000  0FEF  300A               	movlw	10
  3001  0FF0  1283               	bcf	3,5	;RP0=0, select bank0
  3002  0FF1  1303               	bcf	3,6	;RP1=0, select bank0
  3003  0FF2  00E6               	movwf	??_convert
  3004  0FF3  1683               	bsf	3,5	;RP0=1, select bank3
  3005  0FF4  1703               	bsf	3,6	;RP1=1, select bank3
  3006  0FF5  0819               	movf	convert@i^(0+384),w
  3007  0FF6  0714               	addwf	convert@data^(0+384),w
  3008  0FF7  1283               	bcf	3,5	;RP0=0, select bank0
  3009  0FF8  1303               	bcf	3,6	;RP1=0, select bank0
  3010  0FF9  00E7               	movwf	??_convert+1
  3011  0FFA  0867               	movf	??_convert+1,w
  3012  0FFB  0084               	movwf	4
  3013  0FFC  0866               	movf	??_convert,w
  3014  0FFD  1383               	bcf	3,7	;select IRP bank0
  3015  0FFE  0080               	movwf	0
  3016  0FFF                     l184:
  3017  0FFF  0008               	return
  3018  1000                     __end_of_convert:
  3019                           
  3020                           	psect	text3
  3021  1567                     __ptext3:	
  3022 ;; *************** function ___xxtofl *****************
  3023 ;; Defined at:
  3024 ;;		line 10 in file "C:\Program Files\Microchip\xc8\v2.31\pic\sources\c90\common\xxtofl.c"
  3025 ;; Parameters:    Size  Location     Type
  3026 ;;  sign            1    wreg     unsigned char 
  3027 ;;  val             4   17[BANK0 ] long 
  3028 ;; Auto vars:     Size  Location     Type
  3029 ;;  sign            1   25[BANK0 ] unsigned char 
  3030 ;;  arg             4   27[BANK0 ] unsigned long 
  3031 ;;  exp             1   26[BANK0 ] unsigned char 
  3032 ;; Return value:  Size  Location     Type
  3033 ;;                  4   17[BANK0 ] unsigned char 
  3034 ;; Registers used:
  3035 ;;		wreg, status,2, status,0
  3036 ;; Tracked objects:
  3037 ;;		On entry : 0/0
  3038 ;;		On exit  : 0/0
  3039 ;;		Unchanged: 0/0
  3040 ;; Data sizes:     COMMON   BANK0   BANK1   BANK3   BANK2
  3041 ;;      Params:         0       4       0       0       0
  3042 ;;      Locals:         0       6       0       0       0
  3043 ;;      Temps:          0       4       0       0       0
  3044 ;;      Totals:         0      14       0       0       0
  3045 ;;Total ram usage:       14 bytes
  3046 ;; Hardware stack levels used:    1
  3047 ;; Hardware stack levels required when called:    1
  3048 ;; This function calls:
  3049 ;;		Nothing
  3050 ;; This function is called by:
  3051 ;;		_main
  3052 ;;		_convert
  3053 ;; This function uses a non-reentrant model
  3054 ;;
  3055                           
  3056                           
  3057                           ;psect for function ___xxtofl
  3058  1567                     ___xxtofl:
  3059                           
  3060                           ;incstack = 0
  3061                           ; Regs used in ___xxtofl: [wreg+status,2+status,0]
  3062                           ;___xxtofl@sign stored from wreg
  3063  1567  1283               	bcf	3,5	;RP0=0, select bank0
  3064  1568  1303               	bcf	3,6	;RP1=0, select bank0
  3065  1569  00B9               	movwf	___xxtofl@sign
  3066  156A                     l3364:
  3067  156A  0839               	movf	___xxtofl@sign,w
  3068  156B  1903               	btfsc	3,2
  3069  156C  2D6E               	goto	u5251
  3070  156D  2D6F               	goto	u5250
  3071  156E                     u5251:
  3072  156E  2D83               	goto	l3370
  3073  156F                     u5250:
  3074  156F                     l3366:
  3075  156F  1FB4               	btfss	___xxtofl@val+3,7
  3076  1570  2D72               	goto	u5261
  3077  1571  2D73               	goto	u5260
  3078  1572                     u5261:
  3079  1572  2D83               	goto	l3370
  3080  1573                     u5260:
  3081  1573                     l3368:
  3082  1573  0931               	comf	___xxtofl@val,w
  3083  1574  00BB               	movwf	___xxtofl@arg
  3084  1575  0932               	comf	___xxtofl@val+1,w
  3085  1576  00BC               	movwf	___xxtofl@arg+1
  3086  1577  0933               	comf	___xxtofl@val+2,w
  3087  1578  00BD               	movwf	___xxtofl@arg+2
  3088  1579  0934               	comf	___xxtofl@val+3,w
  3089  157A  00BE               	movwf	___xxtofl@arg+3
  3090  157B  0ABB               	incf	___xxtofl@arg,f
  3091  157C  1903               	skipnz
  3092  157D  0ABC               	incf	___xxtofl@arg+1,f
  3093  157E  1903               	skipnz
  3094  157F  0ABD               	incf	___xxtofl@arg+2,f
  3095  1580  1903               	skipnz
  3096  1581  0ABE               	incf	___xxtofl@arg+3,f
  3097  1582  2D8B               	goto	l703
  3098  1583                     l3370:
  3099  1583  0834               	movf	___xxtofl@val+3,w
  3100  1584  00BE               	movwf	___xxtofl@arg+3
  3101  1585  0833               	movf	___xxtofl@val+2,w
  3102  1586  00BD               	movwf	___xxtofl@arg+2
  3103  1587  0832               	movf	___xxtofl@val+1,w
  3104  1588  00BC               	movwf	___xxtofl@arg+1
  3105  1589  0831               	movf	___xxtofl@val,w
  3106  158A  00BB               	movwf	___xxtofl@arg
  3107  158B                     l703:
  3108  158B  0834               	movf	___xxtofl@val+3,w
  3109  158C  0433               	iorwf	___xxtofl@val+2,w
  3110  158D  0432               	iorwf	___xxtofl@val+1,w
  3111  158E  0431               	iorwf	___xxtofl@val,w
  3112  158F  1D03               	skipz
  3113  1590  2D92               	goto	u5271
  3114  1591  2D93               	goto	u5270
  3115  1592                     u5271:
  3116  1592  2D9C               	goto	l3376
  3117  1593                     u5270:
  3118  1593                     l3372:
  3119  1593  3000               	movlw	0
  3120  1594  00B4               	movwf	?___xxtofl+3
  3121  1595  3000               	movlw	0
  3122  1596  00B3               	movwf	?___xxtofl+2
  3123  1597  3000               	movlw	0
  3124  1598  00B2               	movwf	?___xxtofl+1
  3125  1599  3000               	movlw	0
  3126  159A  00B1               	movwf	?___xxtofl
  3127  159B  2E22               	goto	l705
  3128  159C                     l3376:
  3129  159C  3096               	movlw	150
  3130  159D  00B5               	movwf	??___xxtofl
  3131  159E  0835               	movf	??___xxtofl,w
  3132  159F  00BA               	movwf	___xxtofl@exp
  3133  15A0  2DAE               	goto	l3380
  3134  15A1                     l3378:
  3135  15A1  3001               	movlw	1
  3136  15A2  00B5               	movwf	??___xxtofl
  3137  15A3  0835               	movf	??___xxtofl,w
  3138  15A4  07BA               	addwf	___xxtofl@exp,f
  3139  15A5  3001               	movlw	1
  3140  15A6                     u5285:
  3141  15A6  1003               	clrc
  3142  15A7  0CBE               	rrf	___xxtofl@arg+3,f
  3143  15A8  0CBD               	rrf	___xxtofl@arg+2,f
  3144  15A9  0CBC               	rrf	___xxtofl@arg+1,f
  3145  15AA  0CBB               	rrf	___xxtofl@arg,f
  3146  15AB  3EFF               	addlw	-1
  3147  15AC  1D03               	skipz
  3148  15AD  2DA6               	goto	u5285
  3149  15AE                     l3380:
  3150  15AE  30FE               	movlw	254
  3151  15AF  053E               	andwf	___xxtofl@arg+3,w
  3152  15B0  1D03               	btfss	3,2
  3153  15B1  2DB3               	goto	u5291
  3154  15B2  2DB4               	goto	u5290
  3155  15B3                     u5291:
  3156  15B3  2DA1               	goto	l3378
  3157  15B4                     u5290:
  3158  15B4  2DD0               	goto	l709
  3159  15B5                     l3382:
  3160  15B5  3001               	movlw	1
  3161  15B6  00B5               	movwf	??___xxtofl
  3162  15B7  0835               	movf	??___xxtofl,w
  3163  15B8  07BA               	addwf	___xxtofl@exp,f
  3164  15B9                     l3384:
  3165  15B9  3001               	movlw	1
  3166  15BA  07BB               	addwf	___xxtofl@arg,f
  3167  15BB  3000               	movlw	0
  3168  15BC  1803               	skipnc
  3169  15BD  3001               	movlw	1
  3170  15BE  07BC               	addwf	___xxtofl@arg+1,f
  3171  15BF  3000               	movlw	0
  3172  15C0  1803               	skipnc
  3173  15C1  3001               	movlw	1
  3174  15C2  07BD               	addwf	___xxtofl@arg+2,f
  3175  15C3  3000               	movlw	0
  3176  15C4  1803               	skipnc
  3177  15C5  3001               	movlw	1
  3178  15C6  07BE               	addwf	___xxtofl@arg+3,f
  3179  15C7                     l3386:
  3180  15C7  3001               	movlw	1
  3181  15C8                     u5305:
  3182  15C8  1003               	clrc
  3183  15C9  0CBE               	rrf	___xxtofl@arg+3,f
  3184  15CA  0CBD               	rrf	___xxtofl@arg+2,f
  3185  15CB  0CBC               	rrf	___xxtofl@arg+1,f
  3186  15CC  0CBB               	rrf	___xxtofl@arg,f
  3187  15CD  3EFF               	addlw	-1
  3188  15CE  1D03               	skipz
  3189  15CF  2DC8               	goto	u5305
  3190  15D0                     l709:
  3191  15D0  30FF               	movlw	255
  3192  15D1  053E               	andwf	___xxtofl@arg+3,w
  3193  15D2  1D03               	btfss	3,2
  3194  15D3  2DD5               	goto	u5311
  3195  15D4  2DD6               	goto	u5310
  3196  15D5                     u5311:
  3197  15D5  2DB5               	goto	l3382
  3198  15D6                     u5310:
  3199  15D6  2DE2               	goto	l3390
  3200  15D7                     l3388:
  3201  15D7  3001               	movlw	1
  3202  15D8  02BA               	subwf	___xxtofl@exp,f
  3203  15D9  3001               	movlw	1
  3204  15DA  00B5               	movwf	??___xxtofl
  3205  15DB                     u5325:
  3206  15DB  1003               	clrc
  3207  15DC  0DBB               	rlf	___xxtofl@arg,f
  3208  15DD  0DBC               	rlf	___xxtofl@arg+1,f
  3209  15DE  0DBD               	rlf	___xxtofl@arg+2,f
  3210  15DF  0DBE               	rlf	___xxtofl@arg+3,f
  3211  15E0  0BB5               	decfsz	??___xxtofl,f
  3212  15E1  2DDB               	goto	u5325
  3213  15E2                     l3390:
  3214  15E2  1BBD               	btfsc	___xxtofl@arg+2,7
  3215  15E3  2DE5               	goto	u5331
  3216  15E4  2DE6               	goto	u5330
  3217  15E5                     u5331:
  3218  15E5  2DEC               	goto	l716
  3219  15E6                     u5330:
  3220  15E6                     l3392:
  3221  15E6  3002               	movlw	2
  3222  15E7  023A               	subwf	___xxtofl@exp,w
  3223  15E8  1803               	skipnc
  3224  15E9  2DEB               	goto	u5341
  3225  15EA  2DEC               	goto	u5340
  3226  15EB                     u5341:
  3227  15EB  2DD7               	goto	l3388
  3228  15EC                     u5340:
  3229  15EC                     l716:
  3230  15EC  183A               	btfsc	___xxtofl@exp,0
  3231  15ED  2DEF               	goto	u5351
  3232  15EE  2DF0               	goto	u5350
  3233  15EF                     u5351:
  3234  15EF  2DF8               	goto	l717
  3235  15F0                     u5350:
  3236  15F0                     l3394:
  3237  15F0  30FF               	movlw	255
  3238  15F1  05BB               	andwf	___xxtofl@arg,f
  3239  15F2  30FF               	movlw	255
  3240  15F3  05BC               	andwf	___xxtofl@arg+1,f
  3241  15F4  307F               	movlw	127
  3242  15F5  05BD               	andwf	___xxtofl@arg+2,f
  3243  15F6  30FF               	movlw	255
  3244  15F7  05BE               	andwf	___xxtofl@arg+3,f
  3245  15F8                     l717:
  3246  15F8  1003               	clrc
  3247  15F9  0CBA               	rrf	___xxtofl@exp,f
  3248  15FA                     l3396:
  3249  15FA  083A               	movf	___xxtofl@exp,w
  3250  15FB  00B5               	movwf	??___xxtofl
  3251  15FC  01B6               	clrf	??___xxtofl+1
  3252  15FD  01B7               	clrf	??___xxtofl+2
  3253  15FE  01B8               	clrf	??___xxtofl+3
  3254  15FF  3018               	movlw	24
  3255  1600                     u5365:
  3256  1600  1003               	clrc
  3257  1601  0DB5               	rlf	??___xxtofl,f
  3258  1602  0DB6               	rlf	??___xxtofl+1,f
  3259  1603  0DB7               	rlf	??___xxtofl+2,f
  3260  1604  0DB8               	rlf	??___xxtofl+3,f
  3261  1605                     u5360:
  3262  1605  3EFF               	addlw	-1
  3263  1606  1D03               	skipz
  3264  1607  2E00               	goto	u5365
  3265  1608  0835               	movf	??___xxtofl,w
  3266  1609  04BB               	iorwf	___xxtofl@arg,f
  3267  160A  0836               	movf	??___xxtofl+1,w
  3268  160B  04BC               	iorwf	___xxtofl@arg+1,f
  3269  160C  0837               	movf	??___xxtofl+2,w
  3270  160D  04BD               	iorwf	___xxtofl@arg+2,f
  3271  160E  0838               	movf	??___xxtofl+3,w
  3272  160F  04BE               	iorwf	___xxtofl@arg+3,f
  3273  1610                     l3398:
  3274  1610  0839               	movf	___xxtofl@sign,w
  3275  1611  1903               	btfsc	3,2
  3276  1612  2E14               	goto	u5371
  3277  1613  2E15               	goto	u5370
  3278  1614                     u5371:
  3279  1614  2E1A               	goto	l3404
  3280  1615                     u5370:
  3281  1615                     l3400:
  3282  1615  1FB4               	btfss	___xxtofl@val+3,7
  3283  1616  2E18               	goto	u5381
  3284  1617  2E19               	goto	u5380
  3285  1618                     u5381:
  3286  1618  2E1A               	goto	l3404
  3287  1619                     u5380:
  3288  1619                     l3402:
  3289  1619  17BE               	bsf	___xxtofl@arg+3,7
  3290  161A                     l3404:
  3291  161A  083E               	movf	___xxtofl@arg+3,w
  3292  161B  00B4               	movwf	?___xxtofl+3
  3293  161C  083D               	movf	___xxtofl@arg+2,w
  3294  161D  00B3               	movwf	?___xxtofl+2
  3295  161E  083C               	movf	___xxtofl@arg+1,w
  3296  161F  00B2               	movwf	?___xxtofl+1
  3297  1620  083B               	movf	___xxtofl@arg,w
  3298  1621  00B1               	movwf	?___xxtofl
  3299  1622                     l705:
  3300  1622  0008               	return
  3301  1623                     __end_of___xxtofl:
  3302                           
  3303                           	psect	text4
  3304  134E                     __ptext4:	
  3305 ;; *************** function ___wmul *****************
  3306 ;; Defined at:
  3307 ;;		line 15 in file "C:\Program Files\Microchip\xc8\v2.31\pic\sources\c90\common\Umul16.c"
  3308 ;; Parameters:    Size  Location     Type
  3309 ;;  multiplier      2   11[BANK0 ] unsigned int 
  3310 ;;  multiplicand    2   13[BANK0 ] unsigned int 
  3311 ;; Auto vars:     Size  Location     Type
  3312 ;;  product         2   15[BANK0 ] unsigned int 
  3313 ;; Return value:  Size  Location     Type
  3314 ;;                  2   11[BANK0 ] unsigned int 
  3315 ;; Registers used:
  3316 ;;		wreg, status,2, status,0
  3317 ;; Tracked objects:
  3318 ;;		On entry : 0/0
  3319 ;;		On exit  : 0/0
  3320 ;;		Unchanged: 0/0
  3321 ;; Data sizes:     COMMON   BANK0   BANK1   BANK3   BANK2
  3322 ;;      Params:         0       4       0       0       0
  3323 ;;      Locals:         0       2       0       0       0
  3324 ;;      Temps:          0       0       0       0       0
  3325 ;;      Totals:         0       6       0       0       0
  3326 ;;Total ram usage:        6 bytes
  3327 ;; Hardware stack levels used:    1
  3328 ;; Hardware stack levels required when called:    1
  3329 ;; This function calls:
  3330 ;;		Nothing
  3331 ;; This function is called by:
  3332 ;;		_convert
  3333 ;; This function uses a non-reentrant model
  3334 ;;
  3335                           
  3336                           
  3337                           ;psect for function ___wmul
  3338  134E                     ___wmul:
  3339  134E                     l2962:	
  3340                           ;incstack = 0
  3341                           ; Regs used in ___wmul: [wreg+status,2+status,0]
  3342                           
  3343  134E  1283               	bcf	3,5	;RP0=0, select bank0
  3344  134F  1303               	bcf	3,6	;RP1=0, select bank0
  3345  1350  01AF               	clrf	___wmul@product
  3346  1351  01B0               	clrf	___wmul@product+1
  3347  1352                     l2964:
  3348  1352  1C2B               	btfss	___wmul@multiplier,0
  3349  1353  2B55               	goto	u4281
  3350  1354  2B56               	goto	u4280
  3351  1355                     u4281:
  3352  1355  2B5C               	goto	l270
  3353  1356                     u4280:
  3354  1356                     l2966:
  3355  1356  082D               	movf	___wmul@multiplicand,w
  3356  1357  07AF               	addwf	___wmul@product,f
  3357  1358  1803               	skipnc
  3358  1359  0AB0               	incf	___wmul@product+1,f
  3359  135A  082E               	movf	___wmul@multiplicand+1,w
  3360  135B  07B0               	addwf	___wmul@product+1,f
  3361  135C                     l270:
  3362  135C  3001               	movlw	1
  3363  135D                     u4295:
  3364  135D  1003               	clrc
  3365  135E  0DAD               	rlf	___wmul@multiplicand,f
  3366  135F  0DAE               	rlf	___wmul@multiplicand+1,f
  3367  1360  3EFF               	addlw	-1
  3368  1361  1D03               	skipz
  3369  1362  2B5D               	goto	u4295
  3370  1363                     l2968:
  3371  1363  3001               	movlw	1
  3372  1364                     u4305:
  3373  1364  1003               	clrc
  3374  1365  0CAC               	rrf	___wmul@multiplier+1,f
  3375  1366  0CAB               	rrf	___wmul@multiplier,f
  3376  1367  3EFF               	addlw	-1
  3377  1368  1D03               	skipz
  3378  1369  2B64               	goto	u4305
  3379  136A                     l2970:
  3380  136A  082B               	movf	___wmul@multiplier,w
  3381  136B  042C               	iorwf	___wmul@multiplier+1,w
  3382  136C  1D03               	btfss	3,2
  3383  136D  2B6F               	goto	u4311
  3384  136E  2B70               	goto	u4310
  3385  136F                     u4311:
  3386  136F  2B52               	goto	l2964
  3387  1370                     u4310:
  3388  1370                     l2972:
  3389  1370  0830               	movf	___wmul@product+1,w
  3390  1371  00AC               	movwf	?___wmul+1
  3391  1372  082F               	movf	___wmul@product,w
  3392  1373  00AB               	movwf	?___wmul
  3393  1374                     l272:
  3394  1374  0008               	return
  3395  1375                     __end_of___wmul:
  3396                           
  3397                           	psect	text5
  3398  0769                     __ptext5:	
  3399 ;; *************** function ___fltol *****************
  3400 ;; Defined at:
  3401 ;;		line 43 in file "C:\Program Files\Microchip\xc8\v2.31\pic\sources\c90\common\fltol.c"
  3402 ;; Parameters:    Size  Location     Type
  3403 ;;  f1              4    0[BANK0 ] unsigned int 
  3404 ;; Auto vars:     Size  Location     Type
  3405 ;;  exp1            1   10[BANK0 ] unsigned char 
  3406 ;;  sign1           1    9[BANK0 ] unsigned char 
  3407 ;; Return value:  Size  Location     Type
  3408 ;;                  4    0[BANK0 ] long 
  3409 ;; Registers used:
  3410 ;;		wreg, status,2, status,0
  3411 ;; Tracked objects:
  3412 ;;		On entry : 0/0
  3413 ;;		On exit  : 0/0
  3414 ;;		Unchanged: 0/0
  3415 ;; Data sizes:     COMMON   BANK0   BANK1   BANK3   BANK2
  3416 ;;      Params:         0       4       0       0       0
  3417 ;;      Locals:         0       2       0       0       0
  3418 ;;      Temps:          0       5       0       0       0
  3419 ;;      Totals:         0      11       0       0       0
  3420 ;;Total ram usage:       11 bytes
  3421 ;; Hardware stack levels used:    1
  3422 ;; Hardware stack levels required when called:    1
  3423 ;; This function calls:
  3424 ;;		Nothing
  3425 ;; This function is called by:
  3426 ;;		_convert
  3427 ;; This function uses a non-reentrant model
  3428 ;;
  3429                           
  3430                           
  3431                           ;psect for function ___fltol
  3432  0769                     ___fltol:
  3433  0769                     l3040:	
  3434                           ;incstack = 0
  3435                           ; Regs used in ___fltol: [wreg+status,2+status,0]
  3436                           
  3437  0769  1003               	clrc
  3438  076A  1283               	bcf	3,5	;RP0=0, select bank0
  3439  076B  1303               	bcf	3,6	;RP1=0, select bank0
  3440  076C  0D22               	rlf	___fltol@f1+2,w
  3441  076D  0D23               	rlf	___fltol@f1+3,w
  3442  076E  00A4               	movwf	??___fltol
  3443  076F  0824               	movf	??___fltol,w
  3444  0770  00AA               	movwf	___fltol@exp1
  3445  0771  082A               	movf	___fltol@exp1,w
  3446  0772  1D03               	btfss	3,2
  3447  0773  2F75               	goto	u4491
  3448  0774  2F76               	goto	u4490
  3449  0775                     u4491:
  3450  0775  2F7F               	goto	l3046
  3451  0776                     u4490:
  3452  0776                     l3042:
  3453  0776  3000               	movlw	0
  3454  0777  00A3               	movwf	?___fltol+3
  3455  0778  3000               	movlw	0
  3456  0779  00A2               	movwf	?___fltol+2
  3457  077A  3000               	movlw	0
  3458  077B  00A1               	movwf	?___fltol+1
  3459  077C  3000               	movlw	0
  3460  077D  00A0               	movwf	?___fltol
  3461  077E  2FE4               	goto	l456
  3462  077F                     l3046:
  3463  077F  0820               	movf	___fltol@f1,w
  3464  0780  00A4               	movwf	??___fltol
  3465  0781  0821               	movf	___fltol@f1+1,w
  3466  0782  00A5               	movwf	??___fltol+1
  3467  0783  0822               	movf	___fltol@f1+2,w
  3468  0784  00A6               	movwf	??___fltol+2
  3469  0785  0823               	movf	___fltol@f1+3,w
  3470  0786  00A7               	movwf	??___fltol+3
  3471  0787  301F               	movlw	31
  3472  0788                     u4505:
  3473  0788  1003               	clrc
  3474  0789  0CA7               	rrf	??___fltol+3,f
  3475  078A  0CA6               	rrf	??___fltol+2,f
  3476  078B  0CA5               	rrf	??___fltol+1,f
  3477  078C  0CA4               	rrf	??___fltol,f
  3478  078D                     u4500:
  3479  078D  3EFF               	addlw	-1
  3480  078E  1D03               	skipz
  3481  078F  2F88               	goto	u4505
  3482  0790  0824               	movf	??___fltol,w
  3483  0791  00A8               	movwf	??___fltol+4
  3484  0792  0828               	movf	??___fltol+4,w
  3485  0793  00A9               	movwf	___fltol@sign1
  3486  0794                     l3048:
  3487  0794  17A2               	bsf	___fltol@f1+2,7
  3488  0795                     l3050:
  3489  0795  30FF               	movlw	255
  3490  0796  05A0               	andwf	___fltol@f1,f
  3491  0797  30FF               	movlw	255
  3492  0798  05A1               	andwf	___fltol@f1+1,f
  3493  0799  30FF               	movlw	255
  3494  079A  05A2               	andwf	___fltol@f1+2,f
  3495  079B  3000               	movlw	0
  3496  079C  05A3               	andwf	___fltol@f1+3,f
  3497  079D                     l3052:
  3498  079D  3096               	movlw	150
  3499  079E  02AA               	subwf	___fltol@exp1,f
  3500  079F                     l3054:
  3501  079F  1FAA               	btfss	___fltol@exp1,7
  3502  07A0  2FA2               	goto	u4511
  3503  07A1  2FA3               	goto	u4510
  3504  07A2                     u4511:
  3505  07A2  2FBD               	goto	l3064
  3506  07A3                     u4510:
  3507  07A3                     l3056:
  3508  07A3  082A               	movf	___fltol@exp1,w
  3509  07A4  3A80               	xorlw	128
  3510  07A5  3E97               	addlw	151
  3511  07A6  1803               	skipnc
  3512  07A7  2FA9               	goto	u4521
  3513  07A8  2FAA               	goto	u4520
  3514  07A9                     u4521:
  3515  07A9  2FAB               	goto	l3062
  3516  07AA                     u4520:
  3517  07AA  2F76               	goto	l3042
  3518  07AB                     l3062:
  3519  07AB  3001               	movlw	1
  3520  07AC                     u4535:
  3521  07AC  1003               	clrc
  3522  07AD  0CA3               	rrf	___fltol@f1+3,f
  3523  07AE  0CA2               	rrf	___fltol@f1+2,f
  3524  07AF  0CA1               	rrf	___fltol@f1+1,f
  3525  07B0  0CA0               	rrf	___fltol@f1,f
  3526  07B1  3EFF               	addlw	-1
  3527  07B2  1D03               	skipz
  3528  07B3  2FAC               	goto	u4535
  3529  07B4  3001               	movlw	1
  3530  07B5  00A4               	movwf	??___fltol
  3531  07B6  0824               	movf	??___fltol,w
  3532  07B7  07AA               	addwf	___fltol@exp1,f
  3533  07B8  1D03               	btfss	3,2
  3534  07B9  2FBB               	goto	u4541
  3535  07BA  2FBC               	goto	u4540
  3536  07BB                     u4541:
  3537  07BB  2FAB               	goto	l3062
  3538  07BC                     u4540:
  3539  07BC  2FD4               	goto	l3072
  3540  07BD                     l3064:
  3541  07BD  3020               	movlw	32
  3542  07BE  022A               	subwf	___fltol@exp1,w
  3543  07BF  1C03               	skipc
  3544  07C0  2FC2               	goto	u4551
  3545  07C1  2FC3               	goto	u4550
  3546  07C2                     u4551:
  3547  07C2  2FCF               	goto	l463
  3548  07C3                     u4550:
  3549  07C3  2F76               	goto	l3042
  3550  07C4                     l3070:
  3551  07C4  3001               	movlw	1
  3552  07C5  00A4               	movwf	??___fltol
  3553  07C6                     u4565:
  3554  07C6  1003               	clrc
  3555  07C7  0DA0               	rlf	___fltol@f1,f
  3556  07C8  0DA1               	rlf	___fltol@f1+1,f
  3557  07C9  0DA2               	rlf	___fltol@f1+2,f
  3558  07CA  0DA3               	rlf	___fltol@f1+3,f
  3559  07CB  0BA4               	decfsz	??___fltol,f
  3560  07CC  2FC6               	goto	u4565
  3561  07CD  3001               	movlw	1
  3562  07CE  02AA               	subwf	___fltol@exp1,f
  3563  07CF                     l463:
  3564  07CF  082A               	movf	___fltol@exp1,w
  3565  07D0  1D03               	btfss	3,2
  3566  07D1  2FD3               	goto	u4571
  3567  07D2  2FD4               	goto	u4570
  3568  07D3                     u4571:
  3569  07D3  2FC4               	goto	l3070
  3570  07D4                     u4570:
  3571  07D4                     l3072:
  3572  07D4  0829               	movf	___fltol@sign1,w
  3573  07D5  1903               	btfsc	3,2
  3574  07D6  2FD8               	goto	u4581
  3575  07D7  2FD9               	goto	u4580
  3576  07D8                     u4581:
  3577  07D8  2FE4               	goto	l466
  3578  07D9                     u4580:
  3579  07D9                     l3074:
  3580  07D9  09A0               	comf	___fltol@f1,f
  3581  07DA  09A1               	comf	___fltol@f1+1,f
  3582  07DB  09A2               	comf	___fltol@f1+2,f
  3583  07DC  09A3               	comf	___fltol@f1+3,f
  3584  07DD  0AA0               	incf	___fltol@f1,f
  3585  07DE  1903               	skipnz
  3586  07DF  0AA1               	incf	___fltol@f1+1,f
  3587  07E0  1903               	skipnz
  3588  07E1  0AA2               	incf	___fltol@f1+2,f
  3589  07E2  1903               	skipnz
  3590  07E3  0AA3               	incf	___fltol@f1+3,f
  3591  07E4                     l466:
  3592  07E4                     l456:
  3593  07E4  0008               	return
  3594  07E5                     __end_of___fltol:
  3595                           
  3596                           	psect	text6
  3597  1304                     __ptext6:	
  3598 ;; *************** function ___flsub *****************
  3599 ;; Defined at:
  3600 ;;		line 242 in file "C:\Program Files\Microchip\xc8\v2.31\pic\sources\c90\common\sprcadd.c"
  3601 ;; Parameters:    Size  Location     Type
  3602 ;;  a               4   31[BANK0 ] long 
  3603 ;;  b               4   35[BANK0 ] long 
  3604 ;; Auto vars:     Size  Location     Type
  3605 ;;		None
  3606 ;; Return value:  Size  Location     Type
  3607 ;;                  4   31[BANK0 ] long 
  3608 ;; Registers used:
  3609 ;;		wreg, status,2, status,0, btemp+1, pclath, cstack
  3610 ;; Tracked objects:
  3611 ;;		On entry : 0/0
  3612 ;;		On exit  : 0/0
  3613 ;;		Unchanged: 0/0
  3614 ;; Data sizes:     COMMON   BANK0   BANK1   BANK3   BANK2
  3615 ;;      Params:         0       8       0       0       0
  3616 ;;      Locals:         0       0       0       0       0
  3617 ;;      Temps:          0       0       0       0       0
  3618 ;;      Totals:         0       8       0       0       0
  3619 ;;Total ram usage:        8 bytes
  3620 ;; Hardware stack levels used:    1
  3621 ;; Hardware stack levels required when called:    2
  3622 ;; This function calls:
  3623 ;;		___fladd
  3624 ;; This function is called by:
  3625 ;;		_convert
  3626 ;; This function uses a non-reentrant model
  3627 ;;
  3628                           
  3629                           
  3630                           ;psect for function ___flsub
  3631  1304                     ___flsub:
  3632  1304                     l3076:	
  3633                           ;incstack = 0
  3634                           ; Regs used in ___flsub: [wreg+status,2+status,0+btemp+1+pclath+cstack]
  3635                           
  3636  1304  3080               	movlw	128
  3637  1305  1283               	bcf	3,5	;RP0=0, select bank0
  3638  1306  1303               	bcf	3,6	;RP1=0, select bank0
  3639  1307  06C2               	xorwf	___flsub@a+3,f
  3640  1308                     l3078:
  3641  1308  0846               	movf	___flsub@b+3,w
  3642  1309  00A3               	movwf	___fladd@b+3
  3643  130A  0845               	movf	___flsub@b+2,w
  3644  130B  00A2               	movwf	___fladd@b+2
  3645  130C  0844               	movf	___flsub@b+1,w
  3646  130D  00A1               	movwf	___fladd@b+1
  3647  130E  0843               	movf	___flsub@b,w
  3648  130F  00A0               	movwf	___fladd@b
  3649  1310  0842               	movf	___flsub@a+3,w
  3650  1311  00A7               	movwf	___fladd@a+3
  3651  1312  0841               	movf	___flsub@a+2,w
  3652  1313  00A6               	movwf	___fladd@a+2
  3653  1314  0840               	movf	___flsub@a+1,w
  3654  1315  00A5               	movwf	___fladd@a+1
  3655  1316  083F               	movf	___flsub@a,w
  3656  1317  00A4               	movwf	___fladd@a
  3657  1318  120A  158A  206E  160A  118A  	fcall	___fladd
  3658  131D  1283               	bcf	3,5	;RP0=0, select bank0
  3659  131E  1303               	bcf	3,6	;RP1=0, select bank0
  3660  131F  0823               	movf	?___fladd+3,w
  3661  1320  00C2               	movwf	?___flsub+3
  3662  1321  0822               	movf	?___fladd+2,w
  3663  1322  00C1               	movwf	?___flsub+2
  3664  1323  0821               	movf	?___fladd+1,w
  3665  1324  00C0               	movwf	?___flsub+1
  3666  1325  0820               	movf	?___fladd,w
  3667  1326  00BF               	movwf	?___flsub
  3668  1327                     l609:
  3669  1327  0008               	return
  3670  1328                     __end_of___flsub:
  3671                           
  3672                           	psect	text7
  3673  086E                     __ptext7:	
  3674 ;; *************** function ___fladd *****************
  3675 ;; Defined at:
  3676 ;;		line 10 in file "C:\Program Files\Microchip\xc8\v2.31\pic\sources\c90\common\sprcadd.c"
  3677 ;; Parameters:    Size  Location     Type
  3678 ;;  b               4    0[BANK0 ] long 
  3679 ;;  a               4    4[BANK0 ] long 
  3680 ;; Auto vars:     Size  Location     Type
  3681 ;;  grs             1   19[BANK0 ] unsigned char 
  3682 ;;  bexp            1   18[BANK0 ] unsigned char 
  3683 ;;  aexp            1   17[BANK0 ] unsigned char 
  3684 ;;  signs           1   16[BANK0 ] unsigned char 
  3685 ;; Return value:  Size  Location     Type
  3686 ;;                  4    0[BANK0 ] unsigned char 
  3687 ;; Registers used:
  3688 ;;		wreg, status,2, status,0, btemp+1
  3689 ;; Tracked objects:
  3690 ;;		On entry : 0/0
  3691 ;;		On exit  : 0/0
  3692 ;;		Unchanged: 0/0
  3693 ;; Data sizes:     COMMON   BANK0   BANK1   BANK3   BANK2
  3694 ;;      Params:         0       8       0       0       0
  3695 ;;      Locals:         0       4       0       0       0
  3696 ;;      Temps:          0       8       0       0       0
  3697 ;;      Totals:         0      20       0       0       0
  3698 ;;Total ram usage:       20 bytes
  3699 ;; Hardware stack levels used:    1
  3700 ;; Hardware stack levels required when called:    1
  3701 ;; This function calls:
  3702 ;;		Nothing
  3703 ;; This function is called by:
  3704 ;;		___flsub
  3705 ;; This function uses a non-reentrant model
  3706 ;;
  3707                           
  3708                           
  3709                           ;psect for function ___fladd
  3710  086E                     ___fladd:
  3711  086E                     l2734:	
  3712                           ;incstack = 0
  3713                           ; Regs used in ___fladd: [wreg+status,2+status,0+btemp+1]
  3714                           
  3715  086E  1283               	bcf	3,5	;RP0=0, select bank0
  3716  086F  1303               	bcf	3,6	;RP1=0, select bank0
  3717  0870  0823               	movf	___fladd@b+3,w
  3718  0871  3980               	andlw	128
  3719  0872  00A8               	movwf	??___fladd
  3720  0873  0828               	movf	??___fladd,w
  3721  0874  00B0               	movwf	___fladd@signs
  3722  0875                     l2736:
  3723  0875  0823               	movf	___fladd@b+3,w
  3724  0876  00A8               	movwf	??___fladd
  3725  0877  0728               	addwf	??___fladd,w
  3726  0878  00A9               	movwf	??___fladd+1
  3727  0879  0829               	movf	??___fladd+1,w
  3728  087A  00B2               	movwf	___fladd@bexp
  3729  087B                     l2738:
  3730  087B  1FA2               	btfss	___fladd@b+2,7
  3731  087C  287E               	goto	u3791
  3732  087D  287F               	goto	u3790
  3733  087E                     u3791:
  3734  087E  2880               	goto	l2742
  3735  087F                     u3790:
  3736  087F                     l2740:
  3737  087F  1432               	bsf	___fladd@bexp,0
  3738  0880                     l2742:
  3739  0880  0832               	movf	___fladd@bexp,w
  3740  0881  1903               	btfsc	3,2
  3741  0882  2884               	goto	u3801
  3742  0883  2885               	goto	u3800
  3743  0884                     u3801:
  3744  0884  2895               	goto	l2752
  3745  0885                     u3800:
  3746  0885                     l2744:
  3747  0885  0A32               	incf	___fladd@bexp,w
  3748  0886  1D03               	btfss	3,2
  3749  0887  2889               	goto	u3811
  3750  0888  288A               	goto	u3810
  3751  0889                     u3811:
  3752  0889  2892               	goto	l2748
  3753  088A                     u3810:
  3754  088A                     l2746:
  3755  088A  3000               	movlw	0
  3756  088B  00A3               	movwf	___fladd@b+3
  3757  088C  3000               	movlw	0
  3758  088D  00A2               	movwf	___fladd@b+2
  3759  088E  3000               	movlw	0
  3760  088F  00A1               	movwf	___fladd@b+1
  3761  0890  3000               	movlw	0
  3762  0891  00A0               	movwf	___fladd@b
  3763  0892                     l2748:
  3764  0892  17A2               	bsf	___fladd@b+2,7
  3765  0893                     l2750:
  3766  0893  01A3               	clrf	___fladd@b+3
  3767  0894  289D               	goto	l2754
  3768  0895                     l2752:
  3769  0895  3000               	movlw	0
  3770  0896  00A3               	movwf	___fladd@b+3
  3771  0897  3000               	movlw	0
  3772  0898  00A2               	movwf	___fladd@b+2
  3773  0899  3000               	movlw	0
  3774  089A  00A1               	movwf	___fladd@b+1
  3775  089B  3000               	movlw	0
  3776  089C  00A0               	movwf	___fladd@b
  3777  089D                     l2754:
  3778  089D  0827               	movf	___fladd@a+3,w
  3779  089E  3980               	andlw	128
  3780  089F  00A8               	movwf	??___fladd
  3781  08A0  0828               	movf	??___fladd,w
  3782  08A1  00B1               	movwf	___fladd@aexp
  3783  08A2                     l2756:
  3784  08A2  0831               	movf	___fladd@aexp,w
  3785  08A3  0630               	xorwf	___fladd@signs,w
  3786  08A4  1903               	skipnz
  3787  08A5  28A7               	goto	u3821
  3788  08A6  28A8               	goto	u3820
  3789  08A7                     u3821:
  3790  08A7  28A9               	goto	l2760
  3791  08A8                     u3820:
  3792  08A8                     l2758:
  3793  08A8  1730               	bsf	___fladd@signs,6
  3794  08A9                     l2760:
  3795  08A9  0827               	movf	___fladd@a+3,w
  3796  08AA  00A8               	movwf	??___fladd
  3797  08AB  0728               	addwf	??___fladd,w
  3798  08AC  00A9               	movwf	??___fladd+1
  3799  08AD  0829               	movf	??___fladd+1,w
  3800  08AE  00B1               	movwf	___fladd@aexp
  3801  08AF                     l2762:
  3802  08AF  1FA6               	btfss	___fladd@a+2,7
  3803  08B0  28B2               	goto	u3831
  3804  08B1  28B3               	goto	u3830
  3805  08B2                     u3831:
  3806  08B2  28B4               	goto	l2766
  3807  08B3                     u3830:
  3808  08B3                     l2764:
  3809  08B3  1431               	bsf	___fladd@aexp,0
  3810  08B4                     l2766:
  3811  08B4  0831               	movf	___fladd@aexp,w
  3812  08B5  1903               	btfsc	3,2
  3813  08B6  28B8               	goto	u3841
  3814  08B7  28B9               	goto	u3840
  3815  08B8                     u3841:
  3816  08B8  28C9               	goto	l2776
  3817  08B9                     u3840:
  3818  08B9                     l2768:
  3819  08B9  0A31               	incf	___fladd@aexp,w
  3820  08BA  1D03               	btfss	3,2
  3821  08BB  28BD               	goto	u3851
  3822  08BC  28BE               	goto	u3850
  3823  08BD                     u3851:
  3824  08BD  28C6               	goto	l2772
  3825  08BE                     u3850:
  3826  08BE                     l2770:
  3827  08BE  3000               	movlw	0
  3828  08BF  00A7               	movwf	___fladd@a+3
  3829  08C0  3000               	movlw	0
  3830  08C1  00A6               	movwf	___fladd@a+2
  3831  08C2  3000               	movlw	0
  3832  08C3  00A5               	movwf	___fladd@a+1
  3833  08C4  3000               	movlw	0
  3834  08C5  00A4               	movwf	___fladd@a
  3835  08C6                     l2772:
  3836  08C6  17A6               	bsf	___fladd@a+2,7
  3837  08C7                     l2774:
  3838  08C7  01A7               	clrf	___fladd@a+3
  3839  08C8  28D1               	goto	l563
  3840  08C9                     l2776:
  3841  08C9  3000               	movlw	0
  3842  08CA  00A7               	movwf	___fladd@a+3
  3843  08CB  3000               	movlw	0
  3844  08CC  00A6               	movwf	___fladd@a+2
  3845  08CD  3000               	movlw	0
  3846  08CE  00A5               	movwf	___fladd@a+1
  3847  08CF  3000               	movlw	0
  3848  08D0  00A4               	movwf	___fladd@a
  3849  08D1                     l563:
  3850  08D1  0832               	movf	___fladd@bexp,w
  3851  08D2  0231               	subwf	___fladd@aexp,w
  3852  08D3  1803               	skipnc
  3853  08D4  28D6               	goto	u3861
  3854  08D5  28D7               	goto	u3860
  3855  08D6                     u3861:
  3856  08D6  291B               	goto	l2812
  3857  08D7                     u3860:
  3858  08D7                     l2778:
  3859  08D7  1F30               	btfss	___fladd@signs,6
  3860  08D8  28DA               	goto	u3871
  3861  08D9  28DB               	goto	u3870
  3862  08DA                     u3871:
  3863  08DA  28DF               	goto	l2782
  3864  08DB                     u3870:
  3865  08DB                     l2780:
  3866  08DB  3080               	movlw	128
  3867  08DC  00A8               	movwf	??___fladd
  3868  08DD  0828               	movf	??___fladd,w
  3869  08DE  06B0               	xorwf	___fladd@signs,f
  3870  08DF                     l2782:
  3871  08DF  0832               	movf	___fladd@bexp,w
  3872  08E0  00A8               	movwf	??___fladd
  3873  08E1  0828               	movf	??___fladd,w
  3874  08E2  00B3               	movwf	___fladd@grs
  3875  08E3                     l2784:
  3876  08E3  0831               	movf	___fladd@aexp,w
  3877  08E4  00A8               	movwf	??___fladd
  3878  08E5  0828               	movf	??___fladd,w
  3879  08E6  00B2               	movwf	___fladd@bexp
  3880  08E7                     l2786:
  3881  08E7  0833               	movf	___fladd@grs,w
  3882  08E8  00A8               	movwf	??___fladd
  3883  08E9  0828               	movf	??___fladd,w
  3884  08EA  00B1               	movwf	___fladd@aexp
  3885  08EB                     l2788:
  3886  08EB  0820               	movf	___fladd@b,w
  3887  08EC  00A8               	movwf	??___fladd
  3888  08ED  0828               	movf	??___fladd,w
  3889  08EE  00B3               	movwf	___fladd@grs
  3890  08EF                     l2790:
  3891  08EF  0824               	movf	___fladd@a,w
  3892  08F0  00A8               	movwf	??___fladd
  3893  08F1  0828               	movf	??___fladd,w
  3894  08F2  00A0               	movwf	___fladd@b
  3895  08F3                     l2792:
  3896  08F3  0833               	movf	___fladd@grs,w
  3897  08F4  00A8               	movwf	??___fladd
  3898  08F5  0828               	movf	??___fladd,w
  3899  08F6  00A4               	movwf	___fladd@a
  3900  08F7                     l2794:
  3901  08F7  0821               	movf	___fladd@b+1,w
  3902  08F8  00A8               	movwf	??___fladd
  3903  08F9  0828               	movf	??___fladd,w
  3904  08FA  00B3               	movwf	___fladd@grs
  3905  08FB                     l2796:
  3906  08FB  0825               	movf	___fladd@a+1,w
  3907  08FC  00A8               	movwf	??___fladd
  3908  08FD  0828               	movf	??___fladd,w
  3909  08FE  00A1               	movwf	___fladd@b+1
  3910  08FF                     l2798:
  3911  08FF  0833               	movf	___fladd@grs,w
  3912  0900  00A8               	movwf	??___fladd
  3913  0901  0828               	movf	??___fladd,w
  3914  0902  00A5               	movwf	___fladd@a+1
  3915  0903                     l2800:
  3916  0903  0822               	movf	___fladd@b+2,w
  3917  0904  00A8               	movwf	??___fladd
  3918  0905  0828               	movf	??___fladd,w
  3919  0906  00B3               	movwf	___fladd@grs
  3920  0907                     l2802:
  3921  0907  0826               	movf	___fladd@a+2,w
  3922  0908  00A8               	movwf	??___fladd
  3923  0909  0828               	movf	??___fladd,w
  3924  090A  00A2               	movwf	___fladd@b+2
  3925  090B                     l2804:
  3926  090B  0833               	movf	___fladd@grs,w
  3927  090C  00A8               	movwf	??___fladd
  3928  090D  0828               	movf	??___fladd,w
  3929  090E  00A6               	movwf	___fladd@a+2
  3930  090F                     l2806:
  3931  090F  0823               	movf	___fladd@b+3,w
  3932  0910  00A8               	movwf	??___fladd
  3933  0911  0828               	movf	??___fladd,w
  3934  0912  00B3               	movwf	___fladd@grs
  3935  0913                     l2808:
  3936  0913  0827               	movf	___fladd@a+3,w
  3937  0914  00A8               	movwf	??___fladd
  3938  0915  0828               	movf	??___fladd,w
  3939  0916  00A3               	movwf	___fladd@b+3
  3940  0917                     l2810:
  3941  0917  0833               	movf	___fladd@grs,w
  3942  0918  00A8               	movwf	??___fladd
  3943  0919  0828               	movf	??___fladd,w
  3944  091A  00A7               	movwf	___fladd@a+3
  3945  091B                     l2812:
  3946  091B  01B3               	clrf	___fladd@grs
  3947  091C                     l2814:
  3948  091C  0831               	movf	___fladd@aexp,w
  3949  091D  00A8               	movwf	??___fladd
  3950  091E  01A9               	clrf	??___fladd+1
  3951  091F  0829               	movf	??___fladd+1,w
  3952  0920  00AB               	movwf	??___fladd+3
  3953  0921  0832               	movf	___fladd@bexp,w
  3954  0922  0228               	subwf	??___fladd,w
  3955  0923  00AA               	movwf	??___fladd+2
  3956  0924  1C03               	skipc
  3957  0925  03AB               	decf	??___fladd+3,f
  3958  0926  082B               	movf	??___fladd+3,w
  3959  0927  3A80               	xorlw	128
  3960  0928  00FF               	movwf	btemp+1
  3961  0929  3080               	movlw	128
  3962  092A  027F               	subwf	btemp+1,w
  3963  092B  1D03               	skipz
  3964  092C  292F               	goto	u3885
  3965  092D  301A               	movlw	26
  3966  092E  022A               	subwf	??___fladd+2,w
  3967  092F                     u3885:
  3968  092F  1C03               	skipc
  3969  0930  2932               	goto	u3881
  3970  0931  2933               	goto	u3880
  3971  0932                     u3881:
  3972  0932  2970               	goto	l2830
  3973  0933                     u3880:
  3974  0933                     l2816:
  3975  0933  1283               	bcf	3,5	;RP0=0, select bank0
  3976  0934  1303               	bcf	3,6	;RP1=0, select bank0
  3977  0935  0823               	movf	___fladd@b+3,w
  3978  0936  0422               	iorwf	___fladd@b+2,w
  3979  0937  0421               	iorwf	___fladd@b+1,w
  3980  0938  0420               	iorwf	___fladd@b,w
  3981  0939  1D03               	skipz
  3982  093A  293C               	goto	u3891
  3983  093B  293E               	goto	u3890
  3984  093C                     u3891:
  3985  093C  3001               	movlw	1
  3986  093D  293F               	goto	u3900
  3987  093E                     u3890:
  3988  093E  3000               	movlw	0
  3989  093F                     u3900:
  3990  093F  00A8               	movwf	??___fladd
  3991  0940  0828               	movf	??___fladd,w
  3992  0941  00B3               	movwf	___fladd@grs
  3993  0942  3000               	movlw	0
  3994  0943  00A3               	movwf	___fladd@b+3
  3995  0944  3000               	movlw	0
  3996  0945  00A2               	movwf	___fladd@b+2
  3997  0946  3000               	movlw	0
  3998  0947  00A1               	movwf	___fladd@b+1
  3999  0948  3000               	movlw	0
  4000  0949  00A0               	movwf	___fladd@b
  4001  094A  0831               	movf	___fladd@aexp,w
  4002  094B  00A8               	movwf	??___fladd
  4003  094C  0828               	movf	??___fladd,w
  4004  094D  00B2               	movwf	___fladd@bexp
  4005  094E  2978               	goto	l567
  4006  094F                     l569:
  4007  094F  1C33               	btfss	___fladd@grs,0
  4008  0950  2952               	goto	u3911
  4009  0951  2953               	goto	u3910
  4010  0952                     u3911:
  4011  0952  295C               	goto	l2820
  4012  0953                     u3910:
  4013  0953                     l2818:
  4014  0953  0833               	movf	___fladd@grs,w
  4015  0954  00A8               	movwf	??___fladd
  4016  0955  1003               	clrc
  4017  0956  0C28               	rrf	??___fladd,w
  4018  0957  3801               	iorlw	1
  4019  0958  00A9               	movwf	??___fladd+1
  4020  0959  0829               	movf	??___fladd+1,w
  4021  095A  00B3               	movwf	___fladd@grs
  4022  095B  295E               	goto	l2822
  4023  095C                     l2820:
  4024  095C  1003               	clrc
  4025  095D  0CB3               	rrf	___fladd@grs,f
  4026  095E                     l2822:
  4027  095E  1C20               	btfss	___fladd@b,0
  4028  095F  2961               	goto	u3921
  4029  0960  2962               	goto	u3920
  4030  0961                     u3921:
  4031  0961  2963               	goto	l2826
  4032  0962                     u3920:
  4033  0962                     l2824:
  4034  0962  17B3               	bsf	___fladd@grs,7
  4035  0963                     l2826:
  4036  0963  3001               	movlw	1
  4037  0964  00A8               	movwf	??___fladd
  4038  0965                     u3935:
  4039  0965  0D23               	rlf	___fladd@b+3,w
  4040  0966  0CA3               	rrf	___fladd@b+3,f
  4041  0967  0CA2               	rrf	___fladd@b+2,f
  4042  0968  0CA1               	rrf	___fladd@b+1,f
  4043  0969  0CA0               	rrf	___fladd@b,f
  4044  096A  0BA8               	decfsz	??___fladd& (0+127),f
  4045  096B  2965               	goto	u3935
  4046  096C                     l2828:
  4047  096C  3001               	movlw	1
  4048  096D  00A8               	movwf	??___fladd
  4049  096E  0828               	movf	??___fladd,w
  4050  096F  07B2               	addwf	___fladd@bexp,f
  4051  0970                     l2830:
  4052  0970  1283               	bcf	3,5	;RP0=0, select bank0
  4053  0971  1303               	bcf	3,6	;RP1=0, select bank0
  4054  0972  0831               	movf	___fladd@aexp,w
  4055  0973  0232               	subwf	___fladd@bexp,w
  4056  0974  1C03               	skipc
  4057  0975  2977               	goto	u3941
  4058  0976  2978               	goto	u3940
  4059  0977                     u3941:
  4060  0977  294F               	goto	l569
  4061  0978                     u3940:
  4062  0978                     l567:
  4063  0978  1B30               	btfsc	___fladd@signs,6
  4064  0979  297B               	goto	u3951
  4065  097A  297C               	goto	u3950
  4066  097B                     u3951:
  4067  097B  29C7               	goto	l2856
  4068  097C                     u3950:
  4069  097C                     l2832:
  4070  097C  0832               	movf	___fladd@bexp,w
  4071  097D  1D03               	btfss	3,2
  4072  097E  2980               	goto	u3961
  4073  097F  2981               	goto	u3960
  4074  0980                     u3961:
  4075  0980  298A               	goto	l2838
  4076  0981                     u3960:
  4077  0981                     l2834:
  4078  0981  3000               	movlw	0
  4079  0982  00A3               	movwf	?___fladd+3
  4080  0983  3000               	movlw	0
  4081  0984  00A2               	movwf	?___fladd+2
  4082  0985  3000               	movlw	0
  4083  0986  00A1               	movwf	?___fladd+1
  4084  0987  3000               	movlw	0
  4085  0988  00A0               	movwf	?___fladd
  4086  0989  2AF5               	goto	l576
  4087  098A                     l2838:
  4088  098A  0824               	movf	___fladd@a,w
  4089  098B  07A0               	addwf	___fladd@b,f
  4090  098C  0825               	movf	___fladd@a+1,w
  4091  098D  1103               	clrz
  4092  098E  1803               	skipnc
  4093  098F  3E01               	addlw	1
  4094  0990  1903               	skipnz
  4095  0991  2993               	goto	u3971
  4096  0992  07A1               	addwf	___fladd@b+1,f
  4097  0993                     u3971:
  4098  0993  0826               	movf	___fladd@a+2,w
  4099  0994  1103               	clrz
  4100  0995  1803               	skipnc
  4101  0996  3E01               	addlw	1
  4102  0997  1903               	skipnz
  4103  0998  299A               	goto	u3972
  4104  0999  07A2               	addwf	___fladd@b+2,f
  4105  099A                     u3972:
  4106  099A  0827               	movf	___fladd@a+3,w
  4107  099B  1103               	clrz
  4108  099C  1803               	skipnc
  4109  099D  3E01               	addlw	1
  4110  099E  1903               	skipnz
  4111  099F  29A1               	goto	u3973
  4112  09A0  07A3               	addwf	___fladd@b+3,f
  4113  09A1                     u3973:
  4114  09A1                     l2840:
  4115  09A1  1C23               	btfss	___fladd@b+3,0
  4116  09A2  29A4               	goto	u3981
  4117  09A3  29A5               	goto	u3980
  4118  09A4                     u3981:
  4119  09A4  2A7B               	goto	l2890
  4120  09A5                     u3980:
  4121  09A5                     l2842:
  4122  09A5  1C33               	btfss	___fladd@grs,0
  4123  09A6  29A8               	goto	u3991
  4124  09A7  29A9               	goto	u3990
  4125  09A8                     u3991:
  4126  09A8  29B2               	goto	l2846
  4127  09A9                     u3990:
  4128  09A9                     l2844:
  4129  09A9  0833               	movf	___fladd@grs,w
  4130  09AA  00A8               	movwf	??___fladd
  4131  09AB  1003               	clrc
  4132  09AC  0C28               	rrf	??___fladd,w
  4133  09AD  3801               	iorlw	1
  4134  09AE  00A9               	movwf	??___fladd+1
  4135  09AF  0829               	movf	??___fladd+1,w
  4136  09B0  00B3               	movwf	___fladd@grs
  4137  09B1  29B4               	goto	l2848
  4138  09B2                     l2846:
  4139  09B2  1003               	clrc
  4140  09B3  0CB3               	rrf	___fladd@grs,f
  4141  09B4                     l2848:
  4142  09B4  1C20               	btfss	___fladd@b,0
  4143  09B5  29B7               	goto	u4001
  4144  09B6  29B8               	goto	u4000
  4145  09B7                     u4001:
  4146  09B7  29B9               	goto	l2852
  4147  09B8                     u4000:
  4148  09B8                     l2850:
  4149  09B8  17B3               	bsf	___fladd@grs,7
  4150  09B9                     l2852:
  4151  09B9  3001               	movlw	1
  4152  09BA  00A8               	movwf	??___fladd
  4153  09BB                     u4015:
  4154  09BB  0D23               	rlf	___fladd@b+3,w
  4155  09BC  0CA3               	rrf	___fladd@b+3,f
  4156  09BD  0CA2               	rrf	___fladd@b+2,f
  4157  09BE  0CA1               	rrf	___fladd@b+1,f
  4158  09BF  0CA0               	rrf	___fladd@b,f
  4159  09C0  0BA8               	decfsz	??___fladd& (0+127),f
  4160  09C1  29BB               	goto	u4015
  4161  09C2                     l2854:
  4162  09C2  3001               	movlw	1
  4163  09C3  00A8               	movwf	??___fladd
  4164  09C4  0828               	movf	??___fladd,w
  4165  09C5  07B2               	addwf	___fladd@bexp,f
  4166  09C6  2A7B               	goto	l2890
  4167  09C7                     l2856:
  4168  09C7  0823               	movf	___fladd@b+3,w
  4169  09C8  3A80               	xorlw	128
  4170  09C9  00FF               	movwf	btemp+1
  4171  09CA  0827               	movf	___fladd@a+3,w
  4172  09CB  3A80               	xorlw	128
  4173  09CC  027F               	subwf	btemp+1,w
  4174  09CD  1D03               	skipz
  4175  09CE  29D9               	goto	u4023
  4176  09CF  0826               	movf	___fladd@a+2,w
  4177  09D0  0222               	subwf	___fladd@b+2,w
  4178  09D1  1D03               	skipz
  4179  09D2  29D9               	goto	u4023
  4180  09D3  0825               	movf	___fladd@a+1,w
  4181  09D4  0221               	subwf	___fladd@b+1,w
  4182  09D5  1D03               	skipz
  4183  09D6  29D9               	goto	u4023
  4184  09D7  0824               	movf	___fladd@a,w
  4185  09D8  0220               	subwf	___fladd@b,w
  4186  09D9                     u4023:
  4187  09D9  1803               	skipnc
  4188  09DA  29DC               	goto	u4021
  4189  09DB  29DD               	goto	u4020
  4190  09DC                     u4021:
  4191  09DC  2A35               	goto	l2866
  4192  09DD                     u4020:
  4193  09DD                     l2858:
  4194  09DD  30FF               	movlw	255
  4195  09DE  00A8               	movwf	??___fladd
  4196  09DF  30FF               	movlw	255
  4197  09E0  00A9               	movwf	??___fladd+1
  4198  09E1  30FF               	movlw	255
  4199  09E2  00AA               	movwf	??___fladd+2
  4200  09E3  30FF               	movlw	255
  4201  09E4  00AB               	movwf	??___fladd+3
  4202  09E5  0824               	movf	___fladd@a,w
  4203  09E6  00AC               	movwf	??___fladd+4
  4204  09E7  0825               	movf	___fladd@a+1,w
  4205  09E8  00AD               	movwf	??___fladd+5
  4206  09E9  0826               	movf	___fladd@a+2,w
  4207  09EA  00AE               	movwf	??___fladd+6
  4208  09EB  0827               	movf	___fladd@a+3,w
  4209  09EC  00AF               	movwf	??___fladd+7
  4210  09ED  0820               	movf	___fladd@b,w
  4211  09EE  02AC               	subwf	??___fladd+4,f
  4212  09EF  0821               	movf	___fladd@b+1,w
  4213  09F0  1C03               	skipc
  4214  09F1  0F21               	incfsz	___fladd@b+1,w
  4215  09F2  29F4               	goto	u4031
  4216  09F3  29F5               	goto	u4032
  4217  09F4                     u4031:
  4218  09F4  02AD               	subwf	??___fladd+5,f
  4219  09F5                     u4032:
  4220  09F5  0822               	movf	___fladd@b+2,w
  4221  09F6  1C03               	skipc
  4222  09F7  0F22               	incfsz	___fladd@b+2,w
  4223  09F8  29FA               	goto	u4033
  4224  09F9  29FB               	goto	u4034
  4225  09FA                     u4033:
  4226  09FA  02AE               	subwf	??___fladd+6,f
  4227  09FB                     u4034:
  4228  09FB  0823               	movf	___fladd@b+3,w
  4229  09FC  1C03               	skipc
  4230  09FD  0F23               	incfsz	___fladd@b+3,w
  4231  09FE  2A00               	goto	u4035
  4232  09FF  2A01               	goto	u4036
  4233  0A00                     u4035:
  4234  0A00  02AF               	subwf	??___fladd+7,f
  4235  0A01                     u4036:
  4236  0A01  082C               	movf	??___fladd+4,w
  4237  0A02  07A8               	addwf	??___fladd,f
  4238  0A03  082D               	movf	??___fladd+5,w
  4239  0A04  1803               	skipnc
  4240  0A05  0F2D               	incfsz	??___fladd+5,w
  4241  0A06  2A08               	goto	u4040
  4242  0A07  2A09               	goto	u4041
  4243  0A08                     u4040:
  4244  0A08  07A9               	addwf	??___fladd+1,f
  4245  0A09                     u4041:
  4246  0A09  082E               	movf	??___fladd+6,w
  4247  0A0A  1803               	skipnc
  4248  0A0B  0F2E               	incfsz	??___fladd+6,w
  4249  0A0C  2A0E               	goto	u4042
  4250  0A0D  2A0F               	goto	u4043
  4251  0A0E                     u4042:
  4252  0A0E  07AA               	addwf	??___fladd+2,f
  4253  0A0F                     u4043:
  4254  0A0F  082F               	movf	??___fladd+7,w
  4255  0A10  1803               	skipnc
  4256  0A11  0A2F               	incf	??___fladd+7,w
  4257  0A12  07AB               	addwf	??___fladd+3,f
  4258  0A13  082B               	movf	??___fladd+3,w
  4259  0A14  00A3               	movwf	___fladd@b+3
  4260  0A15  082A               	movf	??___fladd+2,w
  4261  0A16  00A2               	movwf	___fladd@b+2
  4262  0A17  0829               	movf	??___fladd+1,w
  4263  0A18  00A1               	movwf	___fladd@b+1
  4264  0A19  0828               	movf	??___fladd,w
  4265  0A1A  00A0               	movwf	___fladd@b
  4266  0A1B                     l2860:
  4267  0A1B  3080               	movlw	128
  4268  0A1C  00A8               	movwf	??___fladd
  4269  0A1D  0828               	movf	??___fladd,w
  4270  0A1E  06B0               	xorwf	___fladd@signs,f
  4271  0A1F  09B3               	comf	___fladd@grs,f
  4272  0A20  0AB3               	incf	___fladd@grs,f
  4273  0A21                     l2862:
  4274  0A21  0833               	movf	___fladd@grs,w
  4275  0A22  1D03               	btfss	3,2
  4276  0A23  2A25               	goto	u4051
  4277  0A24  2A26               	goto	u4050
  4278  0A25                     u4051:
  4279  0A25  2A43               	goto	l584
  4280  0A26                     u4050:
  4281  0A26                     l2864:
  4282  0A26  3001               	movlw	1
  4283  0A27  07A0               	addwf	___fladd@b,f
  4284  0A28  3000               	movlw	0
  4285  0A29  1803               	skipnc
  4286  0A2A  3001               	movlw	1
  4287  0A2B  07A1               	addwf	___fladd@b+1,f
  4288  0A2C  3000               	movlw	0
  4289  0A2D  1803               	skipnc
  4290  0A2E  3001               	movlw	1
  4291  0A2F  07A2               	addwf	___fladd@b+2,f
  4292  0A30  3000               	movlw	0
  4293  0A31  1803               	skipnc
  4294  0A32  3001               	movlw	1
  4295  0A33  07A3               	addwf	___fladd@b+3,f
  4296  0A34  2A43               	goto	l584
  4297  0A35                     l2866:
  4298  0A35  0824               	movf	___fladd@a,w
  4299  0A36  02A0               	subwf	___fladd@b,f
  4300  0A37  0825               	movf	___fladd@a+1,w
  4301  0A38  1C03               	skipc
  4302  0A39  0F25               	incfsz	___fladd@a+1,w
  4303  0A3A  02A1               	subwf	___fladd@b+1,f
  4304  0A3B  0826               	movf	___fladd@a+2,w
  4305  0A3C  1C03               	skipc
  4306  0A3D  0F26               	incfsz	___fladd@a+2,w
  4307  0A3E  02A2               	subwf	___fladd@b+2,f
  4308  0A3F  0827               	movf	___fladd@a+3,w
  4309  0A40  1C03               	skipc
  4310  0A41  0F27               	incfsz	___fladd@a+3,w
  4311  0A42  02A3               	subwf	___fladd@b+3,f
  4312  0A43                     l584:
  4313  0A43  0823               	movf	___fladd@b+3,w
  4314  0A44  0422               	iorwf	___fladd@b+2,w
  4315  0A45  0421               	iorwf	___fladd@b+1,w
  4316  0A46  0420               	iorwf	___fladd@b,w
  4317  0A47  1D03               	skipz
  4318  0A48  2A4A               	goto	u4061
  4319  0A49  2A4B               	goto	u4060
  4320  0A4A                     u4061:
  4321  0A4A  2A77               	goto	l2888
  4322  0A4B                     u4060:
  4323  0A4B                     l2868:
  4324  0A4B  0833               	movf	___fladd@grs,w
  4325  0A4C  1D03               	btfss	3,2
  4326  0A4D  2A4F               	goto	u4071
  4327  0A4E  2A50               	goto	u4070
  4328  0A4F                     u4071:
  4329  0A4F  2A77               	goto	l2888
  4330  0A50                     u4070:
  4331  0A50                     l2870:
  4332  0A50  3000               	movlw	0
  4333  0A51  00A3               	movwf	?___fladd+3
  4334  0A52  3000               	movlw	0
  4335  0A53  00A2               	movwf	?___fladd+2
  4336  0A54  3000               	movlw	0
  4337  0A55  00A1               	movwf	?___fladd+1
  4338  0A56  3000               	movlw	0
  4339  0A57  00A0               	movwf	?___fladd
  4340  0A58  2AF5               	goto	l576
  4341  0A59                     l2874:
  4342  0A59  3001               	movlw	1
  4343  0A5A  00A8               	movwf	??___fladd
  4344  0A5B                     u4085:
  4345  0A5B  1003               	clrc
  4346  0A5C  0DA0               	rlf	___fladd@b,f
  4347  0A5D  0DA1               	rlf	___fladd@b+1,f
  4348  0A5E  0DA2               	rlf	___fladd@b+2,f
  4349  0A5F  0DA3               	rlf	___fladd@b+3,f
  4350  0A60  0BA8               	decfsz	??___fladd,f
  4351  0A61  2A5B               	goto	u4085
  4352  0A62                     l2876:
  4353  0A62  1FB3               	btfss	___fladd@grs,7
  4354  0A63  2A65               	goto	u4091
  4355  0A64  2A66               	goto	u4090
  4356  0A65                     u4091:
  4357  0A65  2A67               	goto	l588
  4358  0A66                     u4090:
  4359  0A66                     l2878:
  4360  0A66  1420               	bsf	___fladd@b,0
  4361  0A67                     l588:
  4362  0A67  1C33               	btfss	___fladd@grs,0
  4363  0A68  2A6A               	goto	u4101
  4364  0A69  2A6B               	goto	u4100
  4365  0A6A                     u4101:
  4366  0A6A  2A6E               	goto	l2882
  4367  0A6B                     u4100:
  4368  0A6B                     l2880:
  4369  0A6B  1403               	setc
  4370  0A6C  0DB3               	rlf	___fladd@grs,f
  4371  0A6D  2A70               	goto	l2884
  4372  0A6E                     l2882:
  4373  0A6E  1003               	clrc
  4374  0A6F  0DB3               	rlf	___fladd@grs,f
  4375  0A70                     l2884:
  4376  0A70  0832               	movf	___fladd@bexp,w
  4377  0A71  1903               	btfsc	3,2
  4378  0A72  2A74               	goto	u4111
  4379  0A73  2A75               	goto	u4110
  4380  0A74                     u4111:
  4381  0A74  2A77               	goto	l2888
  4382  0A75                     u4110:
  4383  0A75                     l2886:
  4384  0A75  3001               	movlw	1
  4385  0A76  02B2               	subwf	___fladd@bexp,f
  4386  0A77                     l2888:
  4387  0A77  1FA2               	btfss	___fladd@b+2,7
  4388  0A78  2A7A               	goto	u4121
  4389  0A79  2A7B               	goto	u4120
  4390  0A7A                     u4121:
  4391  0A7A  2A59               	goto	l2874
  4392  0A7B                     u4120:
  4393  0A7B                     l2890:
  4394  0A7B  01B1               	clrf	___fladd@aexp
  4395  0A7C                     l2892:
  4396  0A7C  1FB3               	btfss	___fladd@grs,7
  4397  0A7D  2A7F               	goto	u4131
  4398  0A7E  2A80               	goto	u4130
  4399  0A7F                     u4131:
  4400  0A7F  2A8E               	goto	l2900
  4401  0A80                     u4130:
  4402  0A80                     l2894:
  4403  0A80  0833               	movf	___fladd@grs,w
  4404  0A81  397F               	andlw	127
  4405  0A82  1903               	btfsc	3,2
  4406  0A83  2A85               	goto	u4141
  4407  0A84  2A86               	goto	u4140
  4408  0A85                     u4141:
  4409  0A85  2A89               	goto	l594
  4410  0A86                     u4140:
  4411  0A86                     l2896:
  4412  0A86  01B1               	clrf	___fladd@aexp
  4413  0A87  0AB1               	incf	___fladd@aexp,f
  4414  0A88  2A8E               	goto	l2900
  4415  0A89                     l594:
  4416  0A89  1C20               	btfss	___fladd@b,0
  4417  0A8A  2A8C               	goto	u4151
  4418  0A8B  2A8D               	goto	u4150
  4419  0A8C                     u4151:
  4420  0A8C  2A8E               	goto	l2900
  4421  0A8D                     u4150:
  4422  0A8D  2A86               	goto	l2896
  4423  0A8E                     l2900:
  4424  0A8E  0831               	movf	___fladd@aexp,w
  4425  0A8F  1903               	btfsc	3,2
  4426  0A90  2A92               	goto	u4161
  4427  0A91  2A93               	goto	u4160
  4428  0A92                     u4161:
  4429  0A92  2AC7               	goto	l597
  4430  0A93                     u4160:
  4431  0A93                     l2902:
  4432  0A93  3001               	movlw	1
  4433  0A94  07A0               	addwf	___fladd@b,f
  4434  0A95  3000               	movlw	0
  4435  0A96  1803               	skipnc
  4436  0A97  3001               	movlw	1
  4437  0A98  07A1               	addwf	___fladd@b+1,f
  4438  0A99  3000               	movlw	0
  4439  0A9A  1803               	skipnc
  4440  0A9B  3001               	movlw	1
  4441  0A9C  07A2               	addwf	___fladd@b+2,f
  4442  0A9D  3000               	movlw	0
  4443  0A9E  1803               	skipnc
  4444  0A9F  3001               	movlw	1
  4445  0AA0  07A3               	addwf	___fladd@b+3,f
  4446  0AA1                     l2904:
  4447  0AA1  1C23               	btfss	___fladd@b+3,0
  4448  0AA2  2AA4               	goto	u4171
  4449  0AA3  2AA5               	goto	u4170
  4450  0AA4                     u4171:
  4451  0AA4  2AC7               	goto	l597
  4452  0AA5                     u4170:
  4453  0AA5                     l2906:
  4454  0AA5  0820               	movf	___fladd@b,w
  4455  0AA6  00A8               	movwf	??___fladd
  4456  0AA7  0821               	movf	___fladd@b+1,w
  4457  0AA8  00A9               	movwf	??___fladd+1
  4458  0AA9  0822               	movf	___fladd@b+2,w
  4459  0AAA  00AA               	movwf	??___fladd+2
  4460  0AAB  0823               	movf	___fladd@b+3,w
  4461  0AAC  00AB               	movwf	??___fladd+3
  4462  0AAD  3001               	movlw	1
  4463  0AAE  00AC               	movwf	??___fladd+4
  4464  0AAF                     u4185:
  4465  0AAF  0D2B               	rlf	??___fladd+3,w
  4466  0AB0  0CAB               	rrf	??___fladd+3,f
  4467  0AB1  0CAA               	rrf	??___fladd+2,f
  4468  0AB2  0CA9               	rrf	??___fladd+1,f
  4469  0AB3  0CA8               	rrf	??___fladd,f
  4470  0AB4                     u4180:
  4471  0AB4  0BAC               	decfsz	??___fladd+4,f
  4472  0AB5  2AAF               	goto	u4185
  4473  0AB6  082B               	movf	??___fladd+3,w
  4474  0AB7  00A3               	movwf	___fladd@b+3
  4475  0AB8  082A               	movf	??___fladd+2,w
  4476  0AB9  00A2               	movwf	___fladd@b+2
  4477  0ABA  0829               	movf	??___fladd+1,w
  4478  0ABB  00A1               	movwf	___fladd@b+1
  4479  0ABC  0828               	movf	??___fladd,w
  4480  0ABD  00A0               	movwf	___fladd@b
  4481  0ABE  0A32               	incf	___fladd@bexp,w
  4482  0ABF  1903               	btfsc	3,2
  4483  0AC0  2AC2               	goto	u4191
  4484  0AC1  2AC3               	goto	u4190
  4485  0AC2                     u4191:
  4486  0AC2  2AC7               	goto	l597
  4487  0AC3                     u4190:
  4488  0AC3                     l2908:
  4489  0AC3  3001               	movlw	1
  4490  0AC4  00A8               	movwf	??___fladd
  4491  0AC5  0828               	movf	??___fladd,w
  4492  0AC6  07B2               	addwf	___fladd@bexp,f
  4493  0AC7                     l597:
  4494  0AC7  0A32               	incf	___fladd@bexp,w
  4495  0AC8  1903               	btfsc	3,2
  4496  0AC9  2ACB               	goto	u4201
  4497  0ACA  2ACC               	goto	u4200
  4498  0ACB                     u4201:
  4499  0ACB  2AD1               	goto	l2912
  4500  0ACC                     u4200:
  4501  0ACC                     l2910:
  4502  0ACC  0832               	movf	___fladd@bexp,w
  4503  0ACD  1D03               	btfss	3,2
  4504  0ACE  2AD0               	goto	u4211
  4505  0ACF  2AD1               	goto	u4210
  4506  0AD0                     u4211:
  4507  0AD0  2ADF               	goto	l2918
  4508  0AD1                     u4210:
  4509  0AD1                     l2912:
  4510  0AD1  3000               	movlw	0
  4511  0AD2  00A3               	movwf	___fladd@b+3
  4512  0AD3  3000               	movlw	0
  4513  0AD4  00A2               	movwf	___fladd@b+2
  4514  0AD5  3000               	movlw	0
  4515  0AD6  00A1               	movwf	___fladd@b+1
  4516  0AD7  3000               	movlw	0
  4517  0AD8  00A0               	movwf	___fladd@b
  4518  0AD9                     l2914:
  4519  0AD9  0832               	movf	___fladd@bexp,w
  4520  0ADA  1D03               	btfss	3,2
  4521  0ADB  2ADD               	goto	u4221
  4522  0ADC  2ADE               	goto	u4220
  4523  0ADD                     u4221:
  4524  0ADD  2ADF               	goto	l2918
  4525  0ADE                     u4220:
  4526  0ADE                     l2916:
  4527  0ADE  01B0               	clrf	___fladd@signs
  4528  0ADF                     l2918:
  4529  0ADF  1C32               	btfss	___fladd@bexp,0
  4530  0AE0  2AE2               	goto	u4231
  4531  0AE1  2AE3               	goto	u4230
  4532  0AE2                     u4231:
  4533  0AE2  2AE5               	goto	l2922
  4534  0AE3                     u4230:
  4535  0AE3                     l2920:
  4536  0AE3  17A2               	bsf	___fladd@b+2,7
  4537  0AE4  2AE9               	goto	l605
  4538  0AE5                     l2922:
  4539  0AE5  307F               	movlw	127
  4540  0AE6  00A8               	movwf	??___fladd
  4541  0AE7  0828               	movf	??___fladd,w
  4542  0AE8  05A2               	andwf	___fladd@b+2,f
  4543  0AE9                     l605:
  4544  0AE9  0832               	movf	___fladd@bexp,w
  4545  0AEA  00A8               	movwf	??___fladd
  4546  0AEB  1003               	clrc
  4547  0AEC  0C28               	rrf	??___fladd,w
  4548  0AED  00A9               	movwf	??___fladd+1
  4549  0AEE  0829               	movf	??___fladd+1,w
  4550  0AEF  00A3               	movwf	___fladd@b+3
  4551  0AF0                     l2924:
  4552  0AF0  1FB0               	btfss	___fladd@signs,7
  4553  0AF1  2AF3               	goto	u4241
  4554  0AF2  2AF4               	goto	u4240
  4555  0AF3                     u4241:
  4556  0AF3  2AF5               	goto	l606
  4557  0AF4                     u4240:
  4558  0AF4                     l2926:
  4559  0AF4  17A3               	bsf	___fladd@b+3,7
  4560  0AF5                     l606:
  4561  0AF5                     l576:
  4562  0AF5  0008               	return
  4563  0AF6                     __end_of___fladd:
  4564                           
  4565                           	psect	text8
  4566  0024                     __ptext8:	
  4567 ;; *************** function ___flmul *****************
  4568 ;; Defined at:
  4569 ;;		line 8 in file "C:\Program Files\Microchip\xc8\v2.31\pic\sources\c90\common\sprcmul.c"
  4570 ;; Parameters:    Size  Location     Type
  4571 ;;  b               4   57[BANK0 ] unsigned char 
  4572 ;;  a               4   61[BANK0 ] unsigned char 
  4573 ;; Auto vars:     Size  Location     Type
  4574 ;;  prod            4    7[BANK1 ] struct .
  4575 ;;  grs             4    2[BANK1 ] unsigned long 
  4576 ;;  temp            2   11[BANK1 ] struct .
  4577 ;;  bexp            1    6[BANK1 ] unsigned char 
  4578 ;;  aexp            1    1[BANK1 ] unsigned char 
  4579 ;;  sign            1    0[BANK1 ] unsigned char 
  4580 ;; Return value:  Size  Location     Type
  4581 ;;                  4   57[BANK0 ] unsigned char 
  4582 ;; Registers used:
  4583 ;;		wreg, status,2, status,0, btemp+1, pclath, cstack
  4584 ;; Tracked objects:
  4585 ;;		On entry : 0/0
  4586 ;;		On exit  : 0/0
  4587 ;;		Unchanged: 0/0
  4588 ;; Data sizes:     COMMON   BANK0   BANK1   BANK3   BANK2
  4589 ;;      Params:         0       8       0       0       0
  4590 ;;      Locals:         0       0      13       0       0
  4591 ;;      Temps:          0       5       0       0       0
  4592 ;;      Totals:         0      13      13       0       0
  4593 ;;Total ram usage:       26 bytes
  4594 ;; Hardware stack levels used:    1
  4595 ;; Hardware stack levels required when called:    2
  4596 ;; This function calls:
  4597 ;;		__Umul8_16
  4598 ;; This function is called by:
  4599 ;;		_main
  4600 ;;		_convert
  4601 ;; This function uses a non-reentrant model
  4602 ;;
  4603                           
  4604                           
  4605                           ;psect for function ___flmul
  4606  0024                     ___flmul:
  4607  0024                     l3224:	
  4608                           ;incstack = 0
  4609                           ; Regs used in ___flmul: [wreg+status,2+status,0+btemp+1+pclath+cstack]
  4610                           
  4611  0024  1283               	bcf	3,5	;RP0=0, select bank0
  4612  0025  1303               	bcf	3,6	;RP1=0, select bank0
  4613  0026  085C               	movf	___flmul@b+3,w
  4614  0027  3980               	andlw	128
  4615  0028  00E1               	movwf	??___flmul
  4616  0029  0861               	movf	??___flmul,w
  4617  002A  1683               	bsf	3,5	;RP0=1, select bank1
  4618  002B  1303               	bcf	3,6	;RP1=0, select bank1
  4619  002C  00D5               	movwf	___flmul@sign^(0+128)
  4620  002D                     l3226:
  4621  002D  1283               	bcf	3,5	;RP0=0, select bank0
  4622  002E  1303               	bcf	3,6	;RP1=0, select bank0
  4623  002F  085C               	movf	___flmul@b+3,w
  4624  0030  00E1               	movwf	??___flmul
  4625  0031  0761               	addwf	??___flmul,w
  4626  0032  00E2               	movwf	??___flmul+1
  4627  0033  0862               	movf	??___flmul+1,w
  4628  0034  1683               	bsf	3,5	;RP0=1, select bank1
  4629  0035  1303               	bcf	3,6	;RP1=0, select bank1
  4630  0036  00DB               	movwf	___flmul@bexp^(0+128)
  4631  0037                     l3228:
  4632  0037  1283               	bcf	3,5	;RP0=0, select bank0
  4633  0038  1303               	bcf	3,6	;RP1=0, select bank0
  4634  0039  1FDB               	btfss	___flmul@b+2,7
  4635  003A  283C               	goto	u4881
  4636  003B  283D               	goto	u4880
  4637  003C                     u4881:
  4638  003C  2840               	goto	l3232
  4639  003D                     u4880:
  4640  003D                     l3230:
  4641  003D  1683               	bsf	3,5	;RP0=1, select bank1
  4642  003E  1303               	bcf	3,6	;RP1=0, select bank1
  4643  003F  145B               	bsf	___flmul@bexp^(0+128),0
  4644  0040                     l3232:
  4645  0040  1683               	bsf	3,5	;RP0=1, select bank1
  4646  0041  1303               	bcf	3,6	;RP1=0, select bank1
  4647  0042  085B               	movf	___flmul@bexp^(0+128),w
  4648  0043  1903               	btfsc	3,2
  4649  0044  2846               	goto	u4891
  4650  0045  2847               	goto	u4890
  4651  0046                     u4891:
  4652  0046  2859               	goto	l3240
  4653  0047                     u4890:
  4654  0047                     l3234:
  4655  0047  0A5B               	incf	___flmul@bexp^(0+128),w
  4656  0048  1D03               	btfss	3,2
  4657  0049  284B               	goto	u4901
  4658  004A  284C               	goto	u4900
  4659  004B                     u4901:
  4660  004B  2856               	goto	l3238
  4661  004C                     u4900:
  4662  004C                     l3236:
  4663  004C  3000               	movlw	0
  4664  004D  1283               	bcf	3,5	;RP0=0, select bank0
  4665  004E  1303               	bcf	3,6	;RP1=0, select bank0
  4666  004F  00DC               	movwf	___flmul@b+3
  4667  0050  3000               	movlw	0
  4668  0051  00DB               	movwf	___flmul@b+2
  4669  0052  3000               	movlw	0
  4670  0053  00DA               	movwf	___flmul@b+1
  4671  0054  3000               	movlw	0
  4672  0055  00D9               	movwf	___flmul@b
  4673  0056                     l3238:
  4674  0056  1283               	bcf	3,5	;RP0=0, select bank0
  4675  0057  17DB               	bsf	___flmul@b+2,7
  4676  0058  2863               	goto	l3242
  4677  0059                     l3240:
  4678  0059  3000               	movlw	0
  4679  005A  1283               	bcf	3,5	;RP0=0, select bank0
  4680  005B  1303               	bcf	3,6	;RP1=0, select bank0
  4681  005C  00DC               	movwf	___flmul@b+3
  4682  005D  3000               	movlw	0
  4683  005E  00DB               	movwf	___flmul@b+2
  4684  005F  3000               	movlw	0
  4685  0060  00DA               	movwf	___flmul@b+1
  4686  0061  3000               	movlw	0
  4687  0062  00D9               	movwf	___flmul@b
  4688  0063                     l3242:
  4689  0063  0860               	movf	___flmul@a+3,w
  4690  0064  3980               	andlw	128
  4691  0065  00E1               	movwf	??___flmul
  4692  0066  0861               	movf	??___flmul,w
  4693  0067  1683               	bsf	3,5	;RP0=1, select bank1
  4694  0068  1303               	bcf	3,6	;RP1=0, select bank1
  4695  0069  06D5               	xorwf	___flmul@sign^(0+128),f
  4696  006A                     l3244:
  4697  006A  1283               	bcf	3,5	;RP0=0, select bank0
  4698  006B  1303               	bcf	3,6	;RP1=0, select bank0
  4699  006C  0860               	movf	___flmul@a+3,w
  4700  006D  00E1               	movwf	??___flmul
  4701  006E  0761               	addwf	??___flmul,w
  4702  006F  00E2               	movwf	??___flmul+1
  4703  0070  0862               	movf	??___flmul+1,w
  4704  0071  1683               	bsf	3,5	;RP0=1, select bank1
  4705  0072  1303               	bcf	3,6	;RP1=0, select bank1
  4706  0073  00D6               	movwf	___flmul@aexp^(0+128)
  4707  0074                     l3246:
  4708  0074  1283               	bcf	3,5	;RP0=0, select bank0
  4709  0075  1303               	bcf	3,6	;RP1=0, select bank0
  4710  0076  1FDF               	btfss	___flmul@a+2,7
  4711  0077  2879               	goto	u4911
  4712  0078  287A               	goto	u4910
  4713  0079                     u4911:
  4714  0079  287D               	goto	l3250
  4715  007A                     u4910:
  4716  007A                     l3248:
  4717  007A  1683               	bsf	3,5	;RP0=1, select bank1
  4718  007B  1303               	bcf	3,6	;RP1=0, select bank1
  4719  007C  1456               	bsf	___flmul@aexp^(0+128),0
  4720  007D                     l3250:
  4721  007D  1683               	bsf	3,5	;RP0=1, select bank1
  4722  007E  1303               	bcf	3,6	;RP1=0, select bank1
  4723  007F  0856               	movf	___flmul@aexp^(0+128),w
  4724  0080  1903               	btfsc	3,2
  4725  0081  2883               	goto	u4921
  4726  0082  2884               	goto	u4920
  4727  0083                     u4921:
  4728  0083  2896               	goto	l3258
  4729  0084                     u4920:
  4730  0084                     l3252:
  4731  0084  0A56               	incf	___flmul@aexp^(0+128),w
  4732  0085  1D03               	btfss	3,2
  4733  0086  2888               	goto	u4931
  4734  0087  2889               	goto	u4930
  4735  0088                     u4931:
  4736  0088  2893               	goto	l3256
  4737  0089                     u4930:
  4738  0089                     l3254:
  4739  0089  3000               	movlw	0
  4740  008A  1283               	bcf	3,5	;RP0=0, select bank0
  4741  008B  1303               	bcf	3,6	;RP1=0, select bank0
  4742  008C  00E0               	movwf	___flmul@a+3
  4743  008D  3000               	movlw	0
  4744  008E  00DF               	movwf	___flmul@a+2
  4745  008F  3000               	movlw	0
  4746  0090  00DE               	movwf	___flmul@a+1
  4747  0091  3000               	movlw	0
  4748  0092  00DD               	movwf	___flmul@a
  4749  0093                     l3256:
  4750  0093  1283               	bcf	3,5	;RP0=0, select bank0
  4751  0094  17DF               	bsf	___flmul@a+2,7
  4752  0095  28A0               	goto	l3260
  4753  0096                     l3258:
  4754  0096  3000               	movlw	0
  4755  0097  1283               	bcf	3,5	;RP0=0, select bank0
  4756  0098  1303               	bcf	3,6	;RP1=0, select bank0
  4757  0099  00E0               	movwf	___flmul@a+3
  4758  009A  3000               	movlw	0
  4759  009B  00DF               	movwf	___flmul@a+2
  4760  009C  3000               	movlw	0
  4761  009D  00DE               	movwf	___flmul@a+1
  4762  009E  3000               	movlw	0
  4763  009F  00DD               	movwf	___flmul@a
  4764  00A0                     l3260:
  4765  00A0  1683               	bsf	3,5	;RP0=1, select bank1
  4766  00A1  1303               	bcf	3,6	;RP1=0, select bank1
  4767  00A2  0856               	movf	___flmul@aexp^(0+128),w
  4768  00A3  1903               	btfsc	3,2
  4769  00A4  28A6               	goto	u4941
  4770  00A5  28A7               	goto	u4940
  4771  00A6                     u4941:
  4772  00A6  28AC               	goto	l3264
  4773  00A7                     u4940:
  4774  00A7                     l3262:
  4775  00A7  085B               	movf	___flmul@bexp^(0+128),w
  4776  00A8  1D03               	btfss	3,2
  4777  00A9  28AB               	goto	u4951
  4778  00AA  28AC               	goto	u4950
  4779  00AB                     u4951:
  4780  00AB  28B7               	goto	l3268
  4781  00AC                     u4950:
  4782  00AC                     l3264:
  4783  00AC  3000               	movlw	0
  4784  00AD  1283               	bcf	3,5	;RP0=0, select bank0
  4785  00AE  1303               	bcf	3,6	;RP1=0, select bank0
  4786  00AF  00DC               	movwf	?___flmul+3
  4787  00B0  3000               	movlw	0
  4788  00B1  00DB               	movwf	?___flmul+2
  4789  00B2  3000               	movlw	0
  4790  00B3  00DA               	movwf	?___flmul+1
  4791  00B4  3000               	movlw	0
  4792  00B5  00D9               	movwf	?___flmul
  4793  00B6  2D82               	goto	l659
  4794  00B7                     l3268:
  4795  00B7  1283               	bcf	3,5	;RP0=0, select bank0
  4796  00B8  1303               	bcf	3,6	;RP1=0, select bank0
  4797  00B9  0859               	movf	___flmul@b,w
  4798  00BA  00E1               	movwf	??___flmul
  4799  00BB  0861               	movf	??___flmul,w
  4800  00BC  00A0               	movwf	__Umul8_16@multiplicand
  4801  00BD  085F               	movf	___flmul@a+2,w
  4802  00BE  160A  118A  2375  120A  118A  	fcall	__Umul8_16
  4803  00C3  1283               	bcf	3,5	;RP0=0, select bank0
  4804  00C4  1303               	bcf	3,6	;RP1=0, select bank0
  4805  00C5  0821               	movf	?__Umul8_16+1,w
  4806  00C6  1683               	bsf	3,5	;RP0=1, select bank1
  4807  00C7  1303               	bcf	3,6	;RP1=0, select bank1
  4808  00C8  00E1               	movwf	(___flmul@temp+1)^(0+128)
  4809  00C9  1283               	bcf	3,5	;RP0=0, select bank0
  4810  00CA  1303               	bcf	3,6	;RP1=0, select bank0
  4811  00CB  0820               	movf	?__Umul8_16,w
  4812  00CC  1683               	bsf	3,5	;RP0=1, select bank1
  4813  00CD  1303               	bcf	3,6	;RP1=0, select bank1
  4814  00CE  00E0               	movwf	___flmul@temp^(0+128)
  4815  00CF                     l3270:
  4816  00CF  0860               	movf	___flmul@temp^(0+128),w
  4817  00D0  1283               	bcf	3,5	;RP0=0, select bank0
  4818  00D1  1303               	bcf	3,6	;RP1=0, select bank0
  4819  00D2  00E1               	movwf	??___flmul
  4820  00D3  01E2               	clrf	??___flmul+1
  4821  00D4  01E3               	clrf	??___flmul+2
  4822  00D5  01E4               	clrf	??___flmul+3
  4823  00D6  0864               	movf	??___flmul+3,w
  4824  00D7  1683               	bsf	3,5	;RP0=1, select bank1
  4825  00D8  1303               	bcf	3,6	;RP1=0, select bank1
  4826  00D9  00DA               	movwf	(___flmul@grs+3)^(0+128)
  4827  00DA  1283               	bcf	3,5	;RP0=0, select bank0
  4828  00DB  1303               	bcf	3,6	;RP1=0, select bank0
  4829  00DC  0863               	movf	??___flmul+2,w
  4830  00DD  1683               	bsf	3,5	;RP0=1, select bank1
  4831  00DE  1303               	bcf	3,6	;RP1=0, select bank1
  4832  00DF  00D9               	movwf	(___flmul@grs+2)^(0+128)
  4833  00E0  1283               	bcf	3,5	;RP0=0, select bank0
  4834  00E1  1303               	bcf	3,6	;RP1=0, select bank0
  4835  00E2  0862               	movf	??___flmul+1,w
  4836  00E3  1683               	bsf	3,5	;RP0=1, select bank1
  4837  00E4  1303               	bcf	3,6	;RP1=0, select bank1
  4838  00E5  00D8               	movwf	(___flmul@grs+1)^(0+128)
  4839  00E6  1283               	bcf	3,5	;RP0=0, select bank0
  4840  00E7  1303               	bcf	3,6	;RP1=0, select bank0
  4841  00E8  0861               	movf	??___flmul,w
  4842  00E9  1683               	bsf	3,5	;RP0=1, select bank1
  4843  00EA  1303               	bcf	3,6	;RP1=0, select bank1
  4844  00EB  00D7               	movwf	___flmul@grs^(0+128)
  4845  00EC                     l3272:
  4846  00EC  0861               	movf	(___flmul@temp^(0+128)+1),w
  4847  00ED  1283               	bcf	3,5	;RP0=0, select bank0
  4848  00EE  1303               	bcf	3,6	;RP1=0, select bank0
  4849  00EF  00E1               	movwf	??___flmul
  4850  00F0  01E2               	clrf	??___flmul+1
  4851  00F1  01E3               	clrf	??___flmul+2
  4852  00F2  01E4               	clrf	??___flmul+3
  4853  00F3  0864               	movf	??___flmul+3,w
  4854  00F4  1683               	bsf	3,5	;RP0=1, select bank1
  4855  00F5  1303               	bcf	3,6	;RP1=0, select bank1
  4856  00F6  00DF               	movwf	(___flmul@prod+3)^(0+128)
  4857  00F7  1283               	bcf	3,5	;RP0=0, select bank0
  4858  00F8  1303               	bcf	3,6	;RP1=0, select bank0
  4859  00F9  0863               	movf	??___flmul+2,w
  4860  00FA  1683               	bsf	3,5	;RP0=1, select bank1
  4861  00FB  1303               	bcf	3,6	;RP1=0, select bank1
  4862  00FC  00DE               	movwf	(___flmul@prod+2)^(0+128)
  4863  00FD  1283               	bcf	3,5	;RP0=0, select bank0
  4864  00FE  1303               	bcf	3,6	;RP1=0, select bank0
  4865  00FF  0862               	movf	??___flmul+1,w
  4866  0100  1683               	bsf	3,5	;RP0=1, select bank1
  4867  0101  1303               	bcf	3,6	;RP1=0, select bank1
  4868  0102  00DD               	movwf	(___flmul@prod+1)^(0+128)
  4869  0103  1283               	bcf	3,5	;RP0=0, select bank0
  4870  0104  1303               	bcf	3,6	;RP1=0, select bank0
  4871  0105  0861               	movf	??___flmul,w
  4872  0106  1683               	bsf	3,5	;RP0=1, select bank1
  4873  0107  1303               	bcf	3,6	;RP1=0, select bank1
  4874  0108  00DC               	movwf	___flmul@prod^(0+128)
  4875  0109  1283               	bcf	3,5	;RP0=0, select bank0
  4876  010A  1303               	bcf	3,6	;RP1=0, select bank0
  4877  010B  085A               	movf	___flmul@b+1,w
  4878  010C  00E1               	movwf	??___flmul
  4879  010D  0861               	movf	??___flmul,w
  4880  010E  00A0               	movwf	__Umul8_16@multiplicand
  4881  010F  085E               	movf	___flmul@a+1,w
  4882  0110  160A  118A  2375  120A  118A  	fcall	__Umul8_16
  4883  0115  1283               	bcf	3,5	;RP0=0, select bank0
  4884  0116  1303               	bcf	3,6	;RP1=0, select bank0
  4885  0117  0821               	movf	?__Umul8_16+1,w
  4886  0118  1683               	bsf	3,5	;RP0=1, select bank1
  4887  0119  1303               	bcf	3,6	;RP1=0, select bank1
  4888  011A  00E1               	movwf	(___flmul@temp+1)^(0+128)
  4889  011B  1283               	bcf	3,5	;RP0=0, select bank0
  4890  011C  1303               	bcf	3,6	;RP1=0, select bank0
  4891  011D  0820               	movf	?__Umul8_16,w
  4892  011E  1683               	bsf	3,5	;RP0=1, select bank1
  4893  011F  1303               	bcf	3,6	;RP1=0, select bank1
  4894  0120  00E0               	movwf	___flmul@temp^(0+128)
  4895  0121                     l3274:
  4896  0121  0860               	movf	___flmul@temp^(0+128),w
  4897  0122  1283               	bcf	3,5	;RP0=0, select bank0
  4898  0123  1303               	bcf	3,6	;RP1=0, select bank0
  4899  0124  00E1               	movwf	??___flmul
  4900  0125  01E2               	clrf	??___flmul+1
  4901  0126  01E3               	clrf	??___flmul+2
  4902  0127  01E4               	clrf	??___flmul+3
  4903  0128  0861               	movf	??___flmul,w
  4904  0129  1683               	bsf	3,5	;RP0=1, select bank1
  4905  012A  1303               	bcf	3,6	;RP1=0, select bank1
  4906  012B  07D7               	addwf	___flmul@grs^(0+128),f
  4907  012C  1283               	bcf	3,5	;RP0=0, select bank0
  4908  012D  1303               	bcf	3,6	;RP1=0, select bank0
  4909  012E  0862               	movf	??___flmul+1,w
  4910  012F  1103               	clrz
  4911  0130  1803               	skipnc
  4912  0131  3E01               	addlw	1
  4913  0132  1903               	skipnz
  4914  0133  2937               	goto	u4961
  4915  0134  1683               	bsf	3,5	;RP0=1, select bank1
  4916  0135  1303               	bcf	3,6	;RP1=0, select bank1
  4917  0136  07D8               	addwf	(___flmul@grs+1)^(0+128),f
  4918  0137                     u4961:
  4919  0137  1283               	bcf	3,5	;RP0=0, select bank0
  4920  0138  1303               	bcf	3,6	;RP1=0, select bank0
  4921  0139  0863               	movf	??___flmul+2,w
  4922  013A  1103               	clrz
  4923  013B  1803               	skipnc
  4924  013C  3E01               	addlw	1
  4925  013D  1903               	skipnz
  4926  013E  2942               	goto	u4962
  4927  013F  1683               	bsf	3,5	;RP0=1, select bank1
  4928  0140  1303               	bcf	3,6	;RP1=0, select bank1
  4929  0141  07D9               	addwf	(___flmul@grs+2)^(0+128),f
  4930  0142                     u4962:
  4931  0142  1283               	bcf	3,5	;RP0=0, select bank0
  4932  0143  1303               	bcf	3,6	;RP1=0, select bank0
  4933  0144  0864               	movf	??___flmul+3,w
  4934  0145  1103               	clrz
  4935  0146  1803               	skipnc
  4936  0147  3E01               	addlw	1
  4937  0148  1903               	skipnz
  4938  0149  294D               	goto	u4963
  4939  014A  1683               	bsf	3,5	;RP0=1, select bank1
  4940  014B  1303               	bcf	3,6	;RP1=0, select bank1
  4941  014C  07DA               	addwf	(___flmul@grs+3)^(0+128),f
  4942  014D                     u4963:
  4943  014D  1283               	bcf	3,5	;RP0=0, select bank0
  4944  014E  1303               	bcf	3,6	;RP1=0, select bank0
  4945  014F  1683               	bsf	3,5	;RP0=1, select bank1
  4946  0150  1303               	bcf	3,6	;RP1=0, select bank1
  4947  0151                     l3276:
  4948  0151  0861               	movf	(___flmul@temp^(0+128)+1),w
  4949  0152  1283               	bcf	3,5	;RP0=0, select bank0
  4950  0153  1303               	bcf	3,6	;RP1=0, select bank0
  4951  0154  00E1               	movwf	??___flmul
  4952  0155  01E2               	clrf	??___flmul+1
  4953  0156  01E3               	clrf	??___flmul+2
  4954  0157  01E4               	clrf	??___flmul+3
  4955  0158  0861               	movf	??___flmul,w
  4956  0159  1683               	bsf	3,5	;RP0=1, select bank1
  4957  015A  1303               	bcf	3,6	;RP1=0, select bank1
  4958  015B  07DC               	addwf	___flmul@prod^(0+128),f
  4959  015C  1283               	bcf	3,5	;RP0=0, select bank0
  4960  015D  1303               	bcf	3,6	;RP1=0, select bank0
  4961  015E  0862               	movf	??___flmul+1,w
  4962  015F  1103               	clrz
  4963  0160  1803               	skipnc
  4964  0161  3E01               	addlw	1
  4965  0162  1903               	skipnz
  4966  0163  2967               	goto	u4971
  4967  0164  1683               	bsf	3,5	;RP0=1, select bank1
  4968  0165  1303               	bcf	3,6	;RP1=0, select bank1
  4969  0166  07DD               	addwf	(___flmul@prod+1)^(0+128),f
  4970  0167                     u4971:
  4971  0167  1283               	bcf	3,5	;RP0=0, select bank0
  4972  0168  1303               	bcf	3,6	;RP1=0, select bank0
  4973  0169  0863               	movf	??___flmul+2,w
  4974  016A  1103               	clrz
  4975  016B  1803               	skipnc
  4976  016C  3E01               	addlw	1
  4977  016D  1903               	skipnz
  4978  016E  2972               	goto	u4972
  4979  016F  1683               	bsf	3,5	;RP0=1, select bank1
  4980  0170  1303               	bcf	3,6	;RP1=0, select bank1
  4981  0171  07DE               	addwf	(___flmul@prod+2)^(0+128),f
  4982  0172                     u4972:
  4983  0172  1283               	bcf	3,5	;RP0=0, select bank0
  4984  0173  1303               	bcf	3,6	;RP1=0, select bank0
  4985  0174  0864               	movf	??___flmul+3,w
  4986  0175  1103               	clrz
  4987  0176  1803               	skipnc
  4988  0177  3E01               	addlw	1
  4989  0178  1903               	skipnz
  4990  0179  297D               	goto	u4973
  4991  017A  1683               	bsf	3,5	;RP0=1, select bank1
  4992  017B  1303               	bcf	3,6	;RP1=0, select bank1
  4993  017C  07DF               	addwf	(___flmul@prod+3)^(0+128),f
  4994  017D                     u4973:
  4995  017D  1283               	bcf	3,5	;RP0=0, select bank0
  4996  017E  1303               	bcf	3,6	;RP1=0, select bank0
  4997  017F  1683               	bsf	3,5	;RP0=1, select bank1
  4998  0180  1303               	bcf	3,6	;RP1=0, select bank1
  4999  0181  1283               	bcf	3,5	;RP0=0, select bank0
  5000  0182  1303               	bcf	3,6	;RP1=0, select bank0
  5001  0183  085B               	movf	___flmul@b+2,w
  5002  0184  00E1               	movwf	??___flmul
  5003  0185  0861               	movf	??___flmul,w
  5004  0186  00A0               	movwf	__Umul8_16@multiplicand
  5005  0187  085D               	movf	___flmul@a,w
  5006  0188  160A  118A  2375  120A  118A  	fcall	__Umul8_16
  5007  018D  1283               	bcf	3,5	;RP0=0, select bank0
  5008  018E  1303               	bcf	3,6	;RP1=0, select bank0
  5009  018F  0821               	movf	?__Umul8_16+1,w
  5010  0190  1683               	bsf	3,5	;RP0=1, select bank1
  5011  0191  1303               	bcf	3,6	;RP1=0, select bank1
  5012  0192  00E1               	movwf	(___flmul@temp+1)^(0+128)
  5013  0193  1283               	bcf	3,5	;RP0=0, select bank0
  5014  0194  1303               	bcf	3,6	;RP1=0, select bank0
  5015  0195  0820               	movf	?__Umul8_16,w
  5016  0196  1683               	bsf	3,5	;RP0=1, select bank1
  5017  0197  1303               	bcf	3,6	;RP1=0, select bank1
  5018  0198  00E0               	movwf	___flmul@temp^(0+128)
  5019  0199                     l3278:
  5020  0199  0860               	movf	___flmul@temp^(0+128),w
  5021  019A  1283               	bcf	3,5	;RP0=0, select bank0
  5022  019B  1303               	bcf	3,6	;RP1=0, select bank0
  5023  019C  00E1               	movwf	??___flmul
  5024  019D  01E2               	clrf	??___flmul+1
  5025  019E  01E3               	clrf	??___flmul+2
  5026  019F  01E4               	clrf	??___flmul+3
  5027  01A0  0861               	movf	??___flmul,w
  5028  01A1  1683               	bsf	3,5	;RP0=1, select bank1
  5029  01A2  1303               	bcf	3,6	;RP1=0, select bank1
  5030  01A3  07D7               	addwf	___flmul@grs^(0+128),f
  5031  01A4  1283               	bcf	3,5	;RP0=0, select bank0
  5032  01A5  1303               	bcf	3,6	;RP1=0, select bank0
  5033  01A6  0862               	movf	??___flmul+1,w
  5034  01A7  1103               	clrz
  5035  01A8  1803               	skipnc
  5036  01A9  3E01               	addlw	1
  5037  01AA  1903               	skipnz
  5038  01AB  29AF               	goto	u4981
  5039  01AC  1683               	bsf	3,5	;RP0=1, select bank1
  5040  01AD  1303               	bcf	3,6	;RP1=0, select bank1
  5041  01AE  07D8               	addwf	(___flmul@grs+1)^(0+128),f
  5042  01AF                     u4981:
  5043  01AF  1283               	bcf	3,5	;RP0=0, select bank0
  5044  01B0  1303               	bcf	3,6	;RP1=0, select bank0
  5045  01B1  0863               	movf	??___flmul+2,w
  5046  01B2  1103               	clrz
  5047  01B3  1803               	skipnc
  5048  01B4  3E01               	addlw	1
  5049  01B5  1903               	skipnz
  5050  01B6  29BA               	goto	u4982
  5051  01B7  1683               	bsf	3,5	;RP0=1, select bank1
  5052  01B8  1303               	bcf	3,6	;RP1=0, select bank1
  5053  01B9  07D9               	addwf	(___flmul@grs+2)^(0+128),f
  5054  01BA                     u4982:
  5055  01BA  1283               	bcf	3,5	;RP0=0, select bank0
  5056  01BB  1303               	bcf	3,6	;RP1=0, select bank0
  5057  01BC  0864               	movf	??___flmul+3,w
  5058  01BD  1103               	clrz
  5059  01BE  1803               	skipnc
  5060  01BF  3E01               	addlw	1
  5061  01C0  1903               	skipnz
  5062  01C1  29C5               	goto	u4983
  5063  01C2  1683               	bsf	3,5	;RP0=1, select bank1
  5064  01C3  1303               	bcf	3,6	;RP1=0, select bank1
  5065  01C4  07DA               	addwf	(___flmul@grs+3)^(0+128),f
  5066  01C5                     u4983:
  5067  01C5  1283               	bcf	3,5	;RP0=0, select bank0
  5068  01C6  1303               	bcf	3,6	;RP1=0, select bank0
  5069  01C7  1683               	bsf	3,5	;RP0=1, select bank1
  5070  01C8  1303               	bcf	3,6	;RP1=0, select bank1
  5071  01C9                     l3280:
  5072  01C9  0861               	movf	(___flmul@temp^(0+128)+1),w
  5073  01CA  1283               	bcf	3,5	;RP0=0, select bank0
  5074  01CB  1303               	bcf	3,6	;RP1=0, select bank0
  5075  01CC  00E1               	movwf	??___flmul
  5076  01CD  01E2               	clrf	??___flmul+1
  5077  01CE  01E3               	clrf	??___flmul+2
  5078  01CF  01E4               	clrf	??___flmul+3
  5079  01D0  0861               	movf	??___flmul,w
  5080  01D1  1683               	bsf	3,5	;RP0=1, select bank1
  5081  01D2  1303               	bcf	3,6	;RP1=0, select bank1
  5082  01D3  07DC               	addwf	___flmul@prod^(0+128),f
  5083  01D4  1283               	bcf	3,5	;RP0=0, select bank0
  5084  01D5  1303               	bcf	3,6	;RP1=0, select bank0
  5085  01D6  0862               	movf	??___flmul+1,w
  5086  01D7  1103               	clrz
  5087  01D8  1803               	skipnc
  5088  01D9  3E01               	addlw	1
  5089  01DA  1903               	skipnz
  5090  01DB  29DF               	goto	u4991
  5091  01DC  1683               	bsf	3,5	;RP0=1, select bank1
  5092  01DD  1303               	bcf	3,6	;RP1=0, select bank1
  5093  01DE  07DD               	addwf	(___flmul@prod+1)^(0+128),f
  5094  01DF                     u4991:
  5095  01DF  1283               	bcf	3,5	;RP0=0, select bank0
  5096  01E0  1303               	bcf	3,6	;RP1=0, select bank0
  5097  01E1  0863               	movf	??___flmul+2,w
  5098  01E2  1103               	clrz
  5099  01E3  1803               	skipnc
  5100  01E4  3E01               	addlw	1
  5101  01E5  1903               	skipnz
  5102  01E6  29EA               	goto	u4992
  5103  01E7  1683               	bsf	3,5	;RP0=1, select bank1
  5104  01E8  1303               	bcf	3,6	;RP1=0, select bank1
  5105  01E9  07DE               	addwf	(___flmul@prod+2)^(0+128),f
  5106  01EA                     u4992:
  5107  01EA  1283               	bcf	3,5	;RP0=0, select bank0
  5108  01EB  1303               	bcf	3,6	;RP1=0, select bank0
  5109  01EC  0864               	movf	??___flmul+3,w
  5110  01ED  1103               	clrz
  5111  01EE  1803               	skipnc
  5112  01EF  3E01               	addlw	1
  5113  01F0  1903               	skipnz
  5114  01F1  29F5               	goto	u4993
  5115  01F2  1683               	bsf	3,5	;RP0=1, select bank1
  5116  01F3  1303               	bcf	3,6	;RP1=0, select bank1
  5117  01F4  07DF               	addwf	(___flmul@prod+3)^(0+128),f
  5118  01F5                     u4993:
  5119  01F5  1283               	bcf	3,5	;RP0=0, select bank0
  5120  01F6  1303               	bcf	3,6	;RP1=0, select bank0
  5121  01F7  1683               	bsf	3,5	;RP0=1, select bank1
  5122  01F8  1303               	bcf	3,6	;RP1=0, select bank1
  5123  01F9                     l3282:
  5124  01F9  3008               	movlw	8
  5125  01FA  1283               	bcf	3,5	;RP0=0, select bank0
  5126  01FB  1303               	bcf	3,6	;RP1=0, select bank0
  5127  01FC  00E1               	movwf	??___flmul
  5128  01FD                     u5005:
  5129  01FD  1003               	clrc
  5130  01FE  1683               	bsf	3,5	;RP0=1, select bank1
  5131  01FF  1303               	bcf	3,6	;RP1=0, select bank1
  5132  0200  0DD7               	rlf	___flmul@grs^(0+128),f
  5133  0201  0DD8               	rlf	(___flmul@grs+1)^(0+128),f
  5134  0202  0DD9               	rlf	(___flmul@grs+2)^(0+128),f
  5135  0203  0DDA               	rlf	(___flmul@grs+3)^(0+128),f
  5136  0204  1283               	bcf	3,5	;RP0=0, select bank0
  5137  0205  1303               	bcf	3,6	;RP1=0, select bank0
  5138  0206  0BE1               	decfsz	??___flmul,f
  5139  0207  29FD               	goto	u5005
  5140  0208                     l3284:
  5141  0208  085A               	movf	___flmul@b+1,w
  5142  0209  00E1               	movwf	??___flmul
  5143  020A  0861               	movf	??___flmul,w
  5144  020B  00A0               	movwf	__Umul8_16@multiplicand
  5145  020C  085D               	movf	___flmul@a,w
  5146  020D  160A  118A  2375  120A  118A  	fcall	__Umul8_16
  5147  0212  1283               	bcf	3,5	;RP0=0, select bank0
  5148  0213  1303               	bcf	3,6	;RP1=0, select bank0
  5149  0214  0821               	movf	?__Umul8_16+1,w
  5150  0215  1683               	bsf	3,5	;RP0=1, select bank1
  5151  0216  1303               	bcf	3,6	;RP1=0, select bank1
  5152  0217  00E1               	movwf	(___flmul@temp+1)^(0+128)
  5153  0218  1283               	bcf	3,5	;RP0=0, select bank0
  5154  0219  1303               	bcf	3,6	;RP1=0, select bank0
  5155  021A  0820               	movf	?__Umul8_16,w
  5156  021B  1683               	bsf	3,5	;RP0=1, select bank1
  5157  021C  1303               	bcf	3,6	;RP1=0, select bank1
  5158  021D  00E0               	movwf	___flmul@temp^(0+128)
  5159  021E                     l3286:
  5160  021E  0860               	movf	___flmul@temp^(0+128),w
  5161  021F  1283               	bcf	3,5	;RP0=0, select bank0
  5162  0220  1303               	bcf	3,6	;RP1=0, select bank0
  5163  0221  00E1               	movwf	??___flmul
  5164  0222  1683               	bsf	3,5	;RP0=1, select bank1
  5165  0223  1303               	bcf	3,6	;RP1=0, select bank1
  5166  0224  0861               	movf	(___flmul@temp+1)^(0+128),w
  5167  0225  1283               	bcf	3,5	;RP0=0, select bank0
  5168  0226  1303               	bcf	3,6	;RP1=0, select bank0
  5169  0227  00E2               	movwf	??___flmul+1
  5170  0228  01E3               	clrf	??___flmul+2
  5171  0229  01E4               	clrf	??___flmul+3
  5172  022A  0861               	movf	??___flmul,w
  5173  022B  1683               	bsf	3,5	;RP0=1, select bank1
  5174  022C  1303               	bcf	3,6	;RP1=0, select bank1
  5175  022D  07D7               	addwf	___flmul@grs^(0+128),f
  5176  022E  1283               	bcf	3,5	;RP0=0, select bank0
  5177  022F  1303               	bcf	3,6	;RP1=0, select bank0
  5178  0230  0862               	movf	??___flmul+1,w
  5179  0231  1103               	clrz
  5180  0232  1803               	skipnc
  5181  0233  3E01               	addlw	1
  5182  0234  1903               	skipnz
  5183  0235  2A39               	goto	u5011
  5184  0236  1683               	bsf	3,5	;RP0=1, select bank1
  5185  0237  1303               	bcf	3,6	;RP1=0, select bank1
  5186  0238  07D8               	addwf	(___flmul@grs+1)^(0+128),f
  5187  0239                     u5011:
  5188  0239  1283               	bcf	3,5	;RP0=0, select bank0
  5189  023A  1303               	bcf	3,6	;RP1=0, select bank0
  5190  023B  0863               	movf	??___flmul+2,w
  5191  023C  1103               	clrz
  5192  023D  1803               	skipnc
  5193  023E  3E01               	addlw	1
  5194  023F  1903               	skipnz
  5195  0240  2A44               	goto	u5012
  5196  0241  1683               	bsf	3,5	;RP0=1, select bank1
  5197  0242  1303               	bcf	3,6	;RP1=0, select bank1
  5198  0243  07D9               	addwf	(___flmul@grs+2)^(0+128),f
  5199  0244                     u5012:
  5200  0244  1283               	bcf	3,5	;RP0=0, select bank0
  5201  0245  1303               	bcf	3,6	;RP1=0, select bank0
  5202  0246  0864               	movf	??___flmul+3,w
  5203  0247  1103               	clrz
  5204  0248  1803               	skipnc
  5205  0249  3E01               	addlw	1
  5206  024A  1903               	skipnz
  5207  024B  2A4F               	goto	u5013
  5208  024C  1683               	bsf	3,5	;RP0=1, select bank1
  5209  024D  1303               	bcf	3,6	;RP1=0, select bank1
  5210  024E  07DA               	addwf	(___flmul@grs+3)^(0+128),f
  5211  024F                     u5013:
  5212  024F  1283               	bcf	3,5	;RP0=0, select bank0
  5213  0250  1303               	bcf	3,6	;RP1=0, select bank0
  5214  0251  1683               	bsf	3,5	;RP0=1, select bank1
  5215  0252  1303               	bcf	3,6	;RP1=0, select bank1
  5216  0253                     l3288:
  5217  0253  1283               	bcf	3,5	;RP0=0, select bank0
  5218  0254  1303               	bcf	3,6	;RP1=0, select bank0
  5219  0255  0859               	movf	___flmul@b,w
  5220  0256  00E1               	movwf	??___flmul
  5221  0257  0861               	movf	??___flmul,w
  5222  0258  00A0               	movwf	__Umul8_16@multiplicand
  5223  0259  085E               	movf	___flmul@a+1,w
  5224  025A  160A  118A  2375  120A  118A  	fcall	__Umul8_16
  5225  025F  1283               	bcf	3,5	;RP0=0, select bank0
  5226  0260  1303               	bcf	3,6	;RP1=0, select bank0
  5227  0261  0821               	movf	?__Umul8_16+1,w
  5228  0262  1683               	bsf	3,5	;RP0=1, select bank1
  5229  0263  1303               	bcf	3,6	;RP1=0, select bank1
  5230  0264  00E1               	movwf	(___flmul@temp+1)^(0+128)
  5231  0265  1283               	bcf	3,5	;RP0=0, select bank0
  5232  0266  1303               	bcf	3,6	;RP1=0, select bank0
  5233  0267  0820               	movf	?__Umul8_16,w
  5234  0268  1683               	bsf	3,5	;RP0=1, select bank1
  5235  0269  1303               	bcf	3,6	;RP1=0, select bank1
  5236  026A  00E0               	movwf	___flmul@temp^(0+128)
  5237  026B                     l3290:
  5238  026B  0860               	movf	___flmul@temp^(0+128),w
  5239  026C  1283               	bcf	3,5	;RP0=0, select bank0
  5240  026D  1303               	bcf	3,6	;RP1=0, select bank0
  5241  026E  00E1               	movwf	??___flmul
  5242  026F  1683               	bsf	3,5	;RP0=1, select bank1
  5243  0270  1303               	bcf	3,6	;RP1=0, select bank1
  5244  0271  0861               	movf	(___flmul@temp+1)^(0+128),w
  5245  0272  1283               	bcf	3,5	;RP0=0, select bank0
  5246  0273  1303               	bcf	3,6	;RP1=0, select bank0
  5247  0274  00E2               	movwf	??___flmul+1
  5248  0275  01E3               	clrf	??___flmul+2
  5249  0276  01E4               	clrf	??___flmul+3
  5250  0277  0861               	movf	??___flmul,w
  5251  0278  1683               	bsf	3,5	;RP0=1, select bank1
  5252  0279  1303               	bcf	3,6	;RP1=0, select bank1
  5253  027A  07D7               	addwf	___flmul@grs^(0+128),f
  5254  027B  1283               	bcf	3,5	;RP0=0, select bank0
  5255  027C  1303               	bcf	3,6	;RP1=0, select bank0
  5256  027D  0862               	movf	??___flmul+1,w
  5257  027E  1103               	clrz
  5258  027F  1803               	skipnc
  5259  0280  3E01               	addlw	1
  5260  0281  1903               	skipnz
  5261  0282  2A86               	goto	u5021
  5262  0283  1683               	bsf	3,5	;RP0=1, select bank1
  5263  0284  1303               	bcf	3,6	;RP1=0, select bank1
  5264  0285  07D8               	addwf	(___flmul@grs+1)^(0+128),f
  5265  0286                     u5021:
  5266  0286  1283               	bcf	3,5	;RP0=0, select bank0
  5267  0287  1303               	bcf	3,6	;RP1=0, select bank0
  5268  0288  0863               	movf	??___flmul+2,w
  5269  0289  1103               	clrz
  5270  028A  1803               	skipnc
  5271  028B  3E01               	addlw	1
  5272  028C  1903               	skipnz
  5273  028D  2A91               	goto	u5022
  5274  028E  1683               	bsf	3,5	;RP0=1, select bank1
  5275  028F  1303               	bcf	3,6	;RP1=0, select bank1
  5276  0290  07D9               	addwf	(___flmul@grs+2)^(0+128),f
  5277  0291                     u5022:
  5278  0291  1283               	bcf	3,5	;RP0=0, select bank0
  5279  0292  1303               	bcf	3,6	;RP1=0, select bank0
  5280  0293  0864               	movf	??___flmul+3,w
  5281  0294  1103               	clrz
  5282  0295  1803               	skipnc
  5283  0296  3E01               	addlw	1
  5284  0297  1903               	skipnz
  5285  0298  2A9C               	goto	u5023
  5286  0299  1683               	bsf	3,5	;RP0=1, select bank1
  5287  029A  1303               	bcf	3,6	;RP1=0, select bank1
  5288  029B  07DA               	addwf	(___flmul@grs+3)^(0+128),f
  5289  029C                     u5023:
  5290  029C  1283               	bcf	3,5	;RP0=0, select bank0
  5291  029D  1303               	bcf	3,6	;RP1=0, select bank0
  5292  029E  1683               	bsf	3,5	;RP0=1, select bank1
  5293  029F  1303               	bcf	3,6	;RP1=0, select bank1
  5294  02A0                     l3292:
  5295  02A0  3008               	movlw	8
  5296  02A1  1283               	bcf	3,5	;RP0=0, select bank0
  5297  02A2  1303               	bcf	3,6	;RP1=0, select bank0
  5298  02A3  00E1               	movwf	??___flmul
  5299  02A4                     u5035:
  5300  02A4  1003               	clrc
  5301  02A5  1683               	bsf	3,5	;RP0=1, select bank1
  5302  02A6  1303               	bcf	3,6	;RP1=0, select bank1
  5303  02A7  0DD7               	rlf	___flmul@grs^(0+128),f
  5304  02A8  0DD8               	rlf	(___flmul@grs+1)^(0+128),f
  5305  02A9  0DD9               	rlf	(___flmul@grs+2)^(0+128),f
  5306  02AA  0DDA               	rlf	(___flmul@grs+3)^(0+128),f
  5307  02AB  1283               	bcf	3,5	;RP0=0, select bank0
  5308  02AC  1303               	bcf	3,6	;RP1=0, select bank0
  5309  02AD  0BE1               	decfsz	??___flmul,f
  5310  02AE  2AA4               	goto	u5035
  5311  02AF  0859               	movf	___flmul@b,w
  5312  02B0  00E1               	movwf	??___flmul
  5313  02B1  0861               	movf	??___flmul,w
  5314  02B2  00A0               	movwf	__Umul8_16@multiplicand
  5315  02B3  085D               	movf	___flmul@a,w
  5316  02B4  160A  118A  2375  120A  118A  	fcall	__Umul8_16
  5317  02B9  1283               	bcf	3,5	;RP0=0, select bank0
  5318  02BA  1303               	bcf	3,6	;RP1=0, select bank0
  5319  02BB  0821               	movf	?__Umul8_16+1,w
  5320  02BC  1683               	bsf	3,5	;RP0=1, select bank1
  5321  02BD  1303               	bcf	3,6	;RP1=0, select bank1
  5322  02BE  00E1               	movwf	(___flmul@temp+1)^(0+128)
  5323  02BF  1283               	bcf	3,5	;RP0=0, select bank0
  5324  02C0  1303               	bcf	3,6	;RP1=0, select bank0
  5325  02C1  0820               	movf	?__Umul8_16,w
  5326  02C2  1683               	bsf	3,5	;RP0=1, select bank1
  5327  02C3  1303               	bcf	3,6	;RP1=0, select bank1
  5328  02C4  00E0               	movwf	___flmul@temp^(0+128)
  5329  02C5                     l3294:
  5330  02C5  0860               	movf	___flmul@temp^(0+128),w
  5331  02C6  1283               	bcf	3,5	;RP0=0, select bank0
  5332  02C7  1303               	bcf	3,6	;RP1=0, select bank0
  5333  02C8  00E1               	movwf	??___flmul
  5334  02C9  1683               	bsf	3,5	;RP0=1, select bank1
  5335  02CA  1303               	bcf	3,6	;RP1=0, select bank1
  5336  02CB  0861               	movf	(___flmul@temp+1)^(0+128),w
  5337  02CC  1283               	bcf	3,5	;RP0=0, select bank0
  5338  02CD  1303               	bcf	3,6	;RP1=0, select bank0
  5339  02CE  00E2               	movwf	??___flmul+1
  5340  02CF  01E3               	clrf	??___flmul+2
  5341  02D0  01E4               	clrf	??___flmul+3
  5342  02D1  0861               	movf	??___flmul,w
  5343  02D2  1683               	bsf	3,5	;RP0=1, select bank1
  5344  02D3  1303               	bcf	3,6	;RP1=0, select bank1
  5345  02D4  07D7               	addwf	___flmul@grs^(0+128),f
  5346  02D5  1283               	bcf	3,5	;RP0=0, select bank0
  5347  02D6  1303               	bcf	3,6	;RP1=0, select bank0
  5348  02D7  0862               	movf	??___flmul+1,w
  5349  02D8  1103               	clrz
  5350  02D9  1803               	skipnc
  5351  02DA  3E01               	addlw	1
  5352  02DB  1903               	skipnz
  5353  02DC  2AE0               	goto	u5041
  5354  02DD  1683               	bsf	3,5	;RP0=1, select bank1
  5355  02DE  1303               	bcf	3,6	;RP1=0, select bank1
  5356  02DF  07D8               	addwf	(___flmul@grs+1)^(0+128),f
  5357  02E0                     u5041:
  5358  02E0  1283               	bcf	3,5	;RP0=0, select bank0
  5359  02E1  1303               	bcf	3,6	;RP1=0, select bank0
  5360  02E2  0863               	movf	??___flmul+2,w
  5361  02E3  1103               	clrz
  5362  02E4  1803               	skipnc
  5363  02E5  3E01               	addlw	1
  5364  02E6  1903               	skipnz
  5365  02E7  2AEB               	goto	u5042
  5366  02E8  1683               	bsf	3,5	;RP0=1, select bank1
  5367  02E9  1303               	bcf	3,6	;RP1=0, select bank1
  5368  02EA  07D9               	addwf	(___flmul@grs+2)^(0+128),f
  5369  02EB                     u5042:
  5370  02EB  1283               	bcf	3,5	;RP0=0, select bank0
  5371  02EC  1303               	bcf	3,6	;RP1=0, select bank0
  5372  02ED  0864               	movf	??___flmul+3,w
  5373  02EE  1103               	clrz
  5374  02EF  1803               	skipnc
  5375  02F0  3E01               	addlw	1
  5376  02F1  1903               	skipnz
  5377  02F2  2AF6               	goto	u5043
  5378  02F3  1683               	bsf	3,5	;RP0=1, select bank1
  5379  02F4  1303               	bcf	3,6	;RP1=0, select bank1
  5380  02F5  07DA               	addwf	(___flmul@grs+3)^(0+128),f
  5381  02F6                     u5043:
  5382  02F6  1283               	bcf	3,5	;RP0=0, select bank0
  5383  02F7  1303               	bcf	3,6	;RP1=0, select bank0
  5384  02F8  1683               	bsf	3,5	;RP0=1, select bank1
  5385  02F9  1303               	bcf	3,6	;RP1=0, select bank1
  5386  02FA                     l3296:
  5387  02FA  1283               	bcf	3,5	;RP0=0, select bank0
  5388  02FB  1303               	bcf	3,6	;RP1=0, select bank0
  5389  02FC  085A               	movf	___flmul@b+1,w
  5390  02FD  00E1               	movwf	??___flmul
  5391  02FE  0861               	movf	??___flmul,w
  5392  02FF  00A0               	movwf	__Umul8_16@multiplicand
  5393  0300  085F               	movf	___flmul@a+2,w
  5394  0301  160A  118A  2375  120A  118A  	fcall	__Umul8_16
  5395  0306  1283               	bcf	3,5	;RP0=0, select bank0
  5396  0307  1303               	bcf	3,6	;RP1=0, select bank0
  5397  0308  0821               	movf	?__Umul8_16+1,w
  5398  0309  1683               	bsf	3,5	;RP0=1, select bank1
  5399  030A  1303               	bcf	3,6	;RP1=0, select bank1
  5400  030B  00E1               	movwf	(___flmul@temp+1)^(0+128)
  5401  030C  1283               	bcf	3,5	;RP0=0, select bank0
  5402  030D  1303               	bcf	3,6	;RP1=0, select bank0
  5403  030E  0820               	movf	?__Umul8_16,w
  5404  030F  1683               	bsf	3,5	;RP0=1, select bank1
  5405  0310  1303               	bcf	3,6	;RP1=0, select bank1
  5406  0311  00E0               	movwf	___flmul@temp^(0+128)
  5407  0312  0860               	movf	___flmul@temp^(0+128),w
  5408  0313  1283               	bcf	3,5	;RP0=0, select bank0
  5409  0314  1303               	bcf	3,6	;RP1=0, select bank0
  5410  0315  00E1               	movwf	??___flmul
  5411  0316  1683               	bsf	3,5	;RP0=1, select bank1
  5412  0317  1303               	bcf	3,6	;RP1=0, select bank1
  5413  0318  0861               	movf	(___flmul@temp+1)^(0+128),w
  5414  0319  1283               	bcf	3,5	;RP0=0, select bank0
  5415  031A  1303               	bcf	3,6	;RP1=0, select bank0
  5416  031B  00E2               	movwf	??___flmul+1
  5417  031C  01E3               	clrf	??___flmul+2
  5418  031D  01E4               	clrf	??___flmul+3
  5419  031E  0861               	movf	??___flmul,w
  5420  031F  1683               	bsf	3,5	;RP0=1, select bank1
  5421  0320  1303               	bcf	3,6	;RP1=0, select bank1
  5422  0321  07DC               	addwf	___flmul@prod^(0+128),f
  5423  0322  1283               	bcf	3,5	;RP0=0, select bank0
  5424  0323  1303               	bcf	3,6	;RP1=0, select bank0
  5425  0324  0862               	movf	??___flmul+1,w
  5426  0325  1103               	clrz
  5427  0326  1803               	skipnc
  5428  0327  3E01               	addlw	1
  5429  0328  1903               	skipnz
  5430  0329  2B2D               	goto	u5051
  5431  032A  1683               	bsf	3,5	;RP0=1, select bank1
  5432  032B  1303               	bcf	3,6	;RP1=0, select bank1
  5433  032C  07DD               	addwf	(___flmul@prod+1)^(0+128),f
  5434  032D                     u5051:
  5435  032D  1283               	bcf	3,5	;RP0=0, select bank0
  5436  032E  1303               	bcf	3,6	;RP1=0, select bank0
  5437  032F  0863               	movf	??___flmul+2,w
  5438  0330  1103               	clrz
  5439  0331  1803               	skipnc
  5440  0332  3E01               	addlw	1
  5441  0333  1903               	skipnz
  5442  0334  2B38               	goto	u5052
  5443  0335  1683               	bsf	3,5	;RP0=1, select bank1
  5444  0336  1303               	bcf	3,6	;RP1=0, select bank1
  5445  0337  07DE               	addwf	(___flmul@prod+2)^(0+128),f
  5446  0338                     u5052:
  5447  0338  1283               	bcf	3,5	;RP0=0, select bank0
  5448  0339  1303               	bcf	3,6	;RP1=0, select bank0
  5449  033A  0864               	movf	??___flmul+3,w
  5450  033B  1103               	clrz
  5451  033C  1803               	skipnc
  5452  033D  3E01               	addlw	1
  5453  033E  1903               	skipnz
  5454  033F  2B43               	goto	u5053
  5455  0340  1683               	bsf	3,5	;RP0=1, select bank1
  5456  0341  1303               	bcf	3,6	;RP1=0, select bank1
  5457  0342  07DF               	addwf	(___flmul@prod+3)^(0+128),f
  5458  0343                     u5053:
  5459  0343  1283               	bcf	3,5	;RP0=0, select bank0
  5460  0344  1303               	bcf	3,6	;RP1=0, select bank0
  5461  0345  1683               	bsf	3,5	;RP0=1, select bank1
  5462  0346  1303               	bcf	3,6	;RP1=0, select bank1
  5463  0347                     l3298:
  5464  0347  1283               	bcf	3,5	;RP0=0, select bank0
  5465  0348  1303               	bcf	3,6	;RP1=0, select bank0
  5466  0349  085B               	movf	___flmul@b+2,w
  5467  034A  00E1               	movwf	??___flmul
  5468  034B  0861               	movf	??___flmul,w
  5469  034C  00A0               	movwf	__Umul8_16@multiplicand
  5470  034D  085E               	movf	___flmul@a+1,w
  5471  034E  160A  118A  2375  120A  118A  	fcall	__Umul8_16
  5472  0353  1283               	bcf	3,5	;RP0=0, select bank0
  5473  0354  1303               	bcf	3,6	;RP1=0, select bank0
  5474  0355  0821               	movf	?__Umul8_16+1,w
  5475  0356  1683               	bsf	3,5	;RP0=1, select bank1
  5476  0357  1303               	bcf	3,6	;RP1=0, select bank1
  5477  0358  00E1               	movwf	(___flmul@temp+1)^(0+128)
  5478  0359  1283               	bcf	3,5	;RP0=0, select bank0
  5479  035A  1303               	bcf	3,6	;RP1=0, select bank0
  5480  035B  0820               	movf	?__Umul8_16,w
  5481  035C  1683               	bsf	3,5	;RP0=1, select bank1
  5482  035D  1303               	bcf	3,6	;RP1=0, select bank1
  5483  035E  00E0               	movwf	___flmul@temp^(0+128)
  5484  035F                     l3300:
  5485  035F  0860               	movf	___flmul@temp^(0+128),w
  5486  0360  1283               	bcf	3,5	;RP0=0, select bank0
  5487  0361  1303               	bcf	3,6	;RP1=0, select bank0
  5488  0362  00E1               	movwf	??___flmul
  5489  0363  1683               	bsf	3,5	;RP0=1, select bank1
  5490  0364  1303               	bcf	3,6	;RP1=0, select bank1
  5491  0365  0861               	movf	(___flmul@temp+1)^(0+128),w
  5492  0366  1283               	bcf	3,5	;RP0=0, select bank0
  5493  0367  1303               	bcf	3,6	;RP1=0, select bank0
  5494  0368  00E2               	movwf	??___flmul+1
  5495  0369  01E3               	clrf	??___flmul+2
  5496  036A  01E4               	clrf	??___flmul+3
  5497  036B  0861               	movf	??___flmul,w
  5498  036C  1683               	bsf	3,5	;RP0=1, select bank1
  5499  036D  1303               	bcf	3,6	;RP1=0, select bank1
  5500  036E  07DC               	addwf	___flmul@prod^(0+128),f
  5501  036F  1283               	bcf	3,5	;RP0=0, select bank0
  5502  0370  1303               	bcf	3,6	;RP1=0, select bank0
  5503  0371  0862               	movf	??___flmul+1,w
  5504  0372  1103               	clrz
  5505  0373  1803               	skipnc
  5506  0374  3E01               	addlw	1
  5507  0375  1903               	skipnz
  5508  0376  2B7A               	goto	u5061
  5509  0377  1683               	bsf	3,5	;RP0=1, select bank1
  5510  0378  1303               	bcf	3,6	;RP1=0, select bank1
  5511  0379  07DD               	addwf	(___flmul@prod+1)^(0+128),f
  5512  037A                     u5061:
  5513  037A  1283               	bcf	3,5	;RP0=0, select bank0
  5514  037B  1303               	bcf	3,6	;RP1=0, select bank0
  5515  037C  0863               	movf	??___flmul+2,w
  5516  037D  1103               	clrz
  5517  037E  1803               	skipnc
  5518  037F  3E01               	addlw	1
  5519  0380  1903               	skipnz
  5520  0381  2B85               	goto	u5062
  5521  0382  1683               	bsf	3,5	;RP0=1, select bank1
  5522  0383  1303               	bcf	3,6	;RP1=0, select bank1
  5523  0384  07DE               	addwf	(___flmul@prod+2)^(0+128),f
  5524  0385                     u5062:
  5525  0385  1283               	bcf	3,5	;RP0=0, select bank0
  5526  0386  1303               	bcf	3,6	;RP1=0, select bank0
  5527  0387  0864               	movf	??___flmul+3,w
  5528  0388  1103               	clrz
  5529  0389  1803               	skipnc
  5530  038A  3E01               	addlw	1
  5531  038B  1903               	skipnz
  5532  038C  2B90               	goto	u5063
  5533  038D  1683               	bsf	3,5	;RP0=1, select bank1
  5534  038E  1303               	bcf	3,6	;RP1=0, select bank1
  5535  038F  07DF               	addwf	(___flmul@prod+3)^(0+128),f
  5536  0390                     u5063:
  5537  0390  1283               	bcf	3,5	;RP0=0, select bank0
  5538  0391  1303               	bcf	3,6	;RP1=0, select bank0
  5539  0392  1683               	bsf	3,5	;RP0=1, select bank1
  5540  0393  1303               	bcf	3,6	;RP1=0, select bank1
  5541  0394  1283               	bcf	3,5	;RP0=0, select bank0
  5542  0395  1303               	bcf	3,6	;RP1=0, select bank0
  5543  0396  085B               	movf	___flmul@b+2,w
  5544  0397  00E1               	movwf	??___flmul
  5545  0398  0861               	movf	??___flmul,w
  5546  0399  00A0               	movwf	__Umul8_16@multiplicand
  5547  039A  085F               	movf	___flmul@a+2,w
  5548  039B  160A  118A  2375  120A  118A  	fcall	__Umul8_16
  5549  03A0  1283               	bcf	3,5	;RP0=0, select bank0
  5550  03A1  1303               	bcf	3,6	;RP1=0, select bank0
  5551  03A2  0821               	movf	?__Umul8_16+1,w
  5552  03A3  1683               	bsf	3,5	;RP0=1, select bank1
  5553  03A4  1303               	bcf	3,6	;RP1=0, select bank1
  5554  03A5  00E1               	movwf	(___flmul@temp+1)^(0+128)
  5555  03A6  1283               	bcf	3,5	;RP0=0, select bank0
  5556  03A7  1303               	bcf	3,6	;RP1=0, select bank0
  5557  03A8  0820               	movf	?__Umul8_16,w
  5558  03A9  1683               	bsf	3,5	;RP0=1, select bank1
  5559  03AA  1303               	bcf	3,6	;RP1=0, select bank1
  5560  03AB  00E0               	movwf	___flmul@temp^(0+128)
  5561  03AC                     l3302:
  5562  03AC  0860               	movf	___flmul@temp^(0+128),w
  5563  03AD  1283               	bcf	3,5	;RP0=0, select bank0
  5564  03AE  1303               	bcf	3,6	;RP1=0, select bank0
  5565  03AF  00E1               	movwf	??___flmul
  5566  03B0  1683               	bsf	3,5	;RP0=1, select bank1
  5567  03B1  1303               	bcf	3,6	;RP1=0, select bank1
  5568  03B2  0861               	movf	(___flmul@temp+1)^(0+128),w
  5569  03B3  1283               	bcf	3,5	;RP0=0, select bank0
  5570  03B4  1303               	bcf	3,6	;RP1=0, select bank0
  5571  03B5  00E2               	movwf	??___flmul+1
  5572  03B6  01E3               	clrf	??___flmul+2
  5573  03B7  01E4               	clrf	??___flmul+3
  5574  03B8  3008               	movlw	8
  5575  03B9                     u5075:
  5576  03B9  1003               	clrc
  5577  03BA  0DE1               	rlf	??___flmul,f
  5578  03BB  0DE2               	rlf	??___flmul+1,f
  5579  03BC  0DE3               	rlf	??___flmul+2,f
  5580  03BD  0DE4               	rlf	??___flmul+3,f
  5581  03BE                     u5070:
  5582  03BE  3EFF               	addlw	-1
  5583  03BF  1D03               	skipz
  5584  03C0  2BB9               	goto	u5075
  5585  03C1  0861               	movf	??___flmul,w
  5586  03C2  1683               	bsf	3,5	;RP0=1, select bank1
  5587  03C3  1303               	bcf	3,6	;RP1=0, select bank1
  5588  03C4  07DC               	addwf	___flmul@prod^(0+128),f
  5589  03C5  1283               	bcf	3,5	;RP0=0, select bank0
  5590  03C6  1303               	bcf	3,6	;RP1=0, select bank0
  5591  03C7  0862               	movf	??___flmul+1,w
  5592  03C8  1103               	clrz
  5593  03C9  1803               	skipnc
  5594  03CA  3E01               	addlw	1
  5595  03CB  1903               	skipnz
  5596  03CC  2BD0               	goto	u5081
  5597  03CD  1683               	bsf	3,5	;RP0=1, select bank1
  5598  03CE  1303               	bcf	3,6	;RP1=0, select bank1
  5599  03CF  07DD               	addwf	(___flmul@prod+1)^(0+128),f
  5600  03D0                     u5081:
  5601  03D0  1283               	bcf	3,5	;RP0=0, select bank0
  5602  03D1  1303               	bcf	3,6	;RP1=0, select bank0
  5603  03D2  0863               	movf	??___flmul+2,w
  5604  03D3  1103               	clrz
  5605  03D4  1803               	skipnc
  5606  03D5  3E01               	addlw	1
  5607  03D6  1903               	skipnz
  5608  03D7  2BDB               	goto	u5082
  5609  03D8  1683               	bsf	3,5	;RP0=1, select bank1
  5610  03D9  1303               	bcf	3,6	;RP1=0, select bank1
  5611  03DA  07DE               	addwf	(___flmul@prod+2)^(0+128),f
  5612  03DB                     u5082:
  5613  03DB  1283               	bcf	3,5	;RP0=0, select bank0
  5614  03DC  1303               	bcf	3,6	;RP1=0, select bank0
  5615  03DD  0864               	movf	??___flmul+3,w
  5616  03DE  1103               	clrz
  5617  03DF  1803               	skipnc
  5618  03E0  3E01               	addlw	1
  5619  03E1  1903               	skipnz
  5620  03E2  2BE6               	goto	u5083
  5621  03E3  1683               	bsf	3,5	;RP0=1, select bank1
  5622  03E4  1303               	bcf	3,6	;RP1=0, select bank1
  5623  03E5  07DF               	addwf	(___flmul@prod+3)^(0+128),f
  5624  03E6                     u5083:
  5625  03E6  1283               	bcf	3,5	;RP0=0, select bank0
  5626  03E7  1303               	bcf	3,6	;RP1=0, select bank0
  5627  03E8  1683               	bsf	3,5	;RP0=1, select bank1
  5628  03E9  1303               	bcf	3,6	;RP1=0, select bank1
  5629  03EA                     l3304:
  5630  03EA  0857               	movf	___flmul@grs^(0+128),w
  5631  03EB  1283               	bcf	3,5	;RP0=0, select bank0
  5632  03EC  1303               	bcf	3,6	;RP1=0, select bank0
  5633  03ED  00E1               	movwf	??___flmul
  5634  03EE  1683               	bsf	3,5	;RP0=1, select bank1
  5635  03EF  1303               	bcf	3,6	;RP1=0, select bank1
  5636  03F0  0858               	movf	(___flmul@grs+1)^(0+128),w
  5637  03F1  1283               	bcf	3,5	;RP0=0, select bank0
  5638  03F2  1303               	bcf	3,6	;RP1=0, select bank0
  5639  03F3  00E2               	movwf	??___flmul+1
  5640  03F4  1683               	bsf	3,5	;RP0=1, select bank1
  5641  03F5  1303               	bcf	3,6	;RP1=0, select bank1
  5642  03F6  0859               	movf	(___flmul@grs+2)^(0+128),w
  5643  03F7  1283               	bcf	3,5	;RP0=0, select bank0
  5644  03F8  1303               	bcf	3,6	;RP1=0, select bank0
  5645  03F9  00E3               	movwf	??___flmul+2
  5646  03FA  1683               	bsf	3,5	;RP0=1, select bank1
  5647  03FB  1303               	bcf	3,6	;RP1=0, select bank1
  5648  03FC  085A               	movf	(___flmul@grs+3)^(0+128),w
  5649  03FD  1283               	bcf	3,5	;RP0=0, select bank0
  5650  03FE  1303               	bcf	3,6	;RP1=0, select bank0
  5651  03FF  00E4               	movwf	??___flmul+3
  5652  0400  3018               	movlw	24
  5653  0401                     u5095:
  5654  0401  1003               	clrc
  5655  0402  0CE4               	rrf	??___flmul+3,f
  5656  0403  0CE3               	rrf	??___flmul+2,f
  5657  0404  0CE2               	rrf	??___flmul+1,f
  5658  0405  0CE1               	rrf	??___flmul,f
  5659  0406                     u5090:
  5660  0406  3EFF               	addlw	-1
  5661  0407  1D03               	skipz
  5662  0408  2C01               	goto	u5095
  5663  0409  0861               	movf	??___flmul,w
  5664  040A  1683               	bsf	3,5	;RP0=1, select bank1
  5665  040B  1303               	bcf	3,6	;RP1=0, select bank1
  5666  040C  07DC               	addwf	___flmul@prod^(0+128),f
  5667  040D  1283               	bcf	3,5	;RP0=0, select bank0
  5668  040E  1303               	bcf	3,6	;RP1=0, select bank0
  5669  040F  0862               	movf	??___flmul+1,w
  5670  0410  1103               	clrz
  5671  0411  1803               	skipnc
  5672  0412  3E01               	addlw	1
  5673  0413  1903               	skipnz
  5674  0414  2C18               	goto	u5101
  5675  0415  1683               	bsf	3,5	;RP0=1, select bank1
  5676  0416  1303               	bcf	3,6	;RP1=0, select bank1
  5677  0417  07DD               	addwf	(___flmul@prod+1)^(0+128),f
  5678  0418                     u5101:
  5679  0418  1283               	bcf	3,5	;RP0=0, select bank0
  5680  0419  1303               	bcf	3,6	;RP1=0, select bank0
  5681  041A  0863               	movf	??___flmul+2,w
  5682  041B  1103               	clrz
  5683  041C  1803               	skipnc
  5684  041D  3E01               	addlw	1
  5685  041E  1903               	skipnz
  5686  041F  2C23               	goto	u5102
  5687  0420  1683               	bsf	3,5	;RP0=1, select bank1
  5688  0421  1303               	bcf	3,6	;RP1=0, select bank1
  5689  0422  07DE               	addwf	(___flmul@prod+2)^(0+128),f
  5690  0423                     u5102:
  5691  0423  1283               	bcf	3,5	;RP0=0, select bank0
  5692  0424  1303               	bcf	3,6	;RP1=0, select bank0
  5693  0425  0864               	movf	??___flmul+3,w
  5694  0426  1103               	clrz
  5695  0427  1803               	skipnc
  5696  0428  3E01               	addlw	1
  5697  0429  1903               	skipnz
  5698  042A  2C2E               	goto	u5103
  5699  042B  1683               	bsf	3,5	;RP0=1, select bank1
  5700  042C  1303               	bcf	3,6	;RP1=0, select bank1
  5701  042D  07DF               	addwf	(___flmul@prod+3)^(0+128),f
  5702  042E                     u5103:
  5703  042E  1283               	bcf	3,5	;RP0=0, select bank0
  5704  042F  1303               	bcf	3,6	;RP1=0, select bank0
  5705  0430  1683               	bsf	3,5	;RP0=1, select bank1
  5706  0431  1303               	bcf	3,6	;RP1=0, select bank1
  5707  0432                     l3306:
  5708  0432  3008               	movlw	8
  5709  0433  1283               	bcf	3,5	;RP0=0, select bank0
  5710  0434  1303               	bcf	3,6	;RP1=0, select bank0
  5711  0435  00E1               	movwf	??___flmul
  5712  0436                     u5115:
  5713  0436  1003               	clrc
  5714  0437  1683               	bsf	3,5	;RP0=1, select bank1
  5715  0438  1303               	bcf	3,6	;RP1=0, select bank1
  5716  0439  0DD7               	rlf	___flmul@grs^(0+128),f
  5717  043A  0DD8               	rlf	(___flmul@grs+1)^(0+128),f
  5718  043B  0DD9               	rlf	(___flmul@grs+2)^(0+128),f
  5719  043C  0DDA               	rlf	(___flmul@grs+3)^(0+128),f
  5720  043D  1283               	bcf	3,5	;RP0=0, select bank0
  5721  043E  1303               	bcf	3,6	;RP1=0, select bank0
  5722  043F  0BE1               	decfsz	??___flmul,f
  5723  0440  2C36               	goto	u5115
  5724  0441                     l3308:
  5725  0441  1683               	bsf	3,5	;RP0=1, select bank1
  5726  0442  1303               	bcf	3,6	;RP1=0, select bank1
  5727  0443  085B               	movf	___flmul@bexp^(0+128),w
  5728  0444  0756               	addwf	___flmul@aexp^(0+128),w
  5729  0445  1283               	bcf	3,5	;RP0=0, select bank0
  5730  0446  1303               	bcf	3,6	;RP1=0, select bank0
  5731  0447  00E1               	movwf	??___flmul
  5732  0448  01E2               	clrf	??___flmul+1
  5733  0449  0DE2               	rlf	??___flmul+1,f
  5734  044A  0861               	movf	??___flmul,w
  5735  044B  3E82               	addlw	130
  5736  044C  1683               	bsf	3,5	;RP0=1, select bank1
  5737  044D  1303               	bcf	3,6	;RP1=0, select bank1
  5738  044E  00E0               	movwf	___flmul@temp^(0+128)
  5739  044F  1283               	bcf	3,5	;RP0=0, select bank0
  5740  0450  1303               	bcf	3,6	;RP1=0, select bank0
  5741  0451  0862               	movf	??___flmul+1,w
  5742  0452  1803               	skipnc
  5743  0453  3E01               	addlw	1
  5744  0454  3EFF               	addlw	255
  5745  0455  1683               	bsf	3,5	;RP0=1, select bank1
  5746  0456  1303               	bcf	3,6	;RP1=0, select bank1
  5747  0457  00E1               	movwf	(___flmul@temp+1)^(0+128)
  5748  0458  2C86               	goto	l3320
  5749  0459                     l3310:
  5750  0459  3001               	movlw	1
  5751  045A  1283               	bcf	3,5	;RP0=0, select bank0
  5752  045B  1303               	bcf	3,6	;RP1=0, select bank0
  5753  045C  00E1               	movwf	??___flmul
  5754  045D                     u5125:
  5755  045D  1003               	clrc
  5756  045E  1683               	bsf	3,5	;RP0=1, select bank1
  5757  045F  1303               	bcf	3,6	;RP1=0, select bank1
  5758  0460  0DDC               	rlf	___flmul@prod^(0+128),f
  5759  0461  0DDD               	rlf	(___flmul@prod+1)^(0+128),f
  5760  0462  0DDE               	rlf	(___flmul@prod+2)^(0+128),f
  5761  0463  0DDF               	rlf	(___flmul@prod+3)^(0+128),f
  5762  0464  1283               	bcf	3,5	;RP0=0, select bank0
  5763  0465  1303               	bcf	3,6	;RP1=0, select bank0
  5764  0466  0BE1               	decfsz	??___flmul,f
  5765  0467  2C5D               	goto	u5125
  5766  0468                     l3312:
  5767  0468  1683               	bsf	3,5	;RP0=1, select bank1
  5768  0469  1303               	bcf	3,6	;RP1=0, select bank1
  5769  046A  1FDA               	btfss	(___flmul@grs+3)^(0+128),7
  5770  046B  2C6D               	goto	u5131
  5771  046C  2C6E               	goto	u5130
  5772  046D                     u5131:
  5773  046D  2C6F               	goto	l3316
  5774  046E                     u5130:
  5775  046E                     l3314:
  5776  046E  145C               	bsf	___flmul@prod^(0+128),0
  5777  046F                     l3316:
  5778  046F  3001               	movlw	1
  5779  0470  1283               	bcf	3,5	;RP0=0, select bank0
  5780  0471  1303               	bcf	3,6	;RP1=0, select bank0
  5781  0472  00E1               	movwf	??___flmul
  5782  0473                     u5145:
  5783  0473  1003               	clrc
  5784  0474  1683               	bsf	3,5	;RP0=1, select bank1
  5785  0475  1303               	bcf	3,6	;RP1=0, select bank1
  5786  0476  0DD7               	rlf	___flmul@grs^(0+128),f
  5787  0477  0DD8               	rlf	(___flmul@grs+1)^(0+128),f
  5788  0478  0DD9               	rlf	(___flmul@grs+2)^(0+128),f
  5789  0479  0DDA               	rlf	(___flmul@grs+3)^(0+128),f
  5790  047A  1283               	bcf	3,5	;RP0=0, select bank0
  5791  047B  1303               	bcf	3,6	;RP1=0, select bank0
  5792  047C  0BE1               	decfsz	??___flmul,f
  5793  047D  2C73               	goto	u5145
  5794  047E                     l3318:
  5795  047E  30FF               	movlw	255
  5796  047F  1683               	bsf	3,5	;RP0=1, select bank1
  5797  0480  1303               	bcf	3,6	;RP1=0, select bank1
  5798  0481  07E0               	addwf	___flmul@temp^(0+128),f
  5799  0482  1803               	skipnc
  5800  0483  0AE1               	incf	(___flmul@temp+1)^(0+128),f
  5801  0484  30FF               	movlw	255
  5802  0485  07E1               	addwf	(___flmul@temp+1)^(0+128),f
  5803  0486                     l3320:
  5804  0486  1FDE               	btfss	(___flmul@prod+2)^(0+128),7
  5805  0487  2C89               	goto	u5151
  5806  0488  2C8A               	goto	u5150
  5807  0489                     u5151:
  5808  0489  2C59               	goto	l3310
  5809  048A                     u5150:
  5810  048A                     l3322:
  5811  048A  01D6               	clrf	___flmul@aexp^(0+128)
  5812  048B                     l3324:
  5813  048B  1FDA               	btfss	(___flmul@grs+3)^(0+128),7
  5814  048C  2C8E               	goto	u5161
  5815  048D  2C8F               	goto	u5160
  5816  048E                     u5161:
  5817  048E  2CBD               	goto	l3332
  5818  048F                     u5160:
  5819  048F                     l3326:
  5820  048F  30FF               	movlw	255
  5821  0490  0557               	andwf	___flmul@grs^(0+128),w
  5822  0491  1283               	bcf	3,5	;RP0=0, select bank0
  5823  0492  1303               	bcf	3,6	;RP1=0, select bank0
  5824  0493  00E1               	movwf	??___flmul
  5825  0494  30FF               	movlw	255
  5826  0495  1683               	bsf	3,5	;RP0=1, select bank1
  5827  0496  1303               	bcf	3,6	;RP1=0, select bank1
  5828  0497  0558               	andwf	(___flmul@grs+1)^(0+128),w
  5829  0498  1283               	bcf	3,5	;RP0=0, select bank0
  5830  0499  1303               	bcf	3,6	;RP1=0, select bank0
  5831  049A  00E2               	movwf	??___flmul+1
  5832  049B  30FF               	movlw	255
  5833  049C  1683               	bsf	3,5	;RP0=1, select bank1
  5834  049D  1303               	bcf	3,6	;RP1=0, select bank1
  5835  049E  0559               	andwf	(___flmul@grs+2)^(0+128),w
  5836  049F  1283               	bcf	3,5	;RP0=0, select bank0
  5837  04A0  1303               	bcf	3,6	;RP1=0, select bank0
  5838  04A1  00E3               	movwf	??___flmul+2
  5839  04A2  307F               	movlw	127
  5840  04A3  1683               	bsf	3,5	;RP0=1, select bank1
  5841  04A4  1303               	bcf	3,6	;RP1=0, select bank1
  5842  04A5  055A               	andwf	(___flmul@grs+3)^(0+128),w
  5843  04A6  1283               	bcf	3,5	;RP0=0, select bank0
  5844  04A7  1303               	bcf	3,6	;RP1=0, select bank0
  5845  04A8  00E4               	movwf	??___flmul+3
  5846  04A9  0864               	movf	??___flmul+3,w
  5847  04AA  0463               	iorwf	??___flmul+2,w
  5848  04AB  0462               	iorwf	??___flmul+1,w
  5849  04AC  0461               	iorwf	??___flmul,w
  5850  04AD  1903               	skipnz
  5851  04AE  2CB0               	goto	u5171
  5852  04AF  2CB1               	goto	u5170
  5853  04B0                     u5171:
  5854  04B0  2CB6               	goto	l665
  5855  04B1                     u5170:
  5856  04B1                     l3328:
  5857  04B1  1683               	bsf	3,5	;RP0=1, select bank1
  5858  04B2  1303               	bcf	3,6	;RP1=0, select bank1
  5859  04B3  01D6               	clrf	___flmul@aexp^(0+128)
  5860  04B4  0AD6               	incf	___flmul@aexp^(0+128),f
  5861  04B5  2CBD               	goto	l3332
  5862  04B6                     l665:
  5863  04B6  1683               	bsf	3,5	;RP0=1, select bank1
  5864  04B7  1303               	bcf	3,6	;RP1=0, select bank1
  5865  04B8  1C5C               	btfss	___flmul@prod^(0+128),0
  5866  04B9  2CBB               	goto	u5181
  5867  04BA  2CBC               	goto	u5180
  5868  04BB                     u5181:
  5869  04BB  2CBD               	goto	l3332
  5870  04BC                     u5180:
  5871  04BC  2CB1               	goto	l3328
  5872  04BD                     l3332:
  5873  04BD  0856               	movf	___flmul@aexp^(0+128),w
  5874  04BE  1903               	btfsc	3,2
  5875  04BF  2CC1               	goto	u5191
  5876  04C0  2CC2               	goto	u5190
  5877  04C1                     u5191:
  5878  04C1  2D0F               	goto	l3342
  5879  04C2                     u5190:
  5880  04C2                     l3334:
  5881  04C2  3001               	movlw	1
  5882  04C3  07DC               	addwf	___flmul@prod^(0+128),f
  5883  04C4  3000               	movlw	0
  5884  04C5  1803               	skipnc
  5885  04C6  3001               	movlw	1
  5886  04C7  07DD               	addwf	(___flmul@prod+1)^(0+128),f
  5887  04C8  3000               	movlw	0
  5888  04C9  1803               	skipnc
  5889  04CA  3001               	movlw	1
  5890  04CB  07DE               	addwf	(___flmul@prod+2)^(0+128),f
  5891  04CC  3000               	movlw	0
  5892  04CD  1803               	skipnc
  5893  04CE  3001               	movlw	1
  5894  04CF  07DF               	addwf	(___flmul@prod+3)^(0+128),f
  5895  04D0                     l3336:
  5896  04D0  1C5F               	btfss	(___flmul@prod+3)^(0+128),0
  5897  04D1  2CD3               	goto	u5201
  5898  04D2  2CD4               	goto	u5200
  5899  04D3                     u5201:
  5900  04D3  2D0F               	goto	l3342
  5901  04D4                     u5200:
  5902  04D4                     l3338:
  5903  04D4  085C               	movf	___flmul@prod^(0+128),w
  5904  04D5  1283               	bcf	3,5	;RP0=0, select bank0
  5905  04D6  1303               	bcf	3,6	;RP1=0, select bank0
  5906  04D7  00E1               	movwf	??___flmul
  5907  04D8  1683               	bsf	3,5	;RP0=1, select bank1
  5908  04D9  1303               	bcf	3,6	;RP1=0, select bank1
  5909  04DA  085D               	movf	(___flmul@prod+1)^(0+128),w
  5910  04DB  1283               	bcf	3,5	;RP0=0, select bank0
  5911  04DC  1303               	bcf	3,6	;RP1=0, select bank0
  5912  04DD  00E2               	movwf	??___flmul+1
  5913  04DE  1683               	bsf	3,5	;RP0=1, select bank1
  5914  04DF  1303               	bcf	3,6	;RP1=0, select bank1
  5915  04E0  085E               	movf	(___flmul@prod+2)^(0+128),w
  5916  04E1  1283               	bcf	3,5	;RP0=0, select bank0
  5917  04E2  1303               	bcf	3,6	;RP1=0, select bank0
  5918  04E3  00E3               	movwf	??___flmul+2
  5919  04E4  1683               	bsf	3,5	;RP0=1, select bank1
  5920  04E5  1303               	bcf	3,6	;RP1=0, select bank1
  5921  04E6  085F               	movf	(___flmul@prod+3)^(0+128),w
  5922  04E7  1283               	bcf	3,5	;RP0=0, select bank0
  5923  04E8  1303               	bcf	3,6	;RP1=0, select bank0
  5924  04E9  00E4               	movwf	??___flmul+3
  5925  04EA  3001               	movlw	1
  5926  04EB  00E5               	movwf	??___flmul+4
  5927  04EC                     u5215:
  5928  04EC  0D64               	rlf	??___flmul+3,w
  5929  04ED  0CE4               	rrf	??___flmul+3,f
  5930  04EE  0CE3               	rrf	??___flmul+2,f
  5931  04EF  0CE2               	rrf	??___flmul+1,f
  5932  04F0  0CE1               	rrf	??___flmul,f
  5933  04F1                     u5210:
  5934  04F1  0BE5               	decfsz	??___flmul+4,f
  5935  04F2  2CEC               	goto	u5215
  5936  04F3  0864               	movf	??___flmul+3,w
  5937  04F4  1683               	bsf	3,5	;RP0=1, select bank1
  5938  04F5  1303               	bcf	3,6	;RP1=0, select bank1
  5939  04F6  00DF               	movwf	(___flmul@prod+3)^(0+128)
  5940  04F7  1283               	bcf	3,5	;RP0=0, select bank0
  5941  04F8  1303               	bcf	3,6	;RP1=0, select bank0
  5942  04F9  0863               	movf	??___flmul+2,w
  5943  04FA  1683               	bsf	3,5	;RP0=1, select bank1
  5944  04FB  1303               	bcf	3,6	;RP1=0, select bank1
  5945  04FC  00DE               	movwf	(___flmul@prod+2)^(0+128)
  5946  04FD  1283               	bcf	3,5	;RP0=0, select bank0
  5947  04FE  1303               	bcf	3,6	;RP1=0, select bank0
  5948  04FF  0862               	movf	??___flmul+1,w
  5949  0500  1683               	bsf	3,5	;RP0=1, select bank1
  5950  0501  1303               	bcf	3,6	;RP1=0, select bank1
  5951  0502  00DD               	movwf	(___flmul@prod+1)^(0+128)
  5952  0503  1283               	bcf	3,5	;RP0=0, select bank0
  5953  0504  1303               	bcf	3,6	;RP1=0, select bank0
  5954  0505  0861               	movf	??___flmul,w
  5955  0506  1683               	bsf	3,5	;RP0=1, select bank1
  5956  0507  1303               	bcf	3,6	;RP1=0, select bank1
  5957  0508  00DC               	movwf	___flmul@prod^(0+128)
  5958  0509                     l3340:
  5959  0509  3001               	movlw	1
  5960  050A  07E0               	addwf	___flmul@temp^(0+128),f
  5961  050B  1803               	skipnc
  5962  050C  0AE1               	incf	(___flmul@temp+1)^(0+128),f
  5963  050D  3000               	movlw	0
  5964  050E  07E1               	addwf	(___flmul@temp+1)^(0+128),f
  5965  050F                     l3342:
  5966  050F  0861               	movf	(___flmul@temp+1)^(0+128),w
  5967  0510  3A80               	xorlw	128
  5968  0511  00FF               	movwf	btemp+1
  5969  0512  3080               	movlw	128
  5970  0513  027F               	subwf	btemp+1,w
  5971  0514  1D03               	skipz
  5972  0515  2D18               	goto	u5225
  5973  0516  30FF               	movlw	255
  5974  0517  0260               	subwf	___flmul@temp^(0+128),w
  5975  0518                     u5225:
  5976  0518  1C03               	skipc
  5977  0519  2D1B               	goto	u5221
  5978  051A  2D1C               	goto	u5220
  5979  051B                     u5221:
  5980  051B  2D27               	goto	l3346
  5981  051C                     u5220:
  5982  051C                     l3344:
  5983  051C  307F               	movlw	127
  5984  051D  1683               	bsf	3,5	;RP0=1, select bank1
  5985  051E  1303               	bcf	3,6	;RP1=0, select bank1
  5986  051F  00DF               	movwf	(___flmul@prod+3)^(0+128)
  5987  0520  3080               	movlw	128
  5988  0521  00DE               	movwf	(___flmul@prod+2)^(0+128)
  5989  0522  3000               	movlw	0
  5990  0523  00DD               	movwf	(___flmul@prod+1)^(0+128)
  5991  0524  3000               	movlw	0
  5992  0525  00DC               	movwf	___flmul@prod^(0+128)
  5993  0526  2D64               	goto	l671
  5994  0527                     l3346:
  5995  0527  1683               	bsf	3,5	;RP0=1, select bank1
  5996  0528  1303               	bcf	3,6	;RP1=0, select bank1
  5997  0529  0861               	movf	(___flmul@temp+1)^(0+128),w
  5998  052A  3A80               	xorlw	128
  5999  052B  00FF               	movwf	btemp+1
  6000  052C  3080               	movlw	128
  6001  052D  027F               	subwf	btemp+1,w
  6002  052E  1D03               	skipz
  6003  052F  2D32               	goto	u5235
  6004  0530  3001               	movlw	1
  6005  0531  0260               	subwf	___flmul@temp^(0+128),w
  6006  0532                     u5235:
  6007  0532  1803               	skipnc
  6008  0533  2D35               	goto	u5231
  6009  0534  2D36               	goto	u5230
  6010  0535                     u5231:
  6011  0535  2D42               	goto	l3352
  6012  0536                     u5230:
  6013  0536                     l3348:
  6014  0536  3000               	movlw	0
  6015  0537  1683               	bsf	3,5	;RP0=1, select bank1
  6016  0538  1303               	bcf	3,6	;RP1=0, select bank1
  6017  0539  00DF               	movwf	(___flmul@prod+3)^(0+128)
  6018  053A  3000               	movlw	0
  6019  053B  00DE               	movwf	(___flmul@prod+2)^(0+128)
  6020  053C  3000               	movlw	0
  6021  053D  00DD               	movwf	(___flmul@prod+1)^(0+128)
  6022  053E  3000               	movlw	0
  6023  053F  00DC               	movwf	___flmul@prod^(0+128)
  6024  0540                     l3350:
  6025  0540  01D5               	clrf	___flmul@sign^(0+128)
  6026  0541  2D64               	goto	l671
  6027  0542                     l3352:
  6028  0542  1683               	bsf	3,5	;RP0=1, select bank1
  6029  0543  1303               	bcf	3,6	;RP1=0, select bank1
  6030  0544  0860               	movf	___flmul@temp^(0+128),w
  6031  0545  1283               	bcf	3,5	;RP0=0, select bank0
  6032  0546  1303               	bcf	3,6	;RP1=0, select bank0
  6033  0547  00E1               	movwf	??___flmul
  6034  0548  0861               	movf	??___flmul,w
  6035  0549  1683               	bsf	3,5	;RP0=1, select bank1
  6036  054A  1303               	bcf	3,6	;RP1=0, select bank1
  6037  054B  00DB               	movwf	___flmul@bexp^(0+128)
  6038  054C  30FF               	movlw	255
  6039  054D  05DC               	andwf	___flmul@prod^(0+128),f
  6040  054E  30FF               	movlw	255
  6041  054F  05DD               	andwf	(___flmul@prod+1)^(0+128),f
  6042  0550  307F               	movlw	127
  6043  0551  05DE               	andwf	(___flmul@prod+2)^(0+128),f
  6044  0552  3000               	movlw	0
  6045  0553  05DF               	andwf	(___flmul@prod+3)^(0+128),f
  6046  0554                     l3354:
  6047  0554  1C5B               	btfss	___flmul@bexp^(0+128),0
  6048  0555  2D57               	goto	u5241
  6049  0556  2D58               	goto	u5240
  6050  0557                     u5241:
  6051  0557  2D59               	goto	l3358
  6052  0558                     u5240:
  6053  0558                     l3356:
  6054  0558  17DE               	bsf	(___flmul@prod^(0+128)+2),7
  6055  0559                     l3358:
  6056  0559  085B               	movf	___flmul@bexp^(0+128),w
  6057  055A  1283               	bcf	3,5	;RP0=0, select bank0
  6058  055B  1303               	bcf	3,6	;RP1=0, select bank0
  6059  055C  00E1               	movwf	??___flmul
  6060  055D  1003               	clrc
  6061  055E  0C61               	rrf	??___flmul,w
  6062  055F  00E2               	movwf	??___flmul+1
  6063  0560  0862               	movf	??___flmul+1,w
  6064  0561  1683               	bsf	3,5	;RP0=1, select bank1
  6065  0562  1303               	bcf	3,6	;RP1=0, select bank1
  6066  0563  00DF               	movwf	(___flmul@prod^(0+128)+3)
  6067  0564                     l671:
  6068  0564  0855               	movf	___flmul@sign^(0+128),w
  6069  0565  1283               	bcf	3,5	;RP0=0, select bank0
  6070  0566  1303               	bcf	3,6	;RP1=0, select bank0
  6071  0567  00E1               	movwf	??___flmul
  6072  0568  0861               	movf	??___flmul,w
  6073  0569  1683               	bsf	3,5	;RP0=1, select bank1
  6074  056A  1303               	bcf	3,6	;RP1=0, select bank1
  6075  056B  04DF               	iorwf	(___flmul@prod^(0+128)+3),f
  6076  056C                     l3360:
  6077  056C  085F               	movf	(___flmul@prod+3)^(0+128),w
  6078  056D  1283               	bcf	3,5	;RP0=0, select bank0
  6079  056E  1303               	bcf	3,6	;RP1=0, select bank0
  6080  056F  00DC               	movwf	?___flmul+3
  6081  0570  1683               	bsf	3,5	;RP0=1, select bank1
  6082  0571  1303               	bcf	3,6	;RP1=0, select bank1
  6083  0572  085E               	movf	(___flmul@prod+2)^(0+128),w
  6084  0573  1283               	bcf	3,5	;RP0=0, select bank0
  6085  0574  1303               	bcf	3,6	;RP1=0, select bank0
  6086  0575  00DB               	movwf	?___flmul+2
  6087  0576  1683               	bsf	3,5	;RP0=1, select bank1
  6088  0577  1303               	bcf	3,6	;RP1=0, select bank1
  6089  0578  085D               	movf	(___flmul@prod+1)^(0+128),w
  6090  0579  1283               	bcf	3,5	;RP0=0, select bank0
  6091  057A  1303               	bcf	3,6	;RP1=0, select bank0
  6092  057B  00DA               	movwf	?___flmul+1
  6093  057C  1683               	bsf	3,5	;RP0=1, select bank1
  6094  057D  1303               	bcf	3,6	;RP1=0, select bank1
  6095  057E  085C               	movf	___flmul@prod^(0+128),w
  6096  057F  1283               	bcf	3,5	;RP0=0, select bank0
  6097  0580  1303               	bcf	3,6	;RP1=0, select bank0
  6098  0581  00D9               	movwf	?___flmul
  6099  0582                     l659:
  6100  0582  0008               	return
  6101  0583                     __end_of___flmul:
  6102                           
  6103                           	psect	text9
  6104  1375                     __ptext9:	
  6105 ;; *************** function __Umul8_16 *****************
  6106 ;; Defined at:
  6107 ;;		line 4 in file "C:\Program Files\Microchip\xc8\v2.31\pic\sources\c90\common\Umul8_16.c"
  6108 ;; Parameters:    Size  Location     Type
  6109 ;;  multiplier      1    wreg     unsigned char 
  6110 ;;  multiplicand    1    0[BANK0 ] unsigned char 
  6111 ;; Auto vars:     Size  Location     Type
  6112 ;;  multiplier      1    8[BANK0 ] unsigned char 
  6113 ;;  word_mpld       2    6[BANK0 ] unsigned int 
  6114 ;;  product         2    4[BANK0 ] unsigned int 
  6115 ;; Return value:  Size  Location     Type
  6116 ;;                  2    0[BANK0 ] unsigned int 
  6117 ;; Registers used:
  6118 ;;		wreg, status,2, status,0
  6119 ;; Tracked objects:
  6120 ;;		On entry : 0/0
  6121 ;;		On exit  : 0/0
  6122 ;;		Unchanged: 0/0
  6123 ;; Data sizes:     COMMON   BANK0   BANK1   BANK3   BANK2
  6124 ;;      Params:         0       2       0       0       0
  6125 ;;      Locals:         0       5       0       0       0
  6126 ;;      Temps:          0       2       0       0       0
  6127 ;;      Totals:         0       9       0       0       0
  6128 ;;Total ram usage:        9 bytes
  6129 ;; Hardware stack levels used:    1
  6130 ;; Hardware stack levels required when called:    1
  6131 ;; This function calls:
  6132 ;;		Nothing
  6133 ;; This function is called by:
  6134 ;;		___flmul
  6135 ;; This function uses a non-reentrant model
  6136 ;;
  6137                           
  6138                           
  6139                           ;psect for function __Umul8_16
  6140  1375                     __Umul8_16:
  6141                           
  6142                           ;incstack = 0
  6143                           ; Regs used in __Umul8_16: [wreg+status,2+status,0]
  6144                           ;__Umul8_16@multiplier stored from wreg
  6145  1375  1283               	bcf	3,5	;RP0=0, select bank0
  6146  1376  1303               	bcf	3,6	;RP1=0, select bank0
  6147  1377  00A8               	movwf	__Umul8_16@multiplier
  6148  1378                     l2928:
  6149  1378  01A4               	clrf	__Umul8_16@product
  6150  1379  01A5               	clrf	__Umul8_16@product+1
  6151  137A                     l2930:
  6152  137A  0820               	movf	__Umul8_16@multiplicand,w
  6153  137B  00A2               	movwf	??__Umul8_16
  6154  137C  01A3               	clrf	??__Umul8_16+1
  6155  137D  0822               	movf	??__Umul8_16,w
  6156  137E  00A6               	movwf	__Umul8_16@word_mpld
  6157  137F  0823               	movf	??__Umul8_16+1,w
  6158  1380  00A7               	movwf	__Umul8_16@word_mpld+1
  6159  1381                     l2932:
  6160  1381  1C28               	btfss	__Umul8_16@multiplier,0
  6161  1382  2B84               	goto	u4251
  6162  1383  2B85               	goto	u4250
  6163  1384                     u4251:
  6164  1384  2B8B               	goto	l678
  6165  1385                     u4250:
  6166  1385                     l2934:
  6167  1385  0826               	movf	__Umul8_16@word_mpld,w
  6168  1386  07A4               	addwf	__Umul8_16@product,f
  6169  1387  1803               	skipnc
  6170  1388  0AA5               	incf	__Umul8_16@product+1,f
  6171  1389  0827               	movf	__Umul8_16@word_mpld+1,w
  6172  138A  07A5               	addwf	__Umul8_16@product+1,f
  6173  138B                     l678:
  6174  138B  3001               	movlw	1
  6175  138C                     u4265:
  6176  138C  1003               	clrc
  6177  138D  0DA6               	rlf	__Umul8_16@word_mpld,f
  6178  138E  0DA7               	rlf	__Umul8_16@word_mpld+1,f
  6179  138F  3EFF               	addlw	-1
  6180  1390  1D03               	skipz
  6181  1391  2B8C               	goto	u4265
  6182  1392  1003               	clrc
  6183  1393  0CA8               	rrf	__Umul8_16@multiplier,f
  6184  1394                     l2936:
  6185  1394  0828               	movf	__Umul8_16@multiplier,w
  6186  1395  1D03               	btfss	3,2
  6187  1396  2B98               	goto	u4271
  6188  1397  2B99               	goto	u4270
  6189  1398                     u4271:
  6190  1398  2B81               	goto	l2932
  6191  1399                     u4270:
  6192  1399                     l2938:
  6193  1399  0825               	movf	__Umul8_16@product+1,w
  6194  139A  00A1               	movwf	?__Umul8_16+1
  6195  139B  0824               	movf	__Umul8_16@product,w
  6196  139C  00A0               	movwf	?__Umul8_16
  6197  139D                     l680:
  6198  139D  0008               	return
  6199  139E                     __end_of__Umul8_16:
  6200                           
  6201                           	psect	text10
  6202  14C3                     __ptext10:	
  6203 ;; *************** function ___flge *****************
  6204 ;; Defined at:
  6205 ;;		line 4 in file "C:\Program Files\Microchip\xc8\v2.31\pic\sources\c90\common\flge.c"
  6206 ;; Parameters:    Size  Location     Type
  6207 ;;  ff1             4    0[BANK0 ] unsigned int 
  6208 ;;  ff2             4    4[BANK0 ] unsigned int 
  6209 ;; Auto vars:     Size  Location     Type
  6210 ;;		None
  6211 ;; Return value:  Size  Location     Type
  6212 ;;		None               void
  6213 ;; Registers used:
  6214 ;;		wreg, status,2, status,0
  6215 ;; Tracked objects:
  6216 ;;		On entry : 0/0
  6217 ;;		On exit  : 0/0
  6218 ;;		Unchanged: 0/0
  6219 ;; Data sizes:     COMMON   BANK0   BANK1   BANK3   BANK2
  6220 ;;      Params:         0       8       0       0       0
  6221 ;;      Locals:         0       0       0       0       0
  6222 ;;      Temps:          0       4       0       0       0
  6223 ;;      Totals:         0      12       0       0       0
  6224 ;;Total ram usage:       12 bytes
  6225 ;; Hardware stack levels used:    1
  6226 ;; Hardware stack levels required when called:    1
  6227 ;; This function calls:
  6228 ;;		Nothing
  6229 ;; This function is called by:
  6230 ;;		_convert
  6231 ;; This function uses a non-reentrant model
  6232 ;;
  6233                           
  6234                           
  6235                           ;psect for function ___flge
  6236  14C3                     ___flge:
  6237  14C3                     l3020:	
  6238                           ;incstack = 0
  6239                           ; Regs used in ___flge: [wreg+status,2+status,0]
  6240                           
  6241  14C3  3000               	movlw	0
  6242  14C4  1283               	bcf	3,5	;RP0=0, select bank0
  6243  14C5  1303               	bcf	3,6	;RP1=0, select bank0
  6244  14C6  0520               	andwf	___flge@ff1,w
  6245  14C7  00A8               	movwf	??___flge
  6246  14C8  3000               	movlw	0
  6247  14C9  0521               	andwf	___flge@ff1+1,w
  6248  14CA  00A9               	movwf	??___flge+1
  6249  14CB  3080               	movlw	128
  6250  14CC  0522               	andwf	___flge@ff1+2,w
  6251  14CD  00AA               	movwf	??___flge+2
  6252  14CE  307F               	movlw	127
  6253  14CF  0523               	andwf	___flge@ff1+3,w
  6254  14D0  00AB               	movwf	??___flge+3
  6255  14D1  082B               	movf	??___flge+3,w
  6256  14D2  042A               	iorwf	??___flge+2,w
  6257  14D3  0429               	iorwf	??___flge+1,w
  6258  14D4  0428               	iorwf	??___flge,w
  6259  14D5  1D03               	skipz
  6260  14D6  2CD8               	goto	u4421
  6261  14D7  2CD9               	goto	u4420
  6262  14D8                     u4421:
  6263  14D8  2CE1               	goto	l444
  6264  14D9                     u4420:
  6265  14D9                     l3022:
  6266  14D9  3000               	movlw	0
  6267  14DA  00A3               	movwf	___flge@ff1+3
  6268  14DB  3000               	movlw	0
  6269  14DC  00A2               	movwf	___flge@ff1+2
  6270  14DD  3000               	movlw	0
  6271  14DE  00A1               	movwf	___flge@ff1+1
  6272  14DF  3000               	movlw	0
  6273  14E0  00A0               	movwf	___flge@ff1
  6274  14E1                     l444:
  6275  14E1  3000               	movlw	0
  6276  14E2  0524               	andwf	___flge@ff2,w
  6277  14E3  00A8               	movwf	??___flge
  6278  14E4  3000               	movlw	0
  6279  14E5  0525               	andwf	___flge@ff2+1,w
  6280  14E6  00A9               	movwf	??___flge+1
  6281  14E7  3080               	movlw	128
  6282  14E8  0526               	andwf	___flge@ff2+2,w
  6283  14E9  00AA               	movwf	??___flge+2
  6284  14EA  307F               	movlw	127
  6285  14EB  0527               	andwf	___flge@ff2+3,w
  6286  14EC  00AB               	movwf	??___flge+3
  6287  14ED  082B               	movf	??___flge+3,w
  6288  14EE  042A               	iorwf	??___flge+2,w
  6289  14EF  0429               	iorwf	??___flge+1,w
  6290  14F0  0428               	iorwf	??___flge,w
  6291  14F1  1D03               	skipz
  6292  14F2  2CF4               	goto	u4431
  6293  14F3  2CF5               	goto	u4430
  6294  14F4                     u4431:
  6295  14F4  2CFD               	goto	l3026
  6296  14F5                     u4430:
  6297  14F5                     l3024:
  6298  14F5  3000               	movlw	0
  6299  14F6  00A7               	movwf	___flge@ff2+3
  6300  14F7  3000               	movlw	0
  6301  14F8  00A6               	movwf	___flge@ff2+2
  6302  14F9  3000               	movlw	0
  6303  14FA  00A5               	movwf	___flge@ff2+1
  6304  14FB  3000               	movlw	0
  6305  14FC  00A4               	movwf	___flge@ff2
  6306  14FD                     l3026:
  6307  14FD  1FA3               	btfss	___flge@ff1+3,7
  6308  14FE  2D00               	goto	u4441
  6309  14FF  2D01               	goto	u4440
  6310  1500                     u4441:
  6311  1500  2D25               	goto	l3030
  6312  1501                     u4440:
  6313  1501                     l3028:
  6314  1501  3000               	movlw	0
  6315  1502  00A8               	movwf	??___flge
  6316  1503  3000               	movlw	0
  6317  1504  00A9               	movwf	??___flge+1
  6318  1505  3000               	movlw	0
  6319  1506  00AA               	movwf	??___flge+2
  6320  1507  3080               	movlw	128
  6321  1508  00AB               	movwf	??___flge+3
  6322  1509  0820               	movf	___flge@ff1,w
  6323  150A  02A8               	subwf	??___flge,f
  6324  150B  0821               	movf	___flge@ff1+1,w
  6325  150C  1C03               	skipc
  6326  150D  0F21               	incfsz	___flge@ff1+1,w
  6327  150E  2D10               	goto	u4451
  6328  150F  2D11               	goto	u4452
  6329  1510                     u4451:
  6330  1510  02A9               	subwf	??___flge+1,f
  6331  1511                     u4452:
  6332  1511  0822               	movf	___flge@ff1+2,w
  6333  1512  1C03               	skipc
  6334  1513  0F22               	incfsz	___flge@ff1+2,w
  6335  1514  2D16               	goto	u4453
  6336  1515  2D17               	goto	u4454
  6337  1516                     u4453:
  6338  1516  02AA               	subwf	??___flge+2,f
  6339  1517                     u4454:
  6340  1517  0823               	movf	___flge@ff1+3,w
  6341  1518  1C03               	skipc
  6342  1519  0F23               	incfsz	___flge@ff1+3,w
  6343  151A  2D1C               	goto	u4455
  6344  151B  2D1D               	goto	u4456
  6345  151C                     u4455:
  6346  151C  02AB               	subwf	??___flge+3,f
  6347  151D                     u4456:
  6348  151D  082B               	movf	??___flge+3,w
  6349  151E  00A3               	movwf	___flge@ff1+3
  6350  151F  082A               	movf	??___flge+2,w
  6351  1520  00A2               	movwf	___flge@ff1+2
  6352  1521  0829               	movf	??___flge+1,w
  6353  1522  00A1               	movwf	___flge@ff1+1
  6354  1523  0828               	movf	??___flge,w
  6355  1524  00A0               	movwf	___flge@ff1
  6356  1525                     l3030:
  6357  1525  1FA7               	btfss	___flge@ff2+3,7
  6358  1526  2D28               	goto	u4461
  6359  1527  2D29               	goto	u4460
  6360  1528                     u4461:
  6361  1528  2D4D               	goto	l447
  6362  1529                     u4460:
  6363  1529                     l3032:
  6364  1529  3000               	movlw	0
  6365  152A  00A8               	movwf	??___flge
  6366  152B  3000               	movlw	0
  6367  152C  00A9               	movwf	??___flge+1
  6368  152D  3000               	movlw	0
  6369  152E  00AA               	movwf	??___flge+2
  6370  152F  3080               	movlw	128
  6371  1530  00AB               	movwf	??___flge+3
  6372  1531  0824               	movf	___flge@ff2,w
  6373  1532  02A8               	subwf	??___flge,f
  6374  1533  0825               	movf	___flge@ff2+1,w
  6375  1534  1C03               	skipc
  6376  1535  0F25               	incfsz	___flge@ff2+1,w
  6377  1536  2D38               	goto	u4471
  6378  1537  2D39               	goto	u4472
  6379  1538                     u4471:
  6380  1538  02A9               	subwf	??___flge+1,f
  6381  1539                     u4472:
  6382  1539  0826               	movf	___flge@ff2+2,w
  6383  153A  1C03               	skipc
  6384  153B  0F26               	incfsz	___flge@ff2+2,w
  6385  153C  2D3E               	goto	u4473
  6386  153D  2D3F               	goto	u4474
  6387  153E                     u4473:
  6388  153E  02AA               	subwf	??___flge+2,f
  6389  153F                     u4474:
  6390  153F  0827               	movf	___flge@ff2+3,w
  6391  1540  1C03               	skipc
  6392  1541  0F27               	incfsz	___flge@ff2+3,w
  6393  1542  2D44               	goto	u4475
  6394  1543  2D45               	goto	u4476
  6395  1544                     u4475:
  6396  1544  02AB               	subwf	??___flge+3,f
  6397  1545                     u4476:
  6398  1545  082B               	movf	??___flge+3,w
  6399  1546  00A7               	movwf	___flge@ff2+3
  6400  1547  082A               	movf	??___flge+2,w
  6401  1548  00A6               	movwf	___flge@ff2+2
  6402  1549  0829               	movf	??___flge+1,w
  6403  154A  00A5               	movwf	___flge@ff2+1
  6404  154B  0828               	movf	??___flge,w
  6405  154C  00A4               	movwf	___flge@ff2
  6406  154D                     l447:
  6407  154D  3080               	movlw	128
  6408  154E  06A3               	xorwf	___flge@ff1+3,f
  6409  154F  3080               	movlw	128
  6410  1550  06A7               	xorwf	___flge@ff2+3,f
  6411  1551  0827               	movf	___flge@ff2+3,w
  6412  1552  0223               	subwf	___flge@ff1+3,w
  6413  1553  1D03               	skipz
  6414  1554  2D5F               	goto	u4485
  6415  1555  0826               	movf	___flge@ff2+2,w
  6416  1556  0222               	subwf	___flge@ff1+2,w
  6417  1557  1D03               	skipz
  6418  1558  2D5F               	goto	u4485
  6419  1559  0825               	movf	___flge@ff2+1,w
  6420  155A  0221               	subwf	___flge@ff1+1,w
  6421  155B  1D03               	skipz
  6422  155C  2D5F               	goto	u4485
  6423  155D  0824               	movf	___flge@ff2,w
  6424  155E  0220               	subwf	___flge@ff1,w
  6425  155F                     u4485:
  6426  155F  1803               	skipnc
  6427  1560  2D62               	goto	u4481
  6428  1561  2D63               	goto	u4480
  6429  1562                     u4481:
  6430  1562  2D65               	goto	l3036
  6431  1563                     u4480:
  6432  1563                     l3034:
  6433  1563  1003               	clrc
  6434  1564  2D66               	goto	l448
  6435  1565                     l3036:
  6436  1565  1403               	setc
  6437  1566                     l448:
  6438  1566  0008               	return
  6439  1567                     __end_of___flge:
  6440                           
  6441                           	psect	text11
  6442  1623                     __ptext11:	
  6443 ;; *************** function ___fldiv *****************
  6444 ;; Defined at:
  6445 ;;		line 8 in file "C:\Program Files\Microchip\xc8\v2.31\pic\sources\c90\common\sprcdiv.c"
  6446 ;; Parameters:    Size  Location     Type
  6447 ;;  a               4   31[BANK0 ] unsigned int 
  6448 ;;  b               4   35[BANK0 ] unsigned int 
  6449 ;; Auto vars:     Size  Location     Type
  6450 ;;  grs             4   51[BANK0 ] unsigned long 
  6451 ;;  rem             4   44[BANK0 ] unsigned long 
  6452 ;;  new_exp         2   49[BANK0 ] int 
  6453 ;;  aexp            1   56[BANK0 ] unsigned char 
  6454 ;;  bexp            1   55[BANK0 ] unsigned char 
  6455 ;;  sign            1   48[BANK0 ] unsigned char 
  6456 ;; Return value:  Size  Location     Type
  6457 ;;                  4   31[BANK0 ] unsigned char 
  6458 ;; Registers used:
  6459 ;;		wreg, status,2, status,0, btemp+1
  6460 ;; Tracked objects:
  6461 ;;		On entry : 0/0
  6462 ;;		On exit  : 0/0
  6463 ;;		Unchanged: 0/0
  6464 ;; Data sizes:     COMMON   BANK0   BANK1   BANK3   BANK2
  6465 ;;      Params:         0       8       0       0       0
  6466 ;;      Locals:         0      13       0       0       0
  6467 ;;      Temps:          0       5       0       0       0
  6468 ;;      Totals:         0      26       0       0       0
  6469 ;;Total ram usage:       26 bytes
  6470 ;; Hardware stack levels used:    1
  6471 ;; Hardware stack levels required when called:    1
  6472 ;; This function calls:
  6473 ;;		Nothing
  6474 ;; This function is called by:
  6475 ;;		_main
  6476 ;;		_convert
  6477 ;; This function uses a non-reentrant model
  6478 ;;
  6479                           
  6480                           
  6481                           ;psect for function ___fldiv
  6482  1623                     ___fldiv:
  6483  1623                     l3082:	
  6484                           ;incstack = 0
  6485                           ; Regs used in ___fldiv: [wreg+status,2+status,0+btemp+1]
  6486                           
  6487  1623  1283               	bcf	3,5	;RP0=0, select bank0
  6488  1624  1303               	bcf	3,6	;RP1=0, select bank0
  6489  1625  0846               	movf	___fldiv@b+3,w
  6490  1626  3980               	andlw	128
  6491  1627  00C7               	movwf	??___fldiv
  6492  1628  0847               	movf	??___fldiv,w
  6493  1629  00D0               	movwf	___fldiv@sign
  6494  162A                     l3084:
  6495  162A  0846               	movf	___fldiv@b+3,w
  6496  162B  00C7               	movwf	??___fldiv
  6497  162C  0747               	addwf	??___fldiv,w
  6498  162D  00C8               	movwf	??___fldiv+1
  6499  162E  0848               	movf	??___fldiv+1,w
  6500  162F  00D7               	movwf	___fldiv@bexp
  6501  1630                     l3086:
  6502  1630  1FC5               	btfss	___fldiv@b+2,7
  6503  1631  2E33               	goto	u4591
  6504  1632  2E34               	goto	u4590
  6505  1633                     u4591:
  6506  1633  2E35               	goto	l3090
  6507  1634                     u4590:
  6508  1634                     l3088:
  6509  1634  1457               	bsf	___fldiv@bexp,0
  6510  1635                     l3090:
  6511  1635  0857               	movf	___fldiv@bexp,w
  6512  1636  1903               	btfsc	3,2
  6513  1637  2E39               	goto	u4601
  6514  1638  2E3A               	goto	u4600
  6515  1639                     u4601:
  6516  1639  2E4A               	goto	l3100
  6517  163A                     u4600:
  6518  163A                     l3092:
  6519  163A  0A57               	incf	___fldiv@bexp,w
  6520  163B  1D03               	btfss	3,2
  6521  163C  2E3E               	goto	u4611
  6522  163D  2E3F               	goto	u4610
  6523  163E                     u4611:
  6524  163E  2E47               	goto	l3096
  6525  163F                     u4610:
  6526  163F                     l3094:
  6527  163F  3000               	movlw	0
  6528  1640  00C6               	movwf	___fldiv@b+3
  6529  1641  3000               	movlw	0
  6530  1642  00C5               	movwf	___fldiv@b+2
  6531  1643  3000               	movlw	0
  6532  1644  00C4               	movwf	___fldiv@b+1
  6533  1645  3000               	movlw	0
  6534  1646  00C3               	movwf	___fldiv@b
  6535  1647                     l3096:
  6536  1647  17C5               	bsf	___fldiv@b+2,7
  6537  1648                     l3098:
  6538  1648  01C6               	clrf	___fldiv@b+3
  6539  1649  2E52               	goto	l3102
  6540  164A                     l3100:
  6541  164A  3000               	movlw	0
  6542  164B  00C6               	movwf	___fldiv@b+3
  6543  164C  3000               	movlw	0
  6544  164D  00C5               	movwf	___fldiv@b+2
  6545  164E  3000               	movlw	0
  6546  164F  00C4               	movwf	___fldiv@b+1
  6547  1650  3000               	movlw	0
  6548  1651  00C3               	movwf	___fldiv@b
  6549  1652                     l3102:
  6550  1652  0842               	movf	___fldiv@a+3,w
  6551  1653  3980               	andlw	128
  6552  1654  00C7               	movwf	??___fldiv
  6553  1655  0847               	movf	??___fldiv,w
  6554  1656  06D0               	xorwf	___fldiv@sign,f
  6555  1657                     l3104:
  6556  1657  0842               	movf	___fldiv@a+3,w
  6557  1658  00C7               	movwf	??___fldiv
  6558  1659  0747               	addwf	??___fldiv,w
  6559  165A  00C8               	movwf	??___fldiv+1
  6560  165B  0848               	movf	??___fldiv+1,w
  6561  165C  00D8               	movwf	___fldiv@aexp
  6562  165D                     l3106:
  6563  165D  1FC1               	btfss	___fldiv@a+2,7
  6564  165E  2E60               	goto	u4621
  6565  165F  2E61               	goto	u4620
  6566  1660                     u4621:
  6567  1660  2E62               	goto	l3110
  6568  1661                     u4620:
  6569  1661                     l3108:
  6570  1661  1458               	bsf	___fldiv@aexp,0
  6571  1662                     l3110:
  6572  1662  0858               	movf	___fldiv@aexp,w
  6573  1663  1903               	btfsc	3,2
  6574  1664  2E66               	goto	u4631
  6575  1665  2E67               	goto	u4630
  6576  1666                     u4631:
  6577  1666  2E77               	goto	l3120
  6578  1667                     u4630:
  6579  1667                     l3112:
  6580  1667  0A58               	incf	___fldiv@aexp,w
  6581  1668  1D03               	btfss	3,2
  6582  1669  2E6B               	goto	u4641
  6583  166A  2E6C               	goto	u4640
  6584  166B                     u4641:
  6585  166B  2E74               	goto	l3116
  6586  166C                     u4640:
  6587  166C                     l3114:
  6588  166C  3000               	movlw	0
  6589  166D  00C2               	movwf	___fldiv@a+3
  6590  166E  3000               	movlw	0
  6591  166F  00C1               	movwf	___fldiv@a+2
  6592  1670  3000               	movlw	0
  6593  1671  00C0               	movwf	___fldiv@a+1
  6594  1672  3000               	movlw	0
  6595  1673  00BF               	movwf	___fldiv@a
  6596  1674                     l3116:
  6597  1674  17C1               	bsf	___fldiv@a+2,7
  6598  1675                     l3118:
  6599  1675  01C2               	clrf	___fldiv@a+3
  6600  1676  2E7F               	goto	l619
  6601  1677                     l3120:
  6602  1677  3000               	movlw	0
  6603  1678  00C2               	movwf	___fldiv@a+3
  6604  1679  3000               	movlw	0
  6605  167A  00C1               	movwf	___fldiv@a+2
  6606  167B  3000               	movlw	0
  6607  167C  00C0               	movwf	___fldiv@a+1
  6608  167D  3000               	movlw	0
  6609  167E  00BF               	movwf	___fldiv@a
  6610  167F                     l619:
  6611  167F  0842               	movf	___fldiv@a+3,w
  6612  1680  0441               	iorwf	___fldiv@a+2,w
  6613  1681  0440               	iorwf	___fldiv@a+1,w
  6614  1682  043F               	iorwf	___fldiv@a,w
  6615  1683  1D03               	skipz
  6616  1684  2E86               	goto	u4651
  6617  1685  2E87               	goto	u4650
  6618  1686                     u4651:
  6619  1686  2EA0               	goto	l3130
  6620  1687                     u4650:
  6621  1687                     l3122:
  6622  1687  3000               	movlw	0
  6623  1688  00C6               	movwf	___fldiv@b+3
  6624  1689  3000               	movlw	0
  6625  168A  00C5               	movwf	___fldiv@b+2
  6626  168B  3000               	movlw	0
  6627  168C  00C4               	movwf	___fldiv@b+1
  6628  168D  3000               	movlw	0
  6629  168E  00C3               	movwf	___fldiv@b
  6630  168F  3080               	movlw	128
  6631  1690  04C5               	iorwf	___fldiv@b+2,f
  6632  1691  307F               	movlw	127
  6633  1692  04C6               	iorwf	___fldiv@b+3,f
  6634  1693                     l3124:
  6635  1693  0850               	movf	___fldiv@sign,w
  6636  1694  00C7               	movwf	??___fldiv
  6637  1695  0847               	movf	??___fldiv,w
  6638  1696  04C6               	iorwf	___fldiv@b+3,f
  6639  1697                     l3126:
  6640  1697  0846               	movf	___fldiv@b+3,w
  6641  1698  00C2               	movwf	?___fldiv+3
  6642  1699  0845               	movf	___fldiv@b+2,w
  6643  169A  00C1               	movwf	?___fldiv+2
  6644  169B  0844               	movf	___fldiv@b+1,w
  6645  169C  00C0               	movwf	?___fldiv+1
  6646  169D  0843               	movf	___fldiv@b,w
  6647  169E  00BF               	movwf	?___fldiv
  6648  169F  2FFF               	goto	l621
  6649  16A0                     l3130:
  6650  16A0  0857               	movf	___fldiv@bexp,w
  6651  16A1  1D03               	btfss	3,2
  6652  16A2  2EA4               	goto	u4661
  6653  16A3  2EA5               	goto	u4660
  6654  16A4                     u4661:
  6655  16A4  2EAE               	goto	l3136
  6656  16A5                     u4660:
  6657  16A5                     l3132:
  6658  16A5  3000               	movlw	0
  6659  16A6  00C2               	movwf	?___fldiv+3
  6660  16A7  3000               	movlw	0
  6661  16A8  00C1               	movwf	?___fldiv+2
  6662  16A9  3000               	movlw	0
  6663  16AA  00C0               	movwf	?___fldiv+1
  6664  16AB  3000               	movlw	0
  6665  16AC  00BF               	movwf	?___fldiv
  6666  16AD  2FFF               	goto	l621
  6667  16AE                     l3136:
  6668  16AE  0857               	movf	___fldiv@bexp,w
  6669  16AF  00C7               	movwf	??___fldiv
  6670  16B0  01C8               	clrf	??___fldiv+1
  6671  16B1  0848               	movf	??___fldiv+1,w
  6672  16B2  00CA               	movwf	??___fldiv+3
  6673  16B3  0858               	movf	___fldiv@aexp,w
  6674  16B4  0247               	subwf	??___fldiv,w
  6675  16B5  00C9               	movwf	??___fldiv+2
  6676  16B6  1C03               	skipc
  6677  16B7  03CA               	decf	??___fldiv+3,f
  6678  16B8  0849               	movf	??___fldiv+2,w
  6679  16B9  3E7F               	addlw	127
  6680  16BA  00D1               	movwf	___fldiv@new_exp
  6681  16BB  084A               	movf	??___fldiv+3,w
  6682  16BC  1803               	skipnc
  6683  16BD  3E01               	addlw	1
  6684  16BE  3E00               	addlw	0
  6685  16BF  00D2               	movwf	___fldiv@new_exp+1
  6686  16C0                     l3138:
  6687  16C0  0846               	movf	___fldiv@b+3,w
  6688  16C1  00CF               	movwf	___fldiv@rem+3
  6689  16C2  0845               	movf	___fldiv@b+2,w
  6690  16C3  00CE               	movwf	___fldiv@rem+2
  6691  16C4  0844               	movf	___fldiv@b+1,w
  6692  16C5  00CD               	movwf	___fldiv@rem+1
  6693  16C6  0843               	movf	___fldiv@b,w
  6694  16C7  00CC               	movwf	___fldiv@rem
  6695  16C8                     l3140:
  6696  16C8  3000               	movlw	0
  6697  16C9  00C6               	movwf	___fldiv@b+3
  6698  16CA  3000               	movlw	0
  6699  16CB  00C5               	movwf	___fldiv@b+2
  6700  16CC  3000               	movlw	0
  6701  16CD  00C4               	movwf	___fldiv@b+1
  6702  16CE  3000               	movlw	0
  6703  16CF  00C3               	movwf	___fldiv@b
  6704  16D0                     l3142:
  6705  16D0  3000               	movlw	0
  6706  16D1  00D6               	movwf	___fldiv@grs+3
  6707  16D2  3000               	movlw	0
  6708  16D3  00D5               	movwf	___fldiv@grs+2
  6709  16D4  3000               	movlw	0
  6710  16D5  00D4               	movwf	___fldiv@grs+1
  6711  16D6  3000               	movlw	0
  6712  16D7  00D3               	movwf	___fldiv@grs
  6713  16D8                     l3144:
  6714  16D8  01D8               	clrf	___fldiv@aexp
  6715  16D9  2F24               	goto	l3164
  6716  16DA                     l3146:
  6717  16DA  0858               	movf	___fldiv@aexp,w
  6718  16DB  1903               	btfsc	3,2
  6719  16DC  2EDE               	goto	u4671
  6720  16DD  2EDF               	goto	u4670
  6721  16DE                     u4671:
  6722  16DE  2EFF               	goto	l3156
  6723  16DF                     u4670:
  6724  16DF                     l3148:
  6725  16DF  3001               	movlw	1
  6726  16E0  00C7               	movwf	??___fldiv
  6727  16E1                     u4685:
  6728  16E1  1003               	clrc
  6729  16E2  0DCC               	rlf	___fldiv@rem,f
  6730  16E3  0DCD               	rlf	___fldiv@rem+1,f
  6731  16E4  0DCE               	rlf	___fldiv@rem+2,f
  6732  16E5  0DCF               	rlf	___fldiv@rem+3,f
  6733  16E6  0BC7               	decfsz	??___fldiv,f
  6734  16E7  2EE1               	goto	u4685
  6735  16E8  3001               	movlw	1
  6736  16E9  00C7               	movwf	??___fldiv
  6737  16EA                     u4695:
  6738  16EA  1003               	clrc
  6739  16EB  0DC3               	rlf	___fldiv@b,f
  6740  16EC  0DC4               	rlf	___fldiv@b+1,f
  6741  16ED  0DC5               	rlf	___fldiv@b+2,f
  6742  16EE  0DC6               	rlf	___fldiv@b+3,f
  6743  16EF  0BC7               	decfsz	??___fldiv,f
  6744  16F0  2EEA               	goto	u4695
  6745  16F1                     l3150:
  6746  16F1  1FD6               	btfss	___fldiv@grs+3,7
  6747  16F2  2EF4               	goto	u4701
  6748  16F3  2EF5               	goto	u4700
  6749  16F4                     u4701:
  6750  16F4  2EF6               	goto	l3154
  6751  16F5                     u4700:
  6752  16F5                     l3152:
  6753  16F5  1443               	bsf	___fldiv@b,0
  6754  16F6                     l3154:
  6755  16F6  3001               	movlw	1
  6756  16F7  00C7               	movwf	??___fldiv
  6757  16F8                     u4715:
  6758  16F8  1003               	clrc
  6759  16F9  0DD3               	rlf	___fldiv@grs,f
  6760  16FA  0DD4               	rlf	___fldiv@grs+1,f
  6761  16FB  0DD5               	rlf	___fldiv@grs+2,f
  6762  16FC  0DD6               	rlf	___fldiv@grs+3,f
  6763  16FD  0BC7               	decfsz	??___fldiv,f
  6764  16FE  2EF8               	goto	u4715
  6765  16FF                     l3156:
  6766  16FF  0842               	movf	___fldiv@a+3,w
  6767  1700  024F               	subwf	___fldiv@rem+3,w
  6768  1701  1D03               	skipz
  6769  1702  2F0D               	goto	u4725
  6770  1703  0841               	movf	___fldiv@a+2,w
  6771  1704  024E               	subwf	___fldiv@rem+2,w
  6772  1705  1D03               	skipz
  6773  1706  2F0D               	goto	u4725
  6774  1707  0840               	movf	___fldiv@a+1,w
  6775  1708  024D               	subwf	___fldiv@rem+1,w
  6776  1709  1D03               	skipz
  6777  170A  2F0D               	goto	u4725
  6778  170B  083F               	movf	___fldiv@a,w
  6779  170C  024C               	subwf	___fldiv@rem,w
  6780  170D                     u4725:
  6781  170D  1C03               	skipc
  6782  170E  2F10               	goto	u4721
  6783  170F  2F11               	goto	u4720
  6784  1710                     u4721:
  6785  1710  2F20               	goto	l3162
  6786  1711                     u4720:
  6787  1711                     l3158:
  6788  1711  1756               	bsf	___fldiv@grs+3,6
  6789  1712                     l3160:
  6790  1712  083F               	movf	___fldiv@a,w
  6791  1713  02CC               	subwf	___fldiv@rem,f
  6792  1714  0840               	movf	___fldiv@a+1,w
  6793  1715  1C03               	skipc
  6794  1716  0F40               	incfsz	___fldiv@a+1,w
  6795  1717  02CD               	subwf	___fldiv@rem+1,f
  6796  1718  0841               	movf	___fldiv@a+2,w
  6797  1719  1C03               	skipc
  6798  171A  0F41               	incfsz	___fldiv@a+2,w
  6799  171B  02CE               	subwf	___fldiv@rem+2,f
  6800  171C  0842               	movf	___fldiv@a+3,w
  6801  171D  1C03               	skipc
  6802  171E  0F42               	incfsz	___fldiv@a+3,w
  6803  171F  02CF               	subwf	___fldiv@rem+3,f
  6804  1720                     l3162:
  6805  1720  3001               	movlw	1
  6806  1721  00C7               	movwf	??___fldiv
  6807  1722  0847               	movf	??___fldiv,w
  6808  1723  07D8               	addwf	___fldiv@aexp,f
  6809  1724                     l3164:
  6810  1724  301A               	movlw	26
  6811  1725  0258               	subwf	___fldiv@aexp,w
  6812  1726  1C03               	skipc
  6813  1727  2F29               	goto	u4731
  6814  1728  2F2A               	goto	u4730
  6815  1729                     u4731:
  6816  1729  2EDA               	goto	l3146
  6817  172A                     u4730:
  6818  172A                     l3166:
  6819  172A  084F               	movf	___fldiv@rem+3,w
  6820  172B  044E               	iorwf	___fldiv@rem+2,w
  6821  172C  044D               	iorwf	___fldiv@rem+1,w
  6822  172D  044C               	iorwf	___fldiv@rem,w
  6823  172E  1903               	skipnz
  6824  172F  2F31               	goto	u4741
  6825  1730  2F32               	goto	u4740
  6826  1731                     u4741:
  6827  1731  2F51               	goto	l3180
  6828  1732                     u4740:
  6829  1732                     l3168:
  6830  1732  1453               	bsf	___fldiv@grs,0
  6831  1733  2F51               	goto	l3180
  6832  1734                     l3170:
  6833  1734  3001               	movlw	1
  6834  1735  00C7               	movwf	??___fldiv
  6835  1736                     u4755:
  6836  1736  1003               	clrc
  6837  1737  0DC3               	rlf	___fldiv@b,f
  6838  1738  0DC4               	rlf	___fldiv@b+1,f
  6839  1739  0DC5               	rlf	___fldiv@b+2,f
  6840  173A  0DC6               	rlf	___fldiv@b+3,f
  6841  173B  0BC7               	decfsz	??___fldiv,f
  6842  173C  2F36               	goto	u4755
  6843  173D                     l3172:
  6844  173D  1FD6               	btfss	___fldiv@grs+3,7
  6845  173E  2F40               	goto	u4761
  6846  173F  2F41               	goto	u4760
  6847  1740                     u4761:
  6848  1740  2F42               	goto	l3176
  6849  1741                     u4760:
  6850  1741                     l3174:
  6851  1741  1443               	bsf	___fldiv@b,0
  6852  1742                     l3176:
  6853  1742  3001               	movlw	1
  6854  1743  00C7               	movwf	??___fldiv
  6855  1744                     u4775:
  6856  1744  1003               	clrc
  6857  1745  0DD3               	rlf	___fldiv@grs,f
  6858  1746  0DD4               	rlf	___fldiv@grs+1,f
  6859  1747  0DD5               	rlf	___fldiv@grs+2,f
  6860  1748  0DD6               	rlf	___fldiv@grs+3,f
  6861  1749  0BC7               	decfsz	??___fldiv,f
  6862  174A  2F44               	goto	u4775
  6863  174B                     l3178:
  6864  174B  30FF               	movlw	255
  6865  174C  07D1               	addwf	___fldiv@new_exp,f
  6866  174D  1803               	skipnc
  6867  174E  0AD2               	incf	___fldiv@new_exp+1,f
  6868  174F  30FF               	movlw	255
  6869  1750  07D2               	addwf	___fldiv@new_exp+1,f
  6870  1751                     l3180:
  6871  1751  1FC5               	btfss	___fldiv@b+2,7
  6872  1752  2F54               	goto	u4781
  6873  1753  2F55               	goto	u4780
  6874  1754                     u4781:
  6875  1754  2F34               	goto	l3170
  6876  1755                     u4780:
  6877  1755                     l3182:
  6878  1755  01D8               	clrf	___fldiv@aexp
  6879  1756                     l3184:
  6880  1756  1FD6               	btfss	___fldiv@grs+3,7
  6881  1757  2F59               	goto	u4791
  6882  1758  2F5A               	goto	u4790
  6883  1759                     u4791:
  6884  1759  2F76               	goto	l3192
  6885  175A                     u4790:
  6886  175A                     l3186:
  6887  175A  30FF               	movlw	255
  6888  175B  0553               	andwf	___fldiv@grs,w
  6889  175C  00C7               	movwf	??___fldiv
  6890  175D  30FF               	movlw	255
  6891  175E  0554               	andwf	___fldiv@grs+1,w
  6892  175F  00C8               	movwf	??___fldiv+1
  6893  1760  30FF               	movlw	255
  6894  1761  0555               	andwf	___fldiv@grs+2,w
  6895  1762  00C9               	movwf	??___fldiv+2
  6896  1763  307F               	movlw	127
  6897  1764  0556               	andwf	___fldiv@grs+3,w
  6898  1765  00CA               	movwf	??___fldiv+3
  6899  1766  084A               	movf	??___fldiv+3,w
  6900  1767  0449               	iorwf	??___fldiv+2,w
  6901  1768  0448               	iorwf	??___fldiv+1,w
  6902  1769  0447               	iorwf	??___fldiv,w
  6903  176A  1903               	skipnz
  6904  176B  2F6D               	goto	u4801
  6905  176C  2F6E               	goto	u4800
  6906  176D                     u4801:
  6907  176D  2F71               	goto	l635
  6908  176E                     u4800:
  6909  176E                     l3188:
  6910  176E  01D8               	clrf	___fldiv@aexp
  6911  176F  0AD8               	incf	___fldiv@aexp,f
  6912  1770  2F76               	goto	l3192
  6913  1771                     l635:
  6914  1771  1C43               	btfss	___fldiv@b,0
  6915  1772  2F74               	goto	u4811
  6916  1773  2F75               	goto	u4810
  6917  1774                     u4811:
  6918  1774  2F76               	goto	l3192
  6919  1775                     u4810:
  6920  1775  2F6E               	goto	l3188
  6921  1776                     l3192:
  6922  1776  0858               	movf	___fldiv@aexp,w
  6923  1777  1903               	btfsc	3,2
  6924  1778  2F7A               	goto	u4821
  6925  1779  2F7B               	goto	u4820
  6926  177A                     u4821:
  6927  177A  2FAC               	goto	l3202
  6928  177B                     u4820:
  6929  177B                     l3194:
  6930  177B  3001               	movlw	1
  6931  177C  07C3               	addwf	___fldiv@b,f
  6932  177D  3000               	movlw	0
  6933  177E  1803               	skipnc
  6934  177F  3001               	movlw	1
  6935  1780  07C4               	addwf	___fldiv@b+1,f
  6936  1781  3000               	movlw	0
  6937  1782  1803               	skipnc
  6938  1783  3001               	movlw	1
  6939  1784  07C5               	addwf	___fldiv@b+2,f
  6940  1785  3000               	movlw	0
  6941  1786  1803               	skipnc
  6942  1787  3001               	movlw	1
  6943  1788  07C6               	addwf	___fldiv@b+3,f
  6944  1789                     l3196:
  6945  1789  1C46               	btfss	___fldiv@b+3,0
  6946  178A  2F8C               	goto	u4831
  6947  178B  2F8D               	goto	u4830
  6948  178C                     u4831:
  6949  178C  2FAC               	goto	l3202
  6950  178D                     u4830:
  6951  178D                     l3198:
  6952  178D  0843               	movf	___fldiv@b,w
  6953  178E  00C7               	movwf	??___fldiv
  6954  178F  0844               	movf	___fldiv@b+1,w
  6955  1790  00C8               	movwf	??___fldiv+1
  6956  1791  0845               	movf	___fldiv@b+2,w
  6957  1792  00C9               	movwf	??___fldiv+2
  6958  1793  0846               	movf	___fldiv@b+3,w
  6959  1794  00CA               	movwf	??___fldiv+3
  6960  1795  3001               	movlw	1
  6961  1796  00CB               	movwf	??___fldiv+4
  6962  1797                     u4845:
  6963  1797  0D4A               	rlf	??___fldiv+3,w
  6964  1798  0CCA               	rrf	??___fldiv+3,f
  6965  1799  0CC9               	rrf	??___fldiv+2,f
  6966  179A  0CC8               	rrf	??___fldiv+1,f
  6967  179B  0CC7               	rrf	??___fldiv,f
  6968  179C                     u4840:
  6969  179C  0BCB               	decfsz	??___fldiv+4,f
  6970  179D  2F97               	goto	u4845
  6971  179E  084A               	movf	??___fldiv+3,w
  6972  179F  00C6               	movwf	___fldiv@b+3
  6973  17A0  0849               	movf	??___fldiv+2,w
  6974  17A1  00C5               	movwf	___fldiv@b+2
  6975  17A2  0848               	movf	??___fldiv+1,w
  6976  17A3  00C4               	movwf	___fldiv@b+1
  6977  17A4  0847               	movf	??___fldiv,w
  6978  17A5  00C3               	movwf	___fldiv@b
  6979  17A6                     l3200:
  6980  17A6  3001               	movlw	1
  6981  17A7  07D1               	addwf	___fldiv@new_exp,f
  6982  17A8  1803               	skipnc
  6983  17A9  0AD2               	incf	___fldiv@new_exp+1,f
  6984  17AA  3000               	movlw	0
  6985  17AB  07D2               	addwf	___fldiv@new_exp+1,f
  6986  17AC                     l3202:
  6987  17AC  0852               	movf	___fldiv@new_exp+1,w
  6988  17AD  3A80               	xorlw	128
  6989  17AE  00FF               	movwf	btemp+1
  6990  17AF  3080               	movlw	128
  6991  17B0  027F               	subwf	btemp+1,w
  6992  17B1  1D03               	skipz
  6993  17B2  2FB5               	goto	u4855
  6994  17B3  30FF               	movlw	255
  6995  17B4  0251               	subwf	___fldiv@new_exp,w
  6996  17B5                     u4855:
  6997  17B5  1C03               	skipc
  6998  17B6  2FB8               	goto	u4851
  6999  17B7  2FB9               	goto	u4850
  7000  17B8                     u4851:
  7001  17B8  2FC7               	goto	l3206
  7002  17B9                     u4850:
  7003  17B9                     l3204:
  7004  17B9  30FF               	movlw	255
  7005  17BA  1283               	bcf	3,5	;RP0=0, select bank0
  7006  17BB  1303               	bcf	3,6	;RP1=0, select bank0
  7007  17BC  00D1               	movwf	___fldiv@new_exp
  7008  17BD  3000               	movlw	0
  7009  17BE  00D2               	movwf	___fldiv@new_exp+1
  7010  17BF  3000               	movlw	0
  7011  17C0  00C6               	movwf	___fldiv@b+3
  7012  17C1  3000               	movlw	0
  7013  17C2  00C5               	movwf	___fldiv@b+2
  7014  17C3  3000               	movlw	0
  7015  17C4  00C4               	movwf	___fldiv@b+1
  7016  17C5  3000               	movlw	0
  7017  17C6  00C3               	movwf	___fldiv@b
  7018  17C7                     l3206:
  7019  17C7  1283               	bcf	3,5	;RP0=0, select bank0
  7020  17C8  1303               	bcf	3,6	;RP1=0, select bank0
  7021  17C9  0852               	movf	___fldiv@new_exp+1,w
  7022  17CA  3A80               	xorlw	128
  7023  17CB  00FF               	movwf	btemp+1
  7024  17CC  3080               	movlw	128
  7025  17CD  027F               	subwf	btemp+1,w
  7026  17CE  1D03               	skipz
  7027  17CF  2FD2               	goto	u4865
  7028  17D0  3001               	movlw	1
  7029  17D1  0251               	subwf	___fldiv@new_exp,w
  7030  17D2                     u4865:
  7031  17D2  1803               	skipnc
  7032  17D3  2FD5               	goto	u4861
  7033  17D4  2FD6               	goto	u4860
  7034  17D5                     u4861:
  7035  17D5  2FE3               	goto	l641
  7036  17D6                     u4860:
  7037  17D6                     l3208:
  7038  17D6  1283               	bcf	3,5	;RP0=0, select bank0
  7039  17D7  1303               	bcf	3,6	;RP1=0, select bank0
  7040  17D8  01D1               	clrf	___fldiv@new_exp
  7041  17D9  01D2               	clrf	___fldiv@new_exp+1
  7042  17DA                     l3210:
  7043  17DA  3000               	movlw	0
  7044  17DB  00C6               	movwf	___fldiv@b+3
  7045  17DC  3000               	movlw	0
  7046  17DD  00C5               	movwf	___fldiv@b+2
  7047  17DE  3000               	movlw	0
  7048  17DF  00C4               	movwf	___fldiv@b+1
  7049  17E0  3000               	movlw	0
  7050  17E1  00C3               	movwf	___fldiv@b
  7051  17E2                     l3212:
  7052  17E2  01D0               	clrf	___fldiv@sign
  7053  17E3                     l641:
  7054  17E3  1283               	bcf	3,5	;RP0=0, select bank0
  7055  17E4  1303               	bcf	3,6	;RP1=0, select bank0
  7056  17E5  0851               	movf	___fldiv@new_exp,w
  7057  17E6  00C7               	movwf	??___fldiv
  7058  17E7  0847               	movf	??___fldiv,w
  7059  17E8  00D7               	movwf	___fldiv@bexp
  7060  17E9                     l3214:
  7061  17E9  1C57               	btfss	___fldiv@bexp,0
  7062  17EA  2FEC               	goto	u4871
  7063  17EB  2FED               	goto	u4870
  7064  17EC                     u4871:
  7065  17EC  2FEF               	goto	l3218
  7066  17ED                     u4870:
  7067  17ED                     l3216:
  7068  17ED  17C5               	bsf	___fldiv@b+2,7
  7069  17EE  2FF3               	goto	l643
  7070  17EF                     l3218:
  7071  17EF  307F               	movlw	127
  7072  17F0  00C7               	movwf	??___fldiv
  7073  17F1  0847               	movf	??___fldiv,w
  7074  17F2  05C5               	andwf	___fldiv@b+2,f
  7075  17F3                     l643:
  7076  17F3  0857               	movf	___fldiv@bexp,w
  7077  17F4  00C7               	movwf	??___fldiv
  7078  17F5  1003               	clrc
  7079  17F6  0C47               	rrf	??___fldiv,w
  7080  17F7  00C8               	movwf	??___fldiv+1
  7081  17F8  0848               	movf	??___fldiv+1,w
  7082  17F9  00C6               	movwf	___fldiv@b+3
  7083  17FA  0850               	movf	___fldiv@sign,w
  7084  17FB  00C7               	movwf	??___fldiv
  7085  17FC  0847               	movf	??___fldiv,w
  7086  17FD  04C6               	iorwf	___fldiv@b+3,f
  7087  17FE  2E97               	goto	l3126
  7088  17FF                     l621:
  7089  17FF  0008               	return
  7090  1800                     __end_of___fldiv:
  7091                           
  7092                           	psect	text12
  7093  0805                     __ptext12:	
  7094 ;; *************** function ___awdiv *****************
  7095 ;; Defined at:
  7096 ;;		line 5 in file "C:\Program Files\Microchip\xc8\v2.31\pic\sources\c90\common\awdiv.c"
  7097 ;; Parameters:    Size  Location     Type
  7098 ;;  divisor         2    0[BANK0 ] int 
  7099 ;;  dividend        2    2[BANK0 ] int 
  7100 ;; Auto vars:     Size  Location     Type
  7101 ;;  quotient        2    7[BANK0 ] int 
  7102 ;;  sign            1    6[BANK0 ] unsigned char 
  7103 ;;  counter         1    5[BANK0 ] unsigned char 
  7104 ;; Return value:  Size  Location     Type
  7105 ;;                  2    0[BANK0 ] int 
  7106 ;; Registers used:
  7107 ;;		wreg, status,2, status,0
  7108 ;; Tracked objects:
  7109 ;;		On entry : 0/0
  7110 ;;		On exit  : 0/0
  7111 ;;		Unchanged: 0/0
  7112 ;; Data sizes:     COMMON   BANK0   BANK1   BANK3   BANK2
  7113 ;;      Params:         0       4       0       0       0
  7114 ;;      Locals:         0       4       0       0       0
  7115 ;;      Temps:          0       1       0       0       0
  7116 ;;      Totals:         0       9       0       0       0
  7117 ;;Total ram usage:        9 bytes
  7118 ;; Hardware stack levels used:    1
  7119 ;; Hardware stack levels required when called:    1
  7120 ;; This function calls:
  7121 ;;		Nothing
  7122 ;; This function is called by:
  7123 ;;		_convert
  7124 ;; This function uses a non-reentrant model
  7125 ;;
  7126                           
  7127                           
  7128                           ;psect for function ___awdiv
  7129  0805                     ___awdiv:
  7130  0805                     l2976:	
  7131                           ;incstack = 0
  7132                           ; Regs used in ___awdiv: [wreg+status,2+status,0]
  7133                           
  7134  0805  1283               	bcf	3,5	;RP0=0, select bank0
  7135  0806  1303               	bcf	3,6	;RP1=0, select bank0
  7136  0807  01A6               	clrf	___awdiv@sign
  7137  0808                     l2978:
  7138  0808  1FA1               	btfss	___awdiv@divisor+1,7
  7139  0809  280B               	goto	u4321
  7140  080A  280C               	goto	u4320
  7141  080B                     u4321:
  7142  080B  2813               	goto	l2984
  7143  080C                     u4320:
  7144  080C                     l2980:
  7145  080C  09A0               	comf	___awdiv@divisor,f
  7146  080D  09A1               	comf	___awdiv@divisor+1,f
  7147  080E  0AA0               	incf	___awdiv@divisor,f
  7148  080F  1903               	skipnz
  7149  0810  0AA1               	incf	___awdiv@divisor+1,f
  7150  0811                     l2982:
  7151  0811  01A6               	clrf	___awdiv@sign
  7152  0812  0AA6               	incf	___awdiv@sign,f
  7153  0813                     l2984:
  7154  0813  1FA3               	btfss	___awdiv@dividend+1,7
  7155  0814  2816               	goto	u4331
  7156  0815  2817               	goto	u4330
  7157  0816                     u4331:
  7158  0816  2820               	goto	l2990
  7159  0817                     u4330:
  7160  0817                     l2986:
  7161  0817  09A2               	comf	___awdiv@dividend,f
  7162  0818  09A3               	comf	___awdiv@dividend+1,f
  7163  0819  0AA2               	incf	___awdiv@dividend,f
  7164  081A  1903               	skipnz
  7165  081B  0AA3               	incf	___awdiv@dividend+1,f
  7166  081C                     l2988:
  7167  081C  3001               	movlw	1
  7168  081D  00A4               	movwf	??___awdiv
  7169  081E  0824               	movf	??___awdiv,w
  7170  081F  06A6               	xorwf	___awdiv@sign,f
  7171  0820                     l2990:
  7172  0820  01A7               	clrf	___awdiv@quotient
  7173  0821  01A8               	clrf	___awdiv@quotient+1
  7174  0822                     l2992:
  7175  0822  0820               	movf	___awdiv@divisor,w
  7176  0823  0421               	iorwf	___awdiv@divisor+1,w
  7177  0824  1903               	btfsc	3,2
  7178  0825  2827               	goto	u4341
  7179  0826  2828               	goto	u4340
  7180  0827                     u4341:
  7181  0827  285F               	goto	l3012
  7182  0828                     u4340:
  7183  0828                     l2994:
  7184  0828  01A5               	clrf	___awdiv@counter
  7185  0829  0AA5               	incf	___awdiv@counter,f
  7186  082A  2836               	goto	l3000
  7187  082B                     l2996:
  7188  082B  3001               	movlw	1
  7189  082C                     u4355:
  7190  082C  1003               	clrc
  7191  082D  0DA0               	rlf	___awdiv@divisor,f
  7192  082E  0DA1               	rlf	___awdiv@divisor+1,f
  7193  082F  3EFF               	addlw	-1
  7194  0830  1D03               	skipz
  7195  0831  282C               	goto	u4355
  7196  0832                     l2998:
  7197  0832  3001               	movlw	1
  7198  0833  00A4               	movwf	??___awdiv
  7199  0834  0824               	movf	??___awdiv,w
  7200  0835  07A5               	addwf	___awdiv@counter,f
  7201  0836                     l3000:
  7202  0836  1FA1               	btfss	___awdiv@divisor+1,7
  7203  0837  2839               	goto	u4361
  7204  0838  283A               	goto	u4360
  7205  0839                     u4361:
  7206  0839  282B               	goto	l2996
  7207  083A                     u4360:
  7208  083A                     l3002:
  7209  083A  3001               	movlw	1
  7210  083B                     u4375:
  7211  083B  1003               	clrc
  7212  083C  0DA7               	rlf	___awdiv@quotient,f
  7213  083D  0DA8               	rlf	___awdiv@quotient+1,f
  7214  083E  3EFF               	addlw	-1
  7215  083F  1D03               	skipz
  7216  0840  283B               	goto	u4375
  7217  0841  0821               	movf	___awdiv@divisor+1,w
  7218  0842  0223               	subwf	___awdiv@dividend+1,w
  7219  0843  1D03               	skipz
  7220  0844  2847               	goto	u4385
  7221  0845  0820               	movf	___awdiv@divisor,w
  7222  0846  0222               	subwf	___awdiv@dividend,w
  7223  0847                     u4385:
  7224  0847  1C03               	skipc
  7225  0848  284A               	goto	u4381
  7226  0849  284B               	goto	u4380
  7227  084A                     u4381:
  7228  084A  2852               	goto	l3008
  7229  084B                     u4380:
  7230  084B                     l3004:
  7231  084B  0820               	movf	___awdiv@divisor,w
  7232  084C  02A2               	subwf	___awdiv@dividend,f
  7233  084D  0821               	movf	___awdiv@divisor+1,w
  7234  084E  1C03               	skipc
  7235  084F  03A3               	decf	___awdiv@dividend+1,f
  7236  0850  02A3               	subwf	___awdiv@dividend+1,f
  7237  0851                     l3006:
  7238  0851  1427               	bsf	___awdiv@quotient,0
  7239  0852                     l3008:
  7240  0852  3001               	movlw	1
  7241  0853                     u4395:
  7242  0853  1003               	clrc
  7243  0854  0CA1               	rrf	___awdiv@divisor+1,f
  7244  0855  0CA0               	rrf	___awdiv@divisor,f
  7245  0856  3EFF               	addlw	-1
  7246  0857  1D03               	skipz
  7247  0858  2853               	goto	u4395
  7248  0859                     l3010:
  7249  0859  3001               	movlw	1
  7250  085A  02A5               	subwf	___awdiv@counter,f
  7251  085B  1D03               	btfss	3,2
  7252  085C  285E               	goto	u4401
  7253  085D  285F               	goto	u4400
  7254  085E                     u4401:
  7255  085E  283A               	goto	l3002
  7256  085F                     u4400:
  7257  085F                     l3012:
  7258  085F  0826               	movf	___awdiv@sign,w
  7259  0860  1903               	btfsc	3,2
  7260  0861  2863               	goto	u4411
  7261  0862  2864               	goto	u4410
  7262  0863                     u4411:
  7263  0863  2869               	goto	l3016
  7264  0864                     u4410:
  7265  0864                     l3014:
  7266  0864  09A7               	comf	___awdiv@quotient,f
  7267  0865  09A8               	comf	___awdiv@quotient+1,f
  7268  0866  0AA7               	incf	___awdiv@quotient,f
  7269  0867  1903               	skipnz
  7270  0868  0AA8               	incf	___awdiv@quotient+1,f
  7271  0869                     l3016:
  7272  0869  0828               	movf	___awdiv@quotient+1,w
  7273  086A  00A1               	movwf	?___awdiv+1
  7274  086B  0827               	movf	___awdiv@quotient,w
  7275  086C  00A0               	movwf	?___awdiv
  7276  086D                     l423:
  7277  086D  0008               	return
  7278  086E                     __end_of___awdiv:
  7279                           
  7280                           	psect	text13
  7281  139E                     __ptext13:	
  7282 ;; *************** function _Lcd_Write_String *****************
  7283 ;; Defined at:
  7284 ;;		line 66 in file "Librerias.c"
  7285 ;; Parameters:    Size  Location     Type
  7286 ;;  a               2    3[BANK0 ] PTR unsigned char 
  7287 ;;		 -> STR_4(2), temperatura(10), STR_3(4), STR_2(4), 
  7288 ;;		 -> STR_1(5), 
  7289 ;; Auto vars:     Size  Location     Type
  7290 ;;  i               2    8[BANK0 ] int 
  7291 ;; Return value:  Size  Location     Type
  7292 ;;                  1    wreg      void 
  7293 ;; Registers used:
  7294 ;;		wreg, fsr0l, fsr0h, status,2, status,0, btemp+1, pclath, cstack
  7295 ;; Tracked objects:
  7296 ;;		On entry : 0/0
  7297 ;;		On exit  : 0/0
  7298 ;;		Unchanged: 0/0
  7299 ;; Data sizes:     COMMON   BANK0   BANK1   BANK3   BANK2
  7300 ;;      Params:         0       2       0       0       0
  7301 ;;      Locals:         0       2       0       0       0
  7302 ;;      Temps:          0       3       0       0       0
  7303 ;;      Totals:         0       7       0       0       0
  7304 ;;Total ram usage:        7 bytes
  7305 ;; Hardware stack levels used:    1
  7306 ;; Hardware stack levels required when called:    3
  7307 ;; This function calls:
  7308 ;;		_Lcd_Write_Char
  7309 ;; This function is called by:
  7310 ;;		_main
  7311 ;; This function uses a non-reentrant model
  7312 ;;
  7313                           
  7314                           
  7315                           ;psect for function _Lcd_Write_String
  7316  139E                     _Lcd_Write_String:
  7317  139E                     l3488:	
  7318                           ;incstack = 0
  7319                           ; Regs used in _Lcd_Write_String: [wreg-fsr0h+status,2+status,0+btemp+1+pclath+cstack]
  7320                           
  7321                           
  7322                           ;Librerias.c: 67:     int i;;Librerias.c: 68:     for (i = 0; a[i] != '\0'; i++)
  7323  139E  1283               	bcf	3,5	;RP0=0, select bank0
  7324  139F  1303               	bcf	3,6	;RP1=0, select bank0
  7325  13A0  01A8               	clrf	Lcd_Write_String@i
  7326  13A1  01A9               	clrf	Lcd_Write_String@i+1
  7327  13A2  2BC7               	goto	l3494
  7328  13A3                     l3490:
  7329                           
  7330                           ;Librerias.c: 69:         Lcd_Write_Char(a[i]);
  7331  13A3  0828               	movf	Lcd_Write_String@i,w
  7332  13A4  0723               	addwf	Lcd_Write_String@a,w
  7333  13A5  00A6               	movwf	??_Lcd_Write_String+1
  7334  13A6  0824               	movf	Lcd_Write_String@a+1,w
  7335  13A7  00A5               	movwf	??_Lcd_Write_String
  7336  13A8  1803               	skipnc
  7337  13A9  0AA5               	incf	??_Lcd_Write_String,f
  7338  13AA  1FA8               	btfss	Lcd_Write_String@i,7
  7339  13AB  2BAD               	goto	u5410
  7340  13AC  03A5               	decf	??_Lcd_Write_String,f
  7341  13AD                     u5410:
  7342  13AD  1283               	bcf	3,5	;RP0=0, select bank0
  7343  13AE  1303               	bcf	3,6	;RP1=0, select bank0
  7344  13AF  0825               	movf	??_Lcd_Write_String,w
  7345  13B0  00A7               	movwf	??_Lcd_Write_String+2
  7346  13B1  0827               	movf	??_Lcd_Write_String+2,w
  7347  13B2  00FF               	movwf	btemp+1
  7348  13B3  0826               	movf	??_Lcd_Write_String+1,w
  7349  13B4  0084               	movwf	4
  7350  13B5  160A  118A  2000  160A  118A  	fcall	stringtab
  7351  13BA  120A  118A  27E5  160A  118A  	fcall	_Lcd_Write_Char
  7352  13BF                     l3492:
  7353  13BF  3001               	movlw	1
  7354  13C0  1283               	bcf	3,5	;RP0=0, select bank0
  7355  13C1  1303               	bcf	3,6	;RP1=0, select bank0
  7356  13C2  07A8               	addwf	Lcd_Write_String@i,f
  7357  13C3  1803               	skipnc
  7358  13C4  0AA9               	incf	Lcd_Write_String@i+1,f
  7359  13C5  3000               	movlw	0
  7360  13C6  07A9               	addwf	Lcd_Write_String@i+1,f
  7361  13C7                     l3494:
  7362  13C7  0828               	movf	Lcd_Write_String@i,w
  7363  13C8  0723               	addwf	Lcd_Write_String@a,w
  7364  13C9  00A6               	movwf	??_Lcd_Write_String+1
  7365  13CA  0824               	movf	Lcd_Write_String@a+1,w
  7366  13CB  00A5               	movwf	??_Lcd_Write_String
  7367  13CC  1803               	skipnc
  7368  13CD  0AA5               	incf	??_Lcd_Write_String,f
  7369  13CE  1FA8               	btfss	Lcd_Write_String@i,7
  7370  13CF  2BD1               	goto	u5420
  7371  13D0  03A5               	decf	??_Lcd_Write_String,f
  7372  13D1                     u5420:
  7373  13D1  1283               	bcf	3,5	;RP0=0, select bank0
  7374  13D2  1303               	bcf	3,6	;RP1=0, select bank0
  7375  13D3  0825               	movf	??_Lcd_Write_String,w
  7376  13D4  00A7               	movwf	??_Lcd_Write_String+2
  7377  13D5  0827               	movf	??_Lcd_Write_String+2,w
  7378  13D6  00FF               	movwf	btemp+1
  7379  13D7  0826               	movf	??_Lcd_Write_String+1,w
  7380  13D8  0084               	movwf	4
  7381  13D9  160A  118A  2000  160A  118A  	fcall	stringtab
  7382  13DE  3A00               	xorlw	0
  7383  13DF  1D03               	skipz
  7384  13E0  2BE2               	goto	u5431
  7385  13E1  2BE3               	goto	u5430
  7386  13E2                     u5431:
  7387  13E2  2BA3               	goto	l3490
  7388  13E3                     u5430:
  7389  13E3                     l152:
  7390  13E3  0008               	return
  7391  13E4                     __end_of_Lcd_Write_String:
  7392                           
  7393                           	psect	text14
  7394  07E5                     __ptext14:	
  7395 ;; *************** function _Lcd_Write_Char *****************
  7396 ;; Defined at:
  7397 ;;		line 58 in file "Librerias.c"
  7398 ;; Parameters:    Size  Location     Type
  7399 ;;  a               1    wreg     unsigned char 
  7400 ;; Auto vars:     Size  Location     Type
  7401 ;;  a               1    2[BANK0 ] unsigned char 
  7402 ;; Return value:  Size  Location     Type
  7403 ;;                  1    wreg      void 
  7404 ;; Registers used:
  7405 ;;		wreg, status,2, status,0, pclath, cstack
  7406 ;; Tracked objects:
  7407 ;;		On entry : 0/0
  7408 ;;		On exit  : 0/0
  7409 ;;		Unchanged: 0/0
  7410 ;; Data sizes:     COMMON   BANK0   BANK1   BANK3   BANK2
  7411 ;;      Params:         0       0       0       0       0
  7412 ;;      Locals:         0       1       0       0       0
  7413 ;;      Temps:          0       1       0       0       0
  7414 ;;      Totals:         0       2       0       0       0
  7415 ;;Total ram usage:        2 bytes
  7416 ;; Hardware stack levels used:    1
  7417 ;; Hardware stack levels required when called:    2
  7418 ;; This function calls:
  7419 ;;		_Lcd_Port
  7420 ;; This function is called by:
  7421 ;;		_Lcd_Write_String
  7422 ;; This function uses a non-reentrant model
  7423 ;;
  7424                           
  7425                           
  7426                           ;psect for function _Lcd_Write_Char
  7427  07E5                     _Lcd_Write_Char:
  7428                           
  7429                           ;incstack = 0
  7430                           ; Regs used in _Lcd_Write_Char: [wreg+status,2+status,0+pclath+cstack]
  7431                           ;Lcd_Write_Char@a stored from wreg
  7432  07E5  1283               	bcf	3,5	;RP0=0, select bank0
  7433  07E6  1303               	bcf	3,6	;RP1=0, select bank0
  7434  07E7  00A2               	movwf	Lcd_Write_Char@a
  7435  07E8                     l2952:
  7436                           
  7437                           ;Librerias.c: 59:     PORTCbits.RC0 = 1;
  7438  07E8  1407               	bsf	7,0	;volatile
  7439  07E9                     l2954:
  7440                           
  7441                           ;Librerias.c: 60:     Lcd_Port(a);
  7442  07E9  0822               	movf	Lcd_Write_Char@a,w
  7443  07EA  160A  118A  22CD  120A  118A  	fcall	_Lcd_Port
  7444  07EF                     l2956:
  7445                           
  7446                           ;Librerias.c: 61:     PORTCbits.RC1 = 1;
  7447  07EF  1283               	bcf	3,5	;RP0=0, select bank0
  7448  07F0  1303               	bcf	3,6	;RP1=0, select bank0
  7449  07F1  1487               	bsf	7,1	;volatile
  7450  07F2                     l2958:
  7451                           
  7452                           ;Librerias.c: 62:     _delay((unsigned long)((10)*(4000000/4000000.0)));
  7453  07F2  3002               	movlw	2
  7454  07F3  1283               	bcf	3,5	;RP0=0, select bank0
  7455  07F4  1303               	bcf	3,6	;RP1=0, select bank0
  7456  07F5  00A1               	movwf	??_Lcd_Write_Char
  7457  07F6                     u5677:
  7458  07F6  0BA1               	decfsz	??_Lcd_Write_Char,f
  7459  07F7  2FF6               	goto	u5677
  7460  07F8  0000               	nop
  7461  07F9                     l2960:
  7462                           
  7463                           ;Librerias.c: 63:     PORTCbits.RC1 = 0;
  7464  07F9  1283               	bcf	3,5	;RP0=0, select bank0
  7465  07FA  1303               	bcf	3,6	;RP1=0, select bank0
  7466  07FB  1087               	bcf	7,1	;volatile
  7467  07FC                     l146:
  7468  07FC  0008               	return
  7469  07FD                     __end_of_Lcd_Write_Char:
  7470                           
  7471                           	psect	text15
  7472  1328                     __ptext15:	
  7473 ;; *************** function _Lcd_Set_Cursor *****************
  7474 ;; Defined at:
  7475 ;;		line 33 in file "Librerias.c"
  7476 ;; Parameters:    Size  Location     Type
  7477 ;;  a               1    wreg     unsigned char 
  7478 ;;  b               1    4[BANK0 ] unsigned char 
  7479 ;; Auto vars:     Size  Location     Type
  7480 ;;  a               1    6[BANK0 ] unsigned char 
  7481 ;;  temp            1    7[BANK0 ] unsigned char 
  7482 ;; Return value:  Size  Location     Type
  7483 ;;                  1    wreg      void 
  7484 ;; Registers used:
  7485 ;;		wreg, status,2, status,0, pclath, cstack
  7486 ;; Tracked objects:
  7487 ;;		On entry : 0/0
  7488 ;;		On exit  : 0/0
  7489 ;;		Unchanged: 0/0
  7490 ;; Data sizes:     COMMON   BANK0   BANK1   BANK3   BANK2
  7491 ;;      Params:         0       1       0       0       0
  7492 ;;      Locals:         0       2       0       0       0
  7493 ;;      Temps:          0       1       0       0       0
  7494 ;;      Totals:         0       4       0       0       0
  7495 ;;Total ram usage:        4 bytes
  7496 ;; Hardware stack levels used:    1
  7497 ;; Hardware stack levels required when called:    3
  7498 ;; This function calls:
  7499 ;;		_Lcd_Cmd
  7500 ;; This function is called by:
  7501 ;;		_main
  7502 ;; This function uses a non-reentrant model
  7503 ;;
  7504                           
  7505                           
  7506                           ;psect for function _Lcd_Set_Cursor
  7507  1328                     _Lcd_Set_Cursor:
  7508                           
  7509                           ;incstack = 0
  7510                           ; Regs used in _Lcd_Set_Cursor: [wreg+status,2+status,0+pclath+cstack]
  7511                           ;Lcd_Set_Cursor@a stored from wreg
  7512  1328  1283               	bcf	3,5	;RP0=0, select bank0
  7513  1329  1303               	bcf	3,6	;RP1=0, select bank0
  7514  132A  00A6               	movwf	Lcd_Set_Cursor@a
  7515  132B                     l3476:
  7516                           
  7517                           ;Librerias.c: 34:     char temp;;Librerias.c: 35:     if (a == 1) {
  7518  132B  0326               	decf	Lcd_Set_Cursor@a,w
  7519  132C  1D03               	btfss	3,2
  7520  132D  2B2F               	goto	u5391
  7521  132E  2B30               	goto	u5390
  7522  132F                     u5391:
  7523  132F  2B3C               	goto	l3482
  7524  1330                     u5390:
  7525  1330                     l3478:
  7526                           
  7527                           ;Librerias.c: 36:         temp = 0x80 + b - 1;
  7528  1330  0824               	movf	Lcd_Set_Cursor@b,w
  7529  1331  3E7F               	addlw	127
  7530  1332  00A5               	movwf	??_Lcd_Set_Cursor
  7531  1333  0825               	movf	??_Lcd_Set_Cursor,w
  7532  1334  00A7               	movwf	Lcd_Set_Cursor@temp
  7533  1335                     l3480:
  7534                           
  7535                           ;Librerias.c: 37:         Lcd_Cmd(temp);
  7536  1335  0827               	movf	Lcd_Set_Cursor@temp,w
  7537  1336  160A  118A  22E8  160A  118A  	fcall	_Lcd_Cmd
  7538                           
  7539                           ;Librerias.c: 38:     } else if (a == 2) {
  7540  133B  2B4D               	goto	l140
  7541  133C                     l3482:
  7542  133C  3002               	movlw	2
  7543  133D  0626               	xorwf	Lcd_Set_Cursor@a,w
  7544  133E  1D03               	btfss	3,2
  7545  133F  2B41               	goto	u5401
  7546  1340  2B42               	goto	u5400
  7547  1341                     u5401:
  7548  1341  2B4D               	goto	l140
  7549  1342                     u5400:
  7550  1342                     l3484:
  7551                           
  7552                           ;Librerias.c: 39:         temp = 0xC0 + b - 1;
  7553  1342  0824               	movf	Lcd_Set_Cursor@b,w
  7554  1343  3EBF               	addlw	191
  7555  1344  00A5               	movwf	??_Lcd_Set_Cursor
  7556  1345  0825               	movf	??_Lcd_Set_Cursor,w
  7557  1346  00A7               	movwf	Lcd_Set_Cursor@temp
  7558  1347                     l3486:
  7559                           
  7560                           ;Librerias.c: 40:         Lcd_Cmd(temp);
  7561  1347  0827               	movf	Lcd_Set_Cursor@temp,w
  7562  1348  160A  118A  22E8  160A  118A  	fcall	_Lcd_Cmd
  7563  134D                     l140:
  7564  134D  0008               	return
  7565  134E                     __end_of_Lcd_Set_Cursor:
  7566                           
  7567                           	psect	text16
  7568  142C                     __ptext16:	
  7569 ;; *************** function _Lcd_Init *****************
  7570 ;; Defined at:
  7571 ;;		line 44 in file "Librerias.c"
  7572 ;; Parameters:    Size  Location     Type
  7573 ;;		None
  7574 ;; Auto vars:     Size  Location     Type
  7575 ;;		None
  7576 ;; Return value:  Size  Location     Type
  7577 ;;                  1    wreg      void 
  7578 ;; Registers used:
  7579 ;;		wreg, status,2, status,0, pclath, cstack
  7580 ;; Tracked objects:
  7581 ;;		On entry : 0/0
  7582 ;;		On exit  : 0/0
  7583 ;;		Unchanged: 0/0
  7584 ;; Data sizes:     COMMON   BANK0   BANK1   BANK3   BANK2
  7585 ;;      Params:         0       0       0       0       0
  7586 ;;      Locals:         0       0       0       0       0
  7587 ;;      Temps:          0       2       0       0       0
  7588 ;;      Totals:         0       2       0       0       0
  7589 ;;Total ram usage:        2 bytes
  7590 ;; Hardware stack levels used:    1
  7591 ;; Hardware stack levels required when called:    3
  7592 ;; This function calls:
  7593 ;;		_Lcd_Cmd
  7594 ;;		_Lcd_Port
  7595 ;; This function is called by:
  7596 ;;		_main
  7597 ;; This function uses a non-reentrant model
  7598 ;;
  7599                           
  7600                           
  7601                           ;psect for function _Lcd_Init
  7602  142C                     _Lcd_Init:
  7603  142C                     l3464:	
  7604                           ;incstack = 0
  7605                           ; Regs used in _Lcd_Init: [wreg+status,2+status,0+pclath+cstack]
  7606                           
  7607                           
  7608                           ;Librerias.c: 45:     Lcd_Port(0x00);
  7609  142C  3000               	movlw	0
  7610  142D  160A  118A  22CD  160A  118A  	fcall	_Lcd_Port
  7611  1432                     l3466:
  7612                           
  7613                           ;Librerias.c: 46:     _delay((unsigned long)((20)*(4000000/4000.0)));
  7614  1432  301A               	movlw	26
  7615  1433  1283               	bcf	3,5	;RP0=0, select bank0
  7616  1434  1303               	bcf	3,6	;RP1=0, select bank0
  7617  1435  00A5               	movwf	??_Lcd_Init+1
  7618  1436  30F7               	movlw	247
  7619  1437  00A4               	movwf	??_Lcd_Init
  7620  1438                     u5687:
  7621  1438  0BA4               	decfsz	??_Lcd_Init,f
  7622  1439  2C38               	goto	u5687
  7623  143A  0BA5               	decfsz	??_Lcd_Init+1,f
  7624  143B  2C38               	goto	u5687
  7625  143C  2C3D               	nop2
  7626  143D                     l3468:
  7627                           
  7628                           ;Librerias.c: 47:     Lcd_Cmd(0x30);
  7629  143D  3030               	movlw	48
  7630  143E  160A  118A  22E8  160A  118A  	fcall	_Lcd_Cmd
  7631                           
  7632                           ;Librerias.c: 48:     _delay((unsigned long)((5)*(4000000/4000.0)));
  7633  1443  3007               	movlw	7
  7634  1444  1283               	bcf	3,5	;RP0=0, select bank0
  7635  1445  1303               	bcf	3,6	;RP1=0, select bank0
  7636  1446  00A5               	movwf	??_Lcd_Init+1
  7637  1447  307C               	movlw	124
  7638  1448  00A4               	movwf	??_Lcd_Init
  7639  1449                     u5697:
  7640  1449  0BA4               	decfsz	??_Lcd_Init,f
  7641  144A  2C49               	goto	u5697
  7642  144B  0BA5               	decfsz	??_Lcd_Init+1,f
  7643  144C  2C49               	goto	u5697
  7644  144D  0000               	nop
  7645  144E                     l3470:
  7646                           
  7647                           ;Librerias.c: 49:     Lcd_Cmd(0x30);
  7648  144E  3030               	movlw	48
  7649  144F  160A  118A  22E8  160A  118A  	fcall	_Lcd_Cmd
  7650  1454                     l3472:
  7651                           
  7652                           ;Librerias.c: 50:     _delay((unsigned long)((11)*(4000000/4000.0)));
  7653  1454  300F               	movlw	15
  7654  1455  1283               	bcf	3,5	;RP0=0, select bank0
  7655  1456  1303               	bcf	3,6	;RP1=0, select bank0
  7656  1457  00A5               	movwf	??_Lcd_Init+1
  7657  1458  3047               	movlw	71
  7658  1459  00A4               	movwf	??_Lcd_Init
  7659  145A                     u5707:
  7660  145A  0BA4               	decfsz	??_Lcd_Init,f
  7661  145B  2C5A               	goto	u5707
  7662  145C  0BA5               	decfsz	??_Lcd_Init+1,f
  7663  145D  2C5A               	goto	u5707
  7664                           
  7665                           ;Librerias.c: 51:     Lcd_Cmd(0x30);
  7666  145E  3030               	movlw	48
  7667  145F  160A  118A  22E8  160A  118A  	fcall	_Lcd_Cmd
  7668                           
  7669                           ;Librerias.c: 53:     Lcd_Cmd(0x38);
  7670  1464  3038               	movlw	56
  7671  1465  160A  118A  22E8  160A  118A  	fcall	_Lcd_Cmd
  7672                           
  7673                           ;Librerias.c: 54:     Lcd_Cmd(0x0C);
  7674  146A  300C               	movlw	12
  7675  146B  160A  118A  22E8  160A  118A  	fcall	_Lcd_Cmd
  7676                           
  7677                           ;Librerias.c: 55:     Lcd_Cmd(0x6);
  7678  1470  3006               	movlw	6
  7679  1471  160A  118A  22E8  160A  118A  	fcall	_Lcd_Cmd
  7680  1476                     l143:
  7681  1476  0008               	return
  7682  1477                     __end_of_Lcd_Init:
  7683                           
  7684                           	psect	text17
  7685  12DB                     __ptext17:	
  7686 ;; *************** function _Lcd_Clear *****************
  7687 ;; Defined at:
  7688 ;;		line 28 in file "Librerias.c"
  7689 ;; Parameters:    Size  Location     Type
  7690 ;;		None
  7691 ;; Auto vars:     Size  Location     Type
  7692 ;;		None
  7693 ;; Return value:  Size  Location     Type
  7694 ;;                  1    wreg      void 
  7695 ;; Registers used:
  7696 ;;		wreg, status,2, status,0, pclath, cstack
  7697 ;; Tracked objects:
  7698 ;;		On entry : 0/0
  7699 ;;		On exit  : 0/0
  7700 ;;		Unchanged: 0/0
  7701 ;; Data sizes:     COMMON   BANK0   BANK1   BANK3   BANK2
  7702 ;;      Params:         0       0       0       0       0
  7703 ;;      Locals:         0       0       0       0       0
  7704 ;;      Temps:          0       0       0       0       0
  7705 ;;      Totals:         0       0       0       0       0
  7706 ;;Total ram usage:        0 bytes
  7707 ;; Hardware stack levels used:    1
  7708 ;; Hardware stack levels required when called:    3
  7709 ;; This function calls:
  7710 ;;		_Lcd_Cmd
  7711 ;; This function is called by:
  7712 ;;		_main
  7713 ;; This function uses a non-reentrant model
  7714 ;;
  7715                           
  7716                           
  7717                           ;psect for function _Lcd_Clear
  7718  12DB                     _Lcd_Clear:
  7719  12DB                     l3474:	
  7720                           ;incstack = 0
  7721                           ; Regs used in _Lcd_Clear: [wreg+status,2+status,0+pclath+cstack]
  7722                           
  7723                           
  7724                           ;Librerias.c: 29:     Lcd_Cmd(0);
  7725  12DB  3000               	movlw	0
  7726  12DC  160A  118A  22E8  160A  118A  	fcall	_Lcd_Cmd
  7727                           
  7728                           ;Librerias.c: 30:     Lcd_Cmd(1);
  7729  12E1  3001               	movlw	1
  7730  12E2  160A  118A  22E8  160A  118A  	fcall	_Lcd_Cmd
  7731  12E7                     l134:
  7732  12E7  0008               	return
  7733  12E8                     __end_of_Lcd_Clear:
  7734                           
  7735                           	psect	text18
  7736  12E8                     __ptext18:	
  7737 ;; *************** function _Lcd_Cmd *****************
  7738 ;; Defined at:
  7739 ;;		line 20 in file "Librerias.c"
  7740 ;; Parameters:    Size  Location     Type
  7741 ;;  a               1    wreg     unsigned char 
  7742 ;; Auto vars:     Size  Location     Type
  7743 ;;  a               1    3[BANK0 ] unsigned char 
  7744 ;; Return value:  Size  Location     Type
  7745 ;;                  1    wreg      void 
  7746 ;; Registers used:
  7747 ;;		wreg, status,2, status,0, pclath, cstack
  7748 ;; Tracked objects:
  7749 ;;		On entry : 0/0
  7750 ;;		On exit  : 0/0
  7751 ;;		Unchanged: 0/0
  7752 ;; Data sizes:     COMMON   BANK0   BANK1   BANK3   BANK2
  7753 ;;      Params:         0       0       0       0       0
  7754 ;;      Locals:         0       1       0       0       0
  7755 ;;      Temps:          0       2       0       0       0
  7756 ;;      Totals:         0       3       0       0       0
  7757 ;;Total ram usage:        3 bytes
  7758 ;; Hardware stack levels used:    1
  7759 ;; Hardware stack levels required when called:    2
  7760 ;; This function calls:
  7761 ;;		_Lcd_Port
  7762 ;; This function is called by:
  7763 ;;		_Lcd_Clear
  7764 ;;		_Lcd_Set_Cursor
  7765 ;;		_Lcd_Init
  7766 ;;		_Lcd_Shift_Right
  7767 ;;		_Lcd_Shift_Left
  7768 ;; This function uses a non-reentrant model
  7769 ;;
  7770                           
  7771                           
  7772                           ;psect for function _Lcd_Cmd
  7773  12E8                     _Lcd_Cmd:
  7774                           
  7775                           ;incstack = 0
  7776                           ; Regs used in _Lcd_Cmd: [wreg+status,2+status,0+pclath+cstack]
  7777                           ;Lcd_Cmd@a stored from wreg
  7778  12E8  1283               	bcf	3,5	;RP0=0, select bank0
  7779  12E9  1303               	bcf	3,6	;RP1=0, select bank0
  7780  12EA  00A3               	movwf	Lcd_Cmd@a
  7781  12EB                     l2942:
  7782                           
  7783                           ;Librerias.c: 21:     PORTCbits.RC0 = 0;
  7784  12EB  1007               	bcf	7,0	;volatile
  7785  12EC                     l2944:
  7786                           
  7787                           ;Librerias.c: 22:     Lcd_Port(a);
  7788  12EC  0823               	movf	Lcd_Cmd@a,w
  7789  12ED  160A  118A  22CD  160A  118A  	fcall	_Lcd_Port
  7790  12F2                     l2946:
  7791                           
  7792                           ;Librerias.c: 23:     PORTCbits.RC1 = 1;
  7793  12F2  1283               	bcf	3,5	;RP0=0, select bank0
  7794  12F3  1303               	bcf	3,6	;RP1=0, select bank0
  7795  12F4  1487               	bsf	7,1	;volatile
  7796  12F5                     l2948:
  7797                           
  7798                           ;Librerias.c: 24:     _delay((unsigned long)((4)*(4000000/4000.0)));
  7799  12F5  3006               	movlw	6
  7800  12F6  1283               	bcf	3,5	;RP0=0, select bank0
  7801  12F7  1303               	bcf	3,6	;RP1=0, select bank0
  7802  12F8  00A2               	movwf	??_Lcd_Cmd+1
  7803  12F9  302F               	movlw	47
  7804  12FA  00A1               	movwf	??_Lcd_Cmd
  7805  12FB                     u5717:
  7806  12FB  0BA1               	decfsz	??_Lcd_Cmd,f
  7807  12FC  2AFB               	goto	u5717
  7808  12FD  0BA2               	decfsz	??_Lcd_Cmd+1,f
  7809  12FE  2AFB               	goto	u5717
  7810  12FF  2B00               	nop2
  7811  1300                     l2950:
  7812                           
  7813                           ;Librerias.c: 25:     PORTCbits.RC1 = 0;
  7814  1300  1283               	bcf	3,5	;RP0=0, select bank0
  7815  1301  1303               	bcf	3,6	;RP1=0, select bank0
  7816  1302  1087               	bcf	7,1	;volatile
  7817  1303                     l131:
  7818  1303  0008               	return
  7819  1304                     __end_of_Lcd_Cmd:
  7820                           
  7821                           	psect	text19
  7822  12CD                     __ptext19:	
  7823 ;; *************** function _Lcd_Port *****************
  7824 ;; Defined at:
  7825 ;;		line 16 in file "Librerias.c"
  7826 ;; Parameters:    Size  Location     Type
  7827 ;;  a               1    wreg     unsigned char 
  7828 ;; Auto vars:     Size  Location     Type
  7829 ;;  a               1    0[BANK0 ] unsigned char 
  7830 ;; Return value:  Size  Location     Type
  7831 ;;                  1    wreg      void 
  7832 ;; Registers used:
  7833 ;;		wreg
  7834 ;; Tracked objects:
  7835 ;;		On entry : 0/0
  7836 ;;		On exit  : 0/0
  7837 ;;		Unchanged: 0/0
  7838 ;; Data sizes:     COMMON   BANK0   BANK1   BANK3   BANK2
  7839 ;;      Params:         0       0       0       0       0
  7840 ;;      Locals:         0       1       0       0       0
  7841 ;;      Temps:          0       0       0       0       0
  7842 ;;      Totals:         0       1       0       0       0
  7843 ;;Total ram usage:        1 bytes
  7844 ;; Hardware stack levels used:    1
  7845 ;; Hardware stack levels required when called:    1
  7846 ;; This function calls:
  7847 ;;		Nothing
  7848 ;; This function is called by:
  7849 ;;		_Lcd_Cmd
  7850 ;;		_Lcd_Init
  7851 ;;		_Lcd_Write_Char
  7852 ;; This function uses a non-reentrant model
  7853 ;;
  7854                           
  7855                           
  7856                           ;psect for function _Lcd_Port
  7857  12CD                     _Lcd_Port:
  7858                           
  7859                           ;incstack = 0
  7860                           ; Regs used in _Lcd_Port: [wreg]
  7861                           ;Lcd_Port@a stored from wreg
  7862  12CD  1283               	bcf	3,5	;RP0=0, select bank0
  7863  12CE  1303               	bcf	3,6	;RP1=0, select bank0
  7864  12CF  00A0               	movwf	Lcd_Port@a
  7865  12D0                     l2732:
  7866                           
  7867                           ;Librerias.c: 17:     PORTB = a;
  7868  12D0  0820               	movf	Lcd_Port@a,w
  7869  12D1  0086               	movwf	6	;volatile
  7870  12D2                     l128:
  7871  12D2  0008               	return
  7872  12D3                     __end_of_Lcd_Port:
  7873                           
  7874                           	psect	text20
  7875  1477                     __ptext20:	
  7876 ;; *************** function _isr *****************
  7877 ;; Defined at:
  7878 ;;		line 74 in file "Slave3.c"
  7879 ;; Parameters:    Size  Location     Type
  7880 ;;		None
  7881 ;; Auto vars:     Size  Location     Type
  7882 ;;		None
  7883 ;; Return value:  Size  Location     Type
  7884 ;;                  1    wreg      void 
  7885 ;; Registers used:
  7886 ;;		wreg, status,2, status,0, btemp+1
  7887 ;; Tracked objects:
  7888 ;;		On entry : 0/0
  7889 ;;		On exit  : 0/0
  7890 ;;		Unchanged: 0/0
  7891 ;; Data sizes:     COMMON   BANK0   BANK1   BANK3   BANK2
  7892 ;;      Params:         0       0       0       0       0
  7893 ;;      Locals:         0       0       0       0       0
  7894 ;;      Temps:          5       0       0       0       0
  7895 ;;      Totals:         5       0       0       0       0
  7896 ;;Total ram usage:        5 bytes
  7897 ;; Hardware stack levels used:    1
  7898 ;; This function calls:
  7899 ;;		Nothing
  7900 ;; This function is called by:
  7901 ;;		Interrupt level 1
  7902 ;; This function uses a non-reentrant model
  7903 ;;
  7904                           
  7905                           
  7906                           ;psect for function _isr
  7907  1477                     _isr:
  7908  1477                     i1l2626:
  7909                           
  7910                           ;Slave3.c: 78:     if (PIR1bits.ADIF) {
  7911  1477  1F0C               	btfss	12,6	;volatile
  7912  1478  2C7A               	goto	u364_21
  7913  1479  2C7B               	goto	u364_20
  7914  147A                     u364_21:
  7915  147A  2CA0               	goto	i1l2638
  7916  147B                     u364_20:
  7917  147B                     i1l2628:
  7918                           
  7919                           ;Slave3.c: 79:         if (ADCON0bits.CHS == 0) {
  7920  147B  0C1F               	rrf	31,w	;volatile
  7921  147C  00F0               	movwf	??_isr
  7922  147D  0C70               	rrf	??_isr,w
  7923  147E  390F               	andlw	15
  7924  147F  3A00               	xorlw	0
  7925  1480  1D03               	skipz
  7926  1481  2C83               	goto	u365_21
  7927  1482  2C84               	goto	u365_20
  7928  1483                     u365_21:
  7929  1483  2C9C               	goto	i1l2634
  7930  1484                     u365_20:
  7931  1484                     i1l2630:
  7932                           
  7933                           ;Slave3.c: 80:             lec1 = ADRESH << 8;
  7934  1484  081E               	movf	30,w	;volatile
  7935  1485  00F0               	movwf	??_isr
  7936  1486  01F1               	clrf	??_isr+1
  7937  1487  0870               	movf	??_isr,w
  7938  1488  00F1               	movwf	??_isr+1
  7939  1489  01F0               	clrf	??_isr
  7940  148A  0870               	movf	??_isr,w
  7941  148B  1683               	bsf	3,5	;RP0=1, select bank1
  7942  148C  1303               	bcf	3,6	;RP1=0, select bank1
  7943  148D  00C8               	movwf	_lec1^(0+128)
  7944  148E  0871               	movf	??_isr+1,w
  7945  148F  00C9               	movwf	(_lec1+1)^(0+128)
  7946  1490                     i1l2632:
  7947                           
  7948                           ;Slave3.c: 81:             lec1 = lec1 + ADRESL;
  7949  1490  081E               	movf	30,w	;volatile
  7950  1491  0748               	addwf	_lec1^(0+128),w
  7951  1492  00F0               	movwf	??_isr
  7952  1493  0849               	movf	(_lec1+1)^(0+128),w
  7953  1494  1803               	skipnc
  7954  1495  0A49               	incf	(_lec1+1)^(0+128),w
  7955  1496  00F1               	movwf	??_isr+1
  7956  1497  0870               	movf	??_isr,w
  7957  1498  00C8               	movwf	_lec1^(0+128)
  7958  1499  0871               	movf	??_isr+1,w
  7959  149A  00C9               	movwf	(_lec1+1)^(0+128)
  7960                           
  7961                           ;Slave3.c: 82:         }
  7962  149B  2C9E               	goto	i1l2636
  7963  149C                     i1l2634:
  7964                           
  7965                           ;Slave3.c: 85:             PORTD = ADRESH;
  7966  149C  081E               	movf	30,w	;volatile
  7967  149D  0088               	movwf	8	;volatile
  7968  149E                     i1l2636:
  7969                           
  7970                           ;Slave3.c: 88:         PIR1bits.ADIF = 0;
  7971  149E  1283               	bcf	3,5	;RP0=0, select bank0
  7972  149F  130C               	bcf	12,6	;volatile
  7973  14A0                     i1l2638:
  7974                           
  7975                           ;Slave3.c: 91:     if (INTCONbits.T0IF ==1)
  7976  14A0  1D0B               	btfss	11,2	;volatile
  7977  14A1  2CA3               	goto	u366_21
  7978  14A2  2CA4               	goto	u366_20
  7979  14A3                     u366_21:
  7980  14A3  2CBA               	goto	i1l96
  7981  14A4                     u366_20:
  7982  14A4                     i1l2640:
  7983                           
  7984                           ;Slave3.c: 92:     {;Slave3.c: 93:         counter++;
  7985  14A4  3001               	movlw	1
  7986  14A5  00F0               	movwf	??_isr
  7987  14A6  0870               	movf	??_isr,w
  7988  14A7  07F8               	addwf	_counter,f
  7989  14A8                     i1l2642:
  7990                           
  7991                           ;Slave3.c: 94:         INTCONbits.T0IF = 0;
  7992  14A8  110B               	bcf	11,2	;volatile
  7993  14A9                     i1l2644:
  7994                           
  7995                           ;Slave3.c: 95:         TMR0 = 131;
  7996  14A9  3083               	movlw	131
  7997  14AA  0081               	movwf	1	;volatile
  7998  14AB                     i1l2646:
  7999                           
  8000                           ;Slave3.c: 98:         if (counter >= speed) {
  8001  14AB  1683               	bsf	3,5	;RP0=1, select bank1
  8002  14AC  1303               	bcf	3,6	;RP1=0, select bank1
  8003  14AD  084A               	movf	_speed^(0+128),w
  8004  14AE  0278               	subwf	_counter,w
  8005  14AF  1C03               	skipc
  8006  14B0  2CB2               	goto	u367_21
  8007  14B1  2CB3               	goto	u367_20
  8008  14B2                     u367_21:
  8009  14B2  2CB7               	goto	i1l93
  8010  14B3                     u367_20:
  8011  14B3                     i1l2648:
  8012                           
  8013                           ;Slave3.c: 99:             PORTDbits.RD0 = 0;
  8014  14B3  1283               	bcf	3,5	;RP0=0, select bank0
  8015  14B4  1303               	bcf	3,6	;RP1=0, select bank0
  8016  14B5  1008               	bcf	8,0	;volatile
  8017                           
  8018                           ;Slave3.c: 100:         }
  8019  14B6  2CBA               	goto	i1l96
  8020  14B7                     i1l93:	
  8021                           ;Slave3.c: 102:         else {
  8022                           
  8023                           
  8024                           ;Slave3.c: 103:             PORTDbits.RD0 = 1;
  8025  14B7  1283               	bcf	3,5	;RP0=0, select bank0
  8026  14B8  1303               	bcf	3,6	;RP1=0, select bank0
  8027  14B9  1408               	bsf	8,0	;volatile
  8028  14BA                     i1l96:
  8029  14BA  0874               	movf	??_isr+4,w
  8030  14BB  00FF               	movwf	btemp+1
  8031  14BC  0873               	movf	??_isr+3,w
  8032  14BD  008A               	movwf	10
  8033  14BE  0E72               	swapf	??_isr+2,w
  8034  14BF  0083               	movwf	3
  8035  14C0  0EFE               	swapf	btemp,f
  8036  14C1  0E7E               	swapf	btemp,w
  8037  14C2  0009               	retfie
  8038  14C3                     __end_of_isr:
  8039  007E                     btemp	set	126	;btemp
  8040  007E                     wtemp0	set	126
  8041                           
  8042                           	psect	intentry
  8043  0004                     __pintentry:	
  8044                           ;incstack = 0
  8045                           ; Regs used in _isr: [wreg+status,2+status,0+btemp+1]
  8046                           
  8047  0004                     interrupt_function:
  8048  007E                     saved_w	set	btemp
  8049  0004  00FE               	movwf	btemp
  8050  0005  0E03               	swapf	3,w
  8051  0006  00F2               	movwf	??_isr+2
  8052  0007  080A               	movf	10,w
  8053  0008  00F3               	movwf	??_isr+3
  8054  0009  1283               	bcf	3,5	;RP0=0, select bank0
  8055  000A  1303               	bcf	3,6	;RP1=0, select bank0
  8056  000B  087F               	movf	btemp+1,w
  8057  000C  00F4               	movwf	??_isr+4
  8058  000D  160A  118A  2C77   	ljmp	_isr
  8059                           
  8060                           	psect	config
  8061                           
  8062                           ;Config register CONFIG1 @ 0x2007
  8063                           ;	Oscillator Selection bits
  8064                           ;	FOSC = INTRC_NOCLKOUT, INTOSCIO oscillator: I/O function on RA6/OSC2/CLKOUT pin, I/O f
      +                          unction on RA7/OSC1/CLKIN
  8065                           ;	Watchdog Timer Enable bit
  8066                           ;	WDTE = OFF, WDT disabled and can be enabled by SWDTEN bit of the WDTCON register
  8067                           ;	Power-up Timer Enable bit
  8068                           ;	PWRTE = OFF, PWRT disabled
  8069                           ;	RE3/MCLR pin function select bit
  8070                           ;	MCLRE = OFF, RE3/MCLR pin function is digital input, MCLR internally tied to VDD
  8071                           ;	Code Protection bit
  8072                           ;	CP = OFF, Program memory code protection is disabled
  8073                           ;	Data Code Protection bit
  8074                           ;	CPD = OFF, Data memory code protection is disabled
  8075                           ;	Brown Out Reset Selection bits
  8076                           ;	BOREN = OFF, BOR disabled
  8077                           ;	Internal External Switchover bit
  8078                           ;	IESO = OFF, Internal/External Switchover mode is disabled
  8079                           ;	Fail-Safe Clock Monitor Enabled bit
  8080                           ;	FCMEN = OFF, Fail-Safe Clock Monitor is disabled
  8081                           ;	Low Voltage Programming Enable bit
  8082                           ;	LVP = OFF, RB3 pin has digital I/O, HV on MCLR must be used for programming
  8083                           ;	In-Circuit Debugger Mode bit
  8084                           ;	DEBUG = 0x1, unprogrammed default
  8085  2007                     	org	8199
  8086  2007  20D4               	dw	8404
  8087                           
  8088                           ;Config register CONFIG2 @ 0x2008
  8089                           ;	Brown-out Reset Selection bit
  8090                           ;	BOR4V = BOR40V, Brown-out Reset set to 4.0V
  8091                           ;	Flash Program Memory Self Write Enable bits
  8092                           ;	WRT = OFF, Write protection off
  8093  2008                     	org	8200
  8094  2008  3FFF               	dw	16383

Data Sizes:
    Strings     15
    Constant    0
    Data        0
    BSS         57
    Persistent  0
    Stack       0

Auto Spaces:
    Space          Size  Autos    Used
    COMMON           14      5       9
    BANK0            80     73      73
    BANK1            80     19      72
    BANK3            96     15      15
    BANK2            96      0       0

Pointer List with Targets:

    convert@data	PTR unsigned char  size(1) Largest target is 10
		 -> temperatura(BANK1[10]), 

    Lcd_Write_String@a	PTR unsigned char  size(2) Largest target is 10
		 -> STR_4(CODE[2]), temperatura(BANK1[10]), STR_3(CODE[4]), STR_2(CODE[4]), 
		 -> STR_1(CODE[5]), 


Critical Paths under _main in COMMON

    None.

Critical Paths under _isr in COMMON

    None.

Critical Paths under _main in BANK0

    _main->_convert
    _convert->___flmul
    ___xxtofl->___wmul
    ___wmul->___fltol
    ___flsub->___xxtofl
    ___flmul->___fldiv
    ___fldiv->___xxtofl
    _Lcd_Write_String->_Lcd_Write_Char
    _Lcd_Write_Char->_Lcd_Port
    _Lcd_Set_Cursor->_Lcd_Cmd
    _Lcd_Init->_Lcd_Cmd
    _Lcd_Clear->_Lcd_Cmd
    _Lcd_Cmd->_Lcd_Port

Critical Paths under _isr in BANK0

    None.

Critical Paths under _main in BANK1

    _main->_convert
    _convert->___flmul

Critical Paths under _isr in BANK1

    None.

Critical Paths under _main in BANK3

    _main->_convert

Critical Paths under _isr in BANK3

    None.

Critical Paths under _main in BANK2

    None.

Critical Paths under _isr in BANK2

    None.

Call Graph Tables:

 ---------------------------------------------------------------------------------
 (Depth) Function   	        Calls       Base Space   Used Autos Params    Refs
 ---------------------------------------------------------------------------------
 (0) _main                                                 3     3      0   24505
                                             72 BANK0      1     1      0
                          _Lcd_Clear
                           _Lcd_Init
                     _Lcd_Set_Cursor
                   _Lcd_Write_String
                            ___fldiv
                            ___flmul
                           ___xxtofl
                            _convert
                              _setup
 ---------------------------------------------------------------------------------
 (1) _setup                                                1     1      0       0
                                              0 BANK0      1     1      0
 ---------------------------------------------------------------------------------
 (1) _convert                                             23    17      6   15782
                                             70 BANK0      2     2      0
                                             13 BANK1      6     0      6
                                              0 BANK3     15    15      0
                            ___awdiv
                            ___fldiv
                             ___flge
                            ___flmul
                            ___flsub
                            ___fltol
                             ___wmul
                           ___xxtofl
 ---------------------------------------------------------------------------------
 (2) ___xxtofl                                            14    10      4    1106
                                             17 BANK0     14    10      4
                            ___fltol (ARG)
                             ___wmul (ARG)
 ---------------------------------------------------------------------------------
 (2) ___wmul                                               6     2      4    1036
                                             11 BANK0      6     2      4
                            ___fltol (ARG)
 ---------------------------------------------------------------------------------
 (2) ___fltol                                             11     7      4     967
                                              0 BANK0     11     7      4
 ---------------------------------------------------------------------------------
 (2) ___flsub                                              8     0      8    3727
                                             31 BANK0      8     0      8
                            ___fladd
                            ___fltol (ARG)
                             ___wmul (ARG)
                           ___xxtofl (ARG)
 ---------------------------------------------------------------------------------
 (3) ___fladd                                             20    12      8    3122
                                              0 BANK0     20    12      8
 ---------------------------------------------------------------------------------
 (2) ___flmul                                             26    18      8    3893
                                             57 BANK0     13     5      8
                                              0 BANK1     13    13      0
                          __Umul8_16
                            ___fldiv (ARG)
                            ___flsub (ARG)
                            ___fltol (ARG)
                           ___xxtofl (ARG)
 ---------------------------------------------------------------------------------
 (3) __Umul8_16                                            9     7      2     980
                                              0 BANK0      9     7      2
 ---------------------------------------------------------------------------------
 (2) ___flge                                              12     4      8     446
                                              0 BANK0     12     4      8
 ---------------------------------------------------------------------------------
 (2) ___fldiv                                             26    18      8    2223
                                             31 BANK0     26    18      8
                           ___xxtofl (ARG)
 ---------------------------------------------------------------------------------
 (2) ___awdiv                                              9     5      4     625
                                              0 BANK0      9     5      4
 ---------------------------------------------------------------------------------
 (1) _Lcd_Write_String                                     7     5      2     642
                                              3 BANK0      7     5      2
                     _Lcd_Write_Char
 ---------------------------------------------------------------------------------
 (2) _Lcd_Write_Char                                       2     2      0      62
                                              1 BANK0      2     2      0
                           _Lcd_Port
 ---------------------------------------------------------------------------------
 (1) _Lcd_Set_Cursor                                       4     3      1     704
                                              4 BANK0      4     3      1
                            _Lcd_Cmd
 ---------------------------------------------------------------------------------
 (1) _Lcd_Init                                             2     2      0      93
                                              4 BANK0      2     2      0
                            _Lcd_Cmd
                           _Lcd_Port
 ---------------------------------------------------------------------------------
 (1) _Lcd_Clear                                            0     0      0      62
                            _Lcd_Cmd
 ---------------------------------------------------------------------------------
 (2) _Lcd_Cmd                                              3     3      0      62
                                              1 BANK0      3     3      0
                           _Lcd_Port
 ---------------------------------------------------------------------------------
 (3) _Lcd_Port                                             1     1      0      31
                                              0 BANK0      1     1      0
 ---------------------------------------------------------------------------------
 Estimated maximum stack depth 3
 ---------------------------------------------------------------------------------
 (Depth) Function   	        Calls       Base Space   Used Autos Params    Refs
 ---------------------------------------------------------------------------------
 (4) _isr                                                  5     5      0       0
                                              0 COMMON     5     5      0
 ---------------------------------------------------------------------------------
 Estimated maximum stack depth 4
 ---------------------------------------------------------------------------------

 Call Graph Graphs:

 _main (ROOT)
   _Lcd_Clear
     _Lcd_Cmd
       _Lcd_Port
   _Lcd_Init
     _Lcd_Cmd
       _Lcd_Port
     _Lcd_Port
   _Lcd_Set_Cursor
     _Lcd_Cmd
       _Lcd_Port
   _Lcd_Write_String
     _Lcd_Write_Char
       _Lcd_Port
   ___fldiv
     ___xxtofl (ARG)
       ___fltol (ARG)
       ___wmul (ARG)
         ___fltol (ARG)
   ___flmul
     __Umul8_16
     ___fldiv (ARG)
       ___xxtofl (ARG)
         ___fltol (ARG)
         ___wmul (ARG)
           ___fltol (ARG)
     ___flsub (ARG)
       ___fladd
       ___fltol (ARG)
       ___wmul (ARG)
         ___fltol (ARG)
       ___xxtofl (ARG)
         ___fltol (ARG)
         ___wmul (ARG)
           ___fltol (ARG)
     ___fltol (ARG)
     ___xxtofl (ARG)
       ___fltol (ARG)
       ___wmul (ARG)
         ___fltol (ARG)
   ___xxtofl
     ___fltol (ARG)
     ___wmul (ARG)
       ___fltol (ARG)
   _convert
     ___awdiv
     ___fldiv
       ___xxtofl (ARG)
         ___fltol (ARG)
         ___wmul (ARG)
           ___fltol (ARG)
     ___flge
     ___flmul
       __Umul8_16
       ___fldiv (ARG)
         ___xxtofl (ARG)
           ___fltol (ARG)
           ___wmul (ARG)
             ___fltol (ARG)
       ___flsub (ARG)
         ___fladd
         ___fltol (ARG)
         ___wmul (ARG)
           ___fltol (ARG)
         ___xxtofl (ARG)
           ___fltol (ARG)
           ___wmul (ARG)
             ___fltol (ARG)
       ___fltol (ARG)
       ___xxtofl (ARG)
         ___fltol (ARG)
         ___wmul (ARG)
           ___fltol (ARG)
     ___flsub
       ___fladd
       ___fltol (ARG)
       ___wmul (ARG)
         ___fltol (ARG)
       ___xxtofl (ARG)
         ___fltol (ARG)
         ___wmul (ARG)
           ___fltol (ARG)
     ___fltol
     ___wmul
       ___fltol (ARG)
     ___xxtofl
       ___fltol (ARG)
       ___wmul (ARG)
         ___fltol (ARG)
   _setup

 _isr (ROOT)

 Address spaces:
Name               Size   Autos  Total    Cost      Usage
BITCOMMON            E      0       0       0        0.0%
EEDATA             100      0       0       0        0.0%
NULL                 0      0       0       0        0.0%
CODE                 0      0       0       0        0.0%
COMMON               E      5       9       1       64.3%
BITSFR0              0      0       0       1        0.0%
SFR0                 0      0       0       1        0.0%
BITSFR1              0      0       0       2        0.0%
SFR1                 0      0       0       2        0.0%
STACK                0      0       0       2        0.0%
ABS                  0      0      A9       3        0.0%
BITBANK0            50      0       0       4        0.0%
BITSFR3              0      0       0       4        0.0%
SFR3                 0      0       0       4        0.0%
BANK0               50     49      49       5       91.2%
BITSFR2              0      0       0       5        0.0%
SFR2                 0      0       0       5        0.0%
BITBANK1            50      0       0       6        0.0%
BANK1               50     13      48       7       90.0%
BITBANK3            60      0       0       8        0.0%
BANK3               60      F       F       9       15.6%
BITBANK2            60      0       0      10        0.0%
BANK2               60      0       0      11        0.0%
DATA                 0      0      A9      12        0.0%


Microchip Technology PIC Macro Assembler V2.31 build 20201012212115 
Symbol Table                                                                                   Sat Sep 04 23:16:41 2021

             ___fldiv@aexp 0058               ___fldiv@bexp 0057                          pc 0002  
             ___fldiv@sign 0050               ___awdiv@sign 0026                         fsr 0004  
      ___wmul@multiplicand 002D        __Umul8_16@word_mpld 0026                        l101 0595  
                      l131 1303                        l140 134D                        l108 0765  
                      l134 12E7                        l143 1476                        l119 142B  
                      l128 12D2                        l152 13E3                        l146 07FC  
                      l270 135C                        l423 086D                        l272 1374  
                      l184 0FFF                        l444 14E1                        l621 17FF  
                      l605 0AE9                        l606 0AF5                        l447 154D  
                      l463 07CF                        l703 158B                        l448 1566  
                      l456 07E4                        l641 17E3                        l609 1327  
                      l705 1622                        l466 07E4                        l643 17F3  
                      l635 1771                        l619 167F                        l563 08D1  
                      l716 15EC                        l717 15F8                        l709 15D0  
                      l671 0564                        l567 0978                        l680 139D  
                      l584 0A43                        l576 0AF5                        l665 04B6  
                      l569 094F                        l594 0A89                        l659 0582  
                      l588 0A67                        l597 0AC7                        l678 138B  
                      _isr 1477                        fsr0 0004                        indf 0000  
             ___flmul@aexp 00D6               ___flmul@bexp 00DB               ___flmul@sign 00D5  
             ___flmul@temp 00E0               ___flmul@prod 00DC               ___fltol@exp1 002A  
                     l3000 0836                       l3010 0859                       l3002 083A  
                     l3004 084B                       l3012 085F                       l3100 164A  
                     l3020 14C3                       l3014 0864                       l3006 0851  
                     l3110 1662                       l3102 1652                       l3030 1525  
                     l3022 14D9                       l3016 0869                       l3008 0852  
                     l3200 17A6                       l3112 1667                       l3120 1677  
                     l3104 1657                       l3032 1529                       l3024 14F5  
                     l3040 0769                       l3210 17DA                       l3202 17AC  
                     l3122 1687                       l3130 16A0                       l3114 166C  
                     l3106 165D                       l3034 1563                       l3026 14FD  
                     l3050 0795                       l3042 0776                       l3212 17E2  
                     l3204 17B9                       l3140 16C8                       l3132 16A5  
                     l3124 1693                       l3116 1674                       l3108 1661  
                     l3036 1565                       l3028 1501                       l3300 035F  
                     l3052 079D                       l3214 17E9                       l3206 17C7  
                     l3150 16F1                       l3142 16D0                       l3126 1697  
                     l3118 1675                       l3310 0459                       l3302 03AC  
                     l3230 003D                       l3070 07C4                       l3062 07AB  
                     l3054 079F                       l3046 077F                       l3216 17ED  
                     l3208 17D6                       l3160 1712                       l3152 16F5  
                     l3144 16D8                       l3136 16AE                       l3312 0468  
                     l3320 0486                       l3304 03EA                       l3240 0059  
                     l3232 0040                       l3224 0024                       l3072 07D4  
                     l3056 07A3                       l3064 07BD                       l3048 0794  
                     l3400 1615                       l3218 17EF                       l3170 1734  
                     l3162 1720                       l3154 16F6                       l3146 16DA  
                     l3138 16C0                       l3090 1635                       l3082 1623  
                     l3322 048A                       l3314 046E                       l3306 0432  
                     l3250 007D                       l3242 0063                       l3234 0047  
                     l3226 002D                       l3074 07D9                       l3402 1619  
                     l3410 13E8                       l3172 173D                       l3180 1751  
                     l3148 16DF                       l3156 16FF                       l3164 1724  
                     l3092 163A                       l3084 162A                       l3340 0509  
                     l3332 04BD                       l3324 048B                       l3316 046F  
                     l3308 0441                       l3260 00A0                       l3252 0084  
                     l3244 006A                       l3236 004C                       l3228 0037  
                     l3076 1304                       l3404 161A                       l3500 0B22  
                     l3420 13FB                       l3412 13E9                       l3182 1755  
                     l3174 1741                       l3166 172A                       l3158 1711  
                     l3094 163F                       l3086 1630                       l3350 0540  
                     l3334 04C2                       l3342 050F                       l3326 048F  
                     l3318 047E                       l3270 00CF                       l3262 00A7  
                     l3254 0089                       l3246 0074                       l3238 0056  
                     l3078 1308                       l3510 0B53                       l3502 0B24  
                     l3430 1400                       l3422 13FC                       l3414 13F6  
                     l3192 1776                       l3184 1756                       l3176 1742  
                     l3168 1732                       l3096 1647                       l3088 1634  
                     l3360 056C                       l3352 0542                       l3344 051C  
                     l3336 04D0                       l3328 04B1                       l3280 01C9  
                     l3272 00EC                       l3264 00AC                       l3256 0093  
                     l3248 007A                       l2800 0903                       l3512 0B92  
                     l3520 0BD1                       l3504 0B26                       l3440 1409  
                     l3432 1403                       l3424 13FD                       l3416 13F9  
                     l3408 13E4                       l3600 0592                       l3194 177B  
                     l3186 175A                       l3178 174B                       l3098 1648  
                     l3354 0554                       l3346 0527                       l3338 04D4  
                     l3290 026B                       l3282 01F9                       l3274 0121  
                     l3258 0096                       l2810 0917                       l2802 0907  
                     l3370 1583                       l3530 0C0B                       l3522 0BDA  
                     l3514 0B9F                       l3506 0B2A                       l3450 141F  
                     l3442 140C                       l3434 1404                       l3426 13FE  
                     l3418 13FA                       l3610 05D7                       l3602 059E  
                     l2732 12D0                       l3196 1789                       l3188 176E  
                     l3356 0558                       l3348 0536                       l3292 02A0  
                     l3284 0208                       l3276 0151                       l3268 00B7  
                     l2900 0A8E                       l2820 095C                       l2804 090B  
                     l2812 091B                       l2740 087F                       l3380 15AE  
                     l3372 1593                       l3364 156A                       l3540 0D35  
                     l3532 0C11                       l3524 0BE0                       l3516 0BA8  
                     l3508 0B2A                       l3460 1426                       l3452 1422  
                     l3444 140E                       l3436 1407                       l3428 13FF  
                     l3620 0686                       l3612 0633                       l3604 05A9  
                     l3470 144E                       l3198 178D                       l3358 0559  
                     l3294 02C5                       l3286 021E                       l3278 0199  
                     l2910 0ACC                       l2902 0A93                       l2822 095E  
                     l2830 0970                       l2814 091C                       l2806 090F  
                     l2750 0893                       l2742 0880                       l2734 086E  
                     l3390 15E2                       l3382 15B5                       l3366 156F  
                     l3550 0D5D                       l3542 0D3B                       l3534 0C27  
                     l3526 0BE5                       l3518 0BCB                       l3462 1427  
                     l3454 1423                       l3446 1415                       l3438 1408  
                     l3630 06A5                       l3622 0688                       l3614 0672  
                     l3606 05C0                       l3472 1454                       l3464 142C  
                     l3480 1335                       l3296 02FA                       l3288 0253  
                     l2920 0AE3                       l2912 0AD1                       l2904 0AA1  
                     l2840 09A1                       l2832 097C                       l2824 0962  
                     l2816 0933                       l2808 0913                       l2760 08A9  
                     l2744 0885                       l2752 0895                       l2736 0875  
                     l3392 15E6                       l3384 15B9                       l3376 159C  
                     l3368 1573                       l3560 0DA3                       l3552 0D5D  
                     l3536 0CFF                       l3528 0BEA                       l3544 0D3F  
                     l3456 1424                       l3448 1418                       l3640 06D6  
                     l3632 06B1                       l3624 068F                       l3616 0678  
                     l3608 05CC                       l3474 12DB                       l3466 1432  
                     l3482 133C                       l3490 13A3                       l2930 137A  
                     l3298 0347                       l2922 0AE5                       l2914 0AD9  
                     l2906 0AA5                       l2850 09B8                       l2842 09A5  
                     l2834 0981                       l2826 0963                       l2818 0953  
                     l2770 08BE                       l2762 08AF                       l2754 089D  
                     l2746 088A                       l2738 087B                       l3394 15F0  
                     l3386 15C7                       l3378 15A1                       l3570 0E77  
                     l3562 0E40                       l3554 0D62                       l3546 0D45  
                     l3538 0D2D                       l3458 1425                       l3650 070B  
                     l3642 06E8                       l3634 06BC                       l3618 0681  
                     l3626 0692                       l3468 143D                       l3484 1342  
                     l3476 132B                       l3492 13BF                       l2932 1381  
                     l2924 0AF0                       l2916 0ADE                       l2908 0AC3  
                     l2860 0A1B                       l2852 09B9                       l2844 09A9  
                     l2828 096C                       l2780 08DB                       l2772 08C6  
                     l2764 08B3                       l2756 08A2                       l2748 0892  
                     l3396 15FA                       l3388 15D7                       l3580 0EB5  
                     l3572 0E84                       l3564 0E56                       l3556 0D83  
                     l3548 0D55                       l3660 0738                       l3652 0714  
                     l3644 06F0                       l3636 06C6                       l3628 069A  
                     l2950 1300                       l2942 12EB                       l3486 1347  
                     l3478 1330                       l3494 13C7                       l2934 1385  
                     l2926 0AF4                       l2918 0ADF                       l2870 0A50  
                     l2862 0A21                       l2854 09C2                       l2846 09B2  
                     l2838 098A                       l2790 08EF                       l2782 08DF  
                     l2774 08C7                       l2766 08B4                       l2758 08A8  
                     l3398 1610                       l3590 0FDF                       l3582 0EBB  
                     l3574 0E8A                       l3566 0E71                       l3558 0D89  
                     l3662 0741                       l3654 071D                       l3646 06F9  
                     l3638 06CE                       l2944 12EC                       l2960 07F9  
                     l2952 07E8                       l3488 139E                       l2936 1394  
                     l2928 1378                       l2880 0A6B                       l2864 0A26  
                     l2848 09B4                       l2856 09C7                       l2792 08F3  
                     l2784 08E3                       l2768 08B9                       l2776 08C9  
                     l3592 0FE5                       l3584 0ED1                       l3576 0E8F  
                     l3568 0E71                       l3496 0AF9                       l3664 074A  
                     l3656 0726                       l3648 0702                       l2946 12F2  
                     l2954 07E9                       l2938 1399                       l2882 0A6E  
                     l2874 0A59                       l2858 09DD                       l2866 0A35  
                     l2890 0A7B                       l2794 08F7                       l2786 08E7  
                     l2778 08D7                       l2970 136A                       l2962 134E  
                     l3586 0FA9                       l3578 0E94                       l3594 0FE9  
                     l3498 0B22                       l3666 0753                       l3658 072F  
                     l2948 12F5                       l2956 07EF                       l2980 080C  
                     l2892 0A7C                       l2884 0A70                       l2876 0A62  
                     l2868 0A4B                       l2796 08FB                       l2788 08EB  
                     l2972 1370                       l2964 1352                       l3596 0FEF  
                     l3588 0FD7                       l3668 075C                       l2958 07F2  
                     l2990 0820                       l2982 0811                       l2894 0A80  
                     l2886 0A75                       l2878 0A66                       l2798 08FF  
                     l2966 1356                       l3598 0583                       l2992 0822  
                     l2984 0813                       l2976 0805                       l2896 0A86  
                     l2888 0A77                       l2968 1363                       l2994 0828  
                     l2986 0817                       l2978 0808                       l2996 082B  
                     l2988 081C                       l2998 0832                       ?_isr 0070  
                     STR_1 1010                       STR_2 1015                       STR_3 1019  
                     STR_4 101D                       u4000 09B8                       u4001 09B7  
                     u4100 0A6B                       u4020 09DD                       u4101 0A6A  
                     u4021 09DC                       u4110 0A75                       u4111 0A74  
                     u4031 09F4                       u4023 09D9                       u4015 09BB  
                     u4200 0ACC                       u4120 0A7B                       u4040 0A08  
                     u4032 09F5                       u4201 0ACB                       u4121 0A7A  
                     u4041 0A09                       u4033 09FA                       u4210 0AD1  
                     u4130 0A80                       u4050 0A26                       u4042 0A0E  
                     u4034 09FB                       u5011 0239                       u4211 0AD0  
                     u4131 0A7F                       u4051 0A25                       u4043 0A0F  
                     u4035 0A00                       u5012 0244                       u4220 0ADE  
                     u4140 0A86                       u4060 0A4B                       u4036 0A01  
                     u5101 0418                       u5021 0286                       u5013 024F  
                     u5005 01FD                       u4221 0ADD                       u4141 0A85  
                     u4061 0A4A                       u5102 0423                       u5022 0291  
                     u4230 0AE3                       u4150 0A8D                       u4070 0A50  
                     u4310 1370                       u5103 042E                       u5023 029C  
                     u4231 0AE2                       u4151 0A8C                       u4071 0A4F  
                     u4311 136F                       u4400 085F                       u4320 080C  
                     u5200 04D4                       u4240 0AF4                       u4160 0A93  
                     u4401 085E                       u4321 080B                       u5201 04D3  
                     u5041 02E0                       u4241 0AF3                       u4161 0A92  
                     u4305 1364                       u4410 0864                       u4330 0817  
                     u4250 1385                       u5210 04F1                       u5130 046E  
                     u5042 02EB                       u4170 0AA5                       u4090 0A66  
                     u4411 0863                       u4331 0816                       u4251 1384  
                     u5131 046D                       u5115 0436                       u5051 032D  
                     u5043 02F6                       u5035 02A4                       u4171 0AA4  
                     u4091 0A65                       u4340 0828                       u4420 14D9  
                     u5220 051C                       u5052 0338                       u4180 0AB4  
                     u4500 078D                       u4341 0827                       u4421 14D8  
                     u5221 051B                       u5125 045D                       u5061 037A  
                     u5053 0343                       u4085 0A5B                       u4430 14F5  
                     u4270 1399                       u5230 0536                       u5150 048A  
                     u5070 03BE                       u5062 0385                       u4190 0AC3  
                     u4510 07A3                       u5310 15D6                       u4431 14F4  
                     u4271 1398                       u5231 0535                       u5215 04EC  
                     u5151 0489                       u5063 0390                       u4191 0AC2  
                     u4511 07A2                       u5311 15D5                       u5400 1342  
                     u4360 083A                       u4600 163A                       u4440 1501  
                     u5240 0558                       u5160 048F                       u3800 0885  
                     u4520 07AA                       u4280 1356                       u5401 1341  
                     u4361 0839                       u4601 1639                       u4441 1500  
                     u4265 138C                       u5241 0557                       u5225 0518  
                     u5161 048E                       u5145 0473                       u5081 03D0  
                     u4185 0AAF                       u3801 0884                       u4521 07A9  
                     u4505 0788                       u4281 1355                       u5305 15C8  
                     u5410 13AD                       u4610 163F                       u5170 04B1  
                     u5090 0406                       u5082 03DB                       u3810 088A  
                     u5330 15E6                       u5250 156F                       u4355 082C  
                     u4611 163E                       u4451 1510                       u5235 0532  
                     u5171 04B0                       u5083 03E6                       u5075 03B9  
                     u3811 0889                       u5331 15E5                       u5251 156E  
                     u5420 13D1                       u4380 084B                       u4700 16F5  
                     u4620 1661                       u4460 1529                       u4452 1511  
                     u5180 04BC                       u3900 093F                       u3820 08A8  
                     u4540 07BC                       u5340 15EC                       u5260 1573  
                     u5500 0E8A                       u4381 084A                       u4701 16F4  
                     u4621 1660                       u4461 1528                       u4453 1516  
                     u5181 04BB                       u3821 08A7                       u4541 07BB  
                     u5341 15EB                       u5325 15DB                       u5261 1572  
                     u5501 0E89                       u5430 13E3                       u4630 1667  
                     u4454 1517                       u5190 04C2                       u3910 0953  
                     u3830 08B3                       u4550 07C3                       u5350 15F0  
                     u5270 1593                       u5510 0ED1                       u5431 13E2  
                     u4375 083B                       u4631 1666                       u4471 1538  
                     u4455 151C                       u5191 04C1                       u5095 0401  
                     u3911 0952                       u3831 08B2                       u4551 07C2  
                     u4535 07AC                       u4295 135D                       u5351 15EF  
                     u5271 1592                       u5511 0ED0                       u4800 176E  
                     u4720 1711                       u4640 166C                       u4480 1563  
                     u4472 1539                       u4456 151D                       u3920 0962  
                     u3840 08B9                       u5360 1605                       u5520 0FEF  
                     u5440 0B53                       u5600 072F                       u4385 0847  
                     u4801 176D                       u4721 1710                       u4641 166B  
                     u4481 1562                       u4473 153E                       u3921 0961  
                     u3841 08B8                       u5521 0FEE                       u5441 0B52  
                     u5601 072E                       u4810 1775                       u4730 172A  
                     u4650 1687                       u4474 153F                       u3850 08BE  
                     u4570 07D4                       u4490 0776                       u5370 1615  
                     u5290 15B4                       u5450 0BD9                       u5610 0741  
                     u5530 0678                       u4395 0853                       u4811 1774  
                     u4731 1729                       u4715 16F8                       u4651 1686  
                     u4475 1544                       u3851 08BD                       u4571 07D3  
                     u4491 0775                       u5371 1614                       u5291 15B3  
                     u5515 0ECD                       u5451 0BD8                       u5611 0740  
                     u5531 0677                       u4820 177B                       u4740 1732  
                     u4660 16A5                       u4476 1545                       u4900 004C  
                     u3940 0978                       u3860 08D7                       u4580 07D9  
                     u5380 1619                       u5460 0BE0                       u5620 074A  
                     u5540 0681                       u4821 177A                       u4741 1731  
                     u4725 170D                       u4661 16A4                       u4485 155F  
                     u4901 004B                       u3941 0977                       u3861 08D6  
                     u4581 07D8                       u4565 07C6                       u5381 1618  
                     u5365 1600                       u5285 15A6                       u5461 0BDF  
                     u5621 0749                       u5541 0680                       u5390 1330  
                     u4830 178D                       u4670 16DF                       u4590 1634  
                     u4910 007A                       u3950 097C                       u3870 08DB  
                     u3790 087F                       u5470 0C27                       u5630 075C  
                     u5550 06F0                       u5391 132F                       u4831 178C  
                     u4671 16DE                       u4591 1633                       u4911 0079  
                     u3951 097B                       u3935 0965                       u3871 08DA  
                     u3791 087E                       u5471 0C26                       u5631 075B  
                     u5551 06EF                       u4840 179C                       u4760 1741  
                     u4920 0084                       u3960 0981                       u3880 0933  
                     u5480 0D45                       u5560 06F9                       u4761 1740  
                     u4921 0083                       u3961 0980                       u3881 0932  
                     u5481 0D44                       u5561 06F8                       u4850 17B9  
                     u4930 0089                       u3890 093E                       u5490 0DA3  
                     u5570 070B                       u5707 145A                       u4851 17B8  
                     u4755 1736                       u4931 0088                       u3971 0993  
                     u3891 093C                       u5491 0DA2                       u5475 0C23  
                     u5571 070A                       u4860 17D6                       u4780 1755  
                     u4940 00A7                       u3980 09A5                       u3972 099A  
                     u5580 0714                       i1l93 14B7                       u5717 12FB  
                     u4861 17D5                       u4845 1797                       u4781 1754  
                     u4685 16E1                       u4941 00A6                       u3981 09A4  
                     u3973 09A1                       u3885 092F                       u5581 0713  
                     u4870 17ED                       u4790 175A                       u4950 00AC  
                     u3990 09A9                       u5590 0726                       u4871 17EC  
                     u4855 17B5                       u4791 1759                       u4775 1744  
                     u4695 16EA                       u4951 00AB                       u3991 09A8  
                     u5495 0D9F                       u5591 0725                       u5647 068C  
                     i1l96 14BA                       u4880 003D                       u4865 17D2  
                     u4961 0137                       u4881 003C                       u5657 1412  
                     u4962 0142                       u4890 0047                       u4971 0167  
                     u4963 014D                       u4891 0046                       u5667 141C  
                     u4972 0172                       u5677 07F6                       u4981 01AF  
                     u4973 017D                       u4982 01BA                       u5687 1438  
                     u4991 01DF                       u4983 01C5                       u4992 01EA  
                     u5697 1449                       u4993 01F5                       _TMR0 0001  
                     _adc1 0077                       _adc2 0076                       _lec1 00C8  
        ?_Lcd_Write_String 0023                       _main 0583                       btemp 007E  
                     start 0010         ??_Lcd_Write_String 0025            ___fldiv@new_exp 0051  
          __end_of_Lcd_Cmd 1304                      ??_isr 0070              ___fltol@sign1 0029  
          __end_of___fladd 0AF6                      ?_main 0070            __end_of___fldiv 1800  
          __end_of___awdiv 086E            __end_of___flmul 0583            __end_of___flsub 1328  
          __end_of___fltol 07E5                      _ANSEL 0188            ___awdiv@divisor 0020  
          ___awdiv@counter 0025                      _PORTA 0005                      _PORTB 0006  
                    _PORTC 0007                      _PORTD 0008    __size_of_Lcd_Set_Cursor 0026  
                    _TRISA 0085                      _TRISB 0086                      _TRISC 0087  
                    _TRISD 0088                convert@data 0194                convert@temp 0190  
          __end_of_convert 1000                      _cont1 00A0                      _conv1 00BC  
                    _conv2 00B8                      _conv3 00B4                      _speed 00CA  
                    _setup 13E4                      _volt1 00C4                      pclath 000A  
                    status 0003                      wtemp0 007E           __end_of_Lcd_Init 1477  
         __end_of_Lcd_Port 12D3            __initialization 0013               __end_of_main 0769  
                   ??_main 0068         __size_of_Lcd_Clear 000D                     _ADRESH 001E  
                   _ADRESL 009E           ___awdiv@dividend 0022                     ?_setup 0070  
                   _ANSELH 0189                     i1l2630 1484                     i1l2640 14A4  
                   i1l2632 1490                     i1l2642 14A8                     i1l2634 149C  
                   i1l2626 1477                     i1l2644 14A9                     i1l2636 149E  
                   i1l2628 147B                     i1l2646 14AB                     i1l2638 14A0  
                   i1l2648 14B3                     u364_20 147B                     u364_21 147A  
                   u365_20 1484                     u365_21 1483                     u366_20 14A4  
                   u366_21 14A3                     u367_20 14B3                     u367_21 14B2  
                ??_Lcd_Cmd 0021    __size_of_Lcd_Write_Char 0018           __end_of___xxtofl 1623  
                   ___flge 14C3               convert@place 00E6                  ??___fladd 0028  
                   ___wmul 134E                  ??___fldiv 0047                  ??___awdiv 0024  
                ??___flmul 0061                  ??___flsub 0075                  ??___fltol 0024  
         ___awdiv@quotient 0027                  ??_convert 0066         __size_of__Umul8_16 0029  
                   saved_w 007E            Lcd_Set_Cursor@a 0026            Lcd_Set_Cursor@b 0024  
               ___flge@ff1 0020                 ___flge@ff2 0024               ___xxtofl@arg 003B  
             ___xxtofl@exp 003A               ___xxtofl@val 0031    __end_of__initialization 0020  
        __end_of_Lcd_Clear 12E8                 ___fltol@f1 0020             __pcstackCOMMON 0070  
            __end_of_setup 142C             _Lcd_Set_Cursor 1328             _OPTION_REGbits 0081  
                ?_Lcd_Init 0070                  ?_Lcd_Port 0070                    ??_setup 0020  
               __pbssBANK1 00A0          __end_of__Umul8_16 139E                 __pmaintext 0583  
                  ?___flge 0020                    ?___wmul 002B                 __pintentry 0004  
__size_of_Lcd_Write_String 0046     __end_of_Lcd_Set_Cursor 134E                  ?___xxtofl 0031  
               ??_Lcd_Init 0024                 ??_Lcd_Port 0075                 __stringtab 1000  
           _Lcd_Write_Char 07E5                    _Lcd_Cmd 12E8              convert@digits 019B  
          __size_of___flge 00A4                    ___fladd 086E                    ___fldiv 1623  
                  ___awdiv 0805                    ___flmul 0024                    ___flsub 1304  
                  ___fltol 0769            __size_of___wmul 0027            ?_Lcd_Set_Cursor 0024  
                  __ptext1 13E4                    __ptext2 0AF6                    __ptext3 1567  
                  __ptext4 134E                    __ptext5 0769                    __ptext6 1304  
                  __ptext7 086E                    __ptext8 0024                    __ptext9 1375  
                  _convert 0AF6                    _counter 0078               __size_of_isr 004C  
               ??___xxtofl 0035                    _sensor2 00AA                    clrloop0 12D4  
   __end_of_Lcd_Write_Char 07FD       end_of_initialization 0020                  Lcd_Port@a 0020  
                _PORTCbits 0007                  _PORTDbits 0008                ___fladd@grs 0033  
            ___xxtofl@sign 0039                ___fldiv@grs 0053                ___fldiv@rem 004C  
          ?_Lcd_Write_Char 0070          Lcd_Write_String@a 0023          Lcd_Write_String@i 0028  
              ___flmul@grs 00D7                  _Lcd_Clear 12DB             __end_of___flge 1567  
           __end_of___wmul 1375           _Lcd_Write_String 139E        start_initialization 0013  
              __end_of_isr 14C3          __size_of_Lcd_Init 004B          __size_of_Lcd_Port 0006  
               ?_Lcd_Clear 0070                   ??___flge 0028                   ??___wmul 0075  
                __Umul8_16 1375            Lcd_Write_Char@a 0022                  ___fladd@a 0024  
                ___fladd@b 0020                  ___fldiv@a 003F                  ___fldiv@b 0043  
                ___flmul@a 005D                  ___flmul@b 0059                __pbssCOMMON 0075  
                ___flsub@a 003F                  ___flsub@b 0043                  ___latbits 0002  
            __pcstackBANK0 0020              __pcstackBANK1 00D5              __pcstackBANK3 0190  
        __size_of___xxtofl 00BC                   ?_Lcd_Cmd 0070           ??_Lcd_Set_Cursor 0025  
                 ?___fladd 0020                   ?___fldiv 003F                   ?___awdiv 0020  
                 ?___flmul 0059                   ?___flsub 003F                   ?___fltol 0020  
               ?__Umul8_16 0020                  __pstrings 1000                   ?_convert 00E2  
           __size_of_setup 0048          interrupt_function 0004             ___wmul@product 002F  
                clear_ram0 12D3                   _PIE1bits 008C                   Lcd_Cmd@a 0023  
                 _PIR1bits 000C                ??_Lcd_Clear 0075                 _ADCON0bits 001F  
              __stringbase 100F                 _ADCON1bits 009F          ___wmul@multiplier 002B  
         ??_Lcd_Write_Char 0021                   _Lcd_Init 142C                   _Lcd_Port 12CD  
                convert@mu 019D   __end_of_Lcd_Write_String 13E4           __size_of_Lcd_Cmd 001C  
              ??__Umul8_16 0022           __size_of___fladd 0288           __size_of___fldiv 01DD  
         __size_of___awdiv 0069           __size_of___flmul 055F           __size_of___flsub 0024  
         __size_of___fltol 007C         __end_of__stringtab 1010           __size_of_convert 050A  
                 ___xxtofl 1567                   __ptext10 14C3                   __ptext11 1623  
                 __ptext20 1477                   __ptext12 0805                   __ptext13 139E  
                 __ptext14 07E5                   __ptext15 1328                   __ptext16 142C  
                 __ptext17 12DB                   __ptext18 12E8                   __ptext19 12CD  
                 _contador 0075              __size_of_main 01E6                   _sen_temp 00C0  
                 convert@a 00E2                   convert@i 0199                   convert@j 0192  
                 convert@x 0195                 _INTCONbits 000B                   intlevel1 0000  
                stringcode 100A                 _OSCCONbits 008F         Lcd_Set_Cursor@temp 0027  
   __Umul8_16@multiplicand 0020                _temperatura 00CB                   stringdir 100A  
                 stringtab 1000              ___fladd@signs 0030               ___fladd@aexp 0031  
             ___fladd@bexp 0032       __Umul8_16@multiplier 0028          __Umul8_16@product 0024  
