

Microchip MPLAB XC8 Assembler V2.31 build 20201012212115 
                                                                                               Fri Sep 03 19:47:43 2021

Microchip MPLAB XC8 C Compiler v2.31 (Free license) build 20201012212115 Og1 
     1                           	processor	16F887
     2                           	pagewidth 120
     3                           	opt	flic
     4                           	psect	strings,global,class=STRING,delta=2,noexec
     5                           	psect	cinit,global,class=CODE,merge=1,delta=2
     6                           	psect	bssBANK0,global,class=BANK0,space=1,delta=1,noexec
     7                           	psect	bssBANK1,global,class=BANK1,space=1,delta=1,noexec
     8                           	psect	bssBANK3,global,class=BANK3,space=1,delta=1,noexec
     9                           	psect	clrtext,global,class=CODE,delta=2
    10                           	psect	cstackBANK3,global,class=BANK3,space=1,delta=1,noexec
    11                           	psect	cstackBANK1,global,class=BANK1,space=1,delta=1,noexec
    12                           	psect	cstackCOMMON,global,class=COMMON,space=1,delta=1,noexec
    13                           	psect	cstackBANK0,global,class=BANK0,space=1,delta=1,noexec
    14                           	psect	maintext,global,class=CODE,split=1,delta=2
    15                           	psect	text1,local,class=CODE,merge=1,delta=2
    16                           	psect	text2,local,class=CODE,merge=1,delta=2
    17                           	psect	text3,local,class=CODE,merge=1,delta=2,group=1
    18                           	psect	text4,local,class=CODE,merge=1,delta=2,group=1
    19                           	psect	text5,local,class=CODE,merge=1,delta=2,group=1
    20                           	psect	text6,local,class=CODE,merge=1,delta=2,group=1
    21                           	psect	text7,local,class=CODE,merge=1,delta=2,group=1
    22                           	psect	text8,local,class=CODE,merge=1,delta=2,group=1
    23                           	psect	text9,local,class=CODE,merge=1,delta=2,group=1
    24                           	psect	text10,local,class=CODE,merge=1,delta=2,group=1
    25                           	psect	text11,local,class=CODE,merge=1,delta=2,group=1
    26                           	psect	text12,local,class=CODE,merge=1,delta=2,group=1
    27                           	psect	text13,local,class=CODE,merge=1,delta=2
    28                           	psect	text14,local,class=CODE,merge=1,delta=2
    29                           	psect	text15,local,class=CODE,merge=1,delta=2
    30                           	psect	text16,local,class=CODE,merge=1,delta=2
    31                           	psect	text17,local,class=CODE,merge=1,delta=2
    32                           	psect	text18,local,class=CODE,merge=1,delta=2
    33                           	psect	text19,local,class=CODE,merge=1,delta=2
    34                           	psect	text20,local,class=CODE,merge=1,delta=2
    35                           	psect	intentry,global,class=CODE,delta=2
    36                           	psect	text21,local,class=CODE,merge=1,delta=2
    37                           	psect	text22,local,class=CODE,merge=1,delta=2
    38                           	psect	config,global,abs,ovrld,class=CONFIG,space=4,delta=2,noexec
    39                           	dabs	1,0x7E,2
    40  0000                     
    41                           ; Version 2.20
    42                           ; Generated 12/02/2020 GMT
    43                           ; 
    44                           ; Copyright © 2020, Microchip Technology Inc. and its subsidiaries ("Microchip")
    45                           ; All rights reserved.
    46                           ; 
    47                           ; This software is developed by Microchip Technology Inc. and its subsidiaries ("Microch
      +                          ip").
    48                           ; 
    49                           ; Redistribution and use in source and binary forms, with or without modification, are
    50                           ; permitted provided that the following conditions are met:
    51                           ; 
    52                           ;     1. Redistributions of source code must retain the above copyright notice, this lis
      +                          t of
    53                           ;        conditions and the following disclaimer.
    54                           ; 
    55                           ;     2. Redistributions in binary form must reproduce the above copyright notice, this 
      +                          list
    56                           ;        of conditions and the following disclaimer in the documentation and/or other
    57                           ;        materials provided with the distribution.
    58                           ; 
    59                           ;     3. Microchip's name may not be used to endorse or promote products derived from th
      +                          is
    60                           ;        software without specific prior written permission.
    61                           ; 
    62                           ; THIS SOFTWARE IS PROVIDED BY MICROCHIP "AS IS" AND ANY EXPRESS OR IMPLIED WARRANTIES,
    63                           ; INCLUDING, BUT NOT LIMITED TO, THE IMPLIED WARRANTIES OF MERCHANTABILITY AND FITNESS F
      +                          OR
    64                           ; PURPOSE ARE DISCLAIMED.  IN NO EVENT SHALL MICROCHIP BE LIABLE FOR ANY DIRECT, INDIREC
      +                          T,
    65                           ; INCIDENTAL, SPECIAL, EXEMPLARY, OR CONSEQUENTIAL DAMAGES (INCLUDING BUT NOT LIMITED TO
    66                           ; PROCUREMENT OF SUBSTITUTE GOODS OR SERVICES; LOSS OF USE, DATA OR PROFITS; OR BUSINESS
    67                           ; INTERRUPTION) HOWSOEVER CAUSED AND ON ANY THEORY OF LIABILITY, WHETHER IN CONTRACT, ST
      +                          RICT
    68                           ; LIABILITY, OR TORT (INCLUDING NEGLIGENCE OR OTHERWISE) ARISING IN ANY WAY OUT OF THE U
      +                          SE OF
    69                           ; THIS SOFTWARE, EVEN IF ADVISED OF THE POSSIBILITY OF SUCH DAMAGE.
    70                           ; 
    71                           ; 
    72                           ; Code-generator required, PIC16F887 Definitions
    73                           ; 
    74                           ; SFR Addresses
    75  0000                     	;# 
    76  0001                     	;# 
    77  0002                     	;# 
    78  0003                     	;# 
    79  0004                     	;# 
    80  0005                     	;# 
    81  0006                     	;# 
    82  0007                     	;# 
    83  0008                     	;# 
    84  0009                     	;# 
    85  000A                     	;# 
    86  000B                     	;# 
    87  000C                     	;# 
    88  000D                     	;# 
    89  000E                     	;# 
    90  000E                     	;# 
    91  000F                     	;# 
    92  0010                     	;# 
    93  0011                     	;# 
    94  0012                     	;# 
    95  0013                     	;# 
    96  0014                     	;# 
    97  0015                     	;# 
    98  0015                     	;# 
    99  0016                     	;# 
   100  0017                     	;# 
   101  0018                     	;# 
   102  0019                     	;# 
   103  001A                     	;# 
   104  001B                     	;# 
   105  001B                     	;# 
   106  001C                     	;# 
   107  001D                     	;# 
   108  001E                     	;# 
   109  001F                     	;# 
   110  0081                     	;# 
   111  0085                     	;# 
   112  0086                     	;# 
   113  0087                     	;# 
   114  0088                     	;# 
   115  0089                     	;# 
   116  008C                     	;# 
   117  008D                     	;# 
   118  008E                     	;# 
   119  008F                     	;# 
   120  0090                     	;# 
   121  0091                     	;# 
   122  0092                     	;# 
   123  0093                     	;# 
   124  0093                     	;# 
   125  0093                     	;# 
   126  0094                     	;# 
   127  0095                     	;# 
   128  0096                     	;# 
   129  0097                     	;# 
   130  0098                     	;# 
   131  0099                     	;# 
   132  009A                     	;# 
   133  009B                     	;# 
   134  009C                     	;# 
   135  009D                     	;# 
   136  009E                     	;# 
   137  009F                     	;# 
   138  0105                     	;# 
   139  0107                     	;# 
   140  0108                     	;# 
   141  0109                     	;# 
   142  010C                     	;# 
   143  010C                     	;# 
   144  010D                     	;# 
   145  010E                     	;# 
   146  010F                     	;# 
   147  0185                     	;# 
   148  0187                     	;# 
   149  0188                     	;# 
   150  0189                     	;# 
   151  018C                     	;# 
   152  018D                     	;# 
   153  0000                     	;# 
   154  0001                     	;# 
   155  0002                     	;# 
   156  0003                     	;# 
   157  0004                     	;# 
   158  0005                     	;# 
   159  0006                     	;# 
   160  0007                     	;# 
   161  0008                     	;# 
   162  0009                     	;# 
   163  000A                     	;# 
   164  000B                     	;# 
   165  000C                     	;# 
   166  000D                     	;# 
   167  000E                     	;# 
   168  000E                     	;# 
   169  000F                     	;# 
   170  0010                     	;# 
   171  0011                     	;# 
   172  0012                     	;# 
   173  0013                     	;# 
   174  0014                     	;# 
   175  0015                     	;# 
   176  0015                     	;# 
   177  0016                     	;# 
   178  0017                     	;# 
   179  0018                     	;# 
   180  0019                     	;# 
   181  001A                     	;# 
   182  001B                     	;# 
   183  001B                     	;# 
   184  001C                     	;# 
   185  001D                     	;# 
   186  001E                     	;# 
   187  001F                     	;# 
   188  0081                     	;# 
   189  0085                     	;# 
   190  0086                     	;# 
   191  0087                     	;# 
   192  0088                     	;# 
   193  0089                     	;# 
   194  008C                     	;# 
   195  008D                     	;# 
   196  008E                     	;# 
   197  008F                     	;# 
   198  0090                     	;# 
   199  0091                     	;# 
   200  0092                     	;# 
   201  0093                     	;# 
   202  0093                     	;# 
   203  0093                     	;# 
   204  0094                     	;# 
   205  0095                     	;# 
   206  0096                     	;# 
   207  0097                     	;# 
   208  0098                     	;# 
   209  0099                     	;# 
   210  009A                     	;# 
   211  009B                     	;# 
   212  009C                     	;# 
   213  009D                     	;# 
   214  009E                     	;# 
   215  009F                     	;# 
   216  0105                     	;# 
   217  0107                     	;# 
   218  0108                     	;# 
   219  0109                     	;# 
   220  010C                     	;# 
   221  010C                     	;# 
   222  010D                     	;# 
   223  010E                     	;# 
   224  010F                     	;# 
   225  0185                     	;# 
   226  0187                     	;# 
   227  0188                     	;# 
   228  0189                     	;# 
   229  018C                     	;# 
   230  018D                     	;# 
   231  0000                     	;# 
   232  0001                     	;# 
   233  0002                     	;# 
   234  0003                     	;# 
   235  0004                     	;# 
   236  0005                     	;# 
   237  0006                     	;# 
   238  0007                     	;# 
   239  0008                     	;# 
   240  0009                     	;# 
   241  000A                     	;# 
   242  000B                     	;# 
   243  000C                     	;# 
   244  000D                     	;# 
   245  000E                     	;# 
   246  000E                     	;# 
   247  000F                     	;# 
   248  0010                     	;# 
   249  0011                     	;# 
   250  0012                     	;# 
   251  0013                     	;# 
   252  0014                     	;# 
   253  0015                     	;# 
   254  0015                     	;# 
   255  0016                     	;# 
   256  0017                     	;# 
   257  0018                     	;# 
   258  0019                     	;# 
   259  001A                     	;# 
   260  001B                     	;# 
   261  001B                     	;# 
   262  001C                     	;# 
   263  001D                     	;# 
   264  001E                     	;# 
   265  001F                     	;# 
   266  0081                     	;# 
   267  0085                     	;# 
   268  0086                     	;# 
   269  0087                     	;# 
   270  0088                     	;# 
   271  0089                     	;# 
   272  008C                     	;# 
   273  008D                     	;# 
   274  008E                     	;# 
   275  008F                     	;# 
   276  0090                     	;# 
   277  0091                     	;# 
   278  0092                     	;# 
   279  0093                     	;# 
   280  0093                     	;# 
   281  0093                     	;# 
   282  0094                     	;# 
   283  0095                     	;# 
   284  0096                     	;# 
   285  0097                     	;# 
   286  0098                     	;# 
   287  0099                     	;# 
   288  009A                     	;# 
   289  009B                     	;# 
   290  009C                     	;# 
   291  009D                     	;# 
   292  009E                     	;# 
   293  009F                     	;# 
   294  0105                     	;# 
   295  0107                     	;# 
   296  0108                     	;# 
   297  0109                     	;# 
   298  010C                     	;# 
   299  010C                     	;# 
   300  010D                     	;# 
   301  010E                     	;# 
   302  010F                     	;# 
   303  0185                     	;# 
   304  0187                     	;# 
   305  0188                     	;# 
   306  0189                     	;# 
   307  018C                     	;# 
   308  018D                     	;# 
   309  0007                     _PORTCbits	set	7
   310  000B                     _INTCONbits	set	11
   311  0007                     _PORTC	set	7
   312  0006                     _PORTB	set	6
   313  0005                     _PORTA	set	5
   314  0008                     _PORTD	set	8
   315  001E                     _ADRESH	set	30
   316  001F                     _ADCON0bits	set	31
   317  000C                     _PIR1bits	set	12
   318  009F                     _ADCON1bits	set	159
   319  008C                     _PIE1bits	set	140
   320  008F                     _OSCCONbits	set	143
   321  0088                     _TRISD	set	136
   322  0087                     _TRISC	set	135
   323  0086                     _TRISB	set	134
   324  0085                     _TRISA	set	133
   325  009E                     _ADRESL	set	158
   326  0189                     _ANSELH	set	393
   327  0188                     _ANSEL	set	392
   328                           
   329                           	psect	strings
   330  1800                     __pstrings:
   331  1800                     stringtab:
   332  1800                     __stringtab:
   333                           
   334                           ;	String table - string pointers are 1 byte each
   335  1800  1BFF               	btfsc	btemp+1,7
   336  1801  280A               	ljmp	stringcode
   337  1802  1383               	bcf	3,7
   338  1803  187F               	btfsc	btemp+1,0
   339  1804  1783               	bsf	3,7
   340  1805  0800               	movf	0,w
   341  1806  0A84               	incf	4,f
   342  1807  1903               	skipnz
   343  1808  0AFF               	incf	btemp+1,f
   344  1809  0008               	return
   345  180A                     stringcode:
   346  180A                     stringdir:
   347  180A  3018               	movlw	high stringdir
   348  180B  008A               	movwf	10
   349  180C  0804               	movf	4,w
   350  180D  0A84               	incf	4,f
   351  180E  0782               	addwf	2,f
   352  180F                     __stringbase:
   353  180F  3400               	retlw	0
   354  1810                     __end_of__stringtab:
   355  1810                     STR_1:
   356  1810  3454               	retlw	84	;'T'
   357  1811  3465               	retlw	101	;'e'
   358  1812  346D               	retlw	109	;'m'
   359  1813  3470               	retlw	112	;'p'
   360  1814  3400               	retlw	0
   361  1815                     STR_2:
   362  1815  3453               	retlw	83	;'S'
   363  1816  3432               	retlw	50	;'2'
   364  1817  343A               	retlw	58	;':'
   365  1818  3400               	retlw	0
   366  1819                     STR_3:
   367  1819  3453               	retlw	83	;'S'
   368  181A  3433               	retlw	51	;'3'
   369  181B  343A               	retlw	58	;':'
   370  181C  3400               	retlw	0
   371  181D                     STR_4:
   372  181D  3443               	retlw	67	;'C'
   373  181E  3400               	retlw	0
   374                           
   375                           	psect	cinit
   376  0013                     start_initialization:	
   377                           ; #config settings
   378                           
   379  0013                     __initialization:
   380                           
   381                           ; Clear objects allocated to BANK0
   382  0013  1383               	bcf	3,7	;select IRP bank0
   383  0014  3040               	movlw	low __pbssBANK0
   384  0015  0084               	movwf	4
   385  0016  3055               	movlw	low (__pbssBANK0+21)
   386  0017  160A  158A  275C  120A  118A  	fcall	clear_ram0
   387                           
   388                           ; Clear objects allocated to BANK1
   389  001C  1683               	bsf	3,5	;RP0=1, select bank1
   390  001D  1303               	bcf	3,6	;RP1=0, select bank1
   391  001E  01EC               	clrf	__pbssBANK1& (0+127)
   392  001F  01ED               	clrf	(__pbssBANK1+1)& (0+127)
   393  0020  01EE               	clrf	(__pbssBANK1+2)& (0+127)
   394  0021  01EF               	clrf	(__pbssBANK1+3)& (0+127)
   395                           
   396                           ; Clear objects allocated to BANK3
   397  0022  1783               	bsf	3,7	;select IRP bank2
   398  0023  30B3               	movlw	low __pbssBANK3
   399  0024  0084               	movwf	4
   400  0025  30D3               	movlw	low (__pbssBANK3+32)
   401  0026  160A  158A  275C  120A  118A  	fcall	clear_ram0
   402  002B                     end_of_initialization:	
   403                           ;End of C runtime variable initialization code
   404                           
   405  002B                     __end_of__initialization:
   406  002B  0183               	clrf	3
   407  002C  160A  118A  2C28   	ljmp	_main	;jump to C main() function
   408                           
   409                           	psect	bssBANK0
   410  0040                     __pbssBANK0:
   411  0040                     _sensor2:
   412  0040                     	ds	10
   413  004A                     _conv3:
   414  004A                     	ds	4
   415  004E                     _lec1:
   416  004E                     	ds	4
   417  0052                     _contador:
   418  0052                     	ds	1
   419  0053                     _adc2:
   420  0053                     	ds	1
   421  0054                     _adc1:
   422  0054                     	ds	1
   423                           
   424                           	psect	bssBANK1
   425  00EC                     __pbssBANK1:
   426  00EC                     _volt1:
   427  00EC                     	ds	4
   428                           
   429                           	psect	bssBANK3
   430  01B3                     __pbssBANK3:
   431  01B3                     _cont1:
   432  01B3                     	ds	10
   433  01BD                     _conv2:
   434  01BD                     	ds	4
   435  01C1                     _conv1:
   436  01C1                     	ds	4
   437  01C5                     _sen_temp:
   438  01C5                     	ds	4
   439  01C9                     _temperatura:
   440  01C9                     	ds	10
   441                           
   442                           	psect	clrtext
   443  1F5C                     clear_ram0:	
   444                           ;	Called with FSR containing the base address, and
   445                           ;	W with the last address+1
   446                           
   447  1F5C  0064               	clrwdt	;clear the watchdog before getting into this loop
   448  1F5D                     clrloop0:
   449  1F5D  0180               	clrf	0	;clear RAM location pointed to by FSR
   450  1F5E  0A84               	incf	4,f	;increment pointer
   451  1F5F  0604               	xorwf	4,w	;XOR with final address
   452  1F60  1903               	btfsc	3,2	;have we reached the end yet?
   453  1F61  3400               	retlw	0	;all done for this memory range, return
   454  1F62  0604               	xorwf	4,w	;XOR again to restore value
   455  1F63  2F5D               	goto	clrloop0	;do the next byte
   456                           
   457                           	psect	cstackBANK3
   458  0190                     __pcstackBANK3:
   459  0190                     ___fldiv@rem:
   460                           
   461                           ; 4 bytes @ 0x0
   462  0190                     	ds	4
   463  0194                     ___fldiv@sign:
   464                           
   465                           ; 1 bytes @ 0x4
   466  0194                     	ds	1
   467  0195                     ___fldiv@new_exp:
   468                           
   469                           ; 2 bytes @ 0x5
   470  0195                     	ds	2
   471  0197                     ___fldiv@grs:
   472                           
   473                           ; 4 bytes @ 0x7
   474  0197                     	ds	4
   475  019B                     ___fldiv@bexp:
   476                           
   477                           ; 1 bytes @ 0xB
   478  019B                     	ds	1
   479  019C                     ___fldiv@aexp:
   480                           
   481                           ; 1 bytes @ 0xC
   482  019C                     	ds	1
   483  019D                     ?_convert:
   484  019D                     convert@a:	
   485                           ; 1 bytes @ 0xD
   486                           
   487                           
   488                           ; 4 bytes @ 0xD
   489  019D                     	ds	4
   490  01A1                     convert@place:
   491                           
   492                           ; 2 bytes @ 0x11
   493  01A1                     	ds	2
   494  01A3                     convert@temp:
   495                           
   496                           ; 2 bytes @ 0x13
   497  01A3                     	ds	2
   498  01A5                     convert@j:
   499                           
   500                           ; 2 bytes @ 0x15
   501  01A5                     	ds	2
   502  01A7                     convert@data:
   503                           
   504                           ; 1 bytes @ 0x17
   505  01A7                     	ds	1
   506  01A8                     convert@x:
   507                           
   508                           ; 4 bytes @ 0x18
   509  01A8                     	ds	4
   510  01AC                     convert@i:
   511                           
   512                           ; 2 bytes @ 0x1C
   513  01AC                     	ds	2
   514  01AE                     convert@digits:
   515                           
   516                           ; 2 bytes @ 0x1E
   517  01AE                     	ds	2
   518  01B0                     convert@mu:
   519                           
   520                           ; 2 bytes @ 0x20
   521  01B0                     	ds	2
   522  01B2                     ??_main:
   523                           
   524                           ; 1 bytes @ 0x22
   525  01B2                     	ds	1
   526                           
   527                           	psect	cstackBANK1
   528  00A0                     __pcstackBANK1:
   529  00A0                     ?___flge:
   530  00A0                     ??_Lcd_Init:	
   531                           ; 1 bit 
   532                           
   533  00A0                     ??_Lcd_Set_Cursor:	
   534                           ; 1 bytes @ 0x0
   535                           
   536  00A0                     ??_Lcd_Write_String:	
   537                           ; 1 bytes @ 0x0
   538                           
   539  00A0                     ??___fltol:	
   540                           ; 1 bytes @ 0x0
   541                           
   542  00A0                     ?___fladd:	
   543                           ; 1 bytes @ 0x0
   544                           
   545  00A0                     ___awdiv@counter:	
   546                           ; 4 bytes @ 0x0
   547                           
   548  00A0                     __Umul8_16@product:	
   549                           ; 1 bytes @ 0x0
   550                           
   551  00A0                     ___flge@ff1:	
   552                           ; 2 bytes @ 0x0
   553                           
   554  00A0                     ___fladd@b:	
   555                           ; 4 bytes @ 0x0
   556                           
   557                           
   558                           ; 4 bytes @ 0x0
   559  00A0                     	ds	1
   560  00A1                     Lcd_Set_Cursor@a:
   561  00A1                     ___awdiv@sign:	
   562                           ; 1 bytes @ 0x1
   563                           
   564                           
   565                           ; 1 bytes @ 0x1
   566  00A1                     	ds	1
   567  00A2                     Lcd_Set_Cursor@temp:
   568  00A2                     ___awdiv@quotient:	
   569                           ; 1 bytes @ 0x2
   570                           
   571  00A2                     __Umul8_16@word_mpld:	
   572                           ; 2 bytes @ 0x2
   573                           
   574                           
   575                           ; 2 bytes @ 0x2
   576  00A2                     	ds	1
   577  00A3                     Lcd_Write_String@i:
   578                           
   579                           ; 2 bytes @ 0x3
   580  00A3                     	ds	1
   581  00A4                     __Umul8_16@multiplier:
   582  00A4                     ___flge@ff2:	
   583                           ; 1 bytes @ 0x4
   584                           
   585  00A4                     ___fladd@a:	
   586                           ; 4 bytes @ 0x4
   587                           
   588                           
   589                           ; 4 bytes @ 0x4
   590  00A4                     	ds	1
   591  00A5                     ___fltol@sign1:
   592                           
   593                           ; 1 bytes @ 0x5
   594  00A5                     	ds	1
   595  00A6                     ___fltol@exp1:
   596                           
   597                           ; 1 bytes @ 0x6
   598  00A6                     	ds	1
   599  00A7                     ?___wmul:
   600  00A7                     ___wmul@multiplier:	
   601                           ; 2 bytes @ 0x7
   602                           
   603                           
   604                           ; 2 bytes @ 0x7
   605  00A7                     	ds	1
   606  00A8                     ??___fladd:
   607                           
   608                           ; 1 bytes @ 0x8
   609  00A8                     	ds	1
   610  00A9                     ___wmul@multiplicand:
   611                           
   612                           ; 2 bytes @ 0x9
   613  00A9                     	ds	2
   614  00AB                     ___wmul@product:
   615                           
   616                           ; 2 bytes @ 0xB
   617  00AB                     	ds	2
   618  00AD                     ?___xxtofl:
   619  00AD                     ___xxtofl@val:	
   620                           ; 4 bytes @ 0xD
   621                           
   622                           
   623                           ; 4 bytes @ 0xD
   624  00AD                     	ds	4
   625  00B1                     ??___xxtofl:
   626                           
   627                           ; 1 bytes @ 0x11
   628  00B1                     	ds	4
   629  00B5                     ___xxtofl@sign:
   630                           
   631                           ; 1 bytes @ 0x15
   632  00B5                     	ds	1
   633  00B6                     ___xxtofl@exp:
   634                           
   635                           ; 1 bytes @ 0x16
   636  00B6                     	ds	1
   637  00B7                     ___xxtofl@arg:
   638                           
   639                           ; 4 bytes @ 0x17
   640  00B7                     	ds	4
   641  00BB                     ?___flsub:
   642  00BB                     ___flsub@a:	
   643                           ; 4 bytes @ 0x1B
   644                           
   645                           
   646                           ; 4 bytes @ 0x1B
   647  00BB                     	ds	4
   648  00BF                     ___flsub@b:
   649                           
   650                           ; 4 bytes @ 0x1F
   651  00BF                     	ds	4
   652  00C3                     ?___flmul:
   653  00C3                     ___flmul@b:	
   654                           ; 4 bytes @ 0x23
   655                           
   656                           
   657                           ; 4 bytes @ 0x23
   658  00C3                     	ds	4
   659  00C7                     ___flmul@a:
   660                           
   661                           ; 4 bytes @ 0x27
   662  00C7                     	ds	4
   663  00CB                     ??___flmul:
   664                           
   665                           ; 1 bytes @ 0x2B
   666  00CB                     	ds	5
   667  00D0                     ___flmul@sign:
   668                           
   669                           ; 1 bytes @ 0x30
   670  00D0                     	ds	1
   671  00D1                     ___flmul@aexp:
   672                           
   673                           ; 1 bytes @ 0x31
   674  00D1                     	ds	1
   675  00D2                     ___flmul@grs:
   676                           
   677                           ; 4 bytes @ 0x32
   678  00D2                     	ds	4
   679  00D6                     ___flmul@bexp:
   680                           
   681                           ; 1 bytes @ 0x36
   682  00D6                     	ds	1
   683  00D7                     ___flmul@prod:
   684                           
   685                           ; 4 bytes @ 0x37
   686  00D7                     	ds	4
   687  00DB                     ___flmul@temp:
   688                           
   689                           ; 2 bytes @ 0x3B
   690  00DB                     	ds	2
   691  00DD                     ?___fldiv:
   692  00DD                     ___fldiv@a:	
   693                           ; 4 bytes @ 0x3D
   694                           
   695                           
   696                           ; 4 bytes @ 0x3D
   697  00DD                     	ds	4
   698  00E1                     ___fldiv@b:
   699                           
   700                           ; 4 bytes @ 0x41
   701  00E1                     	ds	4
   702  00E5                     ??___fldiv:
   703                           
   704                           ; 1 bytes @ 0x45
   705  00E5                     	ds	5
   706  00EA                     ??_convert:
   707                           
   708                           ; 1 bytes @ 0x4A
   709  00EA                     	ds	2
   710                           
   711                           	psect	cstackCOMMON
   712  0070                     __pcstackCOMMON:
   713  0070                     ?_setup:
   714  0070                     ?_Lcd_Init:	
   715                           ; 1 bytes @ 0x0
   716                           
   717  0070                     ?_Lcd_Clear:	
   718                           ; 1 bytes @ 0x0
   719                           
   720  0070                     ?_isr:	
   721                           ; 1 bytes @ 0x0
   722                           
   723  0070                     ?_main:	
   724                           ; 1 bytes @ 0x0
   725                           
   726  0070                     ?_Lcd_Port:	
   727                           ; 1 bytes @ 0x0
   728                           
   729  0070                     ?_Lcd_Cmd:	
   730                           ; 1 bytes @ 0x0
   731                           
   732  0070                     ?_Lcd_Write_Char:	
   733                           ; 1 bytes @ 0x0
   734                           
   735  0070                     ?i1___xxtofl:	
   736                           ; 1 bytes @ 0x0
   737                           
   738  0070                     i1___xxtofl@val:	
   739                           ; 4 bytes @ 0x0
   740                           
   741                           
   742                           ; 4 bytes @ 0x0
   743  0070                     	ds	4
   744  0074                     ??i1___xxtofl:
   745                           
   746                           ; 1 bytes @ 0x4
   747  0074                     	ds	4
   748  0078                     i1___xxtofl@sign:
   749                           
   750                           ; 1 bytes @ 0x8
   751  0078                     	ds	1
   752  0079                     i1___xxtofl@exp:
   753                           
   754                           ; 1 bytes @ 0x9
   755  0079                     	ds	1
   756  007A                     i1___xxtofl@arg:
   757                           
   758                           ; 4 bytes @ 0xA
   759  007A                     	ds	4
   760                           
   761                           	psect	cstackBANK0
   762  0020                     __pcstackBANK0:
   763  0020                     ?i1___fladd:
   764  0020                     i1___fladd@b:	
   765                           ; 4 bytes @ 0x0
   766                           
   767                           
   768                           ; 4 bytes @ 0x0
   769  0020                     	ds	4
   770  0024                     i1___fladd@a:
   771                           
   772                           ; 4 bytes @ 0x4
   773  0024                     	ds	4
   774  0028                     ??i1___fladd:
   775                           
   776                           ; 1 bytes @ 0x8
   777  0028                     	ds	8
   778  0030                     i1___fladd@signs:
   779                           
   780                           ; 1 bytes @ 0x10
   781  0030                     	ds	1
   782  0031                     i1___fladd@aexp:
   783                           
   784                           ; 1 bytes @ 0x11
   785  0031                     	ds	1
   786  0032                     i1___fladd@bexp:
   787                           
   788                           ; 1 bytes @ 0x12
   789  0032                     	ds	1
   790  0033                     i1___fladd@grs:
   791                           
   792                           ; 1 bytes @ 0x13
   793  0033                     	ds	1
   794  0034                     ??_isr:
   795                           
   796                           ; 1 bytes @ 0x14
   797  0034                     	ds	7
   798  003B                     ??_setup:
   799  003B                     ??_Lcd_Port:	
   800                           ; 1 bytes @ 0x1B
   801                           
   802  003B                     ??___flge:	
   803                           ; 1 bytes @ 0x1B
   804                           
   805  003B                     ?__Umul8_16:	
   806                           ; 1 bytes @ 0x1B
   807                           
   808  003B                     ?___awdiv:	
   809                           ; 2 bytes @ 0x1B
   810                           
   811  003B                     ?___fltol:	
   812                           ; 2 bytes @ 0x1B
   813                           
   814  003B                     Lcd_Port@a:	
   815                           ; 4 bytes @ 0x1B
   816                           
   817  003B                     ___fladd@signs:	
   818                           ; 1 bytes @ 0x1B
   819                           
   820  003B                     __Umul8_16@multiplicand:	
   821                           ; 1 bytes @ 0x1B
   822                           
   823  003B                     ___awdiv@divisor:	
   824                           ; 1 bytes @ 0x1B
   825                           
   826  003B                     ___fltol@f1:	
   827                           ; 2 bytes @ 0x1B
   828                           
   829                           
   830                           ; 4 bytes @ 0x1B
   831  003B                     	ds	1
   832  003C                     ??_Lcd_Cmd:
   833  003C                     ??_Lcd_Write_Char:	
   834                           ; 1 bytes @ 0x1C
   835                           
   836  003C                     ___fladd@aexp:	
   837                           ; 1 bytes @ 0x1C
   838                           
   839                           
   840                           ; 1 bytes @ 0x1C
   841  003C                     	ds	1
   842  003D                     ??__Umul8_16:
   843  003D                     Lcd_Write_Char@a:	
   844                           ; 1 bytes @ 0x1D
   845                           
   846  003D                     ___fladd@bexp:	
   847                           ; 1 bytes @ 0x1D
   848                           
   849  003D                     ___awdiv@dividend:	
   850                           ; 1 bytes @ 0x1D
   851                           
   852                           
   853                           ; 2 bytes @ 0x1D
   854  003D                     	ds	1
   855  003E                     ?_Lcd_Write_String:
   856  003E                     Lcd_Cmd@a:	
   857                           ; 1 bytes @ 0x1E
   858                           
   859  003E                     ___fladd@grs:	
   860                           ; 1 bytes @ 0x1E
   861                           
   862  003E                     Lcd_Write_String@a:	
   863                           ; 1 bytes @ 0x1E
   864                           
   865                           
   866                           ; 2 bytes @ 0x1E
   867  003E                     	ds	1
   868  003F                     ??_Lcd_Clear:
   869  003F                     ?_Lcd_Set_Cursor:	
   870                           ; 1 bytes @ 0x1F
   871                           
   872  003F                     ??___wmul:	
   873                           ; 1 bytes @ 0x1F
   874                           
   875  003F                     ??___awdiv:	
   876                           ; 1 bytes @ 0x1F
   877                           
   878  003F                     ??___flsub:	
   879                           ; 1 bytes @ 0x1F
   880                           
   881  003F                     Lcd_Set_Cursor@b:	
   882                           ; 1 bytes @ 0x1F
   883                           
   884                           
   885                           ; 1 bytes @ 0x1F
   886  003F                     	ds	1
   887                           
   888                           	psect	maintext
   889  1428                     __pmaintext:	
   890 ;;
   891 ;;Main: autosize = 0, tempsize = 1, incstack = 0, save=0
   892 ;;
   893 ;; *************** function _main *****************
   894 ;; Defined at:
   895 ;;		line 92 in file "Slave3.c"
   896 ;; Parameters:    Size  Location     Type
   897 ;;		None
   898 ;; Auto vars:     Size  Location     Type
   899 ;;  a               2    0        unsigned int 
   900 ;; Return value:  Size  Location     Type
   901 ;;                  1    wreg      void 
   902 ;; Registers used:
   903 ;;		wreg, fsr0l, fsr0h, status,2, status,0, btemp+1, pclath, cstack
   904 ;; Tracked objects:
   905 ;;		On entry : B00/0
   906 ;;		On exit  : 0/0
   907 ;;		Unchanged: 0/0
   908 ;; Data sizes:     COMMON   BANK0   BANK1   BANK3   BANK2
   909 ;;      Params:         0       0       0       0       0
   910 ;;      Locals:         0       0       0       0       0
   911 ;;      Temps:          0       0       0       1       0
   912 ;;      Totals:         0       0       0       1       0
   913 ;;Total ram usage:        1 bytes
   914 ;; Hardware stack levels required when called:    5
   915 ;; This function calls:
   916 ;;		_Lcd_Clear
   917 ;;		_Lcd_Init
   918 ;;		_Lcd_Set_Cursor
   919 ;;		_Lcd_Write_String
   920 ;;		___fldiv
   921 ;;		___flmul
   922 ;;		_convert
   923 ;;		_setup
   924 ;; This function is called by:
   925 ;;		Startup code after reset
   926 ;; This function uses a non-reentrant model
   927 ;;
   928                           
   929                           
   930                           ;psect for function _main
   931  1428                     _main:
   932  1428                     l3875:	
   933                           ;incstack = 0
   934                           ; Regs used in _main: [wreg-fsr0h+status,2+status,0+btemp+1+pclath+cstack]
   935                           
   936                           
   937                           ;Slave3.c: 93:     setup();
   938  1428  160A  118A  2028  160A  118A  	fcall	_setup
   939                           
   940                           ;Slave3.c: 94:     unsigned int a;;Slave3.c: 95:     Lcd_Init();
   941  142D  120A  158A  2000  160A  118A  	fcall	_Lcd_Init
   942                           
   943                           ;Slave3.c: 96:     Lcd_Clear();
   944  1432  160A  158A  2764  160A  118A  	fcall	_Lcd_Clear
   945  1437                     l3877:
   946                           
   947                           ;Slave3.c: 97:     ADCON0bits.GO = 1;
   948  1437  1283               	bcf	3,5	;RP0=0, select bank0
   949  1438  1303               	bcf	3,6	;RP1=0, select bank0
   950  1439  149F               	bsf	31,1	;volatile
   951  143A                     l87:	
   952                           ;Slave3.c: 102:     while(1){
   953                           
   954                           
   955                           ;Slave3.c: 105:         Lcd_Set_Cursor(1, 1);
   956  143A  1283               	bcf	3,5	;RP0=0, select bank0
   957  143B  1303               	bcf	3,6	;RP1=0, select bank0
   958  143C  01BF               	clrf	Lcd_Set_Cursor@b
   959  143D  0ABF               	incf	Lcd_Set_Cursor@b,f
   960  143E  3001               	movlw	1
   961  143F  120A  118A  27CD  160A  118A  	fcall	_Lcd_Set_Cursor
   962  1444                     l3879:
   963                           
   964                           ;Slave3.c: 106:         Lcd_Write_String("Temp");
   965  1444  3001               	movlw	(low ((STR_1-__stringbase)| (0+32768)))& (0+255)
   966  1445  1283               	bcf	3,5	;RP0=0, select bank0
   967  1446  1303               	bcf	3,6	;RP1=0, select bank0
   968  1447  00BE               	movwf	Lcd_Write_String@a
   969  1448  3080               	movlw	128
   970  1449  00BF               	movwf	Lcd_Write_String@a+1
   971  144A  160A  118A  2062  160A  118A  	fcall	_Lcd_Write_String
   972  144F                     l3881:
   973                           
   974                           ;Slave3.c: 107:         Lcd_Set_Cursor(1, 8);
   975  144F  3008               	movlw	8
   976  1450  1683               	bsf	3,5	;RP0=1, select bank3
   977  1451  1703               	bsf	3,6	;RP1=1, select bank3
   978  1452  00B2               	movwf	??_main^(0+384)
   979  1453  0832               	movf	??_main^(0+384),w
   980  1454  1283               	bcf	3,5	;RP0=0, select bank0
   981  1455  1303               	bcf	3,6	;RP1=0, select bank0
   982  1456  00BF               	movwf	Lcd_Set_Cursor@b
   983  1457  3001               	movlw	1
   984  1458  120A  118A  27CD  160A  118A  	fcall	_Lcd_Set_Cursor
   985                           
   986                           ;Slave3.c: 108:         Lcd_Write_String("S2:");
   987  145D  3006               	movlw	(low ((STR_2-__stringbase)| (0+32768)))& (0+255)
   988  145E  1283               	bcf	3,5	;RP0=0, select bank0
   989  145F  1303               	bcf	3,6	;RP1=0, select bank0
   990  1460  00BE               	movwf	Lcd_Write_String@a
   991  1461  3080               	movlw	128
   992  1462  00BF               	movwf	Lcd_Write_String@a+1
   993  1463  160A  118A  2062  160A  118A  	fcall	_Lcd_Write_String
   994  1468                     l3883:
   995                           
   996                           ;Slave3.c: 109:         Lcd_Set_Cursor(1, 14);
   997  1468  300E               	movlw	14
   998  1469  1683               	bsf	3,5	;RP0=1, select bank3
   999  146A  1703               	bsf	3,6	;RP1=1, select bank3
  1000  146B  00B2               	movwf	??_main^(0+384)
  1001  146C  0832               	movf	??_main^(0+384),w
  1002  146D  1283               	bcf	3,5	;RP0=0, select bank0
  1003  146E  1303               	bcf	3,6	;RP1=0, select bank0
  1004  146F  00BF               	movwf	Lcd_Set_Cursor@b
  1005  1470  3001               	movlw	1
  1006  1471  120A  118A  27CD  160A  118A  	fcall	_Lcd_Set_Cursor
  1007  1476                     l3885:
  1008                           
  1009                           ;Slave3.c: 110:         Lcd_Write_String("S3:");
  1010  1476  300A               	movlw	(low ((STR_3-__stringbase)| (0+32768)))& (0+255)
  1011  1477  1283               	bcf	3,5	;RP0=0, select bank0
  1012  1478  1303               	bcf	3,6	;RP1=0, select bank0
  1013  1479  00BE               	movwf	Lcd_Write_String@a
  1014  147A  3080               	movlw	128
  1015  147B  00BF               	movwf	Lcd_Write_String@a+1
  1016  147C  160A  118A  2062  160A  118A  	fcall	_Lcd_Write_String
  1017  1481                     l3887:
  1018                           
  1019                           ;Slave3.c: 112:         volt1 = (lec1*5)/1023;
  1020  1481  3044               	movlw	68
  1021  1482  1683               	bsf	3,5	;RP0=1, select bank1
  1022  1483  1303               	bcf	3,6	;RP1=0, select bank1
  1023  1484  00E0               	movwf	(___fldiv@a+3)^(0+128)
  1024  1485  307F               	movlw	127
  1025  1486  00DF               	movwf	(___fldiv@a+2)^(0+128)
  1026  1487  30C0               	movlw	192
  1027  1488  00DE               	movwf	(___fldiv@a+1)^(0+128)
  1028  1489  3000               	movlw	0
  1029  148A  00DD               	movwf	___fldiv@a^(0+128)
  1030  148B  3040               	movlw	64
  1031  148C  00C6               	movwf	(___flmul@b+3)^(0+128)
  1032  148D  30A0               	movlw	160
  1033  148E  00C5               	movwf	(___flmul@b+2)^(0+128)
  1034  148F  3000               	movlw	0
  1035  1490  00C4               	movwf	(___flmul@b+1)^(0+128)
  1036  1491  3000               	movlw	0
  1037  1492  00C3               	movwf	___flmul@b^(0+128)
  1038  1493  1283               	bcf	3,5	;RP0=0, select bank0
  1039  1494  1303               	bcf	3,6	;RP1=0, select bank0
  1040  1495  0851               	movf	_lec1+3,w
  1041  1496  1683               	bsf	3,5	;RP0=1, select bank1
  1042  1497  1303               	bcf	3,6	;RP1=0, select bank1
  1043  1498  00CA               	movwf	(___flmul@a+3)^(0+128)
  1044  1499  1283               	bcf	3,5	;RP0=0, select bank0
  1045  149A  1303               	bcf	3,6	;RP1=0, select bank0
  1046  149B  0850               	movf	_lec1+2,w
  1047  149C  1683               	bsf	3,5	;RP0=1, select bank1
  1048  149D  1303               	bcf	3,6	;RP1=0, select bank1
  1049  149E  00C9               	movwf	(___flmul@a+2)^(0+128)
  1050  149F  1283               	bcf	3,5	;RP0=0, select bank0
  1051  14A0  1303               	bcf	3,6	;RP1=0, select bank0
  1052  14A1  084F               	movf	_lec1+1,w
  1053  14A2  1683               	bsf	3,5	;RP0=1, select bank1
  1054  14A3  1303               	bcf	3,6	;RP1=0, select bank1
  1055  14A4  00C8               	movwf	(___flmul@a+1)^(0+128)
  1056  14A5  1283               	bcf	3,5	;RP0=0, select bank0
  1057  14A6  1303               	bcf	3,6	;RP1=0, select bank0
  1058  14A7  084E               	movf	_lec1,w
  1059  14A8  1683               	bsf	3,5	;RP0=1, select bank1
  1060  14A9  1303               	bcf	3,6	;RP1=0, select bank1
  1061  14AA  00C7               	movwf	___flmul@a^(0+128)
  1062  14AB  120A  158A  2445  160A  118A  	fcall	___flmul
  1063  14B0  1683               	bsf	3,5	;RP0=1, select bank1
  1064  14B1  1303               	bcf	3,6	;RP1=0, select bank1
  1065  14B2  0846               	movf	(?___flmul+3)^(0+128),w
  1066  14B3  00E4               	movwf	(___fldiv@b+3)^(0+128)
  1067  14B4  0845               	movf	(?___flmul+2)^(0+128),w
  1068  14B5  00E3               	movwf	(___fldiv@b+2)^(0+128)
  1069  14B6  0844               	movf	(?___flmul+1)^(0+128),w
  1070  14B7  00E2               	movwf	(___fldiv@b+1)^(0+128)
  1071  14B8  0843               	movf	?___flmul^(0+128),w
  1072  14B9  00E1               	movwf	___fldiv@b^(0+128)
  1073  14BA  120A  118A  252D  160A  118A  	fcall	___fldiv
  1074  14BF  1683               	bsf	3,5	;RP0=1, select bank1
  1075  14C0  1303               	bcf	3,6	;RP1=0, select bank1
  1076  14C1  0860               	movf	(?___fldiv+3)^(0+128),w
  1077  14C2  00EF               	movwf	(_volt1+3)^(0+128)
  1078  14C3  085F               	movf	(?___fldiv+2)^(0+128),w
  1079  14C4  00EE               	movwf	(_volt1+2)^(0+128)
  1080  14C5  085E               	movf	(?___fldiv+1)^(0+128),w
  1081  14C6  00ED               	movwf	(_volt1+1)^(0+128)
  1082  14C7  085D               	movf	?___fldiv^(0+128),w
  1083  14C8  00EC               	movwf	_volt1^(0+128)
  1084  14C9                     l3889:
  1085                           
  1086                           ;Slave3.c: 113:         sen_temp = volt1*100;
  1087  14C9  3042               	movlw	66
  1088  14CA  00C6               	movwf	(___flmul@b+3)^(0+128)
  1089  14CB  30C8               	movlw	200
  1090  14CC  00C5               	movwf	(___flmul@b+2)^(0+128)
  1091  14CD  3000               	movlw	0
  1092  14CE  00C4               	movwf	(___flmul@b+1)^(0+128)
  1093  14CF  3000               	movlw	0
  1094  14D0  00C3               	movwf	___flmul@b^(0+128)
  1095  14D1  086F               	movf	(_volt1+3)^(0+128),w
  1096  14D2  00CA               	movwf	(___flmul@a+3)^(0+128)
  1097  14D3  086E               	movf	(_volt1+2)^(0+128),w
  1098  14D4  00C9               	movwf	(___flmul@a+2)^(0+128)
  1099  14D5  086D               	movf	(_volt1+1)^(0+128),w
  1100  14D6  00C8               	movwf	(___flmul@a+1)^(0+128)
  1101  14D7  086C               	movf	_volt1^(0+128),w
  1102  14D8  00C7               	movwf	___flmul@a^(0+128)
  1103  14D9  120A  158A  2445  160A  118A  	fcall	___flmul
  1104  14DE  1683               	bsf	3,5	;RP0=1, select bank1
  1105  14DF  1303               	bcf	3,6	;RP1=0, select bank1
  1106  14E0  0846               	movf	(?___flmul+3)^(0+128),w
  1107  14E1  1683               	bsf	3,5	;RP0=1, select bank3
  1108  14E2  1703               	bsf	3,6	;RP1=1, select bank3
  1109  14E3  00C8               	movwf	(_sen_temp+3)^(0+384)
  1110  14E4  1683               	bsf	3,5	;RP0=1, select bank1
  1111  14E5  1303               	bcf	3,6	;RP1=0, select bank1
  1112  14E6  0845               	movf	(?___flmul+2)^(0+128),w
  1113  14E7  1683               	bsf	3,5	;RP0=1, select bank3
  1114  14E8  1703               	bsf	3,6	;RP1=1, select bank3
  1115  14E9  00C7               	movwf	(_sen_temp+2)^(0+384)
  1116  14EA  1683               	bsf	3,5	;RP0=1, select bank1
  1117  14EB  1303               	bcf	3,6	;RP1=0, select bank1
  1118  14EC  0844               	movf	(?___flmul+1)^(0+128),w
  1119  14ED  1683               	bsf	3,5	;RP0=1, select bank3
  1120  14EE  1703               	bsf	3,6	;RP1=1, select bank3
  1121  14EF  00C6               	movwf	(_sen_temp+1)^(0+384)
  1122  14F0  1683               	bsf	3,5	;RP0=1, select bank1
  1123  14F1  1303               	bcf	3,6	;RP1=0, select bank1
  1124  14F2  0843               	movf	?___flmul^(0+128),w
  1125  14F3  1683               	bsf	3,5	;RP0=1, select bank3
  1126  14F4  1703               	bsf	3,6	;RP1=1, select bank3
  1127  14F5  00C5               	movwf	_sen_temp^(0+384)
  1128  14F6                     l3891:
  1129                           
  1130                           ;Slave3.c: 115:         if (ADCON0bits.GO == 0){
  1131  14F6  1283               	bcf	3,5	;RP0=0, select bank0
  1132  14F7  1303               	bcf	3,6	;RP1=0, select bank0
  1133  14F8  189F               	btfsc	31,1	;volatile
  1134  14F9  2CFB               	goto	u6521
  1135  14FA  2CFC               	goto	u6520
  1136  14FB                     u6521:
  1137  14FB  2D1C               	goto	l3903
  1138  14FC                     u6520:
  1139  14FC                     l3893:
  1140                           
  1141                           ;Slave3.c: 116:             if (ADCON0bits.CHS == 0) {
  1142  14FC  0C1F               	rrf	31,w	;volatile
  1143  14FD  1683               	bsf	3,5	;RP0=1, select bank3
  1144  14FE  1703               	bsf	3,6	;RP1=1, select bank3
  1145  14FF  00B2               	movwf	??_main^(0+384)
  1146  1500  0C32               	rrf	??_main^(0+384),w
  1147  1501  390F               	andlw	15
  1148  1502  3A00               	xorlw	0
  1149  1503  1D03               	skipz
  1150  1504  2D06               	goto	u6531
  1151  1505  2D07               	goto	u6530
  1152  1506                     u6531:
  1153  1506  2D0E               	goto	l3897
  1154  1507                     u6530:
  1155  1507                     l3895:
  1156                           
  1157                           ;Slave3.c: 117:                 ADCON0bits.CHS = 1;
  1158  1507  1283               	bcf	3,5	;RP0=0, select bank0
  1159  1508  1303               	bcf	3,6	;RP1=0, select bank0
  1160  1509  081F               	movf	31,w	;volatile
  1161  150A  39C3               	andlw	-61
  1162  150B  3804               	iorlw	4
  1163  150C  009F               	movwf	31	;volatile
  1164                           
  1165                           ;Slave3.c: 118:             }
  1166  150D  2D12               	goto	l3899
  1167  150E                     l3897:
  1168                           
  1169                           ;Slave3.c: 120:                 ADCON0bits.CHS = 0;
  1170  150E  30C3               	movlw	-61
  1171  150F  1283               	bcf	3,5	;RP0=0, select bank0
  1172  1510  1303               	bcf	3,6	;RP1=0, select bank0
  1173  1511  059F               	andwf	31,f	;volatile
  1174  1512                     l3899:
  1175                           
  1176                           ;Slave3.c: 123:             _delay((unsigned long)((200)*(8000000/4000000.0)));
  1177  1512  3084               	movlw	132
  1178  1513  1683               	bsf	3,5	;RP0=1, select bank3
  1179  1514  1703               	bsf	3,6	;RP1=1, select bank3
  1180  1515  00B2               	movwf	??_main^(0+384)
  1181  1516                     u6547:
  1182  1516  0BB2               	decfsz	??_main^(0+384),f
  1183  1517  2D16               	goto	u6547
  1184  1518  0000               	nop
  1185  1519                     l3901:
  1186                           
  1187                           ;Slave3.c: 124:             ADCON0bits.GO = 1;
  1188  1519  1283               	bcf	3,5	;RP0=0, select bank0
  1189  151A  1303               	bcf	3,6	;RP1=0, select bank0
  1190  151B  149F               	bsf	31,1	;volatile
  1191  151C                     l3903:
  1192                           
  1193                           ;Slave3.c: 128:         Lcd_Set_Cursor(2, 1);
  1194  151C  01BF               	clrf	Lcd_Set_Cursor@b
  1195  151D  0ABF               	incf	Lcd_Set_Cursor@b,f
  1196  151E  3002               	movlw	2
  1197  151F  120A  118A  27CD  160A  118A  	fcall	_Lcd_Set_Cursor
  1198  1524                     l3905:
  1199                           
  1200                           ;Slave3.c: 129:         Lcd_Write_String(temperatura);
  1201  1524  30C9               	movlw	(low (_temperatura| (0+256)))& (0+255)
  1202  1525  1283               	bcf	3,5	;RP0=0, select bank0
  1203  1526  1303               	bcf	3,6	;RP1=0, select bank0
  1204  1527  00BE               	movwf	Lcd_Write_String@a
  1205  1528  3001               	movlw	1
  1206  1529  00BF               	movwf	Lcd_Write_String@a+1
  1207  152A  160A  118A  2062  160A  118A  	fcall	_Lcd_Write_String
  1208  152F                     l3907:
  1209                           
  1210                           ;Slave3.c: 130:         Lcd_Set_Cursor(2, 6);
  1211  152F  3006               	movlw	6
  1212  1530  1683               	bsf	3,5	;RP0=1, select bank3
  1213  1531  1703               	bsf	3,6	;RP1=1, select bank3
  1214  1532  00B2               	movwf	??_main^(0+384)
  1215  1533  0832               	movf	??_main^(0+384),w
  1216  1534  1283               	bcf	3,5	;RP0=0, select bank0
  1217  1535  1303               	bcf	3,6	;RP1=0, select bank0
  1218  1536  00BF               	movwf	Lcd_Set_Cursor@b
  1219  1537  3002               	movlw	2
  1220  1538  120A  118A  27CD  160A  118A  	fcall	_Lcd_Set_Cursor
  1221  153D                     l3909:
  1222                           
  1223                           ;Slave3.c: 131:         Lcd_Write_String("C");
  1224  153D  300E               	movlw	(low ((STR_4-__stringbase)| (0+32768)))& (0+255)
  1225  153E  1283               	bcf	3,5	;RP0=0, select bank0
  1226  153F  1303               	bcf	3,6	;RP1=0, select bank0
  1227  1540  00BE               	movwf	Lcd_Write_String@a
  1228  1541  3080               	movlw	128
  1229  1542  00BF               	movwf	Lcd_Write_String@a+1
  1230  1543  160A  118A  2062  160A  118A  	fcall	_Lcd_Write_String
  1231  1548                     l3911:
  1232                           
  1233                           ;Slave3.c: 135:         conv1 = 0;
  1234  1548  3000               	movlw	0
  1235  1549  1683               	bsf	3,5	;RP0=1, select bank3
  1236  154A  1703               	bsf	3,6	;RP1=1, select bank3
  1237  154B  00C4               	movwf	(_conv1+3)^(0+384)
  1238  154C  3000               	movlw	0
  1239  154D  00C3               	movwf	(_conv1+2)^(0+384)
  1240  154E  3000               	movlw	0
  1241  154F  00C2               	movwf	(_conv1+1)^(0+384)
  1242  1550  3000               	movlw	0
  1243  1551  00C1               	movwf	_conv1^(0+384)
  1244  1552                     l3913:
  1245                           
  1246                           ;Slave3.c: 136:         conv2 = 0;
  1247  1552  3000               	movlw	0
  1248  1553  00C0               	movwf	(_conv2+3)^(0+384)
  1249  1554  3000               	movlw	0
  1250  1555  00BF               	movwf	(_conv2+2)^(0+384)
  1251  1556  3000               	movlw	0
  1252  1557  00BE               	movwf	(_conv2+1)^(0+384)
  1253  1558  3000               	movlw	0
  1254  1559  00BD               	movwf	_conv2^(0+384)
  1255  155A                     l3915:
  1256                           
  1257                           ;Slave3.c: 139:         conv1 = sen_temp;
  1258  155A  0848               	movf	(_sen_temp+3)^(0+384),w
  1259  155B  00C4               	movwf	(_conv1+3)^(0+384)
  1260  155C  0847               	movf	(_sen_temp+2)^(0+384),w
  1261  155D  00C3               	movwf	(_conv1+2)^(0+384)
  1262  155E  0846               	movf	(_sen_temp+1)^(0+384),w
  1263  155F  00C2               	movwf	(_conv1+1)^(0+384)
  1264  1560  0845               	movf	_sen_temp^(0+384),w
  1265  1561  00C1               	movwf	_conv1^(0+384)
  1266  1562                     l3917:
  1267                           
  1268                           ;Slave3.c: 141:         convert(temperatura, conv1, 2);
  1269  1562  0844               	movf	(_conv1+3)^(0+384),w
  1270  1563  00A0               	movwf	(convert@a+3)^(0+384)
  1271  1564  0843               	movf	(_conv1+2)^(0+384),w
  1272  1565  009F               	movwf	(convert@a+2)^(0+384)
  1273  1566  0842               	movf	(_conv1+1)^(0+384),w
  1274  1567  009E               	movwf	(convert@a+1)^(0+384)
  1275  1568  0841               	movf	_conv1^(0+384),w
  1276  1569  009D               	movwf	convert@a^(0+384)
  1277  156A  3002               	movlw	2
  1278  156B  00A1               	movwf	convert@place^(0+384)
  1279  156C  3000               	movlw	0
  1280  156D  00A2               	movwf	(convert@place^(0+384)+1)
  1281  156E  30C9               	movlw	(low (_temperatura| (0+256)))& (0+255)
  1282  156F  120A  118A  202F  160A  118A  	fcall	_convert
  1283  1574  2C3A               	goto	l87
  1284  1575  120A  118A  2810   	ljmp	start
  1285  1578                     __end_of_main:
  1286                           
  1287                           	psect	text1
  1288  1028                     __ptext1:	
  1289 ;; *************** function _setup *****************
  1290 ;; Defined at:
  1291 ;;		line 147 in file "Slave3.c"
  1292 ;; Parameters:    Size  Location     Type
  1293 ;;		None
  1294 ;; Auto vars:     Size  Location     Type
  1295 ;;		None
  1296 ;; Return value:  Size  Location     Type
  1297 ;;                  1    wreg      void 
  1298 ;; Registers used:
  1299 ;;		wreg, status,2, status,0
  1300 ;; Tracked objects:
  1301 ;;		On entry : 0/0
  1302 ;;		On exit  : 0/0
  1303 ;;		Unchanged: 0/0
  1304 ;; Data sizes:     COMMON   BANK0   BANK1   BANK3   BANK2
  1305 ;;      Params:         0       0       0       0       0
  1306 ;;      Locals:         0       0       0       0       0
  1307 ;;      Temps:          0       1       0       0       0
  1308 ;;      Totals:         0       1       0       0       0
  1309 ;;Total ram usage:        1 bytes
  1310 ;; Hardware stack levels used:    1
  1311 ;; Hardware stack levels required when called:    2
  1312 ;; This function calls:
  1313 ;;		Nothing
  1314 ;; This function is called by:
  1315 ;;		_main
  1316 ;; This function uses a non-reentrant model
  1317 ;;
  1318                           
  1319                           
  1320                           ;psect for function _setup
  1321  1028                     _setup:
  1322  1028                     l2591:	
  1323                           ;incstack = 0
  1324                           ; Regs used in _setup: [wreg+status,2+status,0]
  1325                           
  1326                           
  1327                           ;Slave3.c: 149:     ANSEL = 0X03;
  1328  1028  3003               	movlw	3
  1329  1029  1683               	bsf	3,5	;RP0=1, select bank3
  1330  102A  1703               	bsf	3,6	;RP1=1, select bank3
  1331  102B  0088               	movwf	8	;volatile
  1332  102C                     l2593:
  1333                           
  1334                           ;Slave3.c: 150:     ANSELH = 0X00;
  1335  102C  0189               	clrf	9	;volatile
  1336  102D                     l2595:
  1337                           
  1338                           ;Slave3.c: 152:     TRISA = 0X03;
  1339  102D  3003               	movlw	3
  1340  102E  1683               	bsf	3,5	;RP0=1, select bank1
  1341  102F  1303               	bcf	3,6	;RP1=0, select bank1
  1342  1030  0085               	movwf	5	;volatile
  1343                           
  1344                           ;Slave3.c: 153:     TRISB = 0X00;
  1345  1031  0186               	clrf	6	;volatile
  1346                           
  1347                           ;Slave3.c: 154:     TRISC = 0X00;
  1348  1032  0187               	clrf	7	;volatile
  1349                           
  1350                           ;Slave3.c: 155:     TRISD = 0X00;
  1351  1033  0188               	clrf	8	;volatile
  1352                           
  1353                           ;Slave3.c: 157:     PORTA = 0X00;
  1354  1034  1283               	bcf	3,5	;RP0=0, select bank0
  1355  1035  1303               	bcf	3,6	;RP1=0, select bank0
  1356  1036  0185               	clrf	5	;volatile
  1357                           
  1358                           ;Slave3.c: 158:     PORTB = 0X00;
  1359  1037  0186               	clrf	6	;volatile
  1360                           
  1361                           ;Slave3.c: 159:     PORTC = 0X00;
  1362  1038  0187               	clrf	7	;volatile
  1363                           
  1364                           ;Slave3.c: 160:     PORTD = 0X00;
  1365  1039  0188               	clrf	8	;volatile
  1366  103A                     l2597:
  1367                           
  1368                           ;Slave3.c: 163:     OSCCONbits.IRCF2 = 1;
  1369  103A  1683               	bsf	3,5	;RP0=1, select bank1
  1370  103B  1303               	bcf	3,6	;RP1=0, select bank1
  1371  103C  170F               	bsf	15,6	;volatile
  1372  103D                     l2599:
  1373                           
  1374                           ;Slave3.c: 164:     OSCCONbits.IRCF1 = 1;
  1375  103D  168F               	bsf	15,5	;volatile
  1376  103E                     l2601:
  1377                           
  1378                           ;Slave3.c: 165:     OSCCONbits.IRCF0 = 1;
  1379  103E  160F               	bsf	15,4	;volatile
  1380  103F                     l2603:
  1381                           
  1382                           ;Slave3.c: 166:     OSCCONbits.SCS = 1;
  1383  103F  140F               	bsf	15,0	;volatile
  1384  1040                     l2605:
  1385                           
  1386                           ;Slave3.c: 169:     INTCONbits.GIE = 1;
  1387  1040  178B               	bsf	11,7	;volatile
  1388  1041                     l2607:
  1389                           
  1390                           ;Slave3.c: 170:     INTCONbits.PEIE = 1;
  1391  1041  170B               	bsf	11,6	;volatile
  1392  1042                     l2609:
  1393                           
  1394                           ;Slave3.c: 171:     PIE1bits.ADIE = 1;
  1395  1042  170C               	bsf	12,6	;volatile
  1396  1043                     l2611:
  1397                           
  1398                           ;Slave3.c: 173:     PIR1bits.ADIF = 0;
  1399  1043  1283               	bcf	3,5	;RP0=0, select bank0
  1400  1044  1303               	bcf	3,6	;RP1=0, select bank0
  1401  1045  130C               	bcf	12,6	;volatile
  1402  1046                     l2613:
  1403                           
  1404                           ;Slave3.c: 176:     ADCON1bits.ADFM = 1;
  1405  1046  1683               	bsf	3,5	;RP0=1, select bank1
  1406  1047  1303               	bcf	3,6	;RP1=0, select bank1
  1407  1048  179F               	bsf	31,7	;volatile
  1408  1049                     l2615:
  1409                           
  1410                           ;Slave3.c: 177:     ADCON1bits.VCFG0 = 0;
  1411  1049  121F               	bcf	31,4	;volatile
  1412  104A                     l2617:
  1413                           
  1414                           ;Slave3.c: 178:     ADCON1bits.VCFG1 = 0;
  1415  104A  129F               	bcf	31,5	;volatile
  1416  104B                     l2619:
  1417                           
  1418                           ;Slave3.c: 180:     ADCON0bits.ADCS1 = 1;
  1419  104B  1283               	bcf	3,5	;RP0=0, select bank0
  1420  104C  1303               	bcf	3,6	;RP1=0, select bank0
  1421  104D  179F               	bsf	31,7	;volatile
  1422  104E                     l2621:
  1423                           
  1424                           ;Slave3.c: 181:     ADCON0bits.CHS = 0;
  1425  104E  30C3               	movlw	-61
  1426  104F  059F               	andwf	31,f	;volatile
  1427  1050                     l2623:
  1428                           
  1429                           ;Slave3.c: 182:     _delay((unsigned long)((200)*(8000000/4000000.0)));
  1430  1050  3084               	movlw	132
  1431  1051  1283               	bcf	3,5	;RP0=0, select bank0
  1432  1052  1303               	bcf	3,6	;RP1=0, select bank0
  1433  1053  00BB               	movwf	??_setup
  1434  1054                     u6557:
  1435  1054  0BBB               	decfsz	??_setup,f
  1436  1055  2854               	goto	u6557
  1437  1056  0000               	nop
  1438  1057                     l2625:
  1439                           
  1440                           ;Slave3.c: 183:     ADCON0bits.ADON = 1;
  1441  1057  1283               	bcf	3,5	;RP0=0, select bank0
  1442  1058  1303               	bcf	3,6	;RP1=0, select bank0
  1443  1059  141F               	bsf	31,0	;volatile
  1444  105A                     l2627:
  1445                           
  1446                           ;Slave3.c: 184:     _delay((unsigned long)((200)*(8000000/4000000.0)));
  1447  105A  3084               	movlw	132
  1448  105B  1283               	bcf	3,5	;RP0=0, select bank0
  1449  105C  1303               	bcf	3,6	;RP1=0, select bank0
  1450  105D  00BB               	movwf	??_setup
  1451  105E                     u6567:
  1452  105E  0BBB               	decfsz	??_setup,f
  1453  105F  285E               	goto	u6567
  1454  1060  0000               	nop
  1455  1061                     l96:
  1456  1061  0008               	return
  1457  1062                     __end_of_setup:
  1458                           
  1459                           	psect	text2
  1460  002F                     __ptext2:	
  1461 ;; *************** function _convert *****************
  1462 ;; Defined at:
  1463 ;;		line 84 in file "Librerias.c"
  1464 ;; Parameters:    Size  Location     Type
  1465 ;;  data            1    wreg     PTR unsigned char 
  1466 ;;		 -> temperatura(10), 
  1467 ;;  a               4   13[BANK3 ] float 
  1468 ;;  place           2   17[BANK3 ] int 
  1469 ;; Auto vars:     Size  Location     Type
  1470 ;;  data            1   23[BANK3 ] PTR unsigned char 
  1471 ;;		 -> temperatura(10), 
  1472 ;;  x               4   24[BANK3 ] float 
  1473 ;;  mu              2   32[BANK3 ] int 
  1474 ;;  digits          2   30[BANK3 ] int 
  1475 ;;  i               2   28[BANK3 ] int 
  1476 ;;  j               2   21[BANK3 ] int 
  1477 ;;  temp            2   19[BANK3 ] int 
  1478 ;; Return value:  Size  Location     Type
  1479 ;;                  1    wreg      void 
  1480 ;; Registers used:
  1481 ;;		wreg, fsr0l, fsr0h, status,2, status,0, btemp+1, pclath, cstack
  1482 ;; Tracked objects:
  1483 ;;		On entry : 0/0
  1484 ;;		On exit  : 0/0
  1485 ;;		Unchanged: 0/0
  1486 ;; Data sizes:     COMMON   BANK0   BANK1   BANK3   BANK2
  1487 ;;      Params:         0       0       0       6       0
  1488 ;;      Locals:         0       0       0      15       0
  1489 ;;      Temps:          0       0       2       0       0
  1490 ;;      Totals:         0       0       2      21       0
  1491 ;;Total ram usage:       23 bytes
  1492 ;; Hardware stack levels used:    1
  1493 ;; Hardware stack levels required when called:    4
  1494 ;; This function calls:
  1495 ;;		___awdiv
  1496 ;;		___fldiv
  1497 ;;		___flge
  1498 ;;		___flmul
  1499 ;;		___flsub
  1500 ;;		___fltol
  1501 ;;		___wmul
  1502 ;;		___xxtofl
  1503 ;; This function is called by:
  1504 ;;		_main
  1505 ;; This function uses a non-reentrant model
  1506 ;;
  1507                           
  1508                           
  1509                           ;psect for function _convert
  1510  002F                     _convert:
  1511                           
  1512                           ;incstack = 0
  1513                           ; Regs used in _convert: [wreg-fsr0h+status,2+status,0+btemp+1+pclath+cstack]
  1514                           ;convert@data stored from wreg
  1515  002F  1683               	bsf	3,5	;RP0=1, select bank3
  1516  0030  1703               	bsf	3,6	;RP1=1, select bank3
  1517  0031  00A7               	movwf	convert@data^(0+384)
  1518  0032                     l3773:
  1519                           
  1520                           ;Librerias.c: 84: void convert(char *data,float a, int place);Librerias.c: 85: {;Libreri
      +                          as.c: 86:      int temp=a;
  1521  0032  0820               	movf	(convert@a+3)^(0+384),w
  1522  0033  1283               	bcf	3,5	;RP0=0, select bank0
  1523  0034  1303               	bcf	3,6	;RP1=0, select bank0
  1524  0035  00BE               	movwf	___fltol@f1+3
  1525  0036  1683               	bsf	3,5	;RP0=1, select bank3
  1526  0037  1703               	bsf	3,6	;RP1=1, select bank3
  1527  0038  081F               	movf	(convert@a+2)^(0+384),w
  1528  0039  1283               	bcf	3,5	;RP0=0, select bank0
  1529  003A  1303               	bcf	3,6	;RP1=0, select bank0
  1530  003B  00BD               	movwf	___fltol@f1+2
  1531  003C  1683               	bsf	3,5	;RP0=1, select bank3
  1532  003D  1703               	bsf	3,6	;RP1=1, select bank3
  1533  003E  081E               	movf	(convert@a+1)^(0+384),w
  1534  003F  1283               	bcf	3,5	;RP0=0, select bank0
  1535  0040  1303               	bcf	3,6	;RP1=0, select bank0
  1536  0041  00BC               	movwf	___fltol@f1+1
  1537  0042  1683               	bsf	3,5	;RP0=1, select bank3
  1538  0043  1703               	bsf	3,6	;RP1=1, select bank3
  1539  0044  081D               	movf	convert@a^(0+384),w
  1540  0045  1283               	bcf	3,5	;RP0=0, select bank0
  1541  0046  1303               	bcf	3,6	;RP1=0, select bank0
  1542  0047  00BB               	movwf	___fltol@f1
  1543  0048  160A  118A  21C0  120A  118A  	fcall	___fltol
  1544  004D  1283               	bcf	3,5	;RP0=0, select bank0
  1545  004E  1303               	bcf	3,6	;RP1=0, select bank0
  1546  004F  083C               	movf	?___fltol+1,w
  1547  0050  1683               	bsf	3,5	;RP0=1, select bank3
  1548  0051  1703               	bsf	3,6	;RP1=1, select bank3
  1549  0052  00A4               	movwf	(convert@temp+1)^(0+384)
  1550  0053  1283               	bcf	3,5	;RP0=0, select bank0
  1551  0054  1303               	bcf	3,6	;RP1=0, select bank0
  1552  0055  083B               	movf	?___fltol,w
  1553  0056  1683               	bsf	3,5	;RP0=1, select bank3
  1554  0057  1703               	bsf	3,6	;RP1=1, select bank3
  1555  0058  00A3               	movwf	convert@temp^(0+384)
  1556  0059                     l3775:
  1557  0059                     l3777:
  1558                           
  1559                           ;Librerias.c: 88:      int digits=0;
  1560  0059  01AE               	clrf	convert@digits^(0+384)
  1561  005A  01AF               	clrf	(convert@digits+1)^(0+384)
  1562  005B                     l3779:
  1563                           
  1564                           ;Librerias.c: 89:      int i=0,mu=1;
  1565  005B  01AC               	clrf	convert@i^(0+384)
  1566  005C  01AD               	clrf	(convert@i+1)^(0+384)
  1567  005D                     l3781:
  1568  005D  3001               	movlw	1
  1569  005E  00B0               	movwf	convert@mu^(0+384)
  1570  005F  3000               	movlw	0
  1571  0060  00B1               	movwf	(convert@mu^(0+384)+1)
  1572  0061                     l3783:
  1573  0061                     l3785:
  1574                           
  1575                           ;Librerias.c: 91:      if(a<0)
  1576  0061  0820               	movf	(convert@a+3)^(0+384),w
  1577  0062  1683               	bsf	3,5	;RP0=1, select bank1
  1578  0063  1303               	bcf	3,6	;RP1=0, select bank1
  1579  0064  00A3               	movwf	(___flge@ff1+3)^(0+128)
  1580  0065  1683               	bsf	3,5	;RP0=1, select bank3
  1581  0066  1703               	bsf	3,6	;RP1=1, select bank3
  1582  0067  081F               	movf	(convert@a+2)^(0+384),w
  1583  0068  1683               	bsf	3,5	;RP0=1, select bank1
  1584  0069  1303               	bcf	3,6	;RP1=0, select bank1
  1585  006A  00A2               	movwf	(___flge@ff1+2)^(0+128)
  1586  006B  1683               	bsf	3,5	;RP0=1, select bank3
  1587  006C  1703               	bsf	3,6	;RP1=1, select bank3
  1588  006D  081E               	movf	(convert@a+1)^(0+384),w
  1589  006E  1683               	bsf	3,5	;RP0=1, select bank1
  1590  006F  1303               	bcf	3,6	;RP1=0, select bank1
  1591  0070  00A1               	movwf	(___flge@ff1+1)^(0+128)
  1592  0071  1683               	bsf	3,5	;RP0=1, select bank3
  1593  0072  1703               	bsf	3,6	;RP1=1, select bank3
  1594  0073  081D               	movf	convert@a^(0+384),w
  1595  0074  1683               	bsf	3,5	;RP0=1, select bank1
  1596  0075  1303               	bcf	3,6	;RP1=0, select bank1
  1597  0076  00A0               	movwf	___flge@ff1^(0+128)
  1598  0077  3000               	movlw	0
  1599  0078  00A7               	movwf	(___flge@ff2+3)^(0+128)
  1600  0079  3000               	movlw	0
  1601  007A  00A6               	movwf	(___flge@ff2+2)^(0+128)
  1602  007B  3000               	movlw	0
  1603  007C  00A5               	movwf	(___flge@ff2+1)^(0+128)
  1604  007D  3000               	movlw	0
  1605  007E  00A4               	movwf	___flge@ff2^(0+128)
  1606  007F  160A  118A  2318  120A  118A  	fcall	___flge
  1607  0084  1803               	btfsc	3,0
  1608  0085  2887               	goto	u6431
  1609  0086  2888               	goto	u6430
  1610  0087                     u6431:
  1611  0087  2906               	goto	l3797
  1612  0088                     u6430:
  1613  0088                     l3787:
  1614                           
  1615                           ;Librerias.c: 92:      {;Librerias.c: 93:             a=a*-1;
  1616  0088  30BF               	movlw	191
  1617  0089  1683               	bsf	3,5	;RP0=1, select bank1
  1618  008A  1303               	bcf	3,6	;RP1=0, select bank1
  1619  008B  00C6               	movwf	(___flmul@b+3)^(0+128)
  1620  008C  3080               	movlw	128
  1621  008D  00C5               	movwf	(___flmul@b+2)^(0+128)
  1622  008E  3000               	movlw	0
  1623  008F  00C4               	movwf	(___flmul@b+1)^(0+128)
  1624  0090  3000               	movlw	0
  1625  0091  00C3               	movwf	___flmul@b^(0+128)
  1626  0092  1683               	bsf	3,5	;RP0=1, select bank3
  1627  0093  1703               	bsf	3,6	;RP1=1, select bank3
  1628  0094  0820               	movf	(convert@a+3)^(0+384),w
  1629  0095  1683               	bsf	3,5	;RP0=1, select bank1
  1630  0096  1303               	bcf	3,6	;RP1=0, select bank1
  1631  0097  00CA               	movwf	(___flmul@a+3)^(0+128)
  1632  0098  1683               	bsf	3,5	;RP0=1, select bank3
  1633  0099  1703               	bsf	3,6	;RP1=1, select bank3
  1634  009A  081F               	movf	(convert@a+2)^(0+384),w
  1635  009B  1683               	bsf	3,5	;RP0=1, select bank1
  1636  009C  1303               	bcf	3,6	;RP1=0, select bank1
  1637  009D  00C9               	movwf	(___flmul@a+2)^(0+128)
  1638  009E  1683               	bsf	3,5	;RP0=1, select bank3
  1639  009F  1703               	bsf	3,6	;RP1=1, select bank3
  1640  00A0  081E               	movf	(convert@a+1)^(0+384),w
  1641  00A1  1683               	bsf	3,5	;RP0=1, select bank1
  1642  00A2  1303               	bcf	3,6	;RP1=0, select bank1
  1643  00A3  00C8               	movwf	(___flmul@a+1)^(0+128)
  1644  00A4  1683               	bsf	3,5	;RP0=1, select bank3
  1645  00A5  1703               	bsf	3,6	;RP1=1, select bank3
  1646  00A6  081D               	movf	convert@a^(0+384),w
  1647  00A7  1683               	bsf	3,5	;RP0=1, select bank1
  1648  00A8  1303               	bcf	3,6	;RP1=0, select bank1
  1649  00A9  00C7               	movwf	___flmul@a^(0+128)
  1650  00AA  120A  158A  2445  120A  118A  	fcall	___flmul
  1651  00AF  1683               	bsf	3,5	;RP0=1, select bank1
  1652  00B0  1303               	bcf	3,6	;RP1=0, select bank1
  1653  00B1  0846               	movf	(?___flmul+3)^(0+128),w
  1654  00B2  1683               	bsf	3,5	;RP0=1, select bank3
  1655  00B3  1703               	bsf	3,6	;RP1=1, select bank3
  1656  00B4  00A0               	movwf	(convert@a+3)^(0+384)
  1657  00B5  1683               	bsf	3,5	;RP0=1, select bank1
  1658  00B6  1303               	bcf	3,6	;RP1=0, select bank1
  1659  00B7  0845               	movf	(?___flmul+2)^(0+128),w
  1660  00B8  1683               	bsf	3,5	;RP0=1, select bank3
  1661  00B9  1703               	bsf	3,6	;RP1=1, select bank3
  1662  00BA  009F               	movwf	(convert@a+2)^(0+384)
  1663  00BB  1683               	bsf	3,5	;RP0=1, select bank1
  1664  00BC  1303               	bcf	3,6	;RP1=0, select bank1
  1665  00BD  0844               	movf	(?___flmul+1)^(0+128),w
  1666  00BE  1683               	bsf	3,5	;RP0=1, select bank3
  1667  00BF  1703               	bsf	3,6	;RP1=1, select bank3
  1668  00C0  009E               	movwf	(convert@a+1)^(0+384)
  1669  00C1  1683               	bsf	3,5	;RP0=1, select bank1
  1670  00C2  1303               	bcf	3,6	;RP1=0, select bank1
  1671  00C3  0843               	movf	?___flmul^(0+128),w
  1672  00C4  1683               	bsf	3,5	;RP0=1, select bank3
  1673  00C5  1703               	bsf	3,6	;RP1=1, select bank3
  1674  00C6  009D               	movwf	convert@a^(0+384)
  1675  00C7                     l3789:
  1676                           
  1677                           ;Librerias.c: 94:             data[i]='-';
  1678  00C7  302D               	movlw	45
  1679  00C8  1683               	bsf	3,5	;RP0=1, select bank1
  1680  00C9  1303               	bcf	3,6	;RP1=0, select bank1
  1681  00CA  00EA               	movwf	??_convert^(0+128)
  1682  00CB  1683               	bsf	3,5	;RP0=1, select bank3
  1683  00CC  1703               	bsf	3,6	;RP1=1, select bank3
  1684  00CD  0827               	movf	convert@data^(0+384),w
  1685  00CE  0084               	movwf	4
  1686  00CF  1683               	bsf	3,5	;RP0=1, select bank1
  1687  00D0  1303               	bcf	3,6	;RP1=0, select bank1
  1688  00D1  086A               	movf	??_convert^(0+128),w
  1689  00D2  1783               	bsf	3,7	;select IRP bank2
  1690  00D3  0080               	movwf	0
  1691  00D4                     l3791:
  1692                           
  1693                           ;Librerias.c: 95:             i++;
  1694  00D4  3001               	movlw	1
  1695  00D5  1683               	bsf	3,5	;RP0=1, select bank3
  1696  00D6  1703               	bsf	3,6	;RP1=1, select bank3
  1697  00D7  07AC               	addwf	convert@i^(0+384),f
  1698  00D8  1803               	skipnc
  1699  00D9  0AAD               	incf	(convert@i+1)^(0+384),f
  1700  00DA  3000               	movlw	0
  1701  00DB  07AD               	addwf	(convert@i+1)^(0+384),f
  1702  00DC  2906               	goto	l3797
  1703  00DD                     l3793:
  1704                           
  1705                           ;Librerias.c: 99:      {;Librerias.c: 100:          temp=temp/10;
  1706  00DD  300A               	movlw	10
  1707  00DE  1283               	bcf	3,5	;RP0=0, select bank0
  1708  00DF  1303               	bcf	3,6	;RP1=0, select bank0
  1709  00E0  00BB               	movwf	___awdiv@divisor
  1710  00E1  3000               	movlw	0
  1711  00E2  00BC               	movwf	___awdiv@divisor+1
  1712  00E3  1683               	bsf	3,5	;RP0=1, select bank3
  1713  00E4  1703               	bsf	3,6	;RP1=1, select bank3
  1714  00E5  0824               	movf	(convert@temp+1)^(0+384),w
  1715  00E6  1283               	bcf	3,5	;RP0=0, select bank0
  1716  00E7  1303               	bcf	3,6	;RP1=0, select bank0
  1717  00E8  00BE               	movwf	___awdiv@dividend+1
  1718  00E9  1683               	bsf	3,5	;RP0=1, select bank3
  1719  00EA  1703               	bsf	3,6	;RP1=1, select bank3
  1720  00EB  0823               	movf	convert@temp^(0+384),w
  1721  00EC  1283               	bcf	3,5	;RP0=0, select bank0
  1722  00ED  1303               	bcf	3,6	;RP1=0, select bank0
  1723  00EE  00BD               	movwf	___awdiv@dividend
  1724  00EF  160A  118A  2135  120A  118A  	fcall	___awdiv
  1725  00F4  1283               	bcf	3,5	;RP0=0, select bank0
  1726  00F5  1303               	bcf	3,6	;RP1=0, select bank0
  1727  00F6  083C               	movf	?___awdiv+1,w
  1728  00F7  1683               	bsf	3,5	;RP0=1, select bank3
  1729  00F8  1703               	bsf	3,6	;RP1=1, select bank3
  1730  00F9  00A4               	movwf	(convert@temp+1)^(0+384)
  1731  00FA  1283               	bcf	3,5	;RP0=0, select bank0
  1732  00FB  1303               	bcf	3,6	;RP1=0, select bank0
  1733  00FC  083B               	movf	?___awdiv,w
  1734  00FD  1683               	bsf	3,5	;RP0=1, select bank3
  1735  00FE  1703               	bsf	3,6	;RP1=1, select bank3
  1736  00FF  00A3               	movwf	convert@temp^(0+384)
  1737  0100                     l3795:
  1738                           
  1739                           ;Librerias.c: 101:          digits++;
  1740  0100  3001               	movlw	1
  1741  0101  07AE               	addwf	convert@digits^(0+384),f
  1742  0102  1803               	skipnc
  1743  0103  0AAF               	incf	(convert@digits+1)^(0+384),f
  1744  0104  3000               	movlw	0
  1745  0105  07AF               	addwf	(convert@digits+1)^(0+384),f
  1746  0106                     l3797:
  1747                           
  1748                           ;Librerias.c: 98:      while(temp!=0)
  1749  0106  1683               	bsf	3,5	;RP0=1, select bank3
  1750  0107  1703               	bsf	3,6	;RP1=1, select bank3
  1751  0108  0823               	movf	convert@temp^(0+384),w
  1752  0109  0424               	iorwf	(convert@temp+1)^(0+384),w
  1753  010A  1D03               	btfss	3,2
  1754  010B  290D               	goto	u6441
  1755  010C  290E               	goto	u6440
  1756  010D                     u6441:
  1757  010D  28DD               	goto	l3793
  1758  010E                     u6440:
  1759  010E  2A7A               	goto	l3821
  1760  010F                     l3799:
  1761                           
  1762                           ;Librerias.c: 104:      {;Librerias.c: 105:          if(digits==1)mu=1;
  1763  010F  032E               	decf	convert@digits^(0+384),w
  1764  0110  042F               	iorwf	(convert@digits+1)^(0+384),w
  1765  0111  1D03               	btfss	3,2
  1766  0112  2914               	goto	u6451
  1767  0113  2915               	goto	u6450
  1768  0114                     u6451:
  1769  0114  291A               	goto	l3803
  1770  0115                     u6450:
  1771  0115                     l3801:
  1772  0115  3001               	movlw	1
  1773  0116  00B0               	movwf	convert@mu^(0+384)
  1774  0117  3000               	movlw	0
  1775  0118  00B1               	movwf	(convert@mu^(0+384)+1)
  1776  0119  295C               	goto	l3811
  1777  011A                     l3803:
  1778  011A  3002               	movlw	2
  1779  011B  00A5               	movwf	convert@j^(0+384)
  1780  011C  3000               	movlw	0
  1781  011D  00A6               	movwf	(convert@j^(0+384)+1)
  1782  011E  2946               	goto	l3809
  1783  011F                     l3805:
  1784  011F  1683               	bsf	3,5	;RP0=1, select bank3
  1785  0120  1703               	bsf	3,6	;RP1=1, select bank3
  1786  0121  0831               	movf	(convert@mu+1)^(0+384),w
  1787  0122  1683               	bsf	3,5	;RP0=1, select bank1
  1788  0123  1303               	bcf	3,6	;RP1=0, select bank1
  1789  0124  00A8               	movwf	(___wmul@multiplier+1)^(0+128)
  1790  0125  1683               	bsf	3,5	;RP0=1, select bank3
  1791  0126  1703               	bsf	3,6	;RP1=1, select bank3
  1792  0127  0830               	movf	convert@mu^(0+384),w
  1793  0128  1683               	bsf	3,5	;RP0=1, select bank1
  1794  0129  1303               	bcf	3,6	;RP1=0, select bank1
  1795  012A  00A7               	movwf	___wmul@multiplier^(0+128)
  1796  012B  300A               	movlw	10
  1797  012C  00A9               	movwf	___wmul@multiplicand^(0+128)
  1798  012D  3000               	movlw	0
  1799  012E  00AA               	movwf	(___wmul@multiplicand^(0+128)+1)
  1800  012F  160A  118A  2001  120A  118A  	fcall	___wmul
  1801  0134  1683               	bsf	3,5	;RP0=1, select bank1
  1802  0135  1303               	bcf	3,6	;RP1=0, select bank1
  1803  0136  0828               	movf	(?___wmul+1)^(0+128),w
  1804  0137  1683               	bsf	3,5	;RP0=1, select bank3
  1805  0138  1703               	bsf	3,6	;RP1=1, select bank3
  1806  0139  00B1               	movwf	(convert@mu+1)^(0+384)
  1807  013A  1683               	bsf	3,5	;RP0=1, select bank1
  1808  013B  1303               	bcf	3,6	;RP1=0, select bank1
  1809  013C  0827               	movf	?___wmul^(0+128),w
  1810  013D  1683               	bsf	3,5	;RP0=1, select bank3
  1811  013E  1703               	bsf	3,6	;RP1=1, select bank3
  1812  013F  00B0               	movwf	convert@mu^(0+384)
  1813  0140                     l3807:
  1814  0140  3001               	movlw	1
  1815  0141  07A5               	addwf	convert@j^(0+384),f
  1816  0142  1803               	skipnc
  1817  0143  0AA6               	incf	(convert@j+1)^(0+384),f
  1818  0144  3000               	movlw	0
  1819  0145  07A6               	addwf	(convert@j+1)^(0+384),f
  1820  0146                     l3809:
  1821  0146  082F               	movf	(convert@digits+1)^(0+384),w
  1822  0147  3A80               	xorlw	128
  1823  0148  1683               	bsf	3,5	;RP0=1, select bank1
  1824  0149  1303               	bcf	3,6	;RP1=0, select bank1
  1825  014A  00EA               	movwf	??_convert^(0+128)
  1826  014B  1683               	bsf	3,5	;RP0=1, select bank3
  1827  014C  1703               	bsf	3,6	;RP1=1, select bank3
  1828  014D  0826               	movf	(convert@j+1)^(0+384),w
  1829  014E  3A80               	xorlw	128
  1830  014F  1683               	bsf	3,5	;RP0=1, select bank1
  1831  0150  1303               	bcf	3,6	;RP1=0, select bank1
  1832  0151  026A               	subwf	??_convert^(0+128),w
  1833  0152  1D03               	skipz
  1834  0153  2958               	goto	u6465
  1835  0154  1683               	bsf	3,5	;RP0=1, select bank3
  1836  0155  1703               	bsf	3,6	;RP1=1, select bank3
  1837  0156  0825               	movf	convert@j^(0+384),w
  1838  0157  022E               	subwf	convert@digits^(0+384),w
  1839  0158                     u6465:
  1840  0158  1803               	skipnc
  1841  0159  295B               	goto	u6461
  1842  015A  295C               	goto	u6460
  1843  015B                     u6461:
  1844  015B  291F               	goto	l3805
  1845  015C                     u6460:
  1846  015C                     l3811:
  1847                           
  1848                           ;Librerias.c: 108:          x=a/mu;
  1849  015C  1683               	bsf	3,5	;RP0=1, select bank3
  1850  015D  1703               	bsf	3,6	;RP1=1, select bank3
  1851  015E  0830               	movf	convert@mu^(0+384),w
  1852  015F  1683               	bsf	3,5	;RP0=1, select bank1
  1853  0160  1303               	bcf	3,6	;RP1=0, select bank1
  1854  0161  00AD               	movwf	___xxtofl@val^(0+128)
  1855  0162  1683               	bsf	3,5	;RP0=1, select bank3
  1856  0163  1703               	bsf	3,6	;RP1=1, select bank3
  1857  0164  0831               	movf	(convert@mu+1)^(0+384),w
  1858  0165  1683               	bsf	3,5	;RP0=1, select bank1
  1859  0166  1303               	bcf	3,6	;RP1=0, select bank1
  1860  0167  00AE               	movwf	(___xxtofl@val+1)^(0+128)
  1861  0168  3000               	movlw	0
  1862  0169  1BAE               	btfsc	(___xxtofl@val+1)^(0+128),7
  1863  016A  30FF               	movlw	255
  1864  016B  00AF               	movwf	(___xxtofl@val+2)^(0+128)
  1865  016C  00B0               	movwf	(___xxtofl@val+3)^(0+128)
  1866  016D  3001               	movlw	1
  1867  016E  120A  158A  204B  120A  118A  	fcall	___xxtofl
  1868  0173  1683               	bsf	3,5	;RP0=1, select bank1
  1869  0174  1303               	bcf	3,6	;RP1=0, select bank1
  1870  0175  0830               	movf	(?___xxtofl+3)^(0+128),w
  1871  0176  00E0               	movwf	(___fldiv@a+3)^(0+128)
  1872  0177  082F               	movf	(?___xxtofl+2)^(0+128),w
  1873  0178  00DF               	movwf	(___fldiv@a+2)^(0+128)
  1874  0179  082E               	movf	(?___xxtofl+1)^(0+128),w
  1875  017A  00DE               	movwf	(___fldiv@a+1)^(0+128)
  1876  017B  082D               	movf	?___xxtofl^(0+128),w
  1877  017C  00DD               	movwf	___fldiv@a^(0+128)
  1878  017D  1683               	bsf	3,5	;RP0=1, select bank3
  1879  017E  1703               	bsf	3,6	;RP1=1, select bank3
  1880  017F  0820               	movf	(convert@a+3)^(0+384),w
  1881  0180  1683               	bsf	3,5	;RP0=1, select bank1
  1882  0181  1303               	bcf	3,6	;RP1=0, select bank1
  1883  0182  00E4               	movwf	(___fldiv@b+3)^(0+128)
  1884  0183  1683               	bsf	3,5	;RP0=1, select bank3
  1885  0184  1703               	bsf	3,6	;RP1=1, select bank3
  1886  0185  081F               	movf	(convert@a+2)^(0+384),w
  1887  0186  1683               	bsf	3,5	;RP0=1, select bank1
  1888  0187  1303               	bcf	3,6	;RP1=0, select bank1
  1889  0188  00E3               	movwf	(___fldiv@b+2)^(0+128)
  1890  0189  1683               	bsf	3,5	;RP0=1, select bank3
  1891  018A  1703               	bsf	3,6	;RP1=1, select bank3
  1892  018B  081E               	movf	(convert@a+1)^(0+384),w
  1893  018C  1683               	bsf	3,5	;RP0=1, select bank1
  1894  018D  1303               	bcf	3,6	;RP1=0, select bank1
  1895  018E  00E2               	movwf	(___fldiv@b+1)^(0+128)
  1896  018F  1683               	bsf	3,5	;RP0=1, select bank3
  1897  0190  1703               	bsf	3,6	;RP1=1, select bank3
  1898  0191  081D               	movf	convert@a^(0+384),w
  1899  0192  1683               	bsf	3,5	;RP0=1, select bank1
  1900  0193  1303               	bcf	3,6	;RP1=0, select bank1
  1901  0194  00E1               	movwf	___fldiv@b^(0+128)
  1902  0195  120A  118A  252D  120A  118A  	fcall	___fldiv
  1903  019A  1683               	bsf	3,5	;RP0=1, select bank1
  1904  019B  1303               	bcf	3,6	;RP1=0, select bank1
  1905  019C  0860               	movf	(?___fldiv+3)^(0+128),w
  1906  019D  1683               	bsf	3,5	;RP0=1, select bank3
  1907  019E  1703               	bsf	3,6	;RP1=1, select bank3
  1908  019F  00AB               	movwf	(convert@x+3)^(0+384)
  1909  01A0  1683               	bsf	3,5	;RP0=1, select bank1
  1910  01A1  1303               	bcf	3,6	;RP1=0, select bank1
  1911  01A2  085F               	movf	(?___fldiv+2)^(0+128),w
  1912  01A3  1683               	bsf	3,5	;RP0=1, select bank3
  1913  01A4  1703               	bsf	3,6	;RP1=1, select bank3
  1914  01A5  00AA               	movwf	(convert@x+2)^(0+384)
  1915  01A6  1683               	bsf	3,5	;RP0=1, select bank1
  1916  01A7  1303               	bcf	3,6	;RP1=0, select bank1
  1917  01A8  085E               	movf	(?___fldiv+1)^(0+128),w
  1918  01A9  1683               	bsf	3,5	;RP0=1, select bank3
  1919  01AA  1703               	bsf	3,6	;RP1=1, select bank3
  1920  01AB  00A9               	movwf	(convert@x+1)^(0+384)
  1921  01AC  1683               	bsf	3,5	;RP0=1, select bank1
  1922  01AD  1303               	bcf	3,6	;RP1=0, select bank1
  1923  01AE  085D               	movf	?___fldiv^(0+128),w
  1924  01AF  1683               	bsf	3,5	;RP0=1, select bank3
  1925  01B0  1703               	bsf	3,6	;RP1=1, select bank3
  1926  01B1  00A8               	movwf	convert@x^(0+384)
  1927                           
  1928                           ;Librerias.c: 109:          a=a-((int)x*mu);
  1929  01B2  0831               	movf	(convert@mu+1)^(0+384),w
  1930  01B3  1683               	bsf	3,5	;RP0=1, select bank1
  1931  01B4  1303               	bcf	3,6	;RP1=0, select bank1
  1932  01B5  00AA               	movwf	(___wmul@multiplicand+1)^(0+128)
  1933  01B6  1683               	bsf	3,5	;RP0=1, select bank3
  1934  01B7  1703               	bsf	3,6	;RP1=1, select bank3
  1935  01B8  0830               	movf	convert@mu^(0+384),w
  1936  01B9  1683               	bsf	3,5	;RP0=1, select bank1
  1937  01BA  1303               	bcf	3,6	;RP1=0, select bank1
  1938  01BB  00A9               	movwf	___wmul@multiplicand^(0+128)
  1939  01BC  1683               	bsf	3,5	;RP0=1, select bank3
  1940  01BD  1703               	bsf	3,6	;RP1=1, select bank3
  1941  01BE  082B               	movf	(convert@x+3)^(0+384),w
  1942  01BF  1283               	bcf	3,5	;RP0=0, select bank0
  1943  01C0  1303               	bcf	3,6	;RP1=0, select bank0
  1944  01C1  00BE               	movwf	___fltol@f1+3
  1945  01C2  1683               	bsf	3,5	;RP0=1, select bank3
  1946  01C3  1703               	bsf	3,6	;RP1=1, select bank3
  1947  01C4  082A               	movf	(convert@x+2)^(0+384),w
  1948  01C5  1283               	bcf	3,5	;RP0=0, select bank0
  1949  01C6  1303               	bcf	3,6	;RP1=0, select bank0
  1950  01C7  00BD               	movwf	___fltol@f1+2
  1951  01C8  1683               	bsf	3,5	;RP0=1, select bank3
  1952  01C9  1703               	bsf	3,6	;RP1=1, select bank3
  1953  01CA  0829               	movf	(convert@x+1)^(0+384),w
  1954  01CB  1283               	bcf	3,5	;RP0=0, select bank0
  1955  01CC  1303               	bcf	3,6	;RP1=0, select bank0
  1956  01CD  00BC               	movwf	___fltol@f1+1
  1957  01CE  1683               	bsf	3,5	;RP0=1, select bank3
  1958  01CF  1703               	bsf	3,6	;RP1=1, select bank3
  1959  01D0  0828               	movf	convert@x^(0+384),w
  1960  01D1  1283               	bcf	3,5	;RP0=0, select bank0
  1961  01D2  1303               	bcf	3,6	;RP1=0, select bank0
  1962  01D3  00BB               	movwf	___fltol@f1
  1963  01D4  160A  118A  21C0  120A  118A  	fcall	___fltol
  1964  01D9  1283               	bcf	3,5	;RP0=0, select bank0
  1965  01DA  1303               	bcf	3,6	;RP1=0, select bank0
  1966  01DB  083C               	movf	?___fltol+1,w
  1967  01DC  1683               	bsf	3,5	;RP0=1, select bank1
  1968  01DD  1303               	bcf	3,6	;RP1=0, select bank1
  1969  01DE  00A8               	movwf	(___wmul@multiplier+1)^(0+128)
  1970  01DF  1283               	bcf	3,5	;RP0=0, select bank0
  1971  01E0  1303               	bcf	3,6	;RP1=0, select bank0
  1972  01E1  083B               	movf	?___fltol,w
  1973  01E2  1683               	bsf	3,5	;RP0=1, select bank1
  1974  01E3  1303               	bcf	3,6	;RP1=0, select bank1
  1975  01E4  00A7               	movwf	___wmul@multiplier^(0+128)
  1976  01E5  160A  118A  2001  120A  118A  	fcall	___wmul
  1977  01EA  1683               	bsf	3,5	;RP0=1, select bank1
  1978  01EB  1303               	bcf	3,6	;RP1=0, select bank1
  1979  01EC  0827               	movf	?___wmul^(0+128),w
  1980  01ED  00AD               	movwf	___xxtofl@val^(0+128)
  1981  01EE  0828               	movf	(?___wmul+1)^(0+128),w
  1982  01EF  00AE               	movwf	(___xxtofl@val+1)^(0+128)
  1983  01F0  3000               	movlw	0
  1984  01F1  1BAE               	btfsc	(___xxtofl@val+1)^(0+128),7
  1985  01F2  30FF               	movlw	255
  1986  01F3  00AF               	movwf	(___xxtofl@val+2)^(0+128)
  1987  01F4  00B0               	movwf	(___xxtofl@val+3)^(0+128)
  1988  01F5  3001               	movlw	1
  1989  01F6  120A  158A  204B  120A  118A  	fcall	___xxtofl
  1990  01FB  1683               	bsf	3,5	;RP0=1, select bank1
  1991  01FC  1303               	bcf	3,6	;RP1=0, select bank1
  1992  01FD  0830               	movf	(?___xxtofl+3)^(0+128),w
  1993  01FE  00BE               	movwf	(___flsub@a+3)^(0+128)
  1994  01FF  082F               	movf	(?___xxtofl+2)^(0+128),w
  1995  0200  00BD               	movwf	(___flsub@a+2)^(0+128)
  1996  0201  082E               	movf	(?___xxtofl+1)^(0+128),w
  1997  0202  00BC               	movwf	(___flsub@a+1)^(0+128)
  1998  0203  082D               	movf	?___xxtofl^(0+128),w
  1999  0204  00BB               	movwf	___flsub@a^(0+128)
  2000  0205  1683               	bsf	3,5	;RP0=1, select bank3
  2001  0206  1703               	bsf	3,6	;RP1=1, select bank3
  2002  0207  0820               	movf	(convert@a+3)^(0+384),w
  2003  0208  1683               	bsf	3,5	;RP0=1, select bank1
  2004  0209  1303               	bcf	3,6	;RP1=0, select bank1
  2005  020A  00C2               	movwf	(___flsub@b+3)^(0+128)
  2006  020B  1683               	bsf	3,5	;RP0=1, select bank3
  2007  020C  1703               	bsf	3,6	;RP1=1, select bank3
  2008  020D  081F               	movf	(convert@a+2)^(0+384),w
  2009  020E  1683               	bsf	3,5	;RP0=1, select bank1
  2010  020F  1303               	bcf	3,6	;RP1=0, select bank1
  2011  0210  00C1               	movwf	(___flsub@b+2)^(0+128)
  2012  0211  1683               	bsf	3,5	;RP0=1, select bank3
  2013  0212  1703               	bsf	3,6	;RP1=1, select bank3
  2014  0213  081E               	movf	(convert@a+1)^(0+384),w
  2015  0214  1683               	bsf	3,5	;RP0=1, select bank1
  2016  0215  1303               	bcf	3,6	;RP1=0, select bank1
  2017  0216  00C0               	movwf	(___flsub@b+1)^(0+128)
  2018  0217  1683               	bsf	3,5	;RP0=1, select bank3
  2019  0218  1703               	bsf	3,6	;RP1=1, select bank3
  2020  0219  081D               	movf	convert@a^(0+384),w
  2021  021A  1683               	bsf	3,5	;RP0=1, select bank1
  2022  021B  1303               	bcf	3,6	;RP1=0, select bank1
  2023  021C  00BF               	movwf	___flsub@b^(0+128)
  2024  021D  160A  158A  27A5  120A  118A  	fcall	___flsub
  2025  0222  1683               	bsf	3,5	;RP0=1, select bank1
  2026  0223  1303               	bcf	3,6	;RP1=0, select bank1
  2027  0224  083E               	movf	(?___flsub+3)^(0+128),w
  2028  0225  1683               	bsf	3,5	;RP0=1, select bank3
  2029  0226  1703               	bsf	3,6	;RP1=1, select bank3
  2030  0227  00A0               	movwf	(convert@a+3)^(0+384)
  2031  0228  1683               	bsf	3,5	;RP0=1, select bank1
  2032  0229  1303               	bcf	3,6	;RP1=0, select bank1
  2033  022A  083D               	movf	(?___flsub+2)^(0+128),w
  2034  022B  1683               	bsf	3,5	;RP0=1, select bank3
  2035  022C  1703               	bsf	3,6	;RP1=1, select bank3
  2036  022D  009F               	movwf	(convert@a+2)^(0+384)
  2037  022E  1683               	bsf	3,5	;RP0=1, select bank1
  2038  022F  1303               	bcf	3,6	;RP1=0, select bank1
  2039  0230  083C               	movf	(?___flsub+1)^(0+128),w
  2040  0231  1683               	bsf	3,5	;RP0=1, select bank3
  2041  0232  1703               	bsf	3,6	;RP1=1, select bank3
  2042  0233  009E               	movwf	(convert@a+1)^(0+384)
  2043  0234  1683               	bsf	3,5	;RP0=1, select bank1
  2044  0235  1303               	bcf	3,6	;RP1=0, select bank1
  2045  0236  083B               	movf	?___flsub^(0+128),w
  2046  0237  1683               	bsf	3,5	;RP0=1, select bank3
  2047  0238  1703               	bsf	3,6	;RP1=1, select bank3
  2048  0239  009D               	movwf	convert@a^(0+384)
  2049  023A                     l3813:
  2050                           
  2051                           ;Librerias.c: 110:          data[i]=0x30+((int)x);
  2052  023A  082B               	movf	(convert@x+3)^(0+384),w
  2053  023B  1283               	bcf	3,5	;RP0=0, select bank0
  2054  023C  1303               	bcf	3,6	;RP1=0, select bank0
  2055  023D  00BE               	movwf	___fltol@f1+3
  2056  023E  1683               	bsf	3,5	;RP0=1, select bank3
  2057  023F  1703               	bsf	3,6	;RP1=1, select bank3
  2058  0240  082A               	movf	(convert@x+2)^(0+384),w
  2059  0241  1283               	bcf	3,5	;RP0=0, select bank0
  2060  0242  1303               	bcf	3,6	;RP1=0, select bank0
  2061  0243  00BD               	movwf	___fltol@f1+2
  2062  0244  1683               	bsf	3,5	;RP0=1, select bank3
  2063  0245  1703               	bsf	3,6	;RP1=1, select bank3
  2064  0246  0829               	movf	(convert@x+1)^(0+384),w
  2065  0247  1283               	bcf	3,5	;RP0=0, select bank0
  2066  0248  1303               	bcf	3,6	;RP1=0, select bank0
  2067  0249  00BC               	movwf	___fltol@f1+1
  2068  024A  1683               	bsf	3,5	;RP0=1, select bank3
  2069  024B  1703               	bsf	3,6	;RP1=1, select bank3
  2070  024C  0828               	movf	convert@x^(0+384),w
  2071  024D  1283               	bcf	3,5	;RP0=0, select bank0
  2072  024E  1303               	bcf	3,6	;RP1=0, select bank0
  2073  024F  00BB               	movwf	___fltol@f1
  2074  0250  160A  118A  21C0  120A  118A  	fcall	___fltol
  2075  0255  1283               	bcf	3,5	;RP0=0, select bank0
  2076  0256  1303               	bcf	3,6	;RP1=0, select bank0
  2077  0257  083B               	movf	?___fltol,w
  2078  0258  3E30               	addlw	48
  2079  0259  1683               	bsf	3,5	;RP0=1, select bank1
  2080  025A  1303               	bcf	3,6	;RP1=0, select bank1
  2081  025B  00EA               	movwf	??_convert^(0+128)
  2082  025C  1683               	bsf	3,5	;RP0=1, select bank3
  2083  025D  1703               	bsf	3,6	;RP1=1, select bank3
  2084  025E  082C               	movf	convert@i^(0+384),w
  2085  025F  0727               	addwf	convert@data^(0+384),w
  2086  0260  1683               	bsf	3,5	;RP0=1, select bank1
  2087  0261  1303               	bcf	3,6	;RP1=0, select bank1
  2088  0262  00EB               	movwf	(??_convert+1)^(0+128)
  2089  0263  086B               	movf	(??_convert+1)^(0+128),w
  2090  0264  0084               	movwf	4
  2091  0265  086A               	movf	??_convert^(0+128),w
  2092  0266  1783               	bsf	3,7	;select IRP bank2
  2093  0267  0080               	movwf	0
  2094  0268                     l3815:
  2095                           
  2096                           ;Librerias.c: 111:          i++;
  2097  0268  3001               	movlw	1
  2098  0269  1683               	bsf	3,5	;RP0=1, select bank3
  2099  026A  1703               	bsf	3,6	;RP1=1, select bank3
  2100  026B  07AC               	addwf	convert@i^(0+384),f
  2101  026C  1803               	skipnc
  2102  026D  0AAD               	incf	(convert@i+1)^(0+384),f
  2103  026E  3000               	movlw	0
  2104  026F  07AD               	addwf	(convert@i+1)^(0+384),f
  2105  0270                     l3817:
  2106                           
  2107                           ;Librerias.c: 112:          digits--;
  2108  0270  30FF               	movlw	255
  2109  0271  07AE               	addwf	convert@digits^(0+384),f
  2110  0272  1803               	skipnc
  2111  0273  0AAF               	incf	(convert@digits+1)^(0+384),f
  2112  0274  30FF               	movlw	255
  2113  0275  07AF               	addwf	(convert@digits+1)^(0+384),f
  2114  0276                     l3819:
  2115                           
  2116                           ;Librerias.c: 113:          mu=1;
  2117  0276  3001               	movlw	1
  2118  0277  00B0               	movwf	convert@mu^(0+384)
  2119  0278  3000               	movlw	0
  2120  0279  00B1               	movwf	(convert@mu^(0+384)+1)
  2121  027A                     l3821:
  2122                           
  2123                           ;Librerias.c: 103:      while(digits!=0)
  2124  027A  082E               	movf	convert@digits^(0+384),w
  2125  027B  042F               	iorwf	(convert@digits+1)^(0+384),w
  2126  027C  1D03               	btfss	3,2
  2127  027D  2A7F               	goto	u6471
  2128  027E  2A80               	goto	u6470
  2129  027F                     u6471:
  2130  027F  290F               	goto	l3799
  2131  0280                     u6470:
  2132  0280                     l3823:
  2133                           
  2134                           ;Librerias.c: 116:      data[i]='.';
  2135  0280  302E               	movlw	46
  2136  0281  1683               	bsf	3,5	;RP0=1, select bank1
  2137  0282  1303               	bcf	3,6	;RP1=0, select bank1
  2138  0283  00EA               	movwf	??_convert^(0+128)
  2139  0284  1683               	bsf	3,5	;RP0=1, select bank3
  2140  0285  1703               	bsf	3,6	;RP1=1, select bank3
  2141  0286  082C               	movf	convert@i^(0+384),w
  2142  0287  0727               	addwf	convert@data^(0+384),w
  2143  0288  1683               	bsf	3,5	;RP0=1, select bank1
  2144  0289  1303               	bcf	3,6	;RP1=0, select bank1
  2145  028A  00EB               	movwf	(??_convert+1)^(0+128)
  2146  028B  086B               	movf	(??_convert+1)^(0+128),w
  2147  028C  0084               	movwf	4
  2148  028D  086A               	movf	??_convert^(0+128),w
  2149  028E  1783               	bsf	3,7	;select IRP bank2
  2150  028F  0080               	movwf	0
  2151  0290                     l3825:
  2152                           
  2153                           ;Librerias.c: 117:      i++;
  2154  0290  3001               	movlw	1
  2155  0291  1683               	bsf	3,5	;RP0=1, select bank3
  2156  0292  1703               	bsf	3,6	;RP1=1, select bank3
  2157  0293  07AC               	addwf	convert@i^(0+384),f
  2158  0294  1803               	skipnc
  2159  0295  0AAD               	incf	(convert@i+1)^(0+384),f
  2160  0296  3000               	movlw	0
  2161  0297  07AD               	addwf	(convert@i+1)^(0+384),f
  2162  0298                     l3827:
  2163  0298                     l3829:
  2164                           
  2165                           ;Librerias.c: 119:      for(j=1;j<=place;j++)mu=mu*10;
  2166  0298  3001               	movlw	1
  2167  0299  00A5               	movwf	convert@j^(0+384)
  2168  029A  3000               	movlw	0
  2169  029B  00A6               	movwf	(convert@j^(0+384)+1)
  2170  029C  2AC4               	goto	l3835
  2171  029D                     l3831:
  2172  029D  1683               	bsf	3,5	;RP0=1, select bank3
  2173  029E  1703               	bsf	3,6	;RP1=1, select bank3
  2174  029F  0831               	movf	(convert@mu+1)^(0+384),w
  2175  02A0  1683               	bsf	3,5	;RP0=1, select bank1
  2176  02A1  1303               	bcf	3,6	;RP1=0, select bank1
  2177  02A2  00A8               	movwf	(___wmul@multiplier+1)^(0+128)
  2178  02A3  1683               	bsf	3,5	;RP0=1, select bank3
  2179  02A4  1703               	bsf	3,6	;RP1=1, select bank3
  2180  02A5  0830               	movf	convert@mu^(0+384),w
  2181  02A6  1683               	bsf	3,5	;RP0=1, select bank1
  2182  02A7  1303               	bcf	3,6	;RP1=0, select bank1
  2183  02A8  00A7               	movwf	___wmul@multiplier^(0+128)
  2184  02A9  300A               	movlw	10
  2185  02AA  00A9               	movwf	___wmul@multiplicand^(0+128)
  2186  02AB  3000               	movlw	0
  2187  02AC  00AA               	movwf	(___wmul@multiplicand^(0+128)+1)
  2188  02AD  160A  118A  2001  120A  118A  	fcall	___wmul
  2189  02B2  1683               	bsf	3,5	;RP0=1, select bank1
  2190  02B3  1303               	bcf	3,6	;RP1=0, select bank1
  2191  02B4  0828               	movf	(?___wmul+1)^(0+128),w
  2192  02B5  1683               	bsf	3,5	;RP0=1, select bank3
  2193  02B6  1703               	bsf	3,6	;RP1=1, select bank3
  2194  02B7  00B1               	movwf	(convert@mu+1)^(0+384)
  2195  02B8  1683               	bsf	3,5	;RP0=1, select bank1
  2196  02B9  1303               	bcf	3,6	;RP1=0, select bank1
  2197  02BA  0827               	movf	?___wmul^(0+128),w
  2198  02BB  1683               	bsf	3,5	;RP0=1, select bank3
  2199  02BC  1703               	bsf	3,6	;RP1=1, select bank3
  2200  02BD  00B0               	movwf	convert@mu^(0+384)
  2201  02BE                     l3833:
  2202  02BE  3001               	movlw	1
  2203  02BF  07A5               	addwf	convert@j^(0+384),f
  2204  02C0  1803               	skipnc
  2205  02C1  0AA6               	incf	(convert@j+1)^(0+384),f
  2206  02C2  3000               	movlw	0
  2207  02C3  07A6               	addwf	(convert@j+1)^(0+384),f
  2208  02C4                     l3835:
  2209  02C4  0822               	movf	(convert@place+1)^(0+384),w
  2210  02C5  3A80               	xorlw	128
  2211  02C6  1683               	bsf	3,5	;RP0=1, select bank1
  2212  02C7  1303               	bcf	3,6	;RP1=0, select bank1
  2213  02C8  00EA               	movwf	??_convert^(0+128)
  2214  02C9  1683               	bsf	3,5	;RP0=1, select bank3
  2215  02CA  1703               	bsf	3,6	;RP1=1, select bank3
  2216  02CB  0826               	movf	(convert@j+1)^(0+384),w
  2217  02CC  3A80               	xorlw	128
  2218  02CD  1683               	bsf	3,5	;RP0=1, select bank1
  2219  02CE  1303               	bcf	3,6	;RP1=0, select bank1
  2220  02CF  026A               	subwf	??_convert^(0+128),w
  2221  02D0  1D03               	skipz
  2222  02D1  2AD6               	goto	u6485
  2223  02D2  1683               	bsf	3,5	;RP0=1, select bank3
  2224  02D3  1703               	bsf	3,6	;RP1=1, select bank3
  2225  02D4  0825               	movf	convert@j^(0+384),w
  2226  02D5  0221               	subwf	convert@place^(0+384),w
  2227  02D6                     u6485:
  2228  02D6  1803               	skipnc
  2229  02D7  2AD9               	goto	u6481
  2230  02D8  2ADA               	goto	u6480
  2231  02D9                     u6481:
  2232  02D9  2A9D               	goto	l3831
  2233  02DA                     u6480:
  2234  02DA                     l3837:
  2235                           
  2236                           ;Librerias.c: 120:      x=(a-(int)a)*mu;
  2237  02DA  1683               	bsf	3,5	;RP0=1, select bank3
  2238  02DB  1703               	bsf	3,6	;RP1=1, select bank3
  2239  02DC  0830               	movf	convert@mu^(0+384),w
  2240  02DD  1683               	bsf	3,5	;RP0=1, select bank1
  2241  02DE  1303               	bcf	3,6	;RP1=0, select bank1
  2242  02DF  00AD               	movwf	___xxtofl@val^(0+128)
  2243  02E0  1683               	bsf	3,5	;RP0=1, select bank3
  2244  02E1  1703               	bsf	3,6	;RP1=1, select bank3
  2245  02E2  0831               	movf	(convert@mu+1)^(0+384),w
  2246  02E3  1683               	bsf	3,5	;RP0=1, select bank1
  2247  02E4  1303               	bcf	3,6	;RP1=0, select bank1
  2248  02E5  00AE               	movwf	(___xxtofl@val+1)^(0+128)
  2249  02E6  3000               	movlw	0
  2250  02E7  1BAE               	btfsc	(___xxtofl@val+1)^(0+128),7
  2251  02E8  30FF               	movlw	255
  2252  02E9  00AF               	movwf	(___xxtofl@val+2)^(0+128)
  2253  02EA  00B0               	movwf	(___xxtofl@val+3)^(0+128)
  2254  02EB  3001               	movlw	1
  2255  02EC  120A  158A  204B  120A  118A  	fcall	___xxtofl
  2256  02F1  1683               	bsf	3,5	;RP0=1, select bank1
  2257  02F2  1303               	bcf	3,6	;RP1=0, select bank1
  2258  02F3  0830               	movf	(?___xxtofl+3)^(0+128),w
  2259  02F4  00C6               	movwf	(___flmul@b+3)^(0+128)
  2260  02F5  082F               	movf	(?___xxtofl+2)^(0+128),w
  2261  02F6  00C5               	movwf	(___flmul@b+2)^(0+128)
  2262  02F7  082E               	movf	(?___xxtofl+1)^(0+128),w
  2263  02F8  00C4               	movwf	(___flmul@b+1)^(0+128)
  2264  02F9  082D               	movf	?___xxtofl^(0+128),w
  2265  02FA  00C3               	movwf	___flmul@b^(0+128)
  2266  02FB  1683               	bsf	3,5	;RP0=1, select bank3
  2267  02FC  1703               	bsf	3,6	;RP1=1, select bank3
  2268  02FD  0820               	movf	(convert@a+3)^(0+384),w
  2269  02FE  1283               	bcf	3,5	;RP0=0, select bank0
  2270  02FF  1303               	bcf	3,6	;RP1=0, select bank0
  2271  0300  00BE               	movwf	___fltol@f1+3
  2272  0301  1683               	bsf	3,5	;RP0=1, select bank3
  2273  0302  1703               	bsf	3,6	;RP1=1, select bank3
  2274  0303  081F               	movf	(convert@a+2)^(0+384),w
  2275  0304  1283               	bcf	3,5	;RP0=0, select bank0
  2276  0305  1303               	bcf	3,6	;RP1=0, select bank0
  2277  0306  00BD               	movwf	___fltol@f1+2
  2278  0307  1683               	bsf	3,5	;RP0=1, select bank3
  2279  0308  1703               	bsf	3,6	;RP1=1, select bank3
  2280  0309  081E               	movf	(convert@a+1)^(0+384),w
  2281  030A  1283               	bcf	3,5	;RP0=0, select bank0
  2282  030B  1303               	bcf	3,6	;RP1=0, select bank0
  2283  030C  00BC               	movwf	___fltol@f1+1
  2284  030D  1683               	bsf	3,5	;RP0=1, select bank3
  2285  030E  1703               	bsf	3,6	;RP1=1, select bank3
  2286  030F  081D               	movf	convert@a^(0+384),w
  2287  0310  1283               	bcf	3,5	;RP0=0, select bank0
  2288  0311  1303               	bcf	3,6	;RP1=0, select bank0
  2289  0312  00BB               	movwf	___fltol@f1
  2290  0313  160A  118A  21C0  120A  118A  	fcall	___fltol
  2291  0318  1283               	bcf	3,5	;RP0=0, select bank0
  2292  0319  1303               	bcf	3,6	;RP1=0, select bank0
  2293  031A  083B               	movf	?___fltol,w
  2294  031B  1683               	bsf	3,5	;RP0=1, select bank1
  2295  031C  1303               	bcf	3,6	;RP1=0, select bank1
  2296  031D  00AD               	movwf	___xxtofl@val^(0+128)
  2297  031E  1283               	bcf	3,5	;RP0=0, select bank0
  2298  031F  1303               	bcf	3,6	;RP1=0, select bank0
  2299  0320  083C               	movf	?___fltol+1,w
  2300  0321  1683               	bsf	3,5	;RP0=1, select bank1
  2301  0322  1303               	bcf	3,6	;RP1=0, select bank1
  2302  0323  00AE               	movwf	(___xxtofl@val+1)^(0+128)
  2303  0324  3000               	movlw	0
  2304  0325  1BAE               	btfsc	(___xxtofl@val+1)^(0+128),7
  2305  0326  30FF               	movlw	255
  2306  0327  00AF               	movwf	(___xxtofl@val+2)^(0+128)
  2307  0328  00B0               	movwf	(___xxtofl@val+3)^(0+128)
  2308  0329  3001               	movlw	1
  2309  032A  120A  158A  204B  120A  118A  	fcall	___xxtofl
  2310  032F  1683               	bsf	3,5	;RP0=1, select bank1
  2311  0330  1303               	bcf	3,6	;RP1=0, select bank1
  2312  0331  0830               	movf	(?___xxtofl+3)^(0+128),w
  2313  0332  00BE               	movwf	(___flsub@a+3)^(0+128)
  2314  0333  082F               	movf	(?___xxtofl+2)^(0+128),w
  2315  0334  00BD               	movwf	(___flsub@a+2)^(0+128)
  2316  0335  082E               	movf	(?___xxtofl+1)^(0+128),w
  2317  0336  00BC               	movwf	(___flsub@a+1)^(0+128)
  2318  0337  082D               	movf	?___xxtofl^(0+128),w
  2319  0338  00BB               	movwf	___flsub@a^(0+128)
  2320  0339  1683               	bsf	3,5	;RP0=1, select bank3
  2321  033A  1703               	bsf	3,6	;RP1=1, select bank3
  2322  033B  0820               	movf	(convert@a+3)^(0+384),w
  2323  033C  1683               	bsf	3,5	;RP0=1, select bank1
  2324  033D  1303               	bcf	3,6	;RP1=0, select bank1
  2325  033E  00C2               	movwf	(___flsub@b+3)^(0+128)
  2326  033F  1683               	bsf	3,5	;RP0=1, select bank3
  2327  0340  1703               	bsf	3,6	;RP1=1, select bank3
  2328  0341  081F               	movf	(convert@a+2)^(0+384),w
  2329  0342  1683               	bsf	3,5	;RP0=1, select bank1
  2330  0343  1303               	bcf	3,6	;RP1=0, select bank1
  2331  0344  00C1               	movwf	(___flsub@b+2)^(0+128)
  2332  0345  1683               	bsf	3,5	;RP0=1, select bank3
  2333  0346  1703               	bsf	3,6	;RP1=1, select bank3
  2334  0347  081E               	movf	(convert@a+1)^(0+384),w
  2335  0348  1683               	bsf	3,5	;RP0=1, select bank1
  2336  0349  1303               	bcf	3,6	;RP1=0, select bank1
  2337  034A  00C0               	movwf	(___flsub@b+1)^(0+128)
  2338  034B  1683               	bsf	3,5	;RP0=1, select bank3
  2339  034C  1703               	bsf	3,6	;RP1=1, select bank3
  2340  034D  081D               	movf	convert@a^(0+384),w
  2341  034E  1683               	bsf	3,5	;RP0=1, select bank1
  2342  034F  1303               	bcf	3,6	;RP1=0, select bank1
  2343  0350  00BF               	movwf	___flsub@b^(0+128)
  2344  0351  160A  158A  27A5  120A  118A  	fcall	___flsub
  2345  0356  1683               	bsf	3,5	;RP0=1, select bank1
  2346  0357  1303               	bcf	3,6	;RP1=0, select bank1
  2347  0358  083E               	movf	(?___flsub+3)^(0+128),w
  2348  0359  00CA               	movwf	(___flmul@a+3)^(0+128)
  2349  035A  083D               	movf	(?___flsub+2)^(0+128),w
  2350  035B  00C9               	movwf	(___flmul@a+2)^(0+128)
  2351  035C  083C               	movf	(?___flsub+1)^(0+128),w
  2352  035D  00C8               	movwf	(___flmul@a+1)^(0+128)
  2353  035E  083B               	movf	?___flsub^(0+128),w
  2354  035F  00C7               	movwf	___flmul@a^(0+128)
  2355  0360  120A  158A  2445  120A  118A  	fcall	___flmul
  2356  0365  1683               	bsf	3,5	;RP0=1, select bank1
  2357  0366  1303               	bcf	3,6	;RP1=0, select bank1
  2358  0367  0846               	movf	(?___flmul+3)^(0+128),w
  2359  0368  1683               	bsf	3,5	;RP0=1, select bank3
  2360  0369  1703               	bsf	3,6	;RP1=1, select bank3
  2361  036A  00AB               	movwf	(convert@x+3)^(0+384)
  2362  036B  1683               	bsf	3,5	;RP0=1, select bank1
  2363  036C  1303               	bcf	3,6	;RP1=0, select bank1
  2364  036D  0845               	movf	(?___flmul+2)^(0+128),w
  2365  036E  1683               	bsf	3,5	;RP0=1, select bank3
  2366  036F  1703               	bsf	3,6	;RP1=1, select bank3
  2367  0370  00AA               	movwf	(convert@x+2)^(0+384)
  2368  0371  1683               	bsf	3,5	;RP0=1, select bank1
  2369  0372  1303               	bcf	3,6	;RP1=0, select bank1
  2370  0373  0844               	movf	(?___flmul+1)^(0+128),w
  2371  0374  1683               	bsf	3,5	;RP0=1, select bank3
  2372  0375  1703               	bsf	3,6	;RP1=1, select bank3
  2373  0376  00A9               	movwf	(convert@x+1)^(0+384)
  2374  0377  1683               	bsf	3,5	;RP0=1, select bank1
  2375  0378  1303               	bcf	3,6	;RP1=0, select bank1
  2376  0379  0843               	movf	?___flmul^(0+128),w
  2377  037A  1683               	bsf	3,5	;RP0=1, select bank3
  2378  037B  1703               	bsf	3,6	;RP1=1, select bank3
  2379  037C  00A8               	movwf	convert@x^(0+384)
  2380  037D                     l3839:
  2381                           
  2382                           ;Librerias.c: 121:      a=x;
  2383  037D  082B               	movf	(convert@x+3)^(0+384),w
  2384  037E  00A0               	movwf	(convert@a+3)^(0+384)
  2385  037F  082A               	movf	(convert@x+2)^(0+384),w
  2386  0380  009F               	movwf	(convert@a+2)^(0+384)
  2387  0381  0829               	movf	(convert@x+1)^(0+384),w
  2388  0382  009E               	movwf	(convert@a+1)^(0+384)
  2389  0383  0828               	movf	convert@x^(0+384),w
  2390  0384  009D               	movwf	convert@a^(0+384)
  2391  0385                     l3841:
  2392  0385  0820               	movf	(convert@a+3)^(0+384),w
  2393  0386  1283               	bcf	3,5	;RP0=0, select bank0
  2394  0387  1303               	bcf	3,6	;RP1=0, select bank0
  2395  0388  00BE               	movwf	___fltol@f1+3
  2396  0389  1683               	bsf	3,5	;RP0=1, select bank3
  2397  038A  1703               	bsf	3,6	;RP1=1, select bank3
  2398  038B  081F               	movf	(convert@a+2)^(0+384),w
  2399  038C  1283               	bcf	3,5	;RP0=0, select bank0
  2400  038D  1303               	bcf	3,6	;RP1=0, select bank0
  2401  038E  00BD               	movwf	___fltol@f1+2
  2402  038F  1683               	bsf	3,5	;RP0=1, select bank3
  2403  0390  1703               	bsf	3,6	;RP1=1, select bank3
  2404  0391  081E               	movf	(convert@a+1)^(0+384),w
  2405  0392  1283               	bcf	3,5	;RP0=0, select bank0
  2406  0393  1303               	bcf	3,6	;RP1=0, select bank0
  2407  0394  00BC               	movwf	___fltol@f1+1
  2408  0395  1683               	bsf	3,5	;RP0=1, select bank3
  2409  0396  1703               	bsf	3,6	;RP1=1, select bank3
  2410  0397  081D               	movf	convert@a^(0+384),w
  2411  0398  1283               	bcf	3,5	;RP0=0, select bank0
  2412  0399  1303               	bcf	3,6	;RP1=0, select bank0
  2413  039A  00BB               	movwf	___fltol@f1
  2414  039B  160A  118A  21C0  120A  118A  	fcall	___fltol
  2415  03A0                     l3843:
  2416  03A0                     l3845:
  2417                           
  2418                           ;Librerias.c: 124:      mu=1;
  2419  03A0  3001               	movlw	1
  2420  03A1  1683               	bsf	3,5	;RP0=1, select bank3
  2421  03A2  1703               	bsf	3,6	;RP1=1, select bank3
  2422  03A3  00B0               	movwf	convert@mu^(0+384)
  2423  03A4  3000               	movlw	0
  2424  03A5  00B1               	movwf	(convert@mu^(0+384)+1)
  2425  03A6                     l3847:
  2426                           
  2427                           ;Librerias.c: 125:      digits=place;
  2428  03A6  0822               	movf	(convert@place+1)^(0+384),w
  2429  03A7  00AF               	movwf	(convert@digits+1)^(0+384)
  2430  03A8  0821               	movf	convert@place^(0+384),w
  2431  03A9  00AE               	movwf	convert@digits^(0+384)
  2432                           
  2433                           ;Librerias.c: 126:      while(digits!=0)
  2434  03AA  2D16               	goto	l3871
  2435  03AB                     l3849:
  2436                           
  2437                           ;Librerias.c: 127:      {;Librerias.c: 128:          if(digits==1)mu=1;
  2438  03AB  032E               	decf	convert@digits^(0+384),w
  2439  03AC  042F               	iorwf	(convert@digits+1)^(0+384),w
  2440  03AD  1D03               	btfss	3,2
  2441  03AE  2BB0               	goto	u6491
  2442  03AF  2BB1               	goto	u6490
  2443  03B0                     u6491:
  2444  03B0  2BB6               	goto	l3853
  2445  03B1                     u6490:
  2446  03B1                     l3851:
  2447  03B1  3001               	movlw	1
  2448  03B2  00B0               	movwf	convert@mu^(0+384)
  2449  03B3  3000               	movlw	0
  2450  03B4  00B1               	movwf	(convert@mu^(0+384)+1)
  2451  03B5  2BF8               	goto	l3861
  2452  03B6                     l3853:
  2453  03B6  3002               	movlw	2
  2454  03B7  00A5               	movwf	convert@j^(0+384)
  2455  03B8  3000               	movlw	0
  2456  03B9  00A6               	movwf	(convert@j^(0+384)+1)
  2457  03BA  2BE2               	goto	l3859
  2458  03BB                     l3855:
  2459  03BB  1683               	bsf	3,5	;RP0=1, select bank3
  2460  03BC  1703               	bsf	3,6	;RP1=1, select bank3
  2461  03BD  0831               	movf	(convert@mu+1)^(0+384),w
  2462  03BE  1683               	bsf	3,5	;RP0=1, select bank1
  2463  03BF  1303               	bcf	3,6	;RP1=0, select bank1
  2464  03C0  00A8               	movwf	(___wmul@multiplier+1)^(0+128)
  2465  03C1  1683               	bsf	3,5	;RP0=1, select bank3
  2466  03C2  1703               	bsf	3,6	;RP1=1, select bank3
  2467  03C3  0830               	movf	convert@mu^(0+384),w
  2468  03C4  1683               	bsf	3,5	;RP0=1, select bank1
  2469  03C5  1303               	bcf	3,6	;RP1=0, select bank1
  2470  03C6  00A7               	movwf	___wmul@multiplier^(0+128)
  2471  03C7  300A               	movlw	10
  2472  03C8  00A9               	movwf	___wmul@multiplicand^(0+128)
  2473  03C9  3000               	movlw	0
  2474  03CA  00AA               	movwf	(___wmul@multiplicand^(0+128)+1)
  2475  03CB  160A  118A  2001  120A  118A  	fcall	___wmul
  2476  03D0  1683               	bsf	3,5	;RP0=1, select bank1
  2477  03D1  1303               	bcf	3,6	;RP1=0, select bank1
  2478  03D2  0828               	movf	(?___wmul+1)^(0+128),w
  2479  03D3  1683               	bsf	3,5	;RP0=1, select bank3
  2480  03D4  1703               	bsf	3,6	;RP1=1, select bank3
  2481  03D5  00B1               	movwf	(convert@mu+1)^(0+384)
  2482  03D6  1683               	bsf	3,5	;RP0=1, select bank1
  2483  03D7  1303               	bcf	3,6	;RP1=0, select bank1
  2484  03D8  0827               	movf	?___wmul^(0+128),w
  2485  03D9  1683               	bsf	3,5	;RP0=1, select bank3
  2486  03DA  1703               	bsf	3,6	;RP1=1, select bank3
  2487  03DB  00B0               	movwf	convert@mu^(0+384)
  2488  03DC                     l3857:
  2489  03DC  3001               	movlw	1
  2490  03DD  07A5               	addwf	convert@j^(0+384),f
  2491  03DE  1803               	skipnc
  2492  03DF  0AA6               	incf	(convert@j+1)^(0+384),f
  2493  03E0  3000               	movlw	0
  2494  03E1  07A6               	addwf	(convert@j+1)^(0+384),f
  2495  03E2                     l3859:
  2496  03E2  082F               	movf	(convert@digits+1)^(0+384),w
  2497  03E3  3A80               	xorlw	128
  2498  03E4  1683               	bsf	3,5	;RP0=1, select bank1
  2499  03E5  1303               	bcf	3,6	;RP1=0, select bank1
  2500  03E6  00EA               	movwf	??_convert^(0+128)
  2501  03E7  1683               	bsf	3,5	;RP0=1, select bank3
  2502  03E8  1703               	bsf	3,6	;RP1=1, select bank3
  2503  03E9  0826               	movf	(convert@j+1)^(0+384),w
  2504  03EA  3A80               	xorlw	128
  2505  03EB  1683               	bsf	3,5	;RP0=1, select bank1
  2506  03EC  1303               	bcf	3,6	;RP1=0, select bank1
  2507  03ED  026A               	subwf	??_convert^(0+128),w
  2508  03EE  1D03               	skipz
  2509  03EF  2BF4               	goto	u6505
  2510  03F0  1683               	bsf	3,5	;RP0=1, select bank3
  2511  03F1  1703               	bsf	3,6	;RP1=1, select bank3
  2512  03F2  0825               	movf	convert@j^(0+384),w
  2513  03F3  022E               	subwf	convert@digits^(0+384),w
  2514  03F4                     u6505:
  2515  03F4  1803               	skipnc
  2516  03F5  2BF7               	goto	u6501
  2517  03F6  2BF8               	goto	u6500
  2518  03F7                     u6501:
  2519  03F7  2BBB               	goto	l3855
  2520  03F8                     u6500:
  2521  03F8                     l3861:
  2522                           
  2523                           ;Librerias.c: 131:          x=a/mu;
  2524  03F8  1683               	bsf	3,5	;RP0=1, select bank3
  2525  03F9  1703               	bsf	3,6	;RP1=1, select bank3
  2526  03FA  0830               	movf	convert@mu^(0+384),w
  2527  03FB  1683               	bsf	3,5	;RP0=1, select bank1
  2528  03FC  1303               	bcf	3,6	;RP1=0, select bank1
  2529  03FD  00AD               	movwf	___xxtofl@val^(0+128)
  2530  03FE  1683               	bsf	3,5	;RP0=1, select bank3
  2531  03FF  1703               	bsf	3,6	;RP1=1, select bank3
  2532  0400  0831               	movf	(convert@mu+1)^(0+384),w
  2533  0401  1683               	bsf	3,5	;RP0=1, select bank1
  2534  0402  1303               	bcf	3,6	;RP1=0, select bank1
  2535  0403  00AE               	movwf	(___xxtofl@val+1)^(0+128)
  2536  0404  3000               	movlw	0
  2537  0405  1BAE               	btfsc	(___xxtofl@val+1)^(0+128),7
  2538  0406  30FF               	movlw	255
  2539  0407  00AF               	movwf	(___xxtofl@val+2)^(0+128)
  2540  0408  00B0               	movwf	(___xxtofl@val+3)^(0+128)
  2541  0409  3001               	movlw	1
  2542  040A  120A  158A  204B  120A  118A  	fcall	___xxtofl
  2543  040F  1683               	bsf	3,5	;RP0=1, select bank1
  2544  0410  1303               	bcf	3,6	;RP1=0, select bank1
  2545  0411  0830               	movf	(?___xxtofl+3)^(0+128),w
  2546  0412  00E0               	movwf	(___fldiv@a+3)^(0+128)
  2547  0413  082F               	movf	(?___xxtofl+2)^(0+128),w
  2548  0414  00DF               	movwf	(___fldiv@a+2)^(0+128)
  2549  0415  082E               	movf	(?___xxtofl+1)^(0+128),w
  2550  0416  00DE               	movwf	(___fldiv@a+1)^(0+128)
  2551  0417  082D               	movf	?___xxtofl^(0+128),w
  2552  0418  00DD               	movwf	___fldiv@a^(0+128)
  2553  0419  1683               	bsf	3,5	;RP0=1, select bank3
  2554  041A  1703               	bsf	3,6	;RP1=1, select bank3
  2555  041B  0820               	movf	(convert@a+3)^(0+384),w
  2556  041C  1683               	bsf	3,5	;RP0=1, select bank1
  2557  041D  1303               	bcf	3,6	;RP1=0, select bank1
  2558  041E  00E4               	movwf	(___fldiv@b+3)^(0+128)
  2559  041F  1683               	bsf	3,5	;RP0=1, select bank3
  2560  0420  1703               	bsf	3,6	;RP1=1, select bank3
  2561  0421  081F               	movf	(convert@a+2)^(0+384),w
  2562  0422  1683               	bsf	3,5	;RP0=1, select bank1
  2563  0423  1303               	bcf	3,6	;RP1=0, select bank1
  2564  0424  00E3               	movwf	(___fldiv@b+2)^(0+128)
  2565  0425  1683               	bsf	3,5	;RP0=1, select bank3
  2566  0426  1703               	bsf	3,6	;RP1=1, select bank3
  2567  0427  081E               	movf	(convert@a+1)^(0+384),w
  2568  0428  1683               	bsf	3,5	;RP0=1, select bank1
  2569  0429  1303               	bcf	3,6	;RP1=0, select bank1
  2570  042A  00E2               	movwf	(___fldiv@b+1)^(0+128)
  2571  042B  1683               	bsf	3,5	;RP0=1, select bank3
  2572  042C  1703               	bsf	3,6	;RP1=1, select bank3
  2573  042D  081D               	movf	convert@a^(0+384),w
  2574  042E  1683               	bsf	3,5	;RP0=1, select bank1
  2575  042F  1303               	bcf	3,6	;RP1=0, select bank1
  2576  0430  00E1               	movwf	___fldiv@b^(0+128)
  2577  0431  120A  118A  252D  120A  118A  	fcall	___fldiv
  2578  0436  1683               	bsf	3,5	;RP0=1, select bank1
  2579  0437  1303               	bcf	3,6	;RP1=0, select bank1
  2580  0438  0860               	movf	(?___fldiv+3)^(0+128),w
  2581  0439  1683               	bsf	3,5	;RP0=1, select bank3
  2582  043A  1703               	bsf	3,6	;RP1=1, select bank3
  2583  043B  00AB               	movwf	(convert@x+3)^(0+384)
  2584  043C  1683               	bsf	3,5	;RP0=1, select bank1
  2585  043D  1303               	bcf	3,6	;RP1=0, select bank1
  2586  043E  085F               	movf	(?___fldiv+2)^(0+128),w
  2587  043F  1683               	bsf	3,5	;RP0=1, select bank3
  2588  0440  1703               	bsf	3,6	;RP1=1, select bank3
  2589  0441  00AA               	movwf	(convert@x+2)^(0+384)
  2590  0442  1683               	bsf	3,5	;RP0=1, select bank1
  2591  0443  1303               	bcf	3,6	;RP1=0, select bank1
  2592  0444  085E               	movf	(?___fldiv+1)^(0+128),w
  2593  0445  1683               	bsf	3,5	;RP0=1, select bank3
  2594  0446  1703               	bsf	3,6	;RP1=1, select bank3
  2595  0447  00A9               	movwf	(convert@x+1)^(0+384)
  2596  0448  1683               	bsf	3,5	;RP0=1, select bank1
  2597  0449  1303               	bcf	3,6	;RP1=0, select bank1
  2598  044A  085D               	movf	?___fldiv^(0+128),w
  2599  044B  1683               	bsf	3,5	;RP0=1, select bank3
  2600  044C  1703               	bsf	3,6	;RP1=1, select bank3
  2601  044D  00A8               	movwf	convert@x^(0+384)
  2602                           
  2603                           ;Librerias.c: 132:          a=a-((int)x*mu);
  2604  044E  0831               	movf	(convert@mu+1)^(0+384),w
  2605  044F  1683               	bsf	3,5	;RP0=1, select bank1
  2606  0450  1303               	bcf	3,6	;RP1=0, select bank1
  2607  0451  00AA               	movwf	(___wmul@multiplicand+1)^(0+128)
  2608  0452  1683               	bsf	3,5	;RP0=1, select bank3
  2609  0453  1703               	bsf	3,6	;RP1=1, select bank3
  2610  0454  0830               	movf	convert@mu^(0+384),w
  2611  0455  1683               	bsf	3,5	;RP0=1, select bank1
  2612  0456  1303               	bcf	3,6	;RP1=0, select bank1
  2613  0457  00A9               	movwf	___wmul@multiplicand^(0+128)
  2614  0458  1683               	bsf	3,5	;RP0=1, select bank3
  2615  0459  1703               	bsf	3,6	;RP1=1, select bank3
  2616  045A  082B               	movf	(convert@x+3)^(0+384),w
  2617  045B  1283               	bcf	3,5	;RP0=0, select bank0
  2618  045C  1303               	bcf	3,6	;RP1=0, select bank0
  2619  045D  00BE               	movwf	___fltol@f1+3
  2620  045E  1683               	bsf	3,5	;RP0=1, select bank3
  2621  045F  1703               	bsf	3,6	;RP1=1, select bank3
  2622  0460  082A               	movf	(convert@x+2)^(0+384),w
  2623  0461  1283               	bcf	3,5	;RP0=0, select bank0
  2624  0462  1303               	bcf	3,6	;RP1=0, select bank0
  2625  0463  00BD               	movwf	___fltol@f1+2
  2626  0464  1683               	bsf	3,5	;RP0=1, select bank3
  2627  0465  1703               	bsf	3,6	;RP1=1, select bank3
  2628  0466  0829               	movf	(convert@x+1)^(0+384),w
  2629  0467  1283               	bcf	3,5	;RP0=0, select bank0
  2630  0468  1303               	bcf	3,6	;RP1=0, select bank0
  2631  0469  00BC               	movwf	___fltol@f1+1
  2632  046A  1683               	bsf	3,5	;RP0=1, select bank3
  2633  046B  1703               	bsf	3,6	;RP1=1, select bank3
  2634  046C  0828               	movf	convert@x^(0+384),w
  2635  046D  1283               	bcf	3,5	;RP0=0, select bank0
  2636  046E  1303               	bcf	3,6	;RP1=0, select bank0
  2637  046F  00BB               	movwf	___fltol@f1
  2638  0470  160A  118A  21C0  120A  118A  	fcall	___fltol
  2639  0475  1283               	bcf	3,5	;RP0=0, select bank0
  2640  0476  1303               	bcf	3,6	;RP1=0, select bank0
  2641  0477  083C               	movf	?___fltol+1,w
  2642  0478  1683               	bsf	3,5	;RP0=1, select bank1
  2643  0479  1303               	bcf	3,6	;RP1=0, select bank1
  2644  047A  00A8               	movwf	(___wmul@multiplier+1)^(0+128)
  2645  047B  1283               	bcf	3,5	;RP0=0, select bank0
  2646  047C  1303               	bcf	3,6	;RP1=0, select bank0
  2647  047D  083B               	movf	?___fltol,w
  2648  047E  1683               	bsf	3,5	;RP0=1, select bank1
  2649  047F  1303               	bcf	3,6	;RP1=0, select bank1
  2650  0480  00A7               	movwf	___wmul@multiplier^(0+128)
  2651  0481  160A  118A  2001  120A  118A  	fcall	___wmul
  2652  0486  1683               	bsf	3,5	;RP0=1, select bank1
  2653  0487  1303               	bcf	3,6	;RP1=0, select bank1
  2654  0488  0827               	movf	?___wmul^(0+128),w
  2655  0489  00AD               	movwf	___xxtofl@val^(0+128)
  2656  048A  0828               	movf	(?___wmul+1)^(0+128),w
  2657  048B  00AE               	movwf	(___xxtofl@val+1)^(0+128)
  2658  048C  3000               	movlw	0
  2659  048D  1BAE               	btfsc	(___xxtofl@val+1)^(0+128),7
  2660  048E  30FF               	movlw	255
  2661  048F  00AF               	movwf	(___xxtofl@val+2)^(0+128)
  2662  0490  00B0               	movwf	(___xxtofl@val+3)^(0+128)
  2663  0491  3001               	movlw	1
  2664  0492  120A  158A  204B  120A  118A  	fcall	___xxtofl
  2665  0497  1683               	bsf	3,5	;RP0=1, select bank1
  2666  0498  1303               	bcf	3,6	;RP1=0, select bank1
  2667  0499  0830               	movf	(?___xxtofl+3)^(0+128),w
  2668  049A  00BE               	movwf	(___flsub@a+3)^(0+128)
  2669  049B  082F               	movf	(?___xxtofl+2)^(0+128),w
  2670  049C  00BD               	movwf	(___flsub@a+2)^(0+128)
  2671  049D  082E               	movf	(?___xxtofl+1)^(0+128),w
  2672  049E  00BC               	movwf	(___flsub@a+1)^(0+128)
  2673  049F  082D               	movf	?___xxtofl^(0+128),w
  2674  04A0  00BB               	movwf	___flsub@a^(0+128)
  2675  04A1  1683               	bsf	3,5	;RP0=1, select bank3
  2676  04A2  1703               	bsf	3,6	;RP1=1, select bank3
  2677  04A3  0820               	movf	(convert@a+3)^(0+384),w
  2678  04A4  1683               	bsf	3,5	;RP0=1, select bank1
  2679  04A5  1303               	bcf	3,6	;RP1=0, select bank1
  2680  04A6  00C2               	movwf	(___flsub@b+3)^(0+128)
  2681  04A7  1683               	bsf	3,5	;RP0=1, select bank3
  2682  04A8  1703               	bsf	3,6	;RP1=1, select bank3
  2683  04A9  081F               	movf	(convert@a+2)^(0+384),w
  2684  04AA  1683               	bsf	3,5	;RP0=1, select bank1
  2685  04AB  1303               	bcf	3,6	;RP1=0, select bank1
  2686  04AC  00C1               	movwf	(___flsub@b+2)^(0+128)
  2687  04AD  1683               	bsf	3,5	;RP0=1, select bank3
  2688  04AE  1703               	bsf	3,6	;RP1=1, select bank3
  2689  04AF  081E               	movf	(convert@a+1)^(0+384),w
  2690  04B0  1683               	bsf	3,5	;RP0=1, select bank1
  2691  04B1  1303               	bcf	3,6	;RP1=0, select bank1
  2692  04B2  00C0               	movwf	(___flsub@b+1)^(0+128)
  2693  04B3  1683               	bsf	3,5	;RP0=1, select bank3
  2694  04B4  1703               	bsf	3,6	;RP1=1, select bank3
  2695  04B5  081D               	movf	convert@a^(0+384),w
  2696  04B6  1683               	bsf	3,5	;RP0=1, select bank1
  2697  04B7  1303               	bcf	3,6	;RP1=0, select bank1
  2698  04B8  00BF               	movwf	___flsub@b^(0+128)
  2699  04B9  160A  158A  27A5  120A  118A  	fcall	___flsub
  2700  04BE  1683               	bsf	3,5	;RP0=1, select bank1
  2701  04BF  1303               	bcf	3,6	;RP1=0, select bank1
  2702  04C0  083E               	movf	(?___flsub+3)^(0+128),w
  2703  04C1  1683               	bsf	3,5	;RP0=1, select bank3
  2704  04C2  1703               	bsf	3,6	;RP1=1, select bank3
  2705  04C3  00A0               	movwf	(convert@a+3)^(0+384)
  2706  04C4  1683               	bsf	3,5	;RP0=1, select bank1
  2707  04C5  1303               	bcf	3,6	;RP1=0, select bank1
  2708  04C6  083D               	movf	(?___flsub+2)^(0+128),w
  2709  04C7  1683               	bsf	3,5	;RP0=1, select bank3
  2710  04C8  1703               	bsf	3,6	;RP1=1, select bank3
  2711  04C9  009F               	movwf	(convert@a+2)^(0+384)
  2712  04CA  1683               	bsf	3,5	;RP0=1, select bank1
  2713  04CB  1303               	bcf	3,6	;RP1=0, select bank1
  2714  04CC  083C               	movf	(?___flsub+1)^(0+128),w
  2715  04CD  1683               	bsf	3,5	;RP0=1, select bank3
  2716  04CE  1703               	bsf	3,6	;RP1=1, select bank3
  2717  04CF  009E               	movwf	(convert@a+1)^(0+384)
  2718  04D0  1683               	bsf	3,5	;RP0=1, select bank1
  2719  04D1  1303               	bcf	3,6	;RP1=0, select bank1
  2720  04D2  083B               	movf	?___flsub^(0+128),w
  2721  04D3  1683               	bsf	3,5	;RP0=1, select bank3
  2722  04D4  1703               	bsf	3,6	;RP1=1, select bank3
  2723  04D5  009D               	movwf	convert@a^(0+384)
  2724  04D6                     l3863:
  2725                           
  2726                           ;Librerias.c: 133:          data[i]=0x30+((int)x);
  2727  04D6  082B               	movf	(convert@x+3)^(0+384),w
  2728  04D7  1283               	bcf	3,5	;RP0=0, select bank0
  2729  04D8  1303               	bcf	3,6	;RP1=0, select bank0
  2730  04D9  00BE               	movwf	___fltol@f1+3
  2731  04DA  1683               	bsf	3,5	;RP0=1, select bank3
  2732  04DB  1703               	bsf	3,6	;RP1=1, select bank3
  2733  04DC  082A               	movf	(convert@x+2)^(0+384),w
  2734  04DD  1283               	bcf	3,5	;RP0=0, select bank0
  2735  04DE  1303               	bcf	3,6	;RP1=0, select bank0
  2736  04DF  00BD               	movwf	___fltol@f1+2
  2737  04E0  1683               	bsf	3,5	;RP0=1, select bank3
  2738  04E1  1703               	bsf	3,6	;RP1=1, select bank3
  2739  04E2  0829               	movf	(convert@x+1)^(0+384),w
  2740  04E3  1283               	bcf	3,5	;RP0=0, select bank0
  2741  04E4  1303               	bcf	3,6	;RP1=0, select bank0
  2742  04E5  00BC               	movwf	___fltol@f1+1
  2743  04E6  1683               	bsf	3,5	;RP0=1, select bank3
  2744  04E7  1703               	bsf	3,6	;RP1=1, select bank3
  2745  04E8  0828               	movf	convert@x^(0+384),w
  2746  04E9  1283               	bcf	3,5	;RP0=0, select bank0
  2747  04EA  1303               	bcf	3,6	;RP1=0, select bank0
  2748  04EB  00BB               	movwf	___fltol@f1
  2749  04EC  160A  118A  21C0  120A  118A  	fcall	___fltol
  2750  04F1  1283               	bcf	3,5	;RP0=0, select bank0
  2751  04F2  1303               	bcf	3,6	;RP1=0, select bank0
  2752  04F3  083B               	movf	?___fltol,w
  2753  04F4  3E30               	addlw	48
  2754  04F5  1683               	bsf	3,5	;RP0=1, select bank1
  2755  04F6  1303               	bcf	3,6	;RP1=0, select bank1
  2756  04F7  00EA               	movwf	??_convert^(0+128)
  2757  04F8  1683               	bsf	3,5	;RP0=1, select bank3
  2758  04F9  1703               	bsf	3,6	;RP1=1, select bank3
  2759  04FA  082C               	movf	convert@i^(0+384),w
  2760  04FB  0727               	addwf	convert@data^(0+384),w
  2761  04FC  1683               	bsf	3,5	;RP0=1, select bank1
  2762  04FD  1303               	bcf	3,6	;RP1=0, select bank1
  2763  04FE  00EB               	movwf	(??_convert+1)^(0+128)
  2764  04FF  086B               	movf	(??_convert+1)^(0+128),w
  2765  0500  0084               	movwf	4
  2766  0501  086A               	movf	??_convert^(0+128),w
  2767  0502  1783               	bsf	3,7	;select IRP bank2
  2768  0503  0080               	movwf	0
  2769  0504                     l3865:
  2770                           
  2771                           ;Librerias.c: 134:          i++;
  2772  0504  3001               	movlw	1
  2773  0505  1683               	bsf	3,5	;RP0=1, select bank3
  2774  0506  1703               	bsf	3,6	;RP1=1, select bank3
  2775  0507  07AC               	addwf	convert@i^(0+384),f
  2776  0508  1803               	skipnc
  2777  0509  0AAD               	incf	(convert@i+1)^(0+384),f
  2778  050A  3000               	movlw	0
  2779  050B  07AD               	addwf	(convert@i+1)^(0+384),f
  2780  050C                     l3867:
  2781                           
  2782                           ;Librerias.c: 135:          digits--;
  2783  050C  30FF               	movlw	255
  2784  050D  07AE               	addwf	convert@digits^(0+384),f
  2785  050E  1803               	skipnc
  2786  050F  0AAF               	incf	(convert@digits+1)^(0+384),f
  2787  0510  30FF               	movlw	255
  2788  0511  07AF               	addwf	(convert@digits+1)^(0+384),f
  2789  0512                     l3869:
  2790                           
  2791                           ;Librerias.c: 136:          mu=1;
  2792  0512  3001               	movlw	1
  2793  0513  00B0               	movwf	convert@mu^(0+384)
  2794  0514  3000               	movlw	0
  2795  0515  00B1               	movwf	(convert@mu^(0+384)+1)
  2796  0516                     l3871:
  2797                           
  2798                           ;Librerias.c: 126:      while(digits!=0)
  2799  0516  082E               	movf	convert@digits^(0+384),w
  2800  0517  042F               	iorwf	(convert@digits+1)^(0+384),w
  2801  0518  1D03               	btfss	3,2
  2802  0519  2D1B               	goto	u6511
  2803  051A  2D1C               	goto	u6510
  2804  051B                     u6511:
  2805  051B  2BAB               	goto	l3849
  2806  051C                     u6510:
  2807  051C                     l3873:
  2808                           
  2809                           ;Librerias.c: 139:     data[i]='\n';
  2810  051C  300A               	movlw	10
  2811  051D  1683               	bsf	3,5	;RP0=1, select bank1
  2812  051E  1303               	bcf	3,6	;RP1=0, select bank1
  2813  051F  00EA               	movwf	??_convert^(0+128)
  2814  0520  1683               	bsf	3,5	;RP0=1, select bank3
  2815  0521  1703               	bsf	3,6	;RP1=1, select bank3
  2816  0522  082C               	movf	convert@i^(0+384),w
  2817  0523  0727               	addwf	convert@data^(0+384),w
  2818  0524  1683               	bsf	3,5	;RP0=1, select bank1
  2819  0525  1303               	bcf	3,6	;RP1=0, select bank1
  2820  0526  00EB               	movwf	(??_convert+1)^(0+128)
  2821  0527  086B               	movf	(??_convert+1)^(0+128),w
  2822  0528  0084               	movwf	4
  2823  0529  086A               	movf	??_convert^(0+128),w
  2824  052A  1783               	bsf	3,7	;select IRP bank2
  2825  052B  0080               	movwf	0
  2826  052C                     l161:
  2827  052C  0008               	return
  2828  052D                     __end_of_convert:
  2829                           
  2830                           	psect	text3
  2831  084B                     __ptext3:	
  2832 ;; *************** function ___xxtofl *****************
  2833 ;; Defined at:
  2834 ;;		line 10 in file "C:\Program Files\Microchip\xc8\v2.31\pic\sources\c90\common\xxtofl.c"
  2835 ;; Parameters:    Size  Location     Type
  2836 ;;  sign            1    wreg     unsigned char 
  2837 ;;  val             4   13[BANK1 ] long 
  2838 ;; Auto vars:     Size  Location     Type
  2839 ;;  sign            1   21[BANK1 ] unsigned char 
  2840 ;;  arg             4   23[BANK1 ] unsigned long 
  2841 ;;  exp             1   22[BANK1 ] unsigned char 
  2842 ;; Return value:  Size  Location     Type
  2843 ;;                  4   13[BANK1 ] unsigned char 
  2844 ;; Registers used:
  2845 ;;		wreg, status,2, status,0
  2846 ;; Tracked objects:
  2847 ;;		On entry : 0/0
  2848 ;;		On exit  : 0/0
  2849 ;;		Unchanged: 0/0
  2850 ;; Data sizes:     COMMON   BANK0   BANK1   BANK3   BANK2
  2851 ;;      Params:         0       0       4       0       0
  2852 ;;      Locals:         0       0       6       0       0
  2853 ;;      Temps:          0       0       4       0       0
  2854 ;;      Totals:         0       0      14       0       0
  2855 ;;Total ram usage:       14 bytes
  2856 ;; Hardware stack levels used:    1
  2857 ;; Hardware stack levels required when called:    2
  2858 ;; This function calls:
  2859 ;;		Nothing
  2860 ;; This function is called by:
  2861 ;;		_convert
  2862 ;; This function uses a non-reentrant model
  2863 ;;
  2864                           
  2865                           
  2866                           ;psect for function ___xxtofl
  2867  084B                     ___xxtofl:
  2868                           
  2869                           ;incstack = 0
  2870                           ; Regs used in ___xxtofl: [wreg+status,2+status,0]
  2871                           ;___xxtofl@sign stored from wreg
  2872  084B  1683               	bsf	3,5	;RP0=1, select bank1
  2873  084C  1303               	bcf	3,6	;RP1=0, select bank1
  2874  084D  00B5               	movwf	___xxtofl@sign^(0+128)
  2875  084E                     l3697:
  2876  084E  0835               	movf	___xxtofl@sign^(0+128),w
  2877  084F  1903               	btfsc	3,2
  2878  0850  2852               	goto	u6241
  2879  0851  2853               	goto	u6240
  2880  0852                     u6241:
  2881  0852  2867               	goto	l3703
  2882  0853                     u6240:
  2883  0853                     l3699:
  2884  0853  1FB0               	btfss	(___xxtofl@val+3)^(0+128),7
  2885  0854  2856               	goto	u6251
  2886  0855  2857               	goto	u6250
  2887  0856                     u6251:
  2888  0856  2867               	goto	l3703
  2889  0857                     u6250:
  2890  0857                     l3701:
  2891  0857  092D               	comf	___xxtofl@val^(0+128),w
  2892  0858  00B7               	movwf	___xxtofl@arg^(0+128)
  2893  0859  092E               	comf	(___xxtofl@val^(0+128)+1),w
  2894  085A  00B8               	movwf	(___xxtofl@arg+1)^(0+128)
  2895  085B  092F               	comf	(___xxtofl@val^(0+128)+2),w
  2896  085C  00B9               	movwf	(___xxtofl@arg+2)^(0+128)
  2897  085D  0930               	comf	(___xxtofl@val^(0+128)+3),w
  2898  085E  00BA               	movwf	(___xxtofl@arg+3)^(0+128)
  2899  085F  0AB7               	incf	___xxtofl@arg^(0+128),f
  2900  0860  1903               	skipnz
  2901  0861  0AB8               	incf	(___xxtofl@arg+1)^(0+128),f
  2902  0862  1903               	skipnz
  2903  0863  0AB9               	incf	(___xxtofl@arg+2)^(0+128),f
  2904  0864  1903               	skipnz
  2905  0865  0ABA               	incf	(___xxtofl@arg+3)^(0+128),f
  2906  0866  286F               	goto	l680
  2907  0867                     l3703:
  2908  0867  0830               	movf	(___xxtofl@val+3)^(0+128),w
  2909  0868  00BA               	movwf	(___xxtofl@arg+3)^(0+128)
  2910  0869  082F               	movf	(___xxtofl@val+2)^(0+128),w
  2911  086A  00B9               	movwf	(___xxtofl@arg+2)^(0+128)
  2912  086B  082E               	movf	(___xxtofl@val+1)^(0+128),w
  2913  086C  00B8               	movwf	(___xxtofl@arg+1)^(0+128)
  2914  086D  082D               	movf	___xxtofl@val^(0+128),w
  2915  086E  00B7               	movwf	___xxtofl@arg^(0+128)
  2916  086F                     l680:
  2917  086F  0830               	movf	(___xxtofl@val+3)^(0+128),w
  2918  0870  042F               	iorwf	(___xxtofl@val+2)^(0+128),w
  2919  0871  042E               	iorwf	(___xxtofl@val+1)^(0+128),w
  2920  0872  042D               	iorwf	___xxtofl@val^(0+128),w
  2921  0873  1D03               	skipz
  2922  0874  2876               	goto	u6261
  2923  0875  2877               	goto	u6260
  2924  0876                     u6261:
  2925  0876  2880               	goto	l3709
  2926  0877                     u6260:
  2927  0877                     l3705:
  2928  0877  3000               	movlw	0
  2929  0878  00B0               	movwf	(?___xxtofl+3)^(0+128)
  2930  0879  3000               	movlw	0
  2931  087A  00AF               	movwf	(?___xxtofl+2)^(0+128)
  2932  087B  3000               	movlw	0
  2933  087C  00AE               	movwf	(?___xxtofl+1)^(0+128)
  2934  087D  3000               	movlw	0
  2935  087E  00AD               	movwf	?___xxtofl^(0+128)
  2936  087F  2906               	goto	l682
  2937  0880                     l3709:
  2938  0880  3096               	movlw	150
  2939  0881  00B1               	movwf	??___xxtofl^(0+128)
  2940  0882  0831               	movf	??___xxtofl^(0+128),w
  2941  0883  00B6               	movwf	___xxtofl@exp^(0+128)
  2942  0884  2892               	goto	l3713
  2943  0885                     l3711:
  2944  0885  3001               	movlw	1
  2945  0886  00B1               	movwf	??___xxtofl^(0+128)
  2946  0887  0831               	movf	??___xxtofl^(0+128),w
  2947  0888  07B6               	addwf	___xxtofl@exp^(0+128),f
  2948  0889  3001               	movlw	1
  2949  088A                     u6275:
  2950  088A  1003               	clrc
  2951  088B  0CBA               	rrf	(___xxtofl@arg+3)^(0+128),f
  2952  088C  0CB9               	rrf	(___xxtofl@arg+2)^(0+128),f
  2953  088D  0CB8               	rrf	(___xxtofl@arg+1)^(0+128),f
  2954  088E  0CB7               	rrf	___xxtofl@arg^(0+128),f
  2955  088F  3EFF               	addlw	-1
  2956  0890  1D03               	skipz
  2957  0891  288A               	goto	u6275
  2958  0892                     l3713:
  2959  0892  30FE               	movlw	254
  2960  0893  053A               	andwf	(___xxtofl@arg+3)^(0+128),w
  2961  0894  1D03               	btfss	3,2
  2962  0895  2897               	goto	u6281
  2963  0896  2898               	goto	u6280
  2964  0897                     u6281:
  2965  0897  2885               	goto	l3711
  2966  0898                     u6280:
  2967  0898  28B4               	goto	l686
  2968  0899                     l3715:
  2969  0899  3001               	movlw	1
  2970  089A  00B1               	movwf	??___xxtofl^(0+128)
  2971  089B  0831               	movf	??___xxtofl^(0+128),w
  2972  089C  07B6               	addwf	___xxtofl@exp^(0+128),f
  2973  089D                     l3717:
  2974  089D  3001               	movlw	1
  2975  089E  07B7               	addwf	___xxtofl@arg^(0+128),f
  2976  089F  3000               	movlw	0
  2977  08A0  1803               	skipnc
  2978  08A1  3001               	movlw	1
  2979  08A2  07B8               	addwf	(___xxtofl@arg+1)^(0+128),f
  2980  08A3  3000               	movlw	0
  2981  08A4  1803               	skipnc
  2982  08A5  3001               	movlw	1
  2983  08A6  07B9               	addwf	(___xxtofl@arg+2)^(0+128),f
  2984  08A7  3000               	movlw	0
  2985  08A8  1803               	skipnc
  2986  08A9  3001               	movlw	1
  2987  08AA  07BA               	addwf	(___xxtofl@arg+3)^(0+128),f
  2988  08AB                     l3719:
  2989  08AB  3001               	movlw	1
  2990  08AC                     u6295:
  2991  08AC  1003               	clrc
  2992  08AD  0CBA               	rrf	(___xxtofl@arg+3)^(0+128),f
  2993  08AE  0CB9               	rrf	(___xxtofl@arg+2)^(0+128),f
  2994  08AF  0CB8               	rrf	(___xxtofl@arg+1)^(0+128),f
  2995  08B0  0CB7               	rrf	___xxtofl@arg^(0+128),f
  2996  08B1  3EFF               	addlw	-1
  2997  08B2  1D03               	skipz
  2998  08B3  28AC               	goto	u6295
  2999  08B4                     l686:
  3000  08B4  30FF               	movlw	255
  3001  08B5  053A               	andwf	(___xxtofl@arg+3)^(0+128),w
  3002  08B6  1D03               	btfss	3,2
  3003  08B7  28B9               	goto	u6301
  3004  08B8  28BA               	goto	u6300
  3005  08B9                     u6301:
  3006  08B9  2899               	goto	l3715
  3007  08BA                     u6300:
  3008  08BA  28C6               	goto	l3723
  3009  08BB                     l3721:
  3010  08BB  3001               	movlw	1
  3011  08BC  02B6               	subwf	___xxtofl@exp^(0+128),f
  3012  08BD  3001               	movlw	1
  3013  08BE  00B1               	movwf	??___xxtofl^(0+128)
  3014  08BF                     u6315:
  3015  08BF  1003               	clrc
  3016  08C0  0DB7               	rlf	___xxtofl@arg^(0+128),f
  3017  08C1  0DB8               	rlf	(___xxtofl@arg+1)^(0+128),f
  3018  08C2  0DB9               	rlf	(___xxtofl@arg+2)^(0+128),f
  3019  08C3  0DBA               	rlf	(___xxtofl@arg+3)^(0+128),f
  3020  08C4  0BB1               	decfsz	??___xxtofl^(0+128),f
  3021  08C5  28BF               	goto	u6315
  3022  08C6                     l3723:
  3023  08C6  1BB9               	btfsc	(___xxtofl@arg+2)^(0+128),7
  3024  08C7  28C9               	goto	u6321
  3025  08C8  28CA               	goto	u6320
  3026  08C9                     u6321:
  3027  08C9  28D0               	goto	l693
  3028  08CA                     u6320:
  3029  08CA                     l3725:
  3030  08CA  3002               	movlw	2
  3031  08CB  0236               	subwf	___xxtofl@exp^(0+128),w
  3032  08CC  1803               	skipnc
  3033  08CD  28CF               	goto	u6331
  3034  08CE  28D0               	goto	u6330
  3035  08CF                     u6331:
  3036  08CF  28BB               	goto	l3721
  3037  08D0                     u6330:
  3038  08D0                     l693:
  3039  08D0  1836               	btfsc	___xxtofl@exp^(0+128),0
  3040  08D1  28D3               	goto	u6341
  3041  08D2  28D4               	goto	u6340
  3042  08D3                     u6341:
  3043  08D3  28DC               	goto	l694
  3044  08D4                     u6340:
  3045  08D4                     l3727:
  3046  08D4  30FF               	movlw	255
  3047  08D5  05B7               	andwf	___xxtofl@arg^(0+128),f
  3048  08D6  30FF               	movlw	255
  3049  08D7  05B8               	andwf	(___xxtofl@arg+1)^(0+128),f
  3050  08D8  307F               	movlw	127
  3051  08D9  05B9               	andwf	(___xxtofl@arg+2)^(0+128),f
  3052  08DA  30FF               	movlw	255
  3053  08DB  05BA               	andwf	(___xxtofl@arg+3)^(0+128),f
  3054  08DC                     l694:
  3055  08DC  1003               	clrc
  3056  08DD  0CB6               	rrf	___xxtofl@exp^(0+128),f
  3057  08DE                     l3729:
  3058  08DE  0836               	movf	___xxtofl@exp^(0+128),w
  3059  08DF  00B1               	movwf	??___xxtofl^(0+128)
  3060  08E0  01B2               	clrf	(??___xxtofl^(0+128)+1)
  3061  08E1  01B3               	clrf	(??___xxtofl^(0+128)+2)
  3062  08E2  01B4               	clrf	(??___xxtofl^(0+128)+3)
  3063  08E3  3018               	movlw	24
  3064  08E4                     u6355:
  3065  08E4  1003               	clrc
  3066  08E5  0DB1               	rlf	??___xxtofl^(0+128),f
  3067  08E6  0DB2               	rlf	(??___xxtofl^(0+128)+1),f
  3068  08E7  0DB3               	rlf	(??___xxtofl^(0+128)+2),f
  3069  08E8  0DB4               	rlf	(??___xxtofl^(0+128)+3),f
  3070  08E9                     u6350:
  3071  08E9  3EFF               	addlw	-1
  3072  08EA  1D03               	skipz
  3073  08EB  28E4               	goto	u6355
  3074  08EC  0831               	movf	??___xxtofl^(0+128),w
  3075  08ED  04B7               	iorwf	___xxtofl@arg^(0+128),f
  3076  08EE  0832               	movf	(??___xxtofl+1)^(0+128),w
  3077  08EF  04B8               	iorwf	(___xxtofl@arg+1)^(0+128),f
  3078  08F0  0833               	movf	(??___xxtofl+2)^(0+128),w
  3079  08F1  04B9               	iorwf	(___xxtofl@arg+2)^(0+128),f
  3080  08F2  0834               	movf	(??___xxtofl+3)^(0+128),w
  3081  08F3  04BA               	iorwf	(___xxtofl@arg+3)^(0+128),f
  3082  08F4                     l3731:
  3083  08F4  0835               	movf	___xxtofl@sign^(0+128),w
  3084  08F5  1903               	btfsc	3,2
  3085  08F6  28F8               	goto	u6361
  3086  08F7  28F9               	goto	u6360
  3087  08F8                     u6361:
  3088  08F8  28FE               	goto	l3737
  3089  08F9                     u6360:
  3090  08F9                     l3733:
  3091  08F9  1FB0               	btfss	(___xxtofl@val+3)^(0+128),7
  3092  08FA  28FC               	goto	u6371
  3093  08FB  28FD               	goto	u6370
  3094  08FC                     u6371:
  3095  08FC  28FE               	goto	l3737
  3096  08FD                     u6370:
  3097  08FD                     l3735:
  3098  08FD  17BA               	bsf	(___xxtofl@arg^(0+128)+3),7
  3099  08FE                     l3737:
  3100  08FE  083A               	movf	(___xxtofl@arg+3)^(0+128),w
  3101  08FF  00B0               	movwf	(?___xxtofl+3)^(0+128)
  3102  0900  0839               	movf	(___xxtofl@arg+2)^(0+128),w
  3103  0901  00AF               	movwf	(?___xxtofl+2)^(0+128)
  3104  0902  0838               	movf	(___xxtofl@arg+1)^(0+128),w
  3105  0903  00AE               	movwf	(?___xxtofl+1)^(0+128)
  3106  0904  0837               	movf	___xxtofl@arg^(0+128),w
  3107  0905  00AD               	movwf	?___xxtofl^(0+128)
  3108  0906                     l682:
  3109  0906  0008               	return
  3110  0907                     __end_of___xxtofl:
  3111                           
  3112                           	psect	text4
  3113  1001                     __ptext4:	
  3114 ;; *************** function ___wmul *****************
  3115 ;; Defined at:
  3116 ;;		line 15 in file "C:\Program Files\Microchip\xc8\v2.31\pic\sources\c90\common\Umul16.c"
  3117 ;; Parameters:    Size  Location     Type
  3118 ;;  multiplier      2    7[BANK1 ] unsigned int 
  3119 ;;  multiplicand    2    9[BANK1 ] unsigned int 
  3120 ;; Auto vars:     Size  Location     Type
  3121 ;;  product         2   11[BANK1 ] unsigned int 
  3122 ;; Return value:  Size  Location     Type
  3123 ;;                  2    7[BANK1 ] unsigned int 
  3124 ;; Registers used:
  3125 ;;		wreg, status,2, status,0
  3126 ;; Tracked objects:
  3127 ;;		On entry : 0/0
  3128 ;;		On exit  : 0/0
  3129 ;;		Unchanged: 0/0
  3130 ;; Data sizes:     COMMON   BANK0   BANK1   BANK3   BANK2
  3131 ;;      Params:         0       0       4       0       0
  3132 ;;      Locals:         0       0       2       0       0
  3133 ;;      Temps:          0       0       0       0       0
  3134 ;;      Totals:         0       0       6       0       0
  3135 ;;Total ram usage:        6 bytes
  3136 ;; Hardware stack levels used:    1
  3137 ;; Hardware stack levels required when called:    2
  3138 ;; This function calls:
  3139 ;;		Nothing
  3140 ;; This function is called by:
  3141 ;;		_convert
  3142 ;; This function uses a non-reentrant model
  3143 ;;
  3144                           
  3145                           
  3146                           ;psect for function ___wmul
  3147  1001                     ___wmul:
  3148  1001                     l3295:	
  3149                           ;incstack = 0
  3150                           ; Regs used in ___wmul: [wreg+status,2+status,0]
  3151                           
  3152  1001  1683               	bsf	3,5	;RP0=1, select bank1
  3153  1002  1303               	bcf	3,6	;RP1=0, select bank1
  3154  1003  01AB               	clrf	___wmul@product^(0+128)
  3155  1004  01AC               	clrf	(___wmul@product+1)^(0+128)
  3156  1005                     l3297:
  3157  1005  1C27               	btfss	___wmul@multiplier^(0+128),0
  3158  1006  2808               	goto	u5261
  3159  1007  2809               	goto	u5260
  3160  1008                     u5261:
  3161  1008  280F               	goto	l247
  3162  1009                     u5260:
  3163  1009                     l3299:
  3164  1009  0829               	movf	___wmul@multiplicand^(0+128),w
  3165  100A  07AB               	addwf	___wmul@product^(0+128),f
  3166  100B  1803               	skipnc
  3167  100C  0AAC               	incf	(___wmul@product+1)^(0+128),f
  3168  100D  082A               	movf	(___wmul@multiplicand+1)^(0+128),w
  3169  100E  07AC               	addwf	(___wmul@product+1)^(0+128),f
  3170  100F                     l247:
  3171  100F  3001               	movlw	1
  3172  1010                     u5275:
  3173  1010  1003               	clrc
  3174  1011  0DA9               	rlf	___wmul@multiplicand^(0+128),f
  3175  1012  0DAA               	rlf	(___wmul@multiplicand+1)^(0+128),f
  3176  1013  3EFF               	addlw	-1
  3177  1014  1D03               	skipz
  3178  1015  2810               	goto	u5275
  3179  1016                     l3301:
  3180  1016  3001               	movlw	1
  3181  1017                     u5285:
  3182  1017  1003               	clrc
  3183  1018  0CA8               	rrf	(___wmul@multiplier+1)^(0+128),f
  3184  1019  0CA7               	rrf	___wmul@multiplier^(0+128),f
  3185  101A  3EFF               	addlw	-1
  3186  101B  1D03               	skipz
  3187  101C  2817               	goto	u5285
  3188  101D                     l3303:
  3189  101D  0827               	movf	___wmul@multiplier^(0+128),w
  3190  101E  0428               	iorwf	(___wmul@multiplier+1)^(0+128),w
  3191  101F  1D03               	btfss	3,2
  3192  1020  2822               	goto	u5291
  3193  1021  2823               	goto	u5290
  3194  1022                     u5291:
  3195  1022  2805               	goto	l3297
  3196  1023                     u5290:
  3197  1023                     l3305:
  3198  1023  082C               	movf	(___wmul@product+1)^(0+128),w
  3199  1024  00A8               	movwf	(?___wmul+1)^(0+128)
  3200  1025  082B               	movf	___wmul@product^(0+128),w
  3201  1026  00A7               	movwf	?___wmul^(0+128)
  3202  1027                     l249:
  3203  1027  0008               	return
  3204  1028                     __end_of___wmul:
  3205                           
  3206                           	psect	text5
  3207  11C0                     __ptext5:	
  3208 ;; *************** function ___fltol *****************
  3209 ;; Defined at:
  3210 ;;		line 43 in file "C:\Program Files\Microchip\xc8\v2.31\pic\sources\c90\common\fltol.c"
  3211 ;; Parameters:    Size  Location     Type
  3212 ;;  f1              4   27[BANK0 ] unsigned int 
  3213 ;; Auto vars:     Size  Location     Type
  3214 ;;  exp1            1    6[BANK1 ] unsigned char 
  3215 ;;  sign1           1    5[BANK1 ] unsigned char 
  3216 ;; Return value:  Size  Location     Type
  3217 ;;                  4   27[BANK0 ] long 
  3218 ;; Registers used:
  3219 ;;		wreg, status,2, status,0
  3220 ;; Tracked objects:
  3221 ;;		On entry : 0/0
  3222 ;;		On exit  : 0/0
  3223 ;;		Unchanged: 0/0
  3224 ;; Data sizes:     COMMON   BANK0   BANK1   BANK3   BANK2
  3225 ;;      Params:         0       4       0       0       0
  3226 ;;      Locals:         0       0       2       0       0
  3227 ;;      Temps:          0       0       5       0       0
  3228 ;;      Totals:         0       4       7       0       0
  3229 ;;Total ram usage:       11 bytes
  3230 ;; Hardware stack levels used:    1
  3231 ;; Hardware stack levels required when called:    2
  3232 ;; This function calls:
  3233 ;;		Nothing
  3234 ;; This function is called by:
  3235 ;;		_convert
  3236 ;; This function uses a non-reentrant model
  3237 ;;
  3238                           
  3239                           
  3240                           ;psect for function ___fltol
  3241  11C0                     ___fltol:
  3242  11C0                     l3373:	
  3243                           ;incstack = 0
  3244                           ; Regs used in ___fltol: [wreg+status,2+status,0]
  3245                           
  3246  11C0  1003               	clrc
  3247  11C1  1283               	bcf	3,5	;RP0=0, select bank0
  3248  11C2  1303               	bcf	3,6	;RP1=0, select bank0
  3249  11C3  0D3D               	rlf	___fltol@f1+2,w
  3250  11C4  0D3E               	rlf	___fltol@f1+3,w
  3251  11C5  1683               	bsf	3,5	;RP0=1, select bank1
  3252  11C6  1303               	bcf	3,6	;RP1=0, select bank1
  3253  11C7  00A0               	movwf	??___fltol^(0+128)
  3254  11C8  0820               	movf	??___fltol^(0+128),w
  3255  11C9  00A6               	movwf	___fltol@exp1^(0+128)
  3256  11CA  0826               	movf	___fltol@exp1^(0+128),w
  3257  11CB  1D03               	btfss	3,2
  3258  11CC  29CE               	goto	u5471
  3259  11CD  29CF               	goto	u5470
  3260  11CE                     u5471:
  3261  11CE  29DA               	goto	l3379
  3262  11CF                     u5470:
  3263  11CF                     l3375:
  3264  11CF  3000               	movlw	0
  3265  11D0  1283               	bcf	3,5	;RP0=0, select bank0
  3266  11D1  1303               	bcf	3,6	;RP1=0, select bank0
  3267  11D2  00BE               	movwf	?___fltol+3
  3268  11D3  3000               	movlw	0
  3269  11D4  00BD               	movwf	?___fltol+2
  3270  11D5  3000               	movlw	0
  3271  11D6  00BC               	movwf	?___fltol+1
  3272  11D7  3000               	movlw	0
  3273  11D8  00BB               	movwf	?___fltol
  3274  11D9  2A5D               	goto	l433
  3275  11DA                     l3379:
  3276  11DA  1283               	bcf	3,5	;RP0=0, select bank0
  3277  11DB  1303               	bcf	3,6	;RP1=0, select bank0
  3278  11DC  083B               	movf	___fltol@f1,w
  3279  11DD  1683               	bsf	3,5	;RP0=1, select bank1
  3280  11DE  1303               	bcf	3,6	;RP1=0, select bank1
  3281  11DF  00A0               	movwf	??___fltol^(0+128)
  3282  11E0  1283               	bcf	3,5	;RP0=0, select bank0
  3283  11E1  1303               	bcf	3,6	;RP1=0, select bank0
  3284  11E2  083C               	movf	___fltol@f1+1,w
  3285  11E3  1683               	bsf	3,5	;RP0=1, select bank1
  3286  11E4  1303               	bcf	3,6	;RP1=0, select bank1
  3287  11E5  00A1               	movwf	(??___fltol^(0+128)+1)
  3288  11E6  1283               	bcf	3,5	;RP0=0, select bank0
  3289  11E7  1303               	bcf	3,6	;RP1=0, select bank0
  3290  11E8  083D               	movf	___fltol@f1+2,w
  3291  11E9  1683               	bsf	3,5	;RP0=1, select bank1
  3292  11EA  1303               	bcf	3,6	;RP1=0, select bank1
  3293  11EB  00A2               	movwf	(??___fltol^(0+128)+2)
  3294  11EC  1283               	bcf	3,5	;RP0=0, select bank0
  3295  11ED  1303               	bcf	3,6	;RP1=0, select bank0
  3296  11EE  083E               	movf	___fltol@f1+3,w
  3297  11EF  1683               	bsf	3,5	;RP0=1, select bank1
  3298  11F0  1303               	bcf	3,6	;RP1=0, select bank1
  3299  11F1  00A3               	movwf	(??___fltol^(0+128)+3)
  3300  11F2  301F               	movlw	31
  3301  11F3                     u5485:
  3302  11F3  1003               	clrc
  3303  11F4  0CA3               	rrf	(??___fltol^(0+128)+3),f
  3304  11F5  0CA2               	rrf	(??___fltol^(0+128)+2),f
  3305  11F6  0CA1               	rrf	(??___fltol^(0+128)+1),f
  3306  11F7  0CA0               	rrf	??___fltol^(0+128),f
  3307  11F8                     u5480:
  3308  11F8  3EFF               	addlw	-1
  3309  11F9  1D03               	skipz
  3310  11FA  29F3               	goto	u5485
  3311  11FB  0820               	movf	??___fltol^(0+128),w
  3312  11FC  00A4               	movwf	(??___fltol+4)^(0+128)
  3313  11FD  0824               	movf	(??___fltol+4)^(0+128),w
  3314  11FE  00A5               	movwf	___fltol@sign1^(0+128)
  3315  11FF                     l3381:
  3316  11FF  1283               	bcf	3,5	;RP0=0, select bank0
  3317  1200  1303               	bcf	3,6	;RP1=0, select bank0
  3318  1201  17BD               	bsf	___fltol@f1+2,7
  3319  1202                     l3383:
  3320  1202  30FF               	movlw	255
  3321  1203  05BB               	andwf	___fltol@f1,f
  3322  1204  30FF               	movlw	255
  3323  1205  05BC               	andwf	___fltol@f1+1,f
  3324  1206  30FF               	movlw	255
  3325  1207  05BD               	andwf	___fltol@f1+2,f
  3326  1208  3000               	movlw	0
  3327  1209  05BE               	andwf	___fltol@f1+3,f
  3328  120A                     l3385:
  3329  120A  3096               	movlw	150
  3330  120B  1683               	bsf	3,5	;RP0=1, select bank1
  3331  120C  1303               	bcf	3,6	;RP1=0, select bank1
  3332  120D  02A6               	subwf	___fltol@exp1^(0+128),f
  3333  120E                     l3387:
  3334  120E  1FA6               	btfss	___fltol@exp1^(0+128),7
  3335  120F  2A11               	goto	u5491
  3336  1210  2A12               	goto	u5490
  3337  1211                     u5491:
  3338  1211  2A30               	goto	l3397
  3339  1212                     u5490:
  3340  1212                     l3389:
  3341  1212  0826               	movf	___fltol@exp1^(0+128),w
  3342  1213  3A80               	xorlw	128
  3343  1214  3E97               	addlw	151
  3344  1215  1803               	skipnc
  3345  1216  2A18               	goto	u5501
  3346  1217  2A19               	goto	u5500
  3347  1218                     u5501:
  3348  1218  2A1A               	goto	l3395
  3349  1219                     u5500:
  3350  1219  29CF               	goto	l3375
  3351  121A                     l3395:
  3352  121A  3001               	movlw	1
  3353  121B                     u5515:
  3354  121B  1003               	clrc
  3355  121C  1283               	bcf	3,5	;RP0=0, select bank0
  3356  121D  1303               	bcf	3,6	;RP1=0, select bank0
  3357  121E  0CBE               	rrf	___fltol@f1+3,f
  3358  121F  0CBD               	rrf	___fltol@f1+2,f
  3359  1220  0CBC               	rrf	___fltol@f1+1,f
  3360  1221  0CBB               	rrf	___fltol@f1,f
  3361  1222  3EFF               	addlw	-1
  3362  1223  1D03               	skipz
  3363  1224  2A1B               	goto	u5515
  3364  1225  3001               	movlw	1
  3365  1226  1683               	bsf	3,5	;RP0=1, select bank1
  3366  1227  1303               	bcf	3,6	;RP1=0, select bank1
  3367  1228  00A0               	movwf	??___fltol^(0+128)
  3368  1229  0820               	movf	??___fltol^(0+128),w
  3369  122A  07A6               	addwf	___fltol@exp1^(0+128),f
  3370  122B  1D03               	btfss	3,2
  3371  122C  2A2E               	goto	u5521
  3372  122D  2A2F               	goto	u5520
  3373  122E                     u5521:
  3374  122E  2A1A               	goto	l3395
  3375  122F                     u5520:
  3376  122F  2A4B               	goto	l3405
  3377  1230                     l3397:
  3378  1230  3020               	movlw	32
  3379  1231  0226               	subwf	___fltol@exp1^(0+128),w
  3380  1232  1C03               	skipc
  3381  1233  2A35               	goto	u5531
  3382  1234  2A36               	goto	u5530
  3383  1235                     u5531:
  3384  1235  2A46               	goto	l440
  3385  1236                     u5530:
  3386  1236  29CF               	goto	l3375
  3387  1237                     l3403:
  3388  1237  3001               	movlw	1
  3389  1238  00A0               	movwf	??___fltol^(0+128)
  3390  1239                     u5545:
  3391  1239  1003               	clrc
  3392  123A  1283               	bcf	3,5	;RP0=0, select bank0
  3393  123B  1303               	bcf	3,6	;RP1=0, select bank0
  3394  123C  0DBB               	rlf	___fltol@f1,f
  3395  123D  0DBC               	rlf	___fltol@f1+1,f
  3396  123E  0DBD               	rlf	___fltol@f1+2,f
  3397  123F  0DBE               	rlf	___fltol@f1+3,f
  3398  1240  1683               	bsf	3,5	;RP0=1, select bank1
  3399  1241  1303               	bcf	3,6	;RP1=0, select bank1
  3400  1242  0BA0               	decfsz	??___fltol^(0+128),f
  3401  1243  2A39               	goto	u5545
  3402  1244  3001               	movlw	1
  3403  1245  02A6               	subwf	___fltol@exp1^(0+128),f
  3404  1246                     l440:
  3405  1246  0826               	movf	___fltol@exp1^(0+128),w
  3406  1247  1D03               	btfss	3,2
  3407  1248  2A4A               	goto	u5551
  3408  1249  2A4B               	goto	u5550
  3409  124A                     u5551:
  3410  124A  2A37               	goto	l3403
  3411  124B                     u5550:
  3412  124B                     l3405:
  3413  124B  0825               	movf	___fltol@sign1^(0+128),w
  3414  124C  1903               	btfsc	3,2
  3415  124D  2A4F               	goto	u5561
  3416  124E  2A50               	goto	u5560
  3417  124F                     u5561:
  3418  124F  2A5D               	goto	l443
  3419  1250                     u5560:
  3420  1250                     l3407:
  3421  1250  1283               	bcf	3,5	;RP0=0, select bank0
  3422  1251  1303               	bcf	3,6	;RP1=0, select bank0
  3423  1252  09BB               	comf	___fltol@f1,f
  3424  1253  09BC               	comf	___fltol@f1+1,f
  3425  1254  09BD               	comf	___fltol@f1+2,f
  3426  1255  09BE               	comf	___fltol@f1+3,f
  3427  1256  0ABB               	incf	___fltol@f1,f
  3428  1257  1903               	skipnz
  3429  1258  0ABC               	incf	___fltol@f1+1,f
  3430  1259  1903               	skipnz
  3431  125A  0ABD               	incf	___fltol@f1+2,f
  3432  125B  1903               	skipnz
  3433  125C  0ABE               	incf	___fltol@f1+3,f
  3434  125D                     l443:
  3435  125D                     l433:
  3436  125D  0008               	return
  3437  125E                     __end_of___fltol:
  3438                           
  3439                           	psect	text6
  3440  1FA5                     __ptext6:	
  3441 ;; *************** function ___flsub *****************
  3442 ;; Defined at:
  3443 ;;		line 242 in file "C:\Program Files\Microchip\xc8\v2.31\pic\sources\c90\common\sprcadd.c"
  3444 ;; Parameters:    Size  Location     Type
  3445 ;;  a               4   27[BANK1 ] long 
  3446 ;;  b               4   31[BANK1 ] long 
  3447 ;; Auto vars:     Size  Location     Type
  3448 ;;		None
  3449 ;; Return value:  Size  Location     Type
  3450 ;;                  4   27[BANK1 ] long 
  3451 ;; Registers used:
  3452 ;;		wreg, status,2, status,0, btemp+1, pclath, cstack
  3453 ;; Tracked objects:
  3454 ;;		On entry : 0/0
  3455 ;;		On exit  : 0/0
  3456 ;;		Unchanged: 0/0
  3457 ;; Data sizes:     COMMON   BANK0   BANK1   BANK3   BANK2
  3458 ;;      Params:         0       0       8       0       0
  3459 ;;      Locals:         0       0       0       0       0
  3460 ;;      Temps:          0       0       0       0       0
  3461 ;;      Totals:         0       0       8       0       0
  3462 ;;Total ram usage:        8 bytes
  3463 ;; Hardware stack levels used:    1
  3464 ;; Hardware stack levels required when called:    3
  3465 ;; This function calls:
  3466 ;;		___fladd
  3467 ;; This function is called by:
  3468 ;;		_convert
  3469 ;; This function uses a non-reentrant model
  3470 ;;
  3471                           
  3472                           
  3473                           ;psect for function ___flsub
  3474  1FA5                     ___flsub:
  3475  1FA5                     l3409:	
  3476                           ;incstack = 0
  3477                           ; Regs used in ___flsub: [wreg+status,2+status,0+btemp+1+pclath+cstack]
  3478                           
  3479  1FA5  3080               	movlw	128
  3480  1FA6  1683               	bsf	3,5	;RP0=1, select bank1
  3481  1FA7  1303               	bcf	3,6	;RP1=0, select bank1
  3482  1FA8  06BE               	xorwf	(___flsub@a+3)^(0+128),f
  3483  1FA9                     l3411:
  3484  1FA9  0842               	movf	(___flsub@b+3)^(0+128),w
  3485  1FAA  00A3               	movwf	(___fladd@b+3)^(0+128)
  3486  1FAB  0841               	movf	(___flsub@b+2)^(0+128),w
  3487  1FAC  00A2               	movwf	(___fladd@b+2)^(0+128)
  3488  1FAD  0840               	movf	(___flsub@b+1)^(0+128),w
  3489  1FAE  00A1               	movwf	(___fladd@b+1)^(0+128)
  3490  1FAF  083F               	movf	___flsub@b^(0+128),w
  3491  1FB0  00A0               	movwf	___fladd@b^(0+128)
  3492  1FB1  083E               	movf	(___flsub@a+3)^(0+128),w
  3493  1FB2  00A7               	movwf	(___fladd@a+3)^(0+128)
  3494  1FB3  083D               	movf	(___flsub@a+2)^(0+128),w
  3495  1FB4  00A6               	movwf	(___fladd@a+2)^(0+128)
  3496  1FB5  083C               	movf	(___flsub@a+1)^(0+128),w
  3497  1FB6  00A5               	movwf	(___fladd@a+1)^(0+128)
  3498  1FB7  083B               	movf	___flsub@a^(0+128),w
  3499  1FB8  00A4               	movwf	___fladd@a^(0+128)
  3500  1FB9  120A  158A  2107  160A  158A  	fcall	___fladd
  3501  1FBE  1683               	bsf	3,5	;RP0=1, select bank1
  3502  1FBF  1303               	bcf	3,6	;RP1=0, select bank1
  3503  1FC0  0823               	movf	(?___fladd+3)^(0+128),w
  3504  1FC1  00BE               	movwf	(?___flsub+3)^(0+128)
  3505  1FC2  0822               	movf	(?___fladd+2)^(0+128),w
  3506  1FC3  00BD               	movwf	(?___flsub+2)^(0+128)
  3507  1FC4  0821               	movf	(?___fladd+1)^(0+128),w
  3508  1FC5  00BC               	movwf	(?___flsub+1)^(0+128)
  3509  1FC6  0820               	movf	?___fladd^(0+128),w
  3510  1FC7  00BB               	movwf	?___flsub^(0+128)
  3511  1FC8                     l586:
  3512  1FC8  0008               	return
  3513  1FC9                     __end_of___flsub:
  3514                           
  3515                           	psect	text7
  3516  0907                     __ptext7:	
  3517 ;; *************** function ___fladd *****************
  3518 ;; Defined at:
  3519 ;;		line 10 in file "C:\Program Files\Microchip\xc8\v2.31\pic\sources\c90\common\sprcadd.c"
  3520 ;; Parameters:    Size  Location     Type
  3521 ;;  b               4    0[BANK1 ] long 
  3522 ;;  a               4    4[BANK1 ] long 
  3523 ;; Auto vars:     Size  Location     Type
  3524 ;;  grs             1   30[BANK0 ] unsigned char 
  3525 ;;  bexp            1   29[BANK0 ] unsigned char 
  3526 ;;  aexp            1   28[BANK0 ] unsigned char 
  3527 ;;  signs           1   27[BANK0 ] unsigned char 
  3528 ;; Return value:  Size  Location     Type
  3529 ;;                  4    0[BANK1 ] unsigned char 
  3530 ;; Registers used:
  3531 ;;		wreg, status,2, status,0, btemp+1
  3532 ;; Tracked objects:
  3533 ;;		On entry : 0/0
  3534 ;;		On exit  : 0/0
  3535 ;;		Unchanged: 0/0
  3536 ;; Data sizes:     COMMON   BANK0   BANK1   BANK3   BANK2
  3537 ;;      Params:         0       0       8       0       0
  3538 ;;      Locals:         0       4       0       0       0
  3539 ;;      Temps:          0       0       8       0       0
  3540 ;;      Totals:         0       4      16       0       0
  3541 ;;Total ram usage:       20 bytes
  3542 ;; Hardware stack levels used:    1
  3543 ;; Hardware stack levels required when called:    2
  3544 ;; This function calls:
  3545 ;;		Nothing
  3546 ;; This function is called by:
  3547 ;;		___flsub
  3548 ;; This function uses a non-reentrant model
  3549 ;;
  3550                           
  3551                           
  3552                           ;psect for function ___fladd
  3553  0907                     ___fladd:
  3554  0907                     l3067:	
  3555                           ;incstack = 0
  3556                           ; Regs used in ___fladd: [wreg+status,2+status,0+btemp+1]
  3557                           
  3558  0907  1683               	bsf	3,5	;RP0=1, select bank1
  3559  0908  1303               	bcf	3,6	;RP1=0, select bank1
  3560  0909  0823               	movf	(___fladd@b^(0+128)+3),w
  3561  090A  3980               	andlw	128
  3562  090B  00A8               	movwf	??___fladd^(0+128)
  3563  090C  0828               	movf	??___fladd^(0+128),w
  3564  090D  1283               	bcf	3,5	;RP0=0, select bank0
  3565  090E  1303               	bcf	3,6	;RP1=0, select bank0
  3566  090F  00BB               	movwf	___fladd@signs
  3567  0910                     l3069:
  3568  0910  1683               	bsf	3,5	;RP0=1, select bank1
  3569  0911  1303               	bcf	3,6	;RP1=0, select bank1
  3570  0912  0823               	movf	(___fladd@b^(0+128)+3),w
  3571  0913  00A8               	movwf	??___fladd^(0+128)
  3572  0914  0728               	addwf	??___fladd^(0+128),w
  3573  0915  00A9               	movwf	(??___fladd+1)^(0+128)
  3574  0916  0829               	movf	(??___fladd+1)^(0+128),w
  3575  0917  1283               	bcf	3,5	;RP0=0, select bank0
  3576  0918  1303               	bcf	3,6	;RP1=0, select bank0
  3577  0919  00BD               	movwf	___fladd@bexp
  3578  091A                     l3071:
  3579  091A  1683               	bsf	3,5	;RP0=1, select bank1
  3580  091B  1303               	bcf	3,6	;RP1=0, select bank1
  3581  091C  1FA2               	btfss	(___fladd@b^(0+128)+2),7
  3582  091D  291F               	goto	u4771
  3583  091E  2920               	goto	u4770
  3584  091F                     u4771:
  3585  091F  2923               	goto	l3075
  3586  0920                     u4770:
  3587  0920                     l3073:
  3588  0920  1283               	bcf	3,5	;RP0=0, select bank0
  3589  0921  1303               	bcf	3,6	;RP1=0, select bank0
  3590  0922  143D               	bsf	___fladd@bexp,0
  3591  0923                     l3075:
  3592  0923  1283               	bcf	3,5	;RP0=0, select bank0
  3593  0924  083D               	movf	___fladd@bexp,w
  3594  0925  1903               	btfsc	3,2
  3595  0926  2928               	goto	u4781
  3596  0927  2929               	goto	u4780
  3597  0928                     u4781:
  3598  0928  293D               	goto	l3085
  3599  0929                     u4780:
  3600  0929                     l3077:
  3601  0929  0A3D               	incf	___fladd@bexp,w
  3602  092A  1D03               	btfss	3,2
  3603  092B  292D               	goto	u4791
  3604  092C  292E               	goto	u4790
  3605  092D                     u4791:
  3606  092D  2938               	goto	l3081
  3607  092E                     u4790:
  3608  092E                     l3079:
  3609  092E  3000               	movlw	0
  3610  092F  1683               	bsf	3,5	;RP0=1, select bank1
  3611  0930  1303               	bcf	3,6	;RP1=0, select bank1
  3612  0931  00A3               	movwf	(___fladd@b+3)^(0+128)
  3613  0932  3000               	movlw	0
  3614  0933  00A2               	movwf	(___fladd@b+2)^(0+128)
  3615  0934  3000               	movlw	0
  3616  0935  00A1               	movwf	(___fladd@b+1)^(0+128)
  3617  0936  3000               	movlw	0
  3618  0937  00A0               	movwf	___fladd@b^(0+128)
  3619  0938                     l3081:
  3620  0938  1683               	bsf	3,5	;RP0=1, select bank1
  3621  0939  1303               	bcf	3,6	;RP1=0, select bank1
  3622  093A  17A2               	bsf	(___fladd@b^(0+128)+2),7
  3623  093B                     l3083:
  3624  093B  01A3               	clrf	(___fladd@b^(0+128)+3)
  3625  093C  2947               	goto	l3087
  3626  093D                     l3085:
  3627  093D  3000               	movlw	0
  3628  093E  1683               	bsf	3,5	;RP0=1, select bank1
  3629  093F  1303               	bcf	3,6	;RP1=0, select bank1
  3630  0940  00A3               	movwf	(___fladd@b+3)^(0+128)
  3631  0941  3000               	movlw	0
  3632  0942  00A2               	movwf	(___fladd@b+2)^(0+128)
  3633  0943  3000               	movlw	0
  3634  0944  00A1               	movwf	(___fladd@b+1)^(0+128)
  3635  0945  3000               	movlw	0
  3636  0946  00A0               	movwf	___fladd@b^(0+128)
  3637  0947                     l3087:
  3638  0947  0827               	movf	(___fladd@a^(0+128)+3),w
  3639  0948  3980               	andlw	128
  3640  0949  00A8               	movwf	??___fladd^(0+128)
  3641  094A  0828               	movf	??___fladd^(0+128),w
  3642  094B  1283               	bcf	3,5	;RP0=0, select bank0
  3643  094C  1303               	bcf	3,6	;RP1=0, select bank0
  3644  094D  00BC               	movwf	___fladd@aexp
  3645  094E                     l3089:
  3646  094E  083C               	movf	___fladd@aexp,w
  3647  094F  063B               	xorwf	___fladd@signs,w
  3648  0950  1903               	skipnz
  3649  0951  2953               	goto	u4801
  3650  0952  2954               	goto	u4800
  3651  0953                     u4801:
  3652  0953  2955               	goto	l3093
  3653  0954                     u4800:
  3654  0954                     l3091:
  3655  0954  173B               	bsf	___fladd@signs,6
  3656  0955                     l3093:
  3657  0955  1683               	bsf	3,5	;RP0=1, select bank1
  3658  0956  1303               	bcf	3,6	;RP1=0, select bank1
  3659  0957  0827               	movf	(___fladd@a^(0+128)+3),w
  3660  0958  00A8               	movwf	??___fladd^(0+128)
  3661  0959  0728               	addwf	??___fladd^(0+128),w
  3662  095A  00A9               	movwf	(??___fladd+1)^(0+128)
  3663  095B  0829               	movf	(??___fladd+1)^(0+128),w
  3664  095C  1283               	bcf	3,5	;RP0=0, select bank0
  3665  095D  1303               	bcf	3,6	;RP1=0, select bank0
  3666  095E  00BC               	movwf	___fladd@aexp
  3667  095F                     l3095:
  3668  095F  1683               	bsf	3,5	;RP0=1, select bank1
  3669  0960  1303               	bcf	3,6	;RP1=0, select bank1
  3670  0961  1FA6               	btfss	(___fladd@a^(0+128)+2),7
  3671  0962  2964               	goto	u4811
  3672  0963  2965               	goto	u4810
  3673  0964                     u4811:
  3674  0964  2968               	goto	l3099
  3675  0965                     u4810:
  3676  0965                     l3097:
  3677  0965  1283               	bcf	3,5	;RP0=0, select bank0
  3678  0966  1303               	bcf	3,6	;RP1=0, select bank0
  3679  0967  143C               	bsf	___fladd@aexp,0
  3680  0968                     l3099:
  3681  0968  1283               	bcf	3,5	;RP0=0, select bank0
  3682  0969  083C               	movf	___fladd@aexp,w
  3683  096A  1903               	btfsc	3,2
  3684  096B  296D               	goto	u4821
  3685  096C  296E               	goto	u4820
  3686  096D                     u4821:
  3687  096D  2982               	goto	l3109
  3688  096E                     u4820:
  3689  096E                     l3101:
  3690  096E  0A3C               	incf	___fladd@aexp,w
  3691  096F  1D03               	btfss	3,2
  3692  0970  2972               	goto	u4831
  3693  0971  2973               	goto	u4830
  3694  0972                     u4831:
  3695  0972  297D               	goto	l3105
  3696  0973                     u4830:
  3697  0973                     l3103:
  3698  0973  3000               	movlw	0
  3699  0974  1683               	bsf	3,5	;RP0=1, select bank1
  3700  0975  1303               	bcf	3,6	;RP1=0, select bank1
  3701  0976  00A7               	movwf	(___fladd@a+3)^(0+128)
  3702  0977  3000               	movlw	0
  3703  0978  00A6               	movwf	(___fladd@a+2)^(0+128)
  3704  0979  3000               	movlw	0
  3705  097A  00A5               	movwf	(___fladd@a+1)^(0+128)
  3706  097B  3000               	movlw	0
  3707  097C  00A4               	movwf	___fladd@a^(0+128)
  3708  097D                     l3105:
  3709  097D  1683               	bsf	3,5	;RP0=1, select bank1
  3710  097E  1303               	bcf	3,6	;RP1=0, select bank1
  3711  097F  17A6               	bsf	(___fladd@a^(0+128)+2),7
  3712  0980                     l3107:
  3713  0980  01A7               	clrf	(___fladd@a^(0+128)+3)
  3714  0981  298C               	goto	l540
  3715  0982                     l3109:
  3716  0982  3000               	movlw	0
  3717  0983  1683               	bsf	3,5	;RP0=1, select bank1
  3718  0984  1303               	bcf	3,6	;RP1=0, select bank1
  3719  0985  00A7               	movwf	(___fladd@a+3)^(0+128)
  3720  0986  3000               	movlw	0
  3721  0987  00A6               	movwf	(___fladd@a+2)^(0+128)
  3722  0988  3000               	movlw	0
  3723  0989  00A5               	movwf	(___fladd@a+1)^(0+128)
  3724  098A  3000               	movlw	0
  3725  098B  00A4               	movwf	___fladd@a^(0+128)
  3726  098C                     l540:
  3727  098C  1283               	bcf	3,5	;RP0=0, select bank0
  3728  098D  1303               	bcf	3,6	;RP1=0, select bank0
  3729  098E  083D               	movf	___fladd@bexp,w
  3730  098F  023C               	subwf	___fladd@aexp,w
  3731  0990  1803               	skipnc
  3732  0991  2993               	goto	u4841
  3733  0992  2994               	goto	u4840
  3734  0993                     u4841:
  3735  0993  2A0A               	goto	l3145
  3736  0994                     u4840:
  3737  0994                     l3111:
  3738  0994  1F3B               	btfss	___fladd@signs,6
  3739  0995  2997               	goto	u4851
  3740  0996  2998               	goto	u4850
  3741  0997                     u4851:
  3742  0997  29A0               	goto	l3115
  3743  0998                     u4850:
  3744  0998                     l3113:
  3745  0998  3080               	movlw	128
  3746  0999  1683               	bsf	3,5	;RP0=1, select bank1
  3747  099A  1303               	bcf	3,6	;RP1=0, select bank1
  3748  099B  00A8               	movwf	??___fladd^(0+128)
  3749  099C  0828               	movf	??___fladd^(0+128),w
  3750  099D  1283               	bcf	3,5	;RP0=0, select bank0
  3751  099E  1303               	bcf	3,6	;RP1=0, select bank0
  3752  099F  06BB               	xorwf	___fladd@signs,f
  3753  09A0                     l3115:
  3754  09A0  083D               	movf	___fladd@bexp,w
  3755  09A1  1683               	bsf	3,5	;RP0=1, select bank1
  3756  09A2  1303               	bcf	3,6	;RP1=0, select bank1
  3757  09A3  00A8               	movwf	??___fladd^(0+128)
  3758  09A4  0828               	movf	??___fladd^(0+128),w
  3759  09A5  1283               	bcf	3,5	;RP0=0, select bank0
  3760  09A6  1303               	bcf	3,6	;RP1=0, select bank0
  3761  09A7  00BE               	movwf	___fladd@grs
  3762  09A8                     l3117:
  3763  09A8  083C               	movf	___fladd@aexp,w
  3764  09A9  1683               	bsf	3,5	;RP0=1, select bank1
  3765  09AA  1303               	bcf	3,6	;RP1=0, select bank1
  3766  09AB  00A8               	movwf	??___fladd^(0+128)
  3767  09AC  0828               	movf	??___fladd^(0+128),w
  3768  09AD  1283               	bcf	3,5	;RP0=0, select bank0
  3769  09AE  1303               	bcf	3,6	;RP1=0, select bank0
  3770  09AF  00BD               	movwf	___fladd@bexp
  3771  09B0                     l3119:
  3772  09B0  083E               	movf	___fladd@grs,w
  3773  09B1  1683               	bsf	3,5	;RP0=1, select bank1
  3774  09B2  1303               	bcf	3,6	;RP1=0, select bank1
  3775  09B3  00A8               	movwf	??___fladd^(0+128)
  3776  09B4  0828               	movf	??___fladd^(0+128),w
  3777  09B5  1283               	bcf	3,5	;RP0=0, select bank0
  3778  09B6  1303               	bcf	3,6	;RP1=0, select bank0
  3779  09B7  00BC               	movwf	___fladd@aexp
  3780  09B8                     l3121:
  3781  09B8  1683               	bsf	3,5	;RP0=1, select bank1
  3782  09B9  1303               	bcf	3,6	;RP1=0, select bank1
  3783  09BA  0820               	movf	___fladd@b^(0+128),w
  3784  09BB  00A8               	movwf	??___fladd^(0+128)
  3785  09BC  0828               	movf	??___fladd^(0+128),w
  3786  09BD  1283               	bcf	3,5	;RP0=0, select bank0
  3787  09BE  1303               	bcf	3,6	;RP1=0, select bank0
  3788  09BF  00BE               	movwf	___fladd@grs
  3789  09C0                     l3123:
  3790  09C0  1683               	bsf	3,5	;RP0=1, select bank1
  3791  09C1  1303               	bcf	3,6	;RP1=0, select bank1
  3792  09C2  0824               	movf	___fladd@a^(0+128),w
  3793  09C3  00A8               	movwf	??___fladd^(0+128)
  3794  09C4  0828               	movf	??___fladd^(0+128),w
  3795  09C5  00A0               	movwf	___fladd@b^(0+128)
  3796  09C6                     l3125:
  3797  09C6  1283               	bcf	3,5	;RP0=0, select bank0
  3798  09C7  1303               	bcf	3,6	;RP1=0, select bank0
  3799  09C8  083E               	movf	___fladd@grs,w
  3800  09C9  1683               	bsf	3,5	;RP0=1, select bank1
  3801  09CA  1303               	bcf	3,6	;RP1=0, select bank1
  3802  09CB  00A8               	movwf	??___fladd^(0+128)
  3803  09CC  0828               	movf	??___fladd^(0+128),w
  3804  09CD  00A4               	movwf	___fladd@a^(0+128)
  3805  09CE                     l3127:
  3806  09CE  0821               	movf	(___fladd@b^(0+128)+1),w
  3807  09CF  00A8               	movwf	??___fladd^(0+128)
  3808  09D0  0828               	movf	??___fladd^(0+128),w
  3809  09D1  1283               	bcf	3,5	;RP0=0, select bank0
  3810  09D2  1303               	bcf	3,6	;RP1=0, select bank0
  3811  09D3  00BE               	movwf	___fladd@grs
  3812  09D4                     l3129:
  3813  09D4  1683               	bsf	3,5	;RP0=1, select bank1
  3814  09D5  1303               	bcf	3,6	;RP1=0, select bank1
  3815  09D6  0825               	movf	(___fladd@a^(0+128)+1),w
  3816  09D7  00A8               	movwf	??___fladd^(0+128)
  3817  09D8  0828               	movf	??___fladd^(0+128),w
  3818  09D9  00A1               	movwf	(___fladd@b^(0+128)+1)
  3819  09DA                     l3131:
  3820  09DA  1283               	bcf	3,5	;RP0=0, select bank0
  3821  09DB  1303               	bcf	3,6	;RP1=0, select bank0
  3822  09DC  083E               	movf	___fladd@grs,w
  3823  09DD  1683               	bsf	3,5	;RP0=1, select bank1
  3824  09DE  1303               	bcf	3,6	;RP1=0, select bank1
  3825  09DF  00A8               	movwf	??___fladd^(0+128)
  3826  09E0  0828               	movf	??___fladd^(0+128),w
  3827  09E1  00A5               	movwf	(___fladd@a^(0+128)+1)
  3828  09E2                     l3133:
  3829  09E2  0822               	movf	(___fladd@b^(0+128)+2),w
  3830  09E3  00A8               	movwf	??___fladd^(0+128)
  3831  09E4  0828               	movf	??___fladd^(0+128),w
  3832  09E5  1283               	bcf	3,5	;RP0=0, select bank0
  3833  09E6  1303               	bcf	3,6	;RP1=0, select bank0
  3834  09E7  00BE               	movwf	___fladd@grs
  3835  09E8                     l3135:
  3836  09E8  1683               	bsf	3,5	;RP0=1, select bank1
  3837  09E9  1303               	bcf	3,6	;RP1=0, select bank1
  3838  09EA  0826               	movf	(___fladd@a^(0+128)+2),w
  3839  09EB  00A8               	movwf	??___fladd^(0+128)
  3840  09EC  0828               	movf	??___fladd^(0+128),w
  3841  09ED  00A2               	movwf	(___fladd@b^(0+128)+2)
  3842  09EE                     l3137:
  3843  09EE  1283               	bcf	3,5	;RP0=0, select bank0
  3844  09EF  1303               	bcf	3,6	;RP1=0, select bank0
  3845  09F0  083E               	movf	___fladd@grs,w
  3846  09F1  1683               	bsf	3,5	;RP0=1, select bank1
  3847  09F2  1303               	bcf	3,6	;RP1=0, select bank1
  3848  09F3  00A8               	movwf	??___fladd^(0+128)
  3849  09F4  0828               	movf	??___fladd^(0+128),w
  3850  09F5  00A6               	movwf	(___fladd@a^(0+128)+2)
  3851  09F6                     l3139:
  3852  09F6  0823               	movf	(___fladd@b^(0+128)+3),w
  3853  09F7  00A8               	movwf	??___fladd^(0+128)
  3854  09F8  0828               	movf	??___fladd^(0+128),w
  3855  09F9  1283               	bcf	3,5	;RP0=0, select bank0
  3856  09FA  1303               	bcf	3,6	;RP1=0, select bank0
  3857  09FB  00BE               	movwf	___fladd@grs
  3858  09FC                     l3141:
  3859  09FC  1683               	bsf	3,5	;RP0=1, select bank1
  3860  09FD  1303               	bcf	3,6	;RP1=0, select bank1
  3861  09FE  0827               	movf	(___fladd@a^(0+128)+3),w
  3862  09FF  00A8               	movwf	??___fladd^(0+128)
  3863  0A00  0828               	movf	??___fladd^(0+128),w
  3864  0A01  00A3               	movwf	(___fladd@b^(0+128)+3)
  3865  0A02                     l3143:
  3866  0A02  1283               	bcf	3,5	;RP0=0, select bank0
  3867  0A03  1303               	bcf	3,6	;RP1=0, select bank0
  3868  0A04  083E               	movf	___fladd@grs,w
  3869  0A05  1683               	bsf	3,5	;RP0=1, select bank1
  3870  0A06  1303               	bcf	3,6	;RP1=0, select bank1
  3871  0A07  00A8               	movwf	??___fladd^(0+128)
  3872  0A08  0828               	movf	??___fladd^(0+128),w
  3873  0A09  00A7               	movwf	(___fladd@a^(0+128)+3)
  3874  0A0A                     l3145:
  3875  0A0A  1283               	bcf	3,5	;RP0=0, select bank0
  3876  0A0B  01BE               	clrf	___fladd@grs
  3877  0A0C                     l3147:
  3878  0A0C  083C               	movf	___fladd@aexp,w
  3879  0A0D  1683               	bsf	3,5	;RP0=1, select bank1
  3880  0A0E  1303               	bcf	3,6	;RP1=0, select bank1
  3881  0A0F  00A8               	movwf	??___fladd^(0+128)
  3882  0A10  01A9               	clrf	(??___fladd^(0+128)+1)
  3883  0A11  0829               	movf	(??___fladd+1)^(0+128),w
  3884  0A12  00AB               	movwf	((??___fladd+2)^(0+128)+1)
  3885  0A13  1283               	bcf	3,5	;RP0=0, select bank0
  3886  0A14  1303               	bcf	3,6	;RP1=0, select bank0
  3887  0A15  083D               	movf	___fladd@bexp,w
  3888  0A16  1683               	bsf	3,5	;RP0=1, select bank1
  3889  0A17  1303               	bcf	3,6	;RP1=0, select bank1
  3890  0A18  0228               	subwf	??___fladd^(0+128),w
  3891  0A19  00AA               	movwf	(??___fladd+2)^(0+128)
  3892  0A1A  1C03               	skipc
  3893  0A1B  03AB               	decf	((??___fladd+2)^(0+128)+1),f
  3894  0A1C  082B               	movf	(??___fladd+3)^(0+128),w
  3895  0A1D  3A80               	xorlw	128
  3896  0A1E  00FF               	movwf	btemp+1
  3897  0A1F  3080               	movlw	128
  3898  0A20  027F               	subwf	btemp+1,w
  3899  0A21  1D03               	skipz
  3900  0A22  2A25               	goto	u4865
  3901  0A23  301A               	movlw	26
  3902  0A24  022A               	subwf	(??___fladd+2)^(0+128),w
  3903  0A25                     u4865:
  3904  0A25  1C03               	skipc
  3905  0A26  2A28               	goto	u4861
  3906  0A27  2A29               	goto	u4860
  3907  0A28                     u4861:
  3908  0A28  2A7C               	goto	l3163
  3909  0A29                     u4860:
  3910  0A29                     l3149:
  3911  0A29  1683               	bsf	3,5	;RP0=1, select bank1
  3912  0A2A  1303               	bcf	3,6	;RP1=0, select bank1
  3913  0A2B  0823               	movf	(___fladd@b+3)^(0+128),w
  3914  0A2C  0422               	iorwf	(___fladd@b+2)^(0+128),w
  3915  0A2D  0421               	iorwf	(___fladd@b+1)^(0+128),w
  3916  0A2E  0420               	iorwf	___fladd@b^(0+128),w
  3917  0A2F  1D03               	skipz
  3918  0A30  2A32               	goto	u4871
  3919  0A31  2A34               	goto	u4870
  3920  0A32                     u4871:
  3921  0A32  3001               	movlw	1
  3922  0A33  2A35               	goto	u4880
  3923  0A34                     u4870:
  3924  0A34  3000               	movlw	0
  3925  0A35                     u4880:
  3926  0A35  00A8               	movwf	??___fladd^(0+128)
  3927  0A36  0828               	movf	??___fladd^(0+128),w
  3928  0A37  1283               	bcf	3,5	;RP0=0, select bank0
  3929  0A38  1303               	bcf	3,6	;RP1=0, select bank0
  3930  0A39  00BE               	movwf	___fladd@grs
  3931  0A3A  3000               	movlw	0
  3932  0A3B  1683               	bsf	3,5	;RP0=1, select bank1
  3933  0A3C  1303               	bcf	3,6	;RP1=0, select bank1
  3934  0A3D  00A3               	movwf	(___fladd@b+3)^(0+128)
  3935  0A3E  3000               	movlw	0
  3936  0A3F  00A2               	movwf	(___fladd@b+2)^(0+128)
  3937  0A40  3000               	movlw	0
  3938  0A41  00A1               	movwf	(___fladd@b+1)^(0+128)
  3939  0A42  3000               	movlw	0
  3940  0A43  00A0               	movwf	___fladd@b^(0+128)
  3941  0A44  1283               	bcf	3,5	;RP0=0, select bank0
  3942  0A45  1303               	bcf	3,6	;RP1=0, select bank0
  3943  0A46  083C               	movf	___fladd@aexp,w
  3944  0A47  1683               	bsf	3,5	;RP0=1, select bank1
  3945  0A48  1303               	bcf	3,6	;RP1=0, select bank1
  3946  0A49  00A8               	movwf	??___fladd^(0+128)
  3947  0A4A  0828               	movf	??___fladd^(0+128),w
  3948  0A4B  1283               	bcf	3,5	;RP0=0, select bank0
  3949  0A4C  1303               	bcf	3,6	;RP1=0, select bank0
  3950  0A4D  00BD               	movwf	___fladd@bexp
  3951  0A4E  2A84               	goto	l544
  3952  0A4F                     l546:
  3953  0A4F  1C3E               	btfss	___fladd@grs,0
  3954  0A50  2A52               	goto	u4891
  3955  0A51  2A53               	goto	u4890
  3956  0A52                     u4891:
  3957  0A52  2A60               	goto	l3153
  3958  0A53                     u4890:
  3959  0A53                     l3151:
  3960  0A53  083E               	movf	___fladd@grs,w
  3961  0A54  1683               	bsf	3,5	;RP0=1, select bank1
  3962  0A55  1303               	bcf	3,6	;RP1=0, select bank1
  3963  0A56  00A8               	movwf	??___fladd^(0+128)
  3964  0A57  1003               	clrc
  3965  0A58  0C28               	rrf	??___fladd^(0+128),w
  3966  0A59  3801               	iorlw	1
  3967  0A5A  00A9               	movwf	(??___fladd+1)^(0+128)
  3968  0A5B  0829               	movf	(??___fladd+1)^(0+128),w
  3969  0A5C  1283               	bcf	3,5	;RP0=0, select bank0
  3970  0A5D  1303               	bcf	3,6	;RP1=0, select bank0
  3971  0A5E  00BE               	movwf	___fladd@grs
  3972  0A5F  2A62               	goto	l3155
  3973  0A60                     l3153:
  3974  0A60  1003               	clrc
  3975  0A61  0CBE               	rrf	___fladd@grs,f
  3976  0A62                     l3155:
  3977  0A62  1683               	bsf	3,5	;RP0=1, select bank1
  3978  0A63  1303               	bcf	3,6	;RP1=0, select bank1
  3979  0A64  1C20               	btfss	___fladd@b^(0+128),0
  3980  0A65  2A67               	goto	u4901
  3981  0A66  2A68               	goto	u4900
  3982  0A67                     u4901:
  3983  0A67  2A6B               	goto	l3159
  3984  0A68                     u4900:
  3985  0A68                     l3157:
  3986  0A68  1283               	bcf	3,5	;RP0=0, select bank0
  3987  0A69  1303               	bcf	3,6	;RP1=0, select bank0
  3988  0A6A  17BE               	bsf	___fladd@grs,7
  3989  0A6B                     l3159:
  3990  0A6B  3001               	movlw	1
  3991  0A6C  1683               	bsf	3,5	;RP0=1, select bank1
  3992  0A6D  1303               	bcf	3,6	;RP1=0, select bank1
  3993  0A6E  00A8               	movwf	??___fladd^(0+128)
  3994  0A6F                     u4915:
  3995  0A6F  0D23               	rlf	(___fladd@b+3)^(0+128),w
  3996  0A70  0CA3               	rrf	(___fladd@b+3)^(0+128),f
  3997  0A71  0CA2               	rrf	(___fladd@b+2)^(0+128),f
  3998  0A72  0CA1               	rrf	(___fladd@b+1)^(0+128),f
  3999  0A73  0CA0               	rrf	___fladd@b^(0+128),f
  4000  0A74  0BA8               	decfsz	(??___fladd^(0+128))& (0+127),f
  4001  0A75  2A6F               	goto	u4915
  4002  0A76                     l3161:
  4003  0A76  3001               	movlw	1
  4004  0A77  00A8               	movwf	??___fladd^(0+128)
  4005  0A78  0828               	movf	??___fladd^(0+128),w
  4006  0A79  1283               	bcf	3,5	;RP0=0, select bank0
  4007  0A7A  1303               	bcf	3,6	;RP1=0, select bank0
  4008  0A7B  07BD               	addwf	___fladd@bexp,f
  4009  0A7C                     l3163:
  4010  0A7C  1283               	bcf	3,5	;RP0=0, select bank0
  4011  0A7D  1303               	bcf	3,6	;RP1=0, select bank0
  4012  0A7E  083C               	movf	___fladd@aexp,w
  4013  0A7F  023D               	subwf	___fladd@bexp,w
  4014  0A80  1C03               	skipc
  4015  0A81  2A83               	goto	u4921
  4016  0A82  2A84               	goto	u4920
  4017  0A83                     u4921:
  4018  0A83  2A4F               	goto	l546
  4019  0A84                     u4920:
  4020  0A84                     l544:
  4021  0A84  1B3B               	btfsc	___fladd@signs,6
  4022  0A85  2A87               	goto	u4931
  4023  0A86  2A88               	goto	u4930
  4024  0A87                     u4931:
  4025  0A87  2AE5               	goto	l3189
  4026  0A88                     u4930:
  4027  0A88                     l3165:
  4028  0A88  083D               	movf	___fladd@bexp,w
  4029  0A89  1D03               	btfss	3,2
  4030  0A8A  2A8C               	goto	u4941
  4031  0A8B  2A8D               	goto	u4940
  4032  0A8C                     u4941:
  4033  0A8C  2A98               	goto	l3171
  4034  0A8D                     u4940:
  4035  0A8D                     l3167:
  4036  0A8D  3000               	movlw	0
  4037  0A8E  1683               	bsf	3,5	;RP0=1, select bank1
  4038  0A8F  1303               	bcf	3,6	;RP1=0, select bank1
  4039  0A90  00A3               	movwf	(?___fladd+3)^(0+128)
  4040  0A91  3000               	movlw	0
  4041  0A92  00A2               	movwf	(?___fladd+2)^(0+128)
  4042  0A93  3000               	movlw	0
  4043  0A94  00A1               	movwf	(?___fladd+1)^(0+128)
  4044  0A95  3000               	movlw	0
  4045  0A96  00A0               	movwf	?___fladd^(0+128)
  4046  0A97  2C44               	goto	l553
  4047  0A98                     l3171:
  4048  0A98  1683               	bsf	3,5	;RP0=1, select bank1
  4049  0A99  1303               	bcf	3,6	;RP1=0, select bank1
  4050  0A9A  0824               	movf	___fladd@a^(0+128),w
  4051  0A9B  07A0               	addwf	___fladd@b^(0+128),f
  4052  0A9C  0825               	movf	(___fladd@a+1)^(0+128),w
  4053  0A9D  1103               	clrz
  4054  0A9E  1803               	skipnc
  4055  0A9F  3E01               	addlw	1
  4056  0AA0  1903               	skipnz
  4057  0AA1  2AA3               	goto	u4951
  4058  0AA2  07A1               	addwf	(___fladd@b+1)^(0+128),f
  4059  0AA3                     u4951:
  4060  0AA3  0826               	movf	(___fladd@a+2)^(0+128),w
  4061  0AA4  1103               	clrz
  4062  0AA5  1803               	skipnc
  4063  0AA6  3E01               	addlw	1
  4064  0AA7  1903               	skipnz
  4065  0AA8  2AAA               	goto	u4952
  4066  0AA9  07A2               	addwf	(___fladd@b+2)^(0+128),f
  4067  0AAA                     u4952:
  4068  0AAA  0827               	movf	(___fladd@a+3)^(0+128),w
  4069  0AAB  1103               	clrz
  4070  0AAC  1803               	skipnc
  4071  0AAD  3E01               	addlw	1
  4072  0AAE  1903               	skipnz
  4073  0AAF  2AB1               	goto	u4953
  4074  0AB0  07A3               	addwf	(___fladd@b+3)^(0+128),f
  4075  0AB1                     u4953:
  4076  0AB1                     l3173:
  4077  0AB1  1C23               	btfss	(___fladd@b+3)^(0+128),0
  4078  0AB2  2AB4               	goto	u4961
  4079  0AB3  2AB5               	goto	u4960
  4080  0AB4                     u4961:
  4081  0AB4  2BAC               	goto	l3223
  4082  0AB5                     u4960:
  4083  0AB5                     l3175:
  4084  0AB5  1283               	bcf	3,5	;RP0=0, select bank0
  4085  0AB6  1303               	bcf	3,6	;RP1=0, select bank0
  4086  0AB7  1C3E               	btfss	___fladd@grs,0
  4087  0AB8  2ABA               	goto	u4971
  4088  0AB9  2ABB               	goto	u4970
  4089  0ABA                     u4971:
  4090  0ABA  2AC8               	goto	l3179
  4091  0ABB                     u4970:
  4092  0ABB                     l3177:
  4093  0ABB  083E               	movf	___fladd@grs,w
  4094  0ABC  1683               	bsf	3,5	;RP0=1, select bank1
  4095  0ABD  1303               	bcf	3,6	;RP1=0, select bank1
  4096  0ABE  00A8               	movwf	??___fladd^(0+128)
  4097  0ABF  1003               	clrc
  4098  0AC0  0C28               	rrf	??___fladd^(0+128),w
  4099  0AC1  3801               	iorlw	1
  4100  0AC2  00A9               	movwf	(??___fladd+1)^(0+128)
  4101  0AC3  0829               	movf	(??___fladd+1)^(0+128),w
  4102  0AC4  1283               	bcf	3,5	;RP0=0, select bank0
  4103  0AC5  1303               	bcf	3,6	;RP1=0, select bank0
  4104  0AC6  00BE               	movwf	___fladd@grs
  4105  0AC7  2ACA               	goto	l3181
  4106  0AC8                     l3179:
  4107  0AC8  1003               	clrc
  4108  0AC9  0CBE               	rrf	___fladd@grs,f
  4109  0ACA                     l3181:
  4110  0ACA  1683               	bsf	3,5	;RP0=1, select bank1
  4111  0ACB  1303               	bcf	3,6	;RP1=0, select bank1
  4112  0ACC  1C20               	btfss	___fladd@b^(0+128),0
  4113  0ACD  2ACF               	goto	u4981
  4114  0ACE  2AD0               	goto	u4980
  4115  0ACF                     u4981:
  4116  0ACF  2AD3               	goto	l3185
  4117  0AD0                     u4980:
  4118  0AD0                     l3183:
  4119  0AD0  1283               	bcf	3,5	;RP0=0, select bank0
  4120  0AD1  1303               	bcf	3,6	;RP1=0, select bank0
  4121  0AD2  17BE               	bsf	___fladd@grs,7
  4122  0AD3                     l3185:
  4123  0AD3  3001               	movlw	1
  4124  0AD4  1683               	bsf	3,5	;RP0=1, select bank1
  4125  0AD5  1303               	bcf	3,6	;RP1=0, select bank1
  4126  0AD6  00A8               	movwf	??___fladd^(0+128)
  4127  0AD7                     u4995:
  4128  0AD7  0D23               	rlf	(___fladd@b+3)^(0+128),w
  4129  0AD8  0CA3               	rrf	(___fladd@b+3)^(0+128),f
  4130  0AD9  0CA2               	rrf	(___fladd@b+2)^(0+128),f
  4131  0ADA  0CA1               	rrf	(___fladd@b+1)^(0+128),f
  4132  0ADB  0CA0               	rrf	___fladd@b^(0+128),f
  4133  0ADC  0BA8               	decfsz	(??___fladd^(0+128))& (0+127),f
  4134  0ADD  2AD7               	goto	u4995
  4135  0ADE                     l3187:
  4136  0ADE  3001               	movlw	1
  4137  0ADF  00A8               	movwf	??___fladd^(0+128)
  4138  0AE0  0828               	movf	??___fladd^(0+128),w
  4139  0AE1  1283               	bcf	3,5	;RP0=0, select bank0
  4140  0AE2  1303               	bcf	3,6	;RP1=0, select bank0
  4141  0AE3  07BD               	addwf	___fladd@bexp,f
  4142  0AE4  2BAC               	goto	l3223
  4143  0AE5                     l3189:
  4144  0AE5  1683               	bsf	3,5	;RP0=1, select bank1
  4145  0AE6  1303               	bcf	3,6	;RP1=0, select bank1
  4146  0AE7  0823               	movf	(___fladd@b+3)^(0+128),w
  4147  0AE8  3A80               	xorlw	128
  4148  0AE9  00FF               	movwf	btemp+1
  4149  0AEA  0827               	movf	(___fladd@a+3)^(0+128),w
  4150  0AEB  3A80               	xorlw	128
  4151  0AEC  027F               	subwf	btemp+1,w
  4152  0AED  1D03               	skipz
  4153  0AEE  2AF9               	goto	u5003
  4154  0AEF  0826               	movf	(___fladd@a+2)^(0+128),w
  4155  0AF0  0222               	subwf	(___fladd@b+2)^(0+128),w
  4156  0AF1  1D03               	skipz
  4157  0AF2  2AF9               	goto	u5003
  4158  0AF3  0825               	movf	(___fladd@a+1)^(0+128),w
  4159  0AF4  0221               	subwf	(___fladd@b+1)^(0+128),w
  4160  0AF5  1D03               	skipz
  4161  0AF6  2AF9               	goto	u5003
  4162  0AF7  0824               	movf	___fladd@a^(0+128),w
  4163  0AF8  0220               	subwf	___fladd@b^(0+128),w
  4164  0AF9                     u5003:
  4165  0AF9  1803               	skipnc
  4166  0AFA  2AFC               	goto	u5001
  4167  0AFB  2AFD               	goto	u5000
  4168  0AFC                     u5001:
  4169  0AFC  2B59               	goto	l3199
  4170  0AFD                     u5000:
  4171  0AFD                     l3191:
  4172  0AFD  30FF               	movlw	255
  4173  0AFE  00A8               	movwf	??___fladd^(0+128)
  4174  0AFF  30FF               	movlw	255
  4175  0B00  00A9               	movwf	(??___fladd^(0+128)+1)
  4176  0B01  30FF               	movlw	255
  4177  0B02  00AA               	movwf	(??___fladd^(0+128)+2)
  4178  0B03  30FF               	movlw	255
  4179  0B04  00AB               	movwf	(??___fladd^(0+128)+3)
  4180  0B05  0824               	movf	___fladd@a^(0+128),w
  4181  0B06  00AC               	movwf	(??___fladd+4)^(0+128)
  4182  0B07  0825               	movf	(___fladd@a+1)^(0+128),w
  4183  0B08  00AD               	movwf	((??___fladd+4)^(0+128)+1)
  4184  0B09  0826               	movf	(___fladd@a+2)^(0+128),w
  4185  0B0A  00AE               	movwf	((??___fladd+4)^(0+128)+2)
  4186  0B0B  0827               	movf	(___fladd@a+3)^(0+128),w
  4187  0B0C  00AF               	movwf	((??___fladd+4)^(0+128)+3)
  4188  0B0D  0820               	movf	___fladd@b^(0+128),w
  4189  0B0E  02AC               	subwf	(??___fladd+4)^(0+128),f
  4190  0B0F  0821               	movf	(___fladd@b+1)^(0+128),w
  4191  0B10  1C03               	skipc
  4192  0B11  0F21               	incfsz	(___fladd@b+1)^(0+128),w
  4193  0B12  2B14               	goto	u5011
  4194  0B13  2B15               	goto	u5012
  4195  0B14                     u5011:
  4196  0B14  02AD               	subwf	((??___fladd+4)^(0+128)+1),f
  4197  0B15                     u5012:
  4198  0B15  0822               	movf	(___fladd@b+2)^(0+128),w
  4199  0B16  1C03               	skipc
  4200  0B17  0F22               	incfsz	(___fladd@b+2)^(0+128),w
  4201  0B18  2B1A               	goto	u5013
  4202  0B19  2B1B               	goto	u5014
  4203  0B1A                     u5013:
  4204  0B1A  02AE               	subwf	((??___fladd+4)^(0+128)+2),f
  4205  0B1B                     u5014:
  4206  0B1B  0823               	movf	(___fladd@b+3)^(0+128),w
  4207  0B1C  1C03               	skipc
  4208  0B1D  0F23               	incfsz	(___fladd@b+3)^(0+128),w
  4209  0B1E  2B20               	goto	u5015
  4210  0B1F  2B21               	goto	u5016
  4211  0B20                     u5015:
  4212  0B20  02AF               	subwf	((??___fladd+4)^(0+128)+3),f
  4213  0B21                     u5016:
  4214  0B21  082C               	movf	(??___fladd+4)^(0+128),w
  4215  0B22  07A8               	addwf	??___fladd^(0+128),f
  4216  0B23  082D               	movf	(??___fladd+5)^(0+128),w
  4217  0B24  1803               	skipnc
  4218  0B25  0F2D               	incfsz	(??___fladd+5)^(0+128),w
  4219  0B26  2B28               	goto	u5020
  4220  0B27  2B29               	goto	u5021
  4221  0B28                     u5020:
  4222  0B28  07A9               	addwf	(??___fladd^(0+128)+1),f
  4223  0B29                     u5021:
  4224  0B29  082E               	movf	(??___fladd+6)^(0+128),w
  4225  0B2A  1803               	skipnc
  4226  0B2B  0F2E               	incfsz	(??___fladd+6)^(0+128),w
  4227  0B2C  2B2E               	goto	u5022
  4228  0B2D  2B2F               	goto	u5023
  4229  0B2E                     u5022:
  4230  0B2E  07AA               	addwf	(??___fladd^(0+128)+2),f
  4231  0B2F                     u5023:
  4232  0B2F  082F               	movf	(??___fladd+7)^(0+128),w
  4233  0B30  1803               	skipnc
  4234  0B31  0A2F               	incf	(??___fladd+7)^(0+128),w
  4235  0B32  07AB               	addwf	(??___fladd^(0+128)+3),f
  4236  0B33  082B               	movf	(??___fladd+3)^(0+128),w
  4237  0B34  00A3               	movwf	(___fladd@b+3)^(0+128)
  4238  0B35  082A               	movf	(??___fladd+2)^(0+128),w
  4239  0B36  00A2               	movwf	(___fladd@b+2)^(0+128)
  4240  0B37  0829               	movf	(??___fladd+1)^(0+128),w
  4241  0B38  00A1               	movwf	(___fladd@b+1)^(0+128)
  4242  0B39  0828               	movf	??___fladd^(0+128),w
  4243  0B3A  00A0               	movwf	___fladd@b^(0+128)
  4244  0B3B                     l3193:
  4245  0B3B  3080               	movlw	128
  4246  0B3C  00A8               	movwf	??___fladd^(0+128)
  4247  0B3D  0828               	movf	??___fladd^(0+128),w
  4248  0B3E  1283               	bcf	3,5	;RP0=0, select bank0
  4249  0B3F  1303               	bcf	3,6	;RP1=0, select bank0
  4250  0B40  06BB               	xorwf	___fladd@signs,f
  4251  0B41  09BE               	comf	___fladd@grs,f
  4252  0B42  0ABE               	incf	___fladd@grs,f
  4253  0B43                     l3195:
  4254  0B43  083E               	movf	___fladd@grs,w
  4255  0B44  1D03               	btfss	3,2
  4256  0B45  2B47               	goto	u5031
  4257  0B46  2B48               	goto	u5030
  4258  0B47                     u5031:
  4259  0B47  2B67               	goto	l561
  4260  0B48                     u5030:
  4261  0B48                     l3197:
  4262  0B48  3001               	movlw	1
  4263  0B49  1683               	bsf	3,5	;RP0=1, select bank1
  4264  0B4A  1303               	bcf	3,6	;RP1=0, select bank1
  4265  0B4B  07A0               	addwf	___fladd@b^(0+128),f
  4266  0B4C  3000               	movlw	0
  4267  0B4D  1803               	skipnc
  4268  0B4E  3001               	movlw	1
  4269  0B4F  07A1               	addwf	(___fladd@b+1)^(0+128),f
  4270  0B50  3000               	movlw	0
  4271  0B51  1803               	skipnc
  4272  0B52  3001               	movlw	1
  4273  0B53  07A2               	addwf	(___fladd@b+2)^(0+128),f
  4274  0B54  3000               	movlw	0
  4275  0B55  1803               	skipnc
  4276  0B56  3001               	movlw	1
  4277  0B57  07A3               	addwf	(___fladd@b+3)^(0+128),f
  4278  0B58  2B67               	goto	l561
  4279  0B59                     l3199:
  4280  0B59  0824               	movf	___fladd@a^(0+128),w
  4281  0B5A  02A0               	subwf	___fladd@b^(0+128),f
  4282  0B5B  0825               	movf	(___fladd@a+1)^(0+128),w
  4283  0B5C  1C03               	skipc
  4284  0B5D  0F25               	incfsz	(___fladd@a+1)^(0+128),w
  4285  0B5E  02A1               	subwf	(___fladd@b+1)^(0+128),f
  4286  0B5F  0826               	movf	(___fladd@a+2)^(0+128),w
  4287  0B60  1C03               	skipc
  4288  0B61  0F26               	incfsz	(___fladd@a+2)^(0+128),w
  4289  0B62  02A2               	subwf	(___fladd@b+2)^(0+128),f
  4290  0B63  0827               	movf	(___fladd@a+3)^(0+128),w
  4291  0B64  1C03               	skipc
  4292  0B65  0F27               	incfsz	(___fladd@a+3)^(0+128),w
  4293  0B66  02A3               	subwf	(___fladd@b+3)^(0+128),f
  4294  0B67                     l561:
  4295  0B67  1683               	bsf	3,5	;RP0=1, select bank1
  4296  0B68  1303               	bcf	3,6	;RP1=0, select bank1
  4297  0B69  0823               	movf	(___fladd@b+3)^(0+128),w
  4298  0B6A  0422               	iorwf	(___fladd@b+2)^(0+128),w
  4299  0B6B  0421               	iorwf	(___fladd@b+1)^(0+128),w
  4300  0B6C  0420               	iorwf	___fladd@b^(0+128),w
  4301  0B6D  1D03               	skipz
  4302  0B6E  2B70               	goto	u5041
  4303  0B6F  2B71               	goto	u5040
  4304  0B70                     u5041:
  4305  0B70  2BA6               	goto	l3221
  4306  0B71                     u5040:
  4307  0B71                     l3201:
  4308  0B71  1283               	bcf	3,5	;RP0=0, select bank0
  4309  0B72  1303               	bcf	3,6	;RP1=0, select bank0
  4310  0B73  083E               	movf	___fladd@grs,w
  4311  0B74  1D03               	btfss	3,2
  4312  0B75  2B77               	goto	u5051
  4313  0B76  2B78               	goto	u5050
  4314  0B77                     u5051:
  4315  0B77  2BA6               	goto	l3221
  4316  0B78                     u5050:
  4317  0B78                     l3203:
  4318  0B78  3000               	movlw	0
  4319  0B79  1683               	bsf	3,5	;RP0=1, select bank1
  4320  0B7A  1303               	bcf	3,6	;RP1=0, select bank1
  4321  0B7B  00A3               	movwf	(?___fladd+3)^(0+128)
  4322  0B7C  3000               	movlw	0
  4323  0B7D  00A2               	movwf	(?___fladd+2)^(0+128)
  4324  0B7E  3000               	movlw	0
  4325  0B7F  00A1               	movwf	(?___fladd+1)^(0+128)
  4326  0B80  3000               	movlw	0
  4327  0B81  00A0               	movwf	?___fladd^(0+128)
  4328  0B82  2C44               	goto	l553
  4329  0B83                     l3207:
  4330  0B83  3001               	movlw	1
  4331  0B84  00A8               	movwf	??___fladd^(0+128)
  4332  0B85                     u5065:
  4333  0B85  1003               	clrc
  4334  0B86  0DA0               	rlf	___fladd@b^(0+128),f
  4335  0B87  0DA1               	rlf	(___fladd@b+1)^(0+128),f
  4336  0B88  0DA2               	rlf	(___fladd@b+2)^(0+128),f
  4337  0B89  0DA3               	rlf	(___fladd@b+3)^(0+128),f
  4338  0B8A  0BA8               	decfsz	??___fladd^(0+128),f
  4339  0B8B  2B85               	goto	u5065
  4340  0B8C                     l3209:
  4341  0B8C  1283               	bcf	3,5	;RP0=0, select bank0
  4342  0B8D  1303               	bcf	3,6	;RP1=0, select bank0
  4343  0B8E  1FBE               	btfss	___fladd@grs,7
  4344  0B8F  2B91               	goto	u5071
  4345  0B90  2B92               	goto	u5070
  4346  0B91                     u5071:
  4347  0B91  2B95               	goto	l565
  4348  0B92                     u5070:
  4349  0B92                     l3211:
  4350  0B92  1683               	bsf	3,5	;RP0=1, select bank1
  4351  0B93  1303               	bcf	3,6	;RP1=0, select bank1
  4352  0B94  1420               	bsf	___fladd@b^(0+128),0
  4353  0B95                     l565:
  4354  0B95  1283               	bcf	3,5	;RP0=0, select bank0
  4355  0B96  1C3E               	btfss	___fladd@grs,0
  4356  0B97  2B99               	goto	u5081
  4357  0B98  2B9A               	goto	u5080
  4358  0B99                     u5081:
  4359  0B99  2B9D               	goto	l3215
  4360  0B9A                     u5080:
  4361  0B9A                     l3213:
  4362  0B9A  1403               	setc
  4363  0B9B  0DBE               	rlf	___fladd@grs,f
  4364  0B9C  2B9F               	goto	l3217
  4365  0B9D                     l3215:
  4366  0B9D  1003               	clrc
  4367  0B9E  0DBE               	rlf	___fladd@grs,f
  4368  0B9F                     l3217:
  4369  0B9F  083D               	movf	___fladd@bexp,w
  4370  0BA0  1903               	btfsc	3,2
  4371  0BA1  2BA3               	goto	u5091
  4372  0BA2  2BA4               	goto	u5090
  4373  0BA3                     u5091:
  4374  0BA3  2BA6               	goto	l3221
  4375  0BA4                     u5090:
  4376  0BA4                     l3219:
  4377  0BA4  3001               	movlw	1
  4378  0BA5  02BD               	subwf	___fladd@bexp,f
  4379  0BA6                     l3221:
  4380  0BA6  1683               	bsf	3,5	;RP0=1, select bank1
  4381  0BA7  1303               	bcf	3,6	;RP1=0, select bank1
  4382  0BA8  1FA2               	btfss	(___fladd@b+2)^(0+128),7
  4383  0BA9  2BAB               	goto	u5101
  4384  0BAA  2BAC               	goto	u5100
  4385  0BAB                     u5101:
  4386  0BAB  2B83               	goto	l3207
  4387  0BAC                     u5100:
  4388  0BAC                     l3223:
  4389  0BAC  1283               	bcf	3,5	;RP0=0, select bank0
  4390  0BAD  01BC               	clrf	___fladd@aexp
  4391  0BAE                     l3225:
  4392  0BAE  1FBE               	btfss	___fladd@grs,7
  4393  0BAF  2BB1               	goto	u5111
  4394  0BB0  2BB2               	goto	u5110
  4395  0BB1                     u5111:
  4396  0BB1  2BC3               	goto	l3233
  4397  0BB2                     u5110:
  4398  0BB2                     l3227:
  4399  0BB2  083E               	movf	___fladd@grs,w
  4400  0BB3  397F               	andlw	127
  4401  0BB4  1903               	btfsc	3,2
  4402  0BB5  2BB7               	goto	u5121
  4403  0BB6  2BB8               	goto	u5120
  4404  0BB7                     u5121:
  4405  0BB7  2BBC               	goto	l571
  4406  0BB8                     u5120:
  4407  0BB8                     l3229:
  4408  0BB8  1283               	bcf	3,5	;RP0=0, select bank0
  4409  0BB9  01BC               	clrf	___fladd@aexp
  4410  0BBA  0ABC               	incf	___fladd@aexp,f
  4411  0BBB  2BC3               	goto	l3233
  4412  0BBC                     l571:
  4413  0BBC  1683               	bsf	3,5	;RP0=1, select bank1
  4414  0BBD  1303               	bcf	3,6	;RP1=0, select bank1
  4415  0BBE  1C20               	btfss	___fladd@b^(0+128),0
  4416  0BBF  2BC1               	goto	u5131
  4417  0BC0  2BC2               	goto	u5130
  4418  0BC1                     u5131:
  4419  0BC1  2BC3               	goto	l3233
  4420  0BC2                     u5130:
  4421  0BC2  2BB8               	goto	l3229
  4422  0BC3                     l3233:
  4423  0BC3  1283               	bcf	3,5	;RP0=0, select bank0
  4424  0BC4  083C               	movf	___fladd@aexp,w
  4425  0BC5  1903               	btfsc	3,2
  4426  0BC6  2BC8               	goto	u5141
  4427  0BC7  2BC9               	goto	u5140
  4428  0BC8                     u5141:
  4429  0BC8  2C05               	goto	l574
  4430  0BC9                     u5140:
  4431  0BC9                     l3235:
  4432  0BC9  3001               	movlw	1
  4433  0BCA  1683               	bsf	3,5	;RP0=1, select bank1
  4434  0BCB  1303               	bcf	3,6	;RP1=0, select bank1
  4435  0BCC  07A0               	addwf	___fladd@b^(0+128),f
  4436  0BCD  3000               	movlw	0
  4437  0BCE  1803               	skipnc
  4438  0BCF  3001               	movlw	1
  4439  0BD0  07A1               	addwf	(___fladd@b+1)^(0+128),f
  4440  0BD1  3000               	movlw	0
  4441  0BD2  1803               	skipnc
  4442  0BD3  3001               	movlw	1
  4443  0BD4  07A2               	addwf	(___fladd@b+2)^(0+128),f
  4444  0BD5  3000               	movlw	0
  4445  0BD6  1803               	skipnc
  4446  0BD7  3001               	movlw	1
  4447  0BD8  07A3               	addwf	(___fladd@b+3)^(0+128),f
  4448  0BD9                     l3237:
  4449  0BD9  1C23               	btfss	(___fladd@b+3)^(0+128),0
  4450  0BDA  2BDC               	goto	u5151
  4451  0BDB  2BDD               	goto	u5150
  4452  0BDC                     u5151:
  4453  0BDC  2C05               	goto	l574
  4454  0BDD                     u5150:
  4455  0BDD                     l3239:
  4456  0BDD  0820               	movf	___fladd@b^(0+128),w
  4457  0BDE  00A8               	movwf	??___fladd^(0+128)
  4458  0BDF  0821               	movf	(___fladd@b+1)^(0+128),w
  4459  0BE0  00A9               	movwf	(??___fladd^(0+128)+1)
  4460  0BE1  0822               	movf	(___fladd@b+2)^(0+128),w
  4461  0BE2  00AA               	movwf	(??___fladd^(0+128)+2)
  4462  0BE3  0823               	movf	(___fladd@b+3)^(0+128),w
  4463  0BE4  00AB               	movwf	(??___fladd^(0+128)+3)
  4464  0BE5  3001               	movlw	1
  4465  0BE6  00AC               	movwf	(??___fladd+4)^(0+128)
  4466  0BE7                     u5165:
  4467  0BE7  0D2B               	rlf	(??___fladd^(0+128)+3),w
  4468  0BE8  0CAB               	rrf	(??___fladd^(0+128)+3),f
  4469  0BE9  0CAA               	rrf	(??___fladd^(0+128)+2),f
  4470  0BEA  0CA9               	rrf	(??___fladd^(0+128)+1),f
  4471  0BEB  0CA8               	rrf	??___fladd^(0+128),f
  4472  0BEC                     u5160:
  4473  0BEC  0BAC               	decfsz	(??___fladd+4)^(0+128),f
  4474  0BED  2BE7               	goto	u5165
  4475  0BEE  082B               	movf	(??___fladd+3)^(0+128),w
  4476  0BEF  00A3               	movwf	(___fladd@b+3)^(0+128)
  4477  0BF0  082A               	movf	(??___fladd+2)^(0+128),w
  4478  0BF1  00A2               	movwf	(___fladd@b+2)^(0+128)
  4479  0BF2  0829               	movf	(??___fladd+1)^(0+128),w
  4480  0BF3  00A1               	movwf	(___fladd@b+1)^(0+128)
  4481  0BF4  0828               	movf	??___fladd^(0+128),w
  4482  0BF5  00A0               	movwf	___fladd@b^(0+128)
  4483  0BF6  1283               	bcf	3,5	;RP0=0, select bank0
  4484  0BF7  1303               	bcf	3,6	;RP1=0, select bank0
  4485  0BF8  0A3D               	incf	___fladd@bexp,w
  4486  0BF9  1903               	btfsc	3,2
  4487  0BFA  2BFC               	goto	u5171
  4488  0BFB  2BFD               	goto	u5170
  4489  0BFC                     u5171:
  4490  0BFC  2C05               	goto	l574
  4491  0BFD                     u5170:
  4492  0BFD                     l3241:
  4493  0BFD  3001               	movlw	1
  4494  0BFE  1683               	bsf	3,5	;RP0=1, select bank1
  4495  0BFF  1303               	bcf	3,6	;RP1=0, select bank1
  4496  0C00  00A8               	movwf	??___fladd^(0+128)
  4497  0C01  0828               	movf	??___fladd^(0+128),w
  4498  0C02  1283               	bcf	3,5	;RP0=0, select bank0
  4499  0C03  1303               	bcf	3,6	;RP1=0, select bank0
  4500  0C04  07BD               	addwf	___fladd@bexp,f
  4501  0C05                     l574:
  4502  0C05  1283               	bcf	3,5	;RP0=0, select bank0
  4503  0C06  0A3D               	incf	___fladd@bexp,w
  4504  0C07  1903               	btfsc	3,2
  4505  0C08  2C0A               	goto	u5181
  4506  0C09  2C0B               	goto	u5180
  4507  0C0A                     u5181:
  4508  0C0A  2C10               	goto	l3245
  4509  0C0B                     u5180:
  4510  0C0B                     l3243:
  4511  0C0B  083D               	movf	___fladd@bexp,w
  4512  0C0C  1D03               	btfss	3,2
  4513  0C0D  2C0F               	goto	u5191
  4514  0C0E  2C10               	goto	u5190
  4515  0C0F                     u5191:
  4516  0C0F  2C22               	goto	l3251
  4517  0C10                     u5190:
  4518  0C10                     l3245:
  4519  0C10  3000               	movlw	0
  4520  0C11  1683               	bsf	3,5	;RP0=1, select bank1
  4521  0C12  1303               	bcf	3,6	;RP1=0, select bank1
  4522  0C13  00A3               	movwf	(___fladd@b+3)^(0+128)
  4523  0C14  3000               	movlw	0
  4524  0C15  00A2               	movwf	(___fladd@b+2)^(0+128)
  4525  0C16  3000               	movlw	0
  4526  0C17  00A1               	movwf	(___fladd@b+1)^(0+128)
  4527  0C18  3000               	movlw	0
  4528  0C19  00A0               	movwf	___fladd@b^(0+128)
  4529  0C1A                     l3247:
  4530  0C1A  1283               	bcf	3,5	;RP0=0, select bank0
  4531  0C1B  1303               	bcf	3,6	;RP1=0, select bank0
  4532  0C1C  083D               	movf	___fladd@bexp,w
  4533  0C1D  1D03               	btfss	3,2
  4534  0C1E  2C20               	goto	u5201
  4535  0C1F  2C21               	goto	u5200
  4536  0C20                     u5201:
  4537  0C20  2C22               	goto	l3251
  4538  0C21                     u5200:
  4539  0C21                     l3249:
  4540  0C21  01BB               	clrf	___fladd@signs
  4541  0C22                     l3251:
  4542  0C22  1C3D               	btfss	___fladd@bexp,0
  4543  0C23  2C25               	goto	u5211
  4544  0C24  2C26               	goto	u5210
  4545  0C25                     u5211:
  4546  0C25  2C2A               	goto	l3255
  4547  0C26                     u5210:
  4548  0C26                     l3253:
  4549  0C26  1683               	bsf	3,5	;RP0=1, select bank1
  4550  0C27  1303               	bcf	3,6	;RP1=0, select bank1
  4551  0C28  17A2               	bsf	(___fladd@b^(0+128)+2),7
  4552  0C29  2C30               	goto	l582
  4553  0C2A                     l3255:
  4554  0C2A  307F               	movlw	127
  4555  0C2B  1683               	bsf	3,5	;RP0=1, select bank1
  4556  0C2C  1303               	bcf	3,6	;RP1=0, select bank1
  4557  0C2D  00A8               	movwf	??___fladd^(0+128)
  4558  0C2E  0828               	movf	??___fladd^(0+128),w
  4559  0C2F  05A2               	andwf	(___fladd@b^(0+128)+2),f
  4560  0C30                     l582:
  4561  0C30  1283               	bcf	3,5	;RP0=0, select bank0
  4562  0C31  1303               	bcf	3,6	;RP1=0, select bank0
  4563  0C32  083D               	movf	___fladd@bexp,w
  4564  0C33  1683               	bsf	3,5	;RP0=1, select bank1
  4565  0C34  1303               	bcf	3,6	;RP1=0, select bank1
  4566  0C35  00A8               	movwf	??___fladd^(0+128)
  4567  0C36  1003               	clrc
  4568  0C37  0C28               	rrf	??___fladd^(0+128),w
  4569  0C38  00A9               	movwf	(??___fladd+1)^(0+128)
  4570  0C39  0829               	movf	(??___fladd+1)^(0+128),w
  4571  0C3A  00A3               	movwf	(___fladd@b^(0+128)+3)
  4572  0C3B                     l3257:
  4573  0C3B  1283               	bcf	3,5	;RP0=0, select bank0
  4574  0C3C  1303               	bcf	3,6	;RP1=0, select bank0
  4575  0C3D  1FBB               	btfss	___fladd@signs,7
  4576  0C3E  2C40               	goto	u5221
  4577  0C3F  2C41               	goto	u5220
  4578  0C40                     u5221:
  4579  0C40  2C44               	goto	l583
  4580  0C41                     u5220:
  4581  0C41                     l3259:
  4582  0C41  1683               	bsf	3,5	;RP0=1, select bank1
  4583  0C42  1303               	bcf	3,6	;RP1=0, select bank1
  4584  0C43  17A3               	bsf	(___fladd@b^(0+128)+3),7
  4585  0C44                     l583:
  4586  0C44                     l553:
  4587  0C44  0008               	return
  4588  0C45                     __end_of___fladd:
  4589                           
  4590                           	psect	text8
  4591  0C45                     __ptext8:	
  4592 ;; *************** function ___flmul *****************
  4593 ;; Defined at:
  4594 ;;		line 8 in file "C:\Program Files\Microchip\xc8\v2.31\pic\sources\c90\common\sprcmul.c"
  4595 ;; Parameters:    Size  Location     Type
  4596 ;;  b               4   35[BANK1 ] unsigned char 
  4597 ;;  a               4   39[BANK1 ] unsigned char 
  4598 ;; Auto vars:     Size  Location     Type
  4599 ;;  prod            4   55[BANK1 ] struct .
  4600 ;;  grs             4   50[BANK1 ] unsigned long 
  4601 ;;  temp            2   59[BANK1 ] struct .
  4602 ;;  bexp            1   54[BANK1 ] unsigned char 
  4603 ;;  aexp            1   49[BANK1 ] unsigned char 
  4604 ;;  sign            1   48[BANK1 ] unsigned char 
  4605 ;; Return value:  Size  Location     Type
  4606 ;;                  4   35[BANK1 ] unsigned char 
  4607 ;; Registers used:
  4608 ;;		wreg, status,2, status,0, btemp+1, pclath, cstack
  4609 ;; Tracked objects:
  4610 ;;		On entry : 0/0
  4611 ;;		On exit  : 0/0
  4612 ;;		Unchanged: 0/0
  4613 ;; Data sizes:     COMMON   BANK0   BANK1   BANK3   BANK2
  4614 ;;      Params:         0       0       8       0       0
  4615 ;;      Locals:         0       0      13       0       0
  4616 ;;      Temps:          0       0       5       0       0
  4617 ;;      Totals:         0       0      26       0       0
  4618 ;;Total ram usage:       26 bytes
  4619 ;; Hardware stack levels used:    1
  4620 ;; Hardware stack levels required when called:    3
  4621 ;; This function calls:
  4622 ;;		__Umul8_16
  4623 ;; This function is called by:
  4624 ;;		_main
  4625 ;;		_convert
  4626 ;; This function uses a non-reentrant model
  4627 ;;
  4628                           
  4629                           
  4630                           ;psect for function ___flmul
  4631  0C45                     ___flmul:
  4632  0C45                     l3557:	
  4633                           ;incstack = 0
  4634                           ; Regs used in ___flmul: [wreg+status,2+status,0+btemp+1+pclath+cstack]
  4635                           
  4636  0C45  1683               	bsf	3,5	;RP0=1, select bank1
  4637  0C46  1303               	bcf	3,6	;RP1=0, select bank1
  4638  0C47  0846               	movf	(___flmul@b^(0+128)+3),w
  4639  0C48  3980               	andlw	128
  4640  0C49  00CB               	movwf	??___flmul^(0+128)
  4641  0C4A  084B               	movf	??___flmul^(0+128),w
  4642  0C4B  00D0               	movwf	___flmul@sign^(0+128)
  4643  0C4C                     l3559:
  4644  0C4C  0846               	movf	(___flmul@b^(0+128)+3),w
  4645  0C4D  00CB               	movwf	??___flmul^(0+128)
  4646  0C4E  074B               	addwf	??___flmul^(0+128),w
  4647  0C4F  00CC               	movwf	(??___flmul+1)^(0+128)
  4648  0C50  084C               	movf	(??___flmul+1)^(0+128),w
  4649  0C51  00D6               	movwf	___flmul@bexp^(0+128)
  4650  0C52                     l3561:
  4651  0C52  1FC5               	btfss	(___flmul@b^(0+128)+2),7
  4652  0C53  2C55               	goto	u5871
  4653  0C54  2C56               	goto	u5870
  4654  0C55                     u5871:
  4655  0C55  2C57               	goto	l3565
  4656  0C56                     u5870:
  4657  0C56                     l3563:
  4658  0C56  1456               	bsf	___flmul@bexp^(0+128),0
  4659  0C57                     l3565:
  4660  0C57  0856               	movf	___flmul@bexp^(0+128),w
  4661  0C58  1903               	btfsc	3,2
  4662  0C59  2C5B               	goto	u5881
  4663  0C5A  2C5C               	goto	u5880
  4664  0C5B                     u5881:
  4665  0C5B  2C6B               	goto	l3573
  4666  0C5C                     u5880:
  4667  0C5C                     l3567:
  4668  0C5C  0A56               	incf	___flmul@bexp^(0+128),w
  4669  0C5D  1D03               	btfss	3,2
  4670  0C5E  2C60               	goto	u5891
  4671  0C5F  2C61               	goto	u5890
  4672  0C60                     u5891:
  4673  0C60  2C69               	goto	l3571
  4674  0C61                     u5890:
  4675  0C61                     l3569:
  4676  0C61  3000               	movlw	0
  4677  0C62  00C6               	movwf	(___flmul@b+3)^(0+128)
  4678  0C63  3000               	movlw	0
  4679  0C64  00C5               	movwf	(___flmul@b+2)^(0+128)
  4680  0C65  3000               	movlw	0
  4681  0C66  00C4               	movwf	(___flmul@b+1)^(0+128)
  4682  0C67  3000               	movlw	0
  4683  0C68  00C3               	movwf	___flmul@b^(0+128)
  4684  0C69                     l3571:
  4685  0C69  17C5               	bsf	(___flmul@b^(0+128)+2),7
  4686  0C6A  2C73               	goto	l3575
  4687  0C6B                     l3573:
  4688  0C6B  3000               	movlw	0
  4689  0C6C  00C6               	movwf	(___flmul@b+3)^(0+128)
  4690  0C6D  3000               	movlw	0
  4691  0C6E  00C5               	movwf	(___flmul@b+2)^(0+128)
  4692  0C6F  3000               	movlw	0
  4693  0C70  00C4               	movwf	(___flmul@b+1)^(0+128)
  4694  0C71  3000               	movlw	0
  4695  0C72  00C3               	movwf	___flmul@b^(0+128)
  4696  0C73                     l3575:
  4697  0C73  084A               	movf	(___flmul@a^(0+128)+3),w
  4698  0C74  3980               	andlw	128
  4699  0C75  00CB               	movwf	??___flmul^(0+128)
  4700  0C76  084B               	movf	??___flmul^(0+128),w
  4701  0C77  06D0               	xorwf	___flmul@sign^(0+128),f
  4702  0C78                     l3577:
  4703  0C78  084A               	movf	(___flmul@a^(0+128)+3),w
  4704  0C79  00CB               	movwf	??___flmul^(0+128)
  4705  0C7A  074B               	addwf	??___flmul^(0+128),w
  4706  0C7B  00CC               	movwf	(??___flmul+1)^(0+128)
  4707  0C7C  084C               	movf	(??___flmul+1)^(0+128),w
  4708  0C7D  00D1               	movwf	___flmul@aexp^(0+128)
  4709  0C7E                     l3579:
  4710  0C7E  1FC9               	btfss	(___flmul@a^(0+128)+2),7
  4711  0C7F  2C81               	goto	u5901
  4712  0C80  2C82               	goto	u5900
  4713  0C81                     u5901:
  4714  0C81  2C83               	goto	l3583
  4715  0C82                     u5900:
  4716  0C82                     l3581:
  4717  0C82  1451               	bsf	___flmul@aexp^(0+128),0
  4718  0C83                     l3583:
  4719  0C83  0851               	movf	___flmul@aexp^(0+128),w
  4720  0C84  1903               	btfsc	3,2
  4721  0C85  2C87               	goto	u5911
  4722  0C86  2C88               	goto	u5910
  4723  0C87                     u5911:
  4724  0C87  2C97               	goto	l3591
  4725  0C88                     u5910:
  4726  0C88                     l3585:
  4727  0C88  0A51               	incf	___flmul@aexp^(0+128),w
  4728  0C89  1D03               	btfss	3,2
  4729  0C8A  2C8C               	goto	u5921
  4730  0C8B  2C8D               	goto	u5920
  4731  0C8C                     u5921:
  4732  0C8C  2C95               	goto	l3589
  4733  0C8D                     u5920:
  4734  0C8D                     l3587:
  4735  0C8D  3000               	movlw	0
  4736  0C8E  00CA               	movwf	(___flmul@a+3)^(0+128)
  4737  0C8F  3000               	movlw	0
  4738  0C90  00C9               	movwf	(___flmul@a+2)^(0+128)
  4739  0C91  3000               	movlw	0
  4740  0C92  00C8               	movwf	(___flmul@a+1)^(0+128)
  4741  0C93  3000               	movlw	0
  4742  0C94  00C7               	movwf	___flmul@a^(0+128)
  4743  0C95                     l3589:
  4744  0C95  17C9               	bsf	(___flmul@a^(0+128)+2),7
  4745  0C96  2C9F               	goto	l3593
  4746  0C97                     l3591:
  4747  0C97  3000               	movlw	0
  4748  0C98  00CA               	movwf	(___flmul@a+3)^(0+128)
  4749  0C99  3000               	movlw	0
  4750  0C9A  00C9               	movwf	(___flmul@a+2)^(0+128)
  4751  0C9B  3000               	movlw	0
  4752  0C9C  00C8               	movwf	(___flmul@a+1)^(0+128)
  4753  0C9D  3000               	movlw	0
  4754  0C9E  00C7               	movwf	___flmul@a^(0+128)
  4755  0C9F                     l3593:
  4756  0C9F  0851               	movf	___flmul@aexp^(0+128),w
  4757  0CA0  1903               	btfsc	3,2
  4758  0CA1  2CA3               	goto	u5931
  4759  0CA2  2CA4               	goto	u5930
  4760  0CA3                     u5931:
  4761  0CA3  2CA9               	goto	l3597
  4762  0CA4                     u5930:
  4763  0CA4                     l3595:
  4764  0CA4  0856               	movf	___flmul@bexp^(0+128),w
  4765  0CA5  1D03               	btfss	3,2
  4766  0CA6  2CA8               	goto	u5941
  4767  0CA7  2CA9               	goto	u5940
  4768  0CA8                     u5941:
  4769  0CA8  2CB2               	goto	l3601
  4770  0CA9                     u5940:
  4771  0CA9                     l3597:
  4772  0CA9  3000               	movlw	0
  4773  0CAA  00C6               	movwf	(?___flmul+3)^(0+128)
  4774  0CAB  3000               	movlw	0
  4775  0CAC  00C5               	movwf	(?___flmul+2)^(0+128)
  4776  0CAD  3000               	movlw	0
  4777  0CAE  00C4               	movwf	(?___flmul+1)^(0+128)
  4778  0CAF  3000               	movlw	0
  4779  0CB0  00C3               	movwf	?___flmul^(0+128)
  4780  0CB1  2FFF               	goto	l636
  4781  0CB2                     l3601:
  4782  0CB2  0843               	movf	___flmul@b^(0+128),w
  4783  0CB3  00CB               	movwf	??___flmul^(0+128)
  4784  0CB4  084B               	movf	??___flmul^(0+128),w
  4785  0CB5  1283               	bcf	3,5	;RP0=0, select bank0
  4786  0CB6  1303               	bcf	3,6	;RP1=0, select bank0
  4787  0CB7  00BB               	movwf	__Umul8_16@multiplicand
  4788  0CB8  1683               	bsf	3,5	;RP0=1, select bank1
  4789  0CB9  1303               	bcf	3,6	;RP1=0, select bank1
  4790  0CBA  0849               	movf	(___flmul@a^(0+128)+2),w
  4791  0CBB  160A  158A  27C9  120A  158A  	fcall	__Umul8_16
  4792  0CC0  1283               	bcf	3,5	;RP0=0, select bank0
  4793  0CC1  1303               	bcf	3,6	;RP1=0, select bank0
  4794  0CC2  083C               	movf	?__Umul8_16+1,w
  4795  0CC3  1683               	bsf	3,5	;RP0=1, select bank1
  4796  0CC4  1303               	bcf	3,6	;RP1=0, select bank1
  4797  0CC5  00DC               	movwf	(___flmul@temp+1)^(0+128)
  4798  0CC6  1283               	bcf	3,5	;RP0=0, select bank0
  4799  0CC7  1303               	bcf	3,6	;RP1=0, select bank0
  4800  0CC8  083B               	movf	?__Umul8_16,w
  4801  0CC9  1683               	bsf	3,5	;RP0=1, select bank1
  4802  0CCA  1303               	bcf	3,6	;RP1=0, select bank1
  4803  0CCB  00DB               	movwf	___flmul@temp^(0+128)
  4804  0CCC                     l3603:
  4805  0CCC  085B               	movf	___flmul@temp^(0+128),w
  4806  0CCD  00CB               	movwf	??___flmul^(0+128)
  4807  0CCE  01CC               	clrf	(??___flmul^(0+128)+1)
  4808  0CCF  01CD               	clrf	(??___flmul^(0+128)+2)
  4809  0CD0  01CE               	clrf	(??___flmul^(0+128)+3)
  4810  0CD1  084E               	movf	(??___flmul+3)^(0+128),w
  4811  0CD2  00D5               	movwf	(___flmul@grs+3)^(0+128)
  4812  0CD3  084D               	movf	(??___flmul+2)^(0+128),w
  4813  0CD4  00D4               	movwf	(___flmul@grs+2)^(0+128)
  4814  0CD5  084C               	movf	(??___flmul+1)^(0+128),w
  4815  0CD6  00D3               	movwf	(___flmul@grs+1)^(0+128)
  4816  0CD7  084B               	movf	??___flmul^(0+128),w
  4817  0CD8  00D2               	movwf	___flmul@grs^(0+128)
  4818  0CD9                     l3605:
  4819  0CD9  085C               	movf	(___flmul@temp^(0+128)+1),w
  4820  0CDA  00CB               	movwf	??___flmul^(0+128)
  4821  0CDB  01CC               	clrf	(??___flmul^(0+128)+1)
  4822  0CDC  01CD               	clrf	(??___flmul^(0+128)+2)
  4823  0CDD  01CE               	clrf	(??___flmul^(0+128)+3)
  4824  0CDE  084E               	movf	(??___flmul+3)^(0+128),w
  4825  0CDF  00DA               	movwf	(___flmul@prod+3)^(0+128)
  4826  0CE0  084D               	movf	(??___flmul+2)^(0+128),w
  4827  0CE1  00D9               	movwf	(___flmul@prod+2)^(0+128)
  4828  0CE2  084C               	movf	(??___flmul+1)^(0+128),w
  4829  0CE3  00D8               	movwf	(___flmul@prod+1)^(0+128)
  4830  0CE4  084B               	movf	??___flmul^(0+128),w
  4831  0CE5  00D7               	movwf	___flmul@prod^(0+128)
  4832  0CE6  0844               	movf	(___flmul@b^(0+128)+1),w
  4833  0CE7  00CB               	movwf	??___flmul^(0+128)
  4834  0CE8  084B               	movf	??___flmul^(0+128),w
  4835  0CE9  1283               	bcf	3,5	;RP0=0, select bank0
  4836  0CEA  1303               	bcf	3,6	;RP1=0, select bank0
  4837  0CEB  00BB               	movwf	__Umul8_16@multiplicand
  4838  0CEC  1683               	bsf	3,5	;RP0=1, select bank1
  4839  0CED  1303               	bcf	3,6	;RP1=0, select bank1
  4840  0CEE  0848               	movf	(___flmul@a^(0+128)+1),w
  4841  0CEF  160A  158A  27C9  120A  158A  	fcall	__Umul8_16
  4842  0CF4  1283               	bcf	3,5	;RP0=0, select bank0
  4843  0CF5  1303               	bcf	3,6	;RP1=0, select bank0
  4844  0CF6  083C               	movf	?__Umul8_16+1,w
  4845  0CF7  1683               	bsf	3,5	;RP0=1, select bank1
  4846  0CF8  1303               	bcf	3,6	;RP1=0, select bank1
  4847  0CF9  00DC               	movwf	(___flmul@temp+1)^(0+128)
  4848  0CFA  1283               	bcf	3,5	;RP0=0, select bank0
  4849  0CFB  1303               	bcf	3,6	;RP1=0, select bank0
  4850  0CFC  083B               	movf	?__Umul8_16,w
  4851  0CFD  1683               	bsf	3,5	;RP0=1, select bank1
  4852  0CFE  1303               	bcf	3,6	;RP1=0, select bank1
  4853  0CFF  00DB               	movwf	___flmul@temp^(0+128)
  4854  0D00                     l3607:
  4855  0D00  085B               	movf	___flmul@temp^(0+128),w
  4856  0D01  00CB               	movwf	??___flmul^(0+128)
  4857  0D02  01CC               	clrf	(??___flmul^(0+128)+1)
  4858  0D03  01CD               	clrf	(??___flmul^(0+128)+2)
  4859  0D04  01CE               	clrf	(??___flmul^(0+128)+3)
  4860  0D05  084B               	movf	??___flmul^(0+128),w
  4861  0D06  07D2               	addwf	___flmul@grs^(0+128),f
  4862  0D07  084C               	movf	(??___flmul+1)^(0+128),w
  4863  0D08  1103               	clrz
  4864  0D09  1803               	skipnc
  4865  0D0A  3E01               	addlw	1
  4866  0D0B  1903               	skipnz
  4867  0D0C  2D0E               	goto	u5951
  4868  0D0D  07D3               	addwf	(___flmul@grs+1)^(0+128),f
  4869  0D0E                     u5951:
  4870  0D0E  084D               	movf	(??___flmul+2)^(0+128),w
  4871  0D0F  1103               	clrz
  4872  0D10  1803               	skipnc
  4873  0D11  3E01               	addlw	1
  4874  0D12  1903               	skipnz
  4875  0D13  2D15               	goto	u5952
  4876  0D14  07D4               	addwf	(___flmul@grs+2)^(0+128),f
  4877  0D15                     u5952:
  4878  0D15  084E               	movf	(??___flmul+3)^(0+128),w
  4879  0D16  1103               	clrz
  4880  0D17  1803               	skipnc
  4881  0D18  3E01               	addlw	1
  4882  0D19  1903               	skipnz
  4883  0D1A  2D1C               	goto	u5953
  4884  0D1B  07D5               	addwf	(___flmul@grs+3)^(0+128),f
  4885  0D1C                     u5953:
  4886  0D1C                     l3609:
  4887  0D1C  085C               	movf	(___flmul@temp^(0+128)+1),w
  4888  0D1D  00CB               	movwf	??___flmul^(0+128)
  4889  0D1E  01CC               	clrf	(??___flmul^(0+128)+1)
  4890  0D1F  01CD               	clrf	(??___flmul^(0+128)+2)
  4891  0D20  01CE               	clrf	(??___flmul^(0+128)+3)
  4892  0D21  084B               	movf	??___flmul^(0+128),w
  4893  0D22  07D7               	addwf	___flmul@prod^(0+128),f
  4894  0D23  084C               	movf	(??___flmul+1)^(0+128),w
  4895  0D24  1103               	clrz
  4896  0D25  1803               	skipnc
  4897  0D26  3E01               	addlw	1
  4898  0D27  1903               	skipnz
  4899  0D28  2D2A               	goto	u5961
  4900  0D29  07D8               	addwf	(___flmul@prod+1)^(0+128),f
  4901  0D2A                     u5961:
  4902  0D2A  084D               	movf	(??___flmul+2)^(0+128),w
  4903  0D2B  1103               	clrz
  4904  0D2C  1803               	skipnc
  4905  0D2D  3E01               	addlw	1
  4906  0D2E  1903               	skipnz
  4907  0D2F  2D31               	goto	u5962
  4908  0D30  07D9               	addwf	(___flmul@prod+2)^(0+128),f
  4909  0D31                     u5962:
  4910  0D31  084E               	movf	(??___flmul+3)^(0+128),w
  4911  0D32  1103               	clrz
  4912  0D33  1803               	skipnc
  4913  0D34  3E01               	addlw	1
  4914  0D35  1903               	skipnz
  4915  0D36  2D38               	goto	u5963
  4916  0D37  07DA               	addwf	(___flmul@prod+3)^(0+128),f
  4917  0D38                     u5963:
  4918  0D38  0845               	movf	(___flmul@b^(0+128)+2),w
  4919  0D39  00CB               	movwf	??___flmul^(0+128)
  4920  0D3A  084B               	movf	??___flmul^(0+128),w
  4921  0D3B  1283               	bcf	3,5	;RP0=0, select bank0
  4922  0D3C  1303               	bcf	3,6	;RP1=0, select bank0
  4923  0D3D  00BB               	movwf	__Umul8_16@multiplicand
  4924  0D3E  1683               	bsf	3,5	;RP0=1, select bank1
  4925  0D3F  1303               	bcf	3,6	;RP1=0, select bank1
  4926  0D40  0847               	movf	___flmul@a^(0+128),w
  4927  0D41  160A  158A  27C9  120A  158A  	fcall	__Umul8_16
  4928  0D46  1283               	bcf	3,5	;RP0=0, select bank0
  4929  0D47  1303               	bcf	3,6	;RP1=0, select bank0
  4930  0D48  083C               	movf	?__Umul8_16+1,w
  4931  0D49  1683               	bsf	3,5	;RP0=1, select bank1
  4932  0D4A  1303               	bcf	3,6	;RP1=0, select bank1
  4933  0D4B  00DC               	movwf	(___flmul@temp+1)^(0+128)
  4934  0D4C  1283               	bcf	3,5	;RP0=0, select bank0
  4935  0D4D  1303               	bcf	3,6	;RP1=0, select bank0
  4936  0D4E  083B               	movf	?__Umul8_16,w
  4937  0D4F  1683               	bsf	3,5	;RP0=1, select bank1
  4938  0D50  1303               	bcf	3,6	;RP1=0, select bank1
  4939  0D51  00DB               	movwf	___flmul@temp^(0+128)
  4940  0D52                     l3611:
  4941  0D52  085B               	movf	___flmul@temp^(0+128),w
  4942  0D53  00CB               	movwf	??___flmul^(0+128)
  4943  0D54  01CC               	clrf	(??___flmul^(0+128)+1)
  4944  0D55  01CD               	clrf	(??___flmul^(0+128)+2)
  4945  0D56  01CE               	clrf	(??___flmul^(0+128)+3)
  4946  0D57  084B               	movf	??___flmul^(0+128),w
  4947  0D58  07D2               	addwf	___flmul@grs^(0+128),f
  4948  0D59  084C               	movf	(??___flmul+1)^(0+128),w
  4949  0D5A  1103               	clrz
  4950  0D5B  1803               	skipnc
  4951  0D5C  3E01               	addlw	1
  4952  0D5D  1903               	skipnz
  4953  0D5E  2D60               	goto	u5971
  4954  0D5F  07D3               	addwf	(___flmul@grs+1)^(0+128),f
  4955  0D60                     u5971:
  4956  0D60  084D               	movf	(??___flmul+2)^(0+128),w
  4957  0D61  1103               	clrz
  4958  0D62  1803               	skipnc
  4959  0D63  3E01               	addlw	1
  4960  0D64  1903               	skipnz
  4961  0D65  2D67               	goto	u5972
  4962  0D66  07D4               	addwf	(___flmul@grs+2)^(0+128),f
  4963  0D67                     u5972:
  4964  0D67  084E               	movf	(??___flmul+3)^(0+128),w
  4965  0D68  1103               	clrz
  4966  0D69  1803               	skipnc
  4967  0D6A  3E01               	addlw	1
  4968  0D6B  1903               	skipnz
  4969  0D6C  2D6E               	goto	u5973
  4970  0D6D  07D5               	addwf	(___flmul@grs+3)^(0+128),f
  4971  0D6E                     u5973:
  4972  0D6E                     l3613:
  4973  0D6E  085C               	movf	(___flmul@temp^(0+128)+1),w
  4974  0D6F  00CB               	movwf	??___flmul^(0+128)
  4975  0D70  01CC               	clrf	(??___flmul^(0+128)+1)
  4976  0D71  01CD               	clrf	(??___flmul^(0+128)+2)
  4977  0D72  01CE               	clrf	(??___flmul^(0+128)+3)
  4978  0D73  084B               	movf	??___flmul^(0+128),w
  4979  0D74  07D7               	addwf	___flmul@prod^(0+128),f
  4980  0D75  084C               	movf	(??___flmul+1)^(0+128),w
  4981  0D76  1103               	clrz
  4982  0D77  1803               	skipnc
  4983  0D78  3E01               	addlw	1
  4984  0D79  1903               	skipnz
  4985  0D7A  2D7C               	goto	u5981
  4986  0D7B  07D8               	addwf	(___flmul@prod+1)^(0+128),f
  4987  0D7C                     u5981:
  4988  0D7C  084D               	movf	(??___flmul+2)^(0+128),w
  4989  0D7D  1103               	clrz
  4990  0D7E  1803               	skipnc
  4991  0D7F  3E01               	addlw	1
  4992  0D80  1903               	skipnz
  4993  0D81  2D83               	goto	u5982
  4994  0D82  07D9               	addwf	(___flmul@prod+2)^(0+128),f
  4995  0D83                     u5982:
  4996  0D83  084E               	movf	(??___flmul+3)^(0+128),w
  4997  0D84  1103               	clrz
  4998  0D85  1803               	skipnc
  4999  0D86  3E01               	addlw	1
  5000  0D87  1903               	skipnz
  5001  0D88  2D8A               	goto	u5983
  5002  0D89  07DA               	addwf	(___flmul@prod+3)^(0+128),f
  5003  0D8A                     u5983:
  5004  0D8A                     l3615:
  5005  0D8A  3008               	movlw	8
  5006  0D8B  00CB               	movwf	??___flmul^(0+128)
  5007  0D8C                     u5995:
  5008  0D8C  1003               	clrc
  5009  0D8D  0DD2               	rlf	___flmul@grs^(0+128),f
  5010  0D8E  0DD3               	rlf	(___flmul@grs+1)^(0+128),f
  5011  0D8F  0DD4               	rlf	(___flmul@grs+2)^(0+128),f
  5012  0D90  0DD5               	rlf	(___flmul@grs+3)^(0+128),f
  5013  0D91  0BCB               	decfsz	??___flmul^(0+128),f
  5014  0D92  2D8C               	goto	u5995
  5015  0D93                     l3617:
  5016  0D93  0844               	movf	(___flmul@b^(0+128)+1),w
  5017  0D94  00CB               	movwf	??___flmul^(0+128)
  5018  0D95  084B               	movf	??___flmul^(0+128),w
  5019  0D96  1283               	bcf	3,5	;RP0=0, select bank0
  5020  0D97  1303               	bcf	3,6	;RP1=0, select bank0
  5021  0D98  00BB               	movwf	__Umul8_16@multiplicand
  5022  0D99  1683               	bsf	3,5	;RP0=1, select bank1
  5023  0D9A  1303               	bcf	3,6	;RP1=0, select bank1
  5024  0D9B  0847               	movf	___flmul@a^(0+128),w
  5025  0D9C  160A  158A  27C9  120A  158A  	fcall	__Umul8_16
  5026  0DA1  1283               	bcf	3,5	;RP0=0, select bank0
  5027  0DA2  1303               	bcf	3,6	;RP1=0, select bank0
  5028  0DA3  083C               	movf	?__Umul8_16+1,w
  5029  0DA4  1683               	bsf	3,5	;RP0=1, select bank1
  5030  0DA5  1303               	bcf	3,6	;RP1=0, select bank1
  5031  0DA6  00DC               	movwf	(___flmul@temp+1)^(0+128)
  5032  0DA7  1283               	bcf	3,5	;RP0=0, select bank0
  5033  0DA8  1303               	bcf	3,6	;RP1=0, select bank0
  5034  0DA9  083B               	movf	?__Umul8_16,w
  5035  0DAA  1683               	bsf	3,5	;RP0=1, select bank1
  5036  0DAB  1303               	bcf	3,6	;RP1=0, select bank1
  5037  0DAC  00DB               	movwf	___flmul@temp^(0+128)
  5038  0DAD                     l3619:
  5039  0DAD  085B               	movf	___flmul@temp^(0+128),w
  5040  0DAE  00CB               	movwf	??___flmul^(0+128)
  5041  0DAF  085C               	movf	(___flmul@temp+1)^(0+128),w
  5042  0DB0  00CC               	movwf	(??___flmul^(0+128)+1)
  5043  0DB1  01CD               	clrf	(??___flmul^(0+128)+2)
  5044  0DB2  01CE               	clrf	(??___flmul^(0+128)+3)
  5045  0DB3  084B               	movf	??___flmul^(0+128),w
  5046  0DB4  07D2               	addwf	___flmul@grs^(0+128),f
  5047  0DB5  084C               	movf	(??___flmul+1)^(0+128),w
  5048  0DB6  1103               	clrz
  5049  0DB7  1803               	skipnc
  5050  0DB8  3E01               	addlw	1
  5051  0DB9  1903               	skipnz
  5052  0DBA  2DBC               	goto	u6001
  5053  0DBB  07D3               	addwf	(___flmul@grs+1)^(0+128),f
  5054  0DBC                     u6001:
  5055  0DBC  084D               	movf	(??___flmul+2)^(0+128),w
  5056  0DBD  1103               	clrz
  5057  0DBE  1803               	skipnc
  5058  0DBF  3E01               	addlw	1
  5059  0DC0  1903               	skipnz
  5060  0DC1  2DC3               	goto	u6002
  5061  0DC2  07D4               	addwf	(___flmul@grs+2)^(0+128),f
  5062  0DC3                     u6002:
  5063  0DC3  084E               	movf	(??___flmul+3)^(0+128),w
  5064  0DC4  1103               	clrz
  5065  0DC5  1803               	skipnc
  5066  0DC6  3E01               	addlw	1
  5067  0DC7  1903               	skipnz
  5068  0DC8  2DCA               	goto	u6003
  5069  0DC9  07D5               	addwf	(___flmul@grs+3)^(0+128),f
  5070  0DCA                     u6003:
  5071  0DCA                     l3621:
  5072  0DCA  0843               	movf	___flmul@b^(0+128),w
  5073  0DCB  00CB               	movwf	??___flmul^(0+128)
  5074  0DCC  084B               	movf	??___flmul^(0+128),w
  5075  0DCD  1283               	bcf	3,5	;RP0=0, select bank0
  5076  0DCE  1303               	bcf	3,6	;RP1=0, select bank0
  5077  0DCF  00BB               	movwf	__Umul8_16@multiplicand
  5078  0DD0  1683               	bsf	3,5	;RP0=1, select bank1
  5079  0DD1  1303               	bcf	3,6	;RP1=0, select bank1
  5080  0DD2  0848               	movf	(___flmul@a^(0+128)+1),w
  5081  0DD3  160A  158A  27C9  120A  158A  	fcall	__Umul8_16
  5082  0DD8  1283               	bcf	3,5	;RP0=0, select bank0
  5083  0DD9  1303               	bcf	3,6	;RP1=0, select bank0
  5084  0DDA  083C               	movf	?__Umul8_16+1,w
  5085  0DDB  1683               	bsf	3,5	;RP0=1, select bank1
  5086  0DDC  1303               	bcf	3,6	;RP1=0, select bank1
  5087  0DDD  00DC               	movwf	(___flmul@temp+1)^(0+128)
  5088  0DDE  1283               	bcf	3,5	;RP0=0, select bank0
  5089  0DDF  1303               	bcf	3,6	;RP1=0, select bank0
  5090  0DE0  083B               	movf	?__Umul8_16,w
  5091  0DE1  1683               	bsf	3,5	;RP0=1, select bank1
  5092  0DE2  1303               	bcf	3,6	;RP1=0, select bank1
  5093  0DE3  00DB               	movwf	___flmul@temp^(0+128)
  5094  0DE4                     l3623:
  5095  0DE4  085B               	movf	___flmul@temp^(0+128),w
  5096  0DE5  00CB               	movwf	??___flmul^(0+128)
  5097  0DE6  085C               	movf	(___flmul@temp+1)^(0+128),w
  5098  0DE7  00CC               	movwf	(??___flmul^(0+128)+1)
  5099  0DE8  01CD               	clrf	(??___flmul^(0+128)+2)
  5100  0DE9  01CE               	clrf	(??___flmul^(0+128)+3)
  5101  0DEA  084B               	movf	??___flmul^(0+128),w
  5102  0DEB  07D2               	addwf	___flmul@grs^(0+128),f
  5103  0DEC  084C               	movf	(??___flmul+1)^(0+128),w
  5104  0DED  1103               	clrz
  5105  0DEE  1803               	skipnc
  5106  0DEF  3E01               	addlw	1
  5107  0DF0  1903               	skipnz
  5108  0DF1  2DF3               	goto	u6011
  5109  0DF2  07D3               	addwf	(___flmul@grs+1)^(0+128),f
  5110  0DF3                     u6011:
  5111  0DF3  084D               	movf	(??___flmul+2)^(0+128),w
  5112  0DF4  1103               	clrz
  5113  0DF5  1803               	skipnc
  5114  0DF6  3E01               	addlw	1
  5115  0DF7  1903               	skipnz
  5116  0DF8  2DFA               	goto	u6012
  5117  0DF9  07D4               	addwf	(___flmul@grs+2)^(0+128),f
  5118  0DFA                     u6012:
  5119  0DFA  084E               	movf	(??___flmul+3)^(0+128),w
  5120  0DFB  1103               	clrz
  5121  0DFC  1803               	skipnc
  5122  0DFD  3E01               	addlw	1
  5123  0DFE  1903               	skipnz
  5124  0DFF  2E01               	goto	u6013
  5125  0E00  07D5               	addwf	(___flmul@grs+3)^(0+128),f
  5126  0E01                     u6013:
  5127  0E01                     l3625:
  5128  0E01  3008               	movlw	8
  5129  0E02  00CB               	movwf	??___flmul^(0+128)
  5130  0E03                     u6025:
  5131  0E03  1003               	clrc
  5132  0E04  0DD2               	rlf	___flmul@grs^(0+128),f
  5133  0E05  0DD3               	rlf	(___flmul@grs+1)^(0+128),f
  5134  0E06  0DD4               	rlf	(___flmul@grs+2)^(0+128),f
  5135  0E07  0DD5               	rlf	(___flmul@grs+3)^(0+128),f
  5136  0E08  0BCB               	decfsz	??___flmul^(0+128),f
  5137  0E09  2E03               	goto	u6025
  5138  0E0A  0843               	movf	___flmul@b^(0+128),w
  5139  0E0B  00CB               	movwf	??___flmul^(0+128)
  5140  0E0C  084B               	movf	??___flmul^(0+128),w
  5141  0E0D  1283               	bcf	3,5	;RP0=0, select bank0
  5142  0E0E  1303               	bcf	3,6	;RP1=0, select bank0
  5143  0E0F  00BB               	movwf	__Umul8_16@multiplicand
  5144  0E10  1683               	bsf	3,5	;RP0=1, select bank1
  5145  0E11  1303               	bcf	3,6	;RP1=0, select bank1
  5146  0E12  0847               	movf	___flmul@a^(0+128),w
  5147  0E13  160A  158A  27C9  120A  158A  	fcall	__Umul8_16
  5148  0E18  1283               	bcf	3,5	;RP0=0, select bank0
  5149  0E19  1303               	bcf	3,6	;RP1=0, select bank0
  5150  0E1A  083C               	movf	?__Umul8_16+1,w
  5151  0E1B  1683               	bsf	3,5	;RP0=1, select bank1
  5152  0E1C  1303               	bcf	3,6	;RP1=0, select bank1
  5153  0E1D  00DC               	movwf	(___flmul@temp+1)^(0+128)
  5154  0E1E  1283               	bcf	3,5	;RP0=0, select bank0
  5155  0E1F  1303               	bcf	3,6	;RP1=0, select bank0
  5156  0E20  083B               	movf	?__Umul8_16,w
  5157  0E21  1683               	bsf	3,5	;RP0=1, select bank1
  5158  0E22  1303               	bcf	3,6	;RP1=0, select bank1
  5159  0E23  00DB               	movwf	___flmul@temp^(0+128)
  5160  0E24                     l3627:
  5161  0E24  085B               	movf	___flmul@temp^(0+128),w
  5162  0E25  00CB               	movwf	??___flmul^(0+128)
  5163  0E26  085C               	movf	(___flmul@temp+1)^(0+128),w
  5164  0E27  00CC               	movwf	(??___flmul^(0+128)+1)
  5165  0E28  01CD               	clrf	(??___flmul^(0+128)+2)
  5166  0E29  01CE               	clrf	(??___flmul^(0+128)+3)
  5167  0E2A  084B               	movf	??___flmul^(0+128),w
  5168  0E2B  07D2               	addwf	___flmul@grs^(0+128),f
  5169  0E2C  084C               	movf	(??___flmul+1)^(0+128),w
  5170  0E2D  1103               	clrz
  5171  0E2E  1803               	skipnc
  5172  0E2F  3E01               	addlw	1
  5173  0E30  1903               	skipnz
  5174  0E31  2E33               	goto	u6031
  5175  0E32  07D3               	addwf	(___flmul@grs+1)^(0+128),f
  5176  0E33                     u6031:
  5177  0E33  084D               	movf	(??___flmul+2)^(0+128),w
  5178  0E34  1103               	clrz
  5179  0E35  1803               	skipnc
  5180  0E36  3E01               	addlw	1
  5181  0E37  1903               	skipnz
  5182  0E38  2E3A               	goto	u6032
  5183  0E39  07D4               	addwf	(___flmul@grs+2)^(0+128),f
  5184  0E3A                     u6032:
  5185  0E3A  084E               	movf	(??___flmul+3)^(0+128),w
  5186  0E3B  1103               	clrz
  5187  0E3C  1803               	skipnc
  5188  0E3D  3E01               	addlw	1
  5189  0E3E  1903               	skipnz
  5190  0E3F  2E41               	goto	u6033
  5191  0E40  07D5               	addwf	(___flmul@grs+3)^(0+128),f
  5192  0E41                     u6033:
  5193  0E41                     l3629:
  5194  0E41  0844               	movf	(___flmul@b^(0+128)+1),w
  5195  0E42  00CB               	movwf	??___flmul^(0+128)
  5196  0E43  084B               	movf	??___flmul^(0+128),w
  5197  0E44  1283               	bcf	3,5	;RP0=0, select bank0
  5198  0E45  1303               	bcf	3,6	;RP1=0, select bank0
  5199  0E46  00BB               	movwf	__Umul8_16@multiplicand
  5200  0E47  1683               	bsf	3,5	;RP0=1, select bank1
  5201  0E48  1303               	bcf	3,6	;RP1=0, select bank1
  5202  0E49  0849               	movf	(___flmul@a^(0+128)+2),w
  5203  0E4A  160A  158A  27C9  120A  158A  	fcall	__Umul8_16
  5204  0E4F  1283               	bcf	3,5	;RP0=0, select bank0
  5205  0E50  1303               	bcf	3,6	;RP1=0, select bank0
  5206  0E51  083C               	movf	?__Umul8_16+1,w
  5207  0E52  1683               	bsf	3,5	;RP0=1, select bank1
  5208  0E53  1303               	bcf	3,6	;RP1=0, select bank1
  5209  0E54  00DC               	movwf	(___flmul@temp+1)^(0+128)
  5210  0E55  1283               	bcf	3,5	;RP0=0, select bank0
  5211  0E56  1303               	bcf	3,6	;RP1=0, select bank0
  5212  0E57  083B               	movf	?__Umul8_16,w
  5213  0E58  1683               	bsf	3,5	;RP0=1, select bank1
  5214  0E59  1303               	bcf	3,6	;RP1=0, select bank1
  5215  0E5A  00DB               	movwf	___flmul@temp^(0+128)
  5216  0E5B  085B               	movf	___flmul@temp^(0+128),w
  5217  0E5C  00CB               	movwf	??___flmul^(0+128)
  5218  0E5D  085C               	movf	(___flmul@temp+1)^(0+128),w
  5219  0E5E  00CC               	movwf	(??___flmul^(0+128)+1)
  5220  0E5F  01CD               	clrf	(??___flmul^(0+128)+2)
  5221  0E60  01CE               	clrf	(??___flmul^(0+128)+3)
  5222  0E61  084B               	movf	??___flmul^(0+128),w
  5223  0E62  07D7               	addwf	___flmul@prod^(0+128),f
  5224  0E63  084C               	movf	(??___flmul+1)^(0+128),w
  5225  0E64  1103               	clrz
  5226  0E65  1803               	skipnc
  5227  0E66  3E01               	addlw	1
  5228  0E67  1903               	skipnz
  5229  0E68  2E6A               	goto	u6041
  5230  0E69  07D8               	addwf	(___flmul@prod+1)^(0+128),f
  5231  0E6A                     u6041:
  5232  0E6A  084D               	movf	(??___flmul+2)^(0+128),w
  5233  0E6B  1103               	clrz
  5234  0E6C  1803               	skipnc
  5235  0E6D  3E01               	addlw	1
  5236  0E6E  1903               	skipnz
  5237  0E6F  2E71               	goto	u6042
  5238  0E70  07D9               	addwf	(___flmul@prod+2)^(0+128),f
  5239  0E71                     u6042:
  5240  0E71  084E               	movf	(??___flmul+3)^(0+128),w
  5241  0E72  1103               	clrz
  5242  0E73  1803               	skipnc
  5243  0E74  3E01               	addlw	1
  5244  0E75  1903               	skipnz
  5245  0E76  2E78               	goto	u6043
  5246  0E77  07DA               	addwf	(___flmul@prod+3)^(0+128),f
  5247  0E78                     u6043:
  5248  0E78                     l3631:
  5249  0E78  0845               	movf	(___flmul@b^(0+128)+2),w
  5250  0E79  00CB               	movwf	??___flmul^(0+128)
  5251  0E7A  084B               	movf	??___flmul^(0+128),w
  5252  0E7B  1283               	bcf	3,5	;RP0=0, select bank0
  5253  0E7C  1303               	bcf	3,6	;RP1=0, select bank0
  5254  0E7D  00BB               	movwf	__Umul8_16@multiplicand
  5255  0E7E  1683               	bsf	3,5	;RP0=1, select bank1
  5256  0E7F  1303               	bcf	3,6	;RP1=0, select bank1
  5257  0E80  0848               	movf	(___flmul@a^(0+128)+1),w
  5258  0E81  160A  158A  27C9  120A  158A  	fcall	__Umul8_16
  5259  0E86  1283               	bcf	3,5	;RP0=0, select bank0
  5260  0E87  1303               	bcf	3,6	;RP1=0, select bank0
  5261  0E88  083C               	movf	?__Umul8_16+1,w
  5262  0E89  1683               	bsf	3,5	;RP0=1, select bank1
  5263  0E8A  1303               	bcf	3,6	;RP1=0, select bank1
  5264  0E8B  00DC               	movwf	(___flmul@temp+1)^(0+128)
  5265  0E8C  1283               	bcf	3,5	;RP0=0, select bank0
  5266  0E8D  1303               	bcf	3,6	;RP1=0, select bank0
  5267  0E8E  083B               	movf	?__Umul8_16,w
  5268  0E8F  1683               	bsf	3,5	;RP0=1, select bank1
  5269  0E90  1303               	bcf	3,6	;RP1=0, select bank1
  5270  0E91  00DB               	movwf	___flmul@temp^(0+128)
  5271  0E92                     l3633:
  5272  0E92  085B               	movf	___flmul@temp^(0+128),w
  5273  0E93  00CB               	movwf	??___flmul^(0+128)
  5274  0E94  085C               	movf	(___flmul@temp+1)^(0+128),w
  5275  0E95  00CC               	movwf	(??___flmul^(0+128)+1)
  5276  0E96  01CD               	clrf	(??___flmul^(0+128)+2)
  5277  0E97  01CE               	clrf	(??___flmul^(0+128)+3)
  5278  0E98  084B               	movf	??___flmul^(0+128),w
  5279  0E99  07D7               	addwf	___flmul@prod^(0+128),f
  5280  0E9A  084C               	movf	(??___flmul+1)^(0+128),w
  5281  0E9B  1103               	clrz
  5282  0E9C  1803               	skipnc
  5283  0E9D  3E01               	addlw	1
  5284  0E9E  1903               	skipnz
  5285  0E9F  2EA1               	goto	u6051
  5286  0EA0  07D8               	addwf	(___flmul@prod+1)^(0+128),f
  5287  0EA1                     u6051:
  5288  0EA1  084D               	movf	(??___flmul+2)^(0+128),w
  5289  0EA2  1103               	clrz
  5290  0EA3  1803               	skipnc
  5291  0EA4  3E01               	addlw	1
  5292  0EA5  1903               	skipnz
  5293  0EA6  2EA8               	goto	u6052
  5294  0EA7  07D9               	addwf	(___flmul@prod+2)^(0+128),f
  5295  0EA8                     u6052:
  5296  0EA8  084E               	movf	(??___flmul+3)^(0+128),w
  5297  0EA9  1103               	clrz
  5298  0EAA  1803               	skipnc
  5299  0EAB  3E01               	addlw	1
  5300  0EAC  1903               	skipnz
  5301  0EAD  2EAF               	goto	u6053
  5302  0EAE  07DA               	addwf	(___flmul@prod+3)^(0+128),f
  5303  0EAF                     u6053:
  5304  0EAF  0845               	movf	(___flmul@b^(0+128)+2),w
  5305  0EB0  00CB               	movwf	??___flmul^(0+128)
  5306  0EB1  084B               	movf	??___flmul^(0+128),w
  5307  0EB2  1283               	bcf	3,5	;RP0=0, select bank0
  5308  0EB3  1303               	bcf	3,6	;RP1=0, select bank0
  5309  0EB4  00BB               	movwf	__Umul8_16@multiplicand
  5310  0EB5  1683               	bsf	3,5	;RP0=1, select bank1
  5311  0EB6  1303               	bcf	3,6	;RP1=0, select bank1
  5312  0EB7  0849               	movf	(___flmul@a^(0+128)+2),w
  5313  0EB8  160A  158A  27C9  120A  158A  	fcall	__Umul8_16
  5314  0EBD  1283               	bcf	3,5	;RP0=0, select bank0
  5315  0EBE  1303               	bcf	3,6	;RP1=0, select bank0
  5316  0EBF  083C               	movf	?__Umul8_16+1,w
  5317  0EC0  1683               	bsf	3,5	;RP0=1, select bank1
  5318  0EC1  1303               	bcf	3,6	;RP1=0, select bank1
  5319  0EC2  00DC               	movwf	(___flmul@temp+1)^(0+128)
  5320  0EC3  1283               	bcf	3,5	;RP0=0, select bank0
  5321  0EC4  1303               	bcf	3,6	;RP1=0, select bank0
  5322  0EC5  083B               	movf	?__Umul8_16,w
  5323  0EC6  1683               	bsf	3,5	;RP0=1, select bank1
  5324  0EC7  1303               	bcf	3,6	;RP1=0, select bank1
  5325  0EC8  00DB               	movwf	___flmul@temp^(0+128)
  5326  0EC9                     l3635:
  5327  0EC9  085B               	movf	___flmul@temp^(0+128),w
  5328  0ECA  00CB               	movwf	??___flmul^(0+128)
  5329  0ECB  085C               	movf	(___flmul@temp+1)^(0+128),w
  5330  0ECC  00CC               	movwf	(??___flmul^(0+128)+1)
  5331  0ECD  01CD               	clrf	(??___flmul^(0+128)+2)
  5332  0ECE  01CE               	clrf	(??___flmul^(0+128)+3)
  5333  0ECF  3008               	movlw	8
  5334  0ED0                     u6065:
  5335  0ED0  1003               	clrc
  5336  0ED1  0DCB               	rlf	??___flmul^(0+128),f
  5337  0ED2  0DCC               	rlf	(??___flmul^(0+128)+1),f
  5338  0ED3  0DCD               	rlf	(??___flmul^(0+128)+2),f
  5339  0ED4  0DCE               	rlf	(??___flmul^(0+128)+3),f
  5340  0ED5                     u6060:
  5341  0ED5  3EFF               	addlw	-1
  5342  0ED6  1D03               	skipz
  5343  0ED7  2ED0               	goto	u6065
  5344  0ED8  084B               	movf	??___flmul^(0+128),w
  5345  0ED9  07D7               	addwf	___flmul@prod^(0+128),f
  5346  0EDA  084C               	movf	(??___flmul+1)^(0+128),w
  5347  0EDB  1103               	clrz
  5348  0EDC  1803               	skipnc
  5349  0EDD  3E01               	addlw	1
  5350  0EDE  1903               	skipnz
  5351  0EDF  2EE1               	goto	u6071
  5352  0EE0  07D8               	addwf	(___flmul@prod+1)^(0+128),f
  5353  0EE1                     u6071:
  5354  0EE1  084D               	movf	(??___flmul+2)^(0+128),w
  5355  0EE2  1103               	clrz
  5356  0EE3  1803               	skipnc
  5357  0EE4  3E01               	addlw	1
  5358  0EE5  1903               	skipnz
  5359  0EE6  2EE8               	goto	u6072
  5360  0EE7  07D9               	addwf	(___flmul@prod+2)^(0+128),f
  5361  0EE8                     u6072:
  5362  0EE8  084E               	movf	(??___flmul+3)^(0+128),w
  5363  0EE9  1103               	clrz
  5364  0EEA  1803               	skipnc
  5365  0EEB  3E01               	addlw	1
  5366  0EEC  1903               	skipnz
  5367  0EED  2EEF               	goto	u6073
  5368  0EEE  07DA               	addwf	(___flmul@prod+3)^(0+128),f
  5369  0EEF                     u6073:
  5370  0EEF                     l3637:
  5371  0EEF  0852               	movf	___flmul@grs^(0+128),w
  5372  0EF0  00CB               	movwf	??___flmul^(0+128)
  5373  0EF1  0853               	movf	(___flmul@grs+1)^(0+128),w
  5374  0EF2  00CC               	movwf	(??___flmul^(0+128)+1)
  5375  0EF3  0854               	movf	(___flmul@grs+2)^(0+128),w
  5376  0EF4  00CD               	movwf	(??___flmul^(0+128)+2)
  5377  0EF5  0855               	movf	(___flmul@grs+3)^(0+128),w
  5378  0EF6  00CE               	movwf	(??___flmul^(0+128)+3)
  5379  0EF7  3018               	movlw	24
  5380  0EF8                     u6085:
  5381  0EF8  1003               	clrc
  5382  0EF9  0CCE               	rrf	(??___flmul^(0+128)+3),f
  5383  0EFA  0CCD               	rrf	(??___flmul^(0+128)+2),f
  5384  0EFB  0CCC               	rrf	(??___flmul^(0+128)+1),f
  5385  0EFC  0CCB               	rrf	??___flmul^(0+128),f
  5386  0EFD                     u6080:
  5387  0EFD  3EFF               	addlw	-1
  5388  0EFE  1D03               	skipz
  5389  0EFF  2EF8               	goto	u6085
  5390  0F00  084B               	movf	??___flmul^(0+128),w
  5391  0F01  07D7               	addwf	___flmul@prod^(0+128),f
  5392  0F02  084C               	movf	(??___flmul+1)^(0+128),w
  5393  0F03  1103               	clrz
  5394  0F04  1803               	skipnc
  5395  0F05  3E01               	addlw	1
  5396  0F06  1903               	skipnz
  5397  0F07  2F09               	goto	u6091
  5398  0F08  07D8               	addwf	(___flmul@prod+1)^(0+128),f
  5399  0F09                     u6091:
  5400  0F09  084D               	movf	(??___flmul+2)^(0+128),w
  5401  0F0A  1103               	clrz
  5402  0F0B  1803               	skipnc
  5403  0F0C  3E01               	addlw	1
  5404  0F0D  1903               	skipnz
  5405  0F0E  2F10               	goto	u6092
  5406  0F0F  07D9               	addwf	(___flmul@prod+2)^(0+128),f
  5407  0F10                     u6092:
  5408  0F10  084E               	movf	(??___flmul+3)^(0+128),w
  5409  0F11  1103               	clrz
  5410  0F12  1803               	skipnc
  5411  0F13  3E01               	addlw	1
  5412  0F14  1903               	skipnz
  5413  0F15  2F17               	goto	u6093
  5414  0F16  07DA               	addwf	(___flmul@prod+3)^(0+128),f
  5415  0F17                     u6093:
  5416  0F17                     l3639:
  5417  0F17  3008               	movlw	8
  5418  0F18  00CB               	movwf	??___flmul^(0+128)
  5419  0F19                     u6105:
  5420  0F19  1003               	clrc
  5421  0F1A  0DD2               	rlf	___flmul@grs^(0+128),f
  5422  0F1B  0DD3               	rlf	(___flmul@grs+1)^(0+128),f
  5423  0F1C  0DD4               	rlf	(___flmul@grs+2)^(0+128),f
  5424  0F1D  0DD5               	rlf	(___flmul@grs+3)^(0+128),f
  5425  0F1E  0BCB               	decfsz	??___flmul^(0+128),f
  5426  0F1F  2F19               	goto	u6105
  5427  0F20                     l3641:
  5428  0F20  0856               	movf	___flmul@bexp^(0+128),w
  5429  0F21  0751               	addwf	___flmul@aexp^(0+128),w
  5430  0F22  00CB               	movwf	??___flmul^(0+128)
  5431  0F23  01CC               	clrf	(??___flmul^(0+128)+1)
  5432  0F24  0DCC               	rlf	(??___flmul+1)^(0+128),f
  5433  0F25  084B               	movf	??___flmul^(0+128),w
  5434  0F26  3E82               	addlw	130
  5435  0F27  00DB               	movwf	___flmul@temp^(0+128)
  5436  0F28  084C               	movf	(??___flmul+1)^(0+128),w
  5437  0F29  1803               	skipnc
  5438  0F2A  3E01               	addlw	1
  5439  0F2B  3EFF               	addlw	255
  5440  0F2C  00DC               	movwf	(___flmul@temp+1)^(0+128)
  5441  0F2D  2F4B               	goto	l3653
  5442  0F2E                     l3643:
  5443  0F2E  3001               	movlw	1
  5444  0F2F  00CB               	movwf	??___flmul^(0+128)
  5445  0F30                     u6115:
  5446  0F30  1003               	clrc
  5447  0F31  0DD7               	rlf	___flmul@prod^(0+128),f
  5448  0F32  0DD8               	rlf	(___flmul@prod+1)^(0+128),f
  5449  0F33  0DD9               	rlf	(___flmul@prod+2)^(0+128),f
  5450  0F34  0DDA               	rlf	(___flmul@prod+3)^(0+128),f
  5451  0F35  0BCB               	decfsz	??___flmul^(0+128),f
  5452  0F36  2F30               	goto	u6115
  5453  0F37                     l3645:
  5454  0F37  1FD5               	btfss	(___flmul@grs+3)^(0+128),7
  5455  0F38  2F3A               	goto	u6121
  5456  0F39  2F3B               	goto	u6120
  5457  0F3A                     u6121:
  5458  0F3A  2F3C               	goto	l3649
  5459  0F3B                     u6120:
  5460  0F3B                     l3647:
  5461  0F3B  1457               	bsf	___flmul@prod^(0+128),0
  5462  0F3C                     l3649:
  5463  0F3C  3001               	movlw	1
  5464  0F3D  00CB               	movwf	??___flmul^(0+128)
  5465  0F3E                     u6135:
  5466  0F3E  1003               	clrc
  5467  0F3F  0DD2               	rlf	___flmul@grs^(0+128),f
  5468  0F40  0DD3               	rlf	(___flmul@grs+1)^(0+128),f
  5469  0F41  0DD4               	rlf	(___flmul@grs+2)^(0+128),f
  5470  0F42  0DD5               	rlf	(___flmul@grs+3)^(0+128),f
  5471  0F43  0BCB               	decfsz	??___flmul^(0+128),f
  5472  0F44  2F3E               	goto	u6135
  5473  0F45                     l3651:
  5474  0F45  30FF               	movlw	255
  5475  0F46  07DB               	addwf	___flmul@temp^(0+128),f
  5476  0F47  1803               	skipnc
  5477  0F48  0ADC               	incf	(___flmul@temp+1)^(0+128),f
  5478  0F49  30FF               	movlw	255
  5479  0F4A  07DC               	addwf	(___flmul@temp+1)^(0+128),f
  5480  0F4B                     l3653:
  5481  0F4B  1FD9               	btfss	(___flmul@prod+2)^(0+128),7
  5482  0F4C  2F4E               	goto	u6141
  5483  0F4D  2F4F               	goto	u6140
  5484  0F4E                     u6141:
  5485  0F4E  2F2E               	goto	l3643
  5486  0F4F                     u6140:
  5487  0F4F                     l3655:
  5488  0F4F  01D1               	clrf	___flmul@aexp^(0+128)
  5489  0F50                     l3657:
  5490  0F50  1FD5               	btfss	(___flmul@grs+3)^(0+128),7
  5491  0F51  2F53               	goto	u6151
  5492  0F52  2F54               	goto	u6150
  5493  0F53                     u6151:
  5494  0F53  2F70               	goto	l3665
  5495  0F54                     u6150:
  5496  0F54                     l3659:
  5497  0F54  30FF               	movlw	255
  5498  0F55  0552               	andwf	___flmul@grs^(0+128),w
  5499  0F56  00CB               	movwf	??___flmul^(0+128)
  5500  0F57  30FF               	movlw	255
  5501  0F58  0553               	andwf	(___flmul@grs+1)^(0+128),w
  5502  0F59  00CC               	movwf	(??___flmul^(0+128)+1)
  5503  0F5A  30FF               	movlw	255
  5504  0F5B  0554               	andwf	(___flmul@grs+2)^(0+128),w
  5505  0F5C  00CD               	movwf	(??___flmul^(0+128)+2)
  5506  0F5D  307F               	movlw	127
  5507  0F5E  0555               	andwf	(___flmul@grs+3)^(0+128),w
  5508  0F5F  00CE               	movwf	(??___flmul^(0+128)+3)
  5509  0F60  084E               	movf	(??___flmul+3)^(0+128),w
  5510  0F61  044D               	iorwf	(??___flmul+2)^(0+128),w
  5511  0F62  044C               	iorwf	(??___flmul+1)^(0+128),w
  5512  0F63  044B               	iorwf	??___flmul^(0+128),w
  5513  0F64  1903               	skipnz
  5514  0F65  2F67               	goto	u6161
  5515  0F66  2F68               	goto	u6160
  5516  0F67                     u6161:
  5517  0F67  2F6B               	goto	l642
  5518  0F68                     u6160:
  5519  0F68                     l3661:
  5520  0F68  01D1               	clrf	___flmul@aexp^(0+128)
  5521  0F69  0AD1               	incf	___flmul@aexp^(0+128),f
  5522  0F6A  2F70               	goto	l3665
  5523  0F6B                     l642:
  5524  0F6B  1C57               	btfss	___flmul@prod^(0+128),0
  5525  0F6C  2F6E               	goto	u6171
  5526  0F6D  2F6F               	goto	u6170
  5527  0F6E                     u6171:
  5528  0F6E  2F70               	goto	l3665
  5529  0F6F                     u6170:
  5530  0F6F  2F68               	goto	l3661
  5531  0F70                     l3665:
  5532  0F70  0851               	movf	___flmul@aexp^(0+128),w
  5533  0F71  1903               	btfsc	3,2
  5534  0F72  2F74               	goto	u6181
  5535  0F73  2F75               	goto	u6180
  5536  0F74                     u6181:
  5537  0F74  2FA6               	goto	l3675
  5538  0F75                     u6180:
  5539  0F75                     l3667:
  5540  0F75  3001               	movlw	1
  5541  0F76  07D7               	addwf	___flmul@prod^(0+128),f
  5542  0F77  3000               	movlw	0
  5543  0F78  1803               	skipnc
  5544  0F79  3001               	movlw	1
  5545  0F7A  07D8               	addwf	(___flmul@prod+1)^(0+128),f
  5546  0F7B  3000               	movlw	0
  5547  0F7C  1803               	skipnc
  5548  0F7D  3001               	movlw	1
  5549  0F7E  07D9               	addwf	(___flmul@prod+2)^(0+128),f
  5550  0F7F  3000               	movlw	0
  5551  0F80  1803               	skipnc
  5552  0F81  3001               	movlw	1
  5553  0F82  07DA               	addwf	(___flmul@prod+3)^(0+128),f
  5554  0F83                     l3669:
  5555  0F83  1C5A               	btfss	(___flmul@prod+3)^(0+128),0
  5556  0F84  2F86               	goto	u6191
  5557  0F85  2F87               	goto	u6190
  5558  0F86                     u6191:
  5559  0F86  2FA6               	goto	l3675
  5560  0F87                     u6190:
  5561  0F87                     l3671:
  5562  0F87  0857               	movf	___flmul@prod^(0+128),w
  5563  0F88  00CB               	movwf	??___flmul^(0+128)
  5564  0F89  0858               	movf	(___flmul@prod+1)^(0+128),w
  5565  0F8A  00CC               	movwf	(??___flmul^(0+128)+1)
  5566  0F8B  0859               	movf	(___flmul@prod+2)^(0+128),w
  5567  0F8C  00CD               	movwf	(??___flmul^(0+128)+2)
  5568  0F8D  085A               	movf	(___flmul@prod+3)^(0+128),w
  5569  0F8E  00CE               	movwf	(??___flmul^(0+128)+3)
  5570  0F8F  3001               	movlw	1
  5571  0F90  00CF               	movwf	(??___flmul+4)^(0+128)
  5572  0F91                     u6205:
  5573  0F91  0D4E               	rlf	(??___flmul^(0+128)+3),w
  5574  0F92  0CCE               	rrf	(??___flmul^(0+128)+3),f
  5575  0F93  0CCD               	rrf	(??___flmul^(0+128)+2),f
  5576  0F94  0CCC               	rrf	(??___flmul^(0+128)+1),f
  5577  0F95  0CCB               	rrf	??___flmul^(0+128),f
  5578  0F96                     u6200:
  5579  0F96  0BCF               	decfsz	(??___flmul+4)^(0+128),f
  5580  0F97  2F91               	goto	u6205
  5581  0F98  084E               	movf	(??___flmul+3)^(0+128),w
  5582  0F99  00DA               	movwf	(___flmul@prod+3)^(0+128)
  5583  0F9A  084D               	movf	(??___flmul+2)^(0+128),w
  5584  0F9B  00D9               	movwf	(___flmul@prod+2)^(0+128)
  5585  0F9C  084C               	movf	(??___flmul+1)^(0+128),w
  5586  0F9D  00D8               	movwf	(___flmul@prod+1)^(0+128)
  5587  0F9E  084B               	movf	??___flmul^(0+128),w
  5588  0F9F  00D7               	movwf	___flmul@prod^(0+128)
  5589  0FA0                     l3673:
  5590  0FA0  3001               	movlw	1
  5591  0FA1  07DB               	addwf	___flmul@temp^(0+128),f
  5592  0FA2  1803               	skipnc
  5593  0FA3  0ADC               	incf	(___flmul@temp+1)^(0+128),f
  5594  0FA4  3000               	movlw	0
  5595  0FA5  07DC               	addwf	(___flmul@temp+1)^(0+128),f
  5596  0FA6                     l3675:
  5597  0FA6  085C               	movf	(___flmul@temp+1)^(0+128),w
  5598  0FA7  3A80               	xorlw	128
  5599  0FA8  00FF               	movwf	btemp+1
  5600  0FA9  3080               	movlw	128
  5601  0FAA  027F               	subwf	btemp+1,w
  5602  0FAB  1D03               	skipz
  5603  0FAC  2FAF               	goto	u6215
  5604  0FAD  30FF               	movlw	255
  5605  0FAE  025B               	subwf	___flmul@temp^(0+128),w
  5606  0FAF                     u6215:
  5607  0FAF  1C03               	skipc
  5608  0FB0  2FB2               	goto	u6211
  5609  0FB1  2FB3               	goto	u6210
  5610  0FB2                     u6211:
  5611  0FB2  2FBE               	goto	l3679
  5612  0FB3                     u6210:
  5613  0FB3                     l3677:
  5614  0FB3  307F               	movlw	127
  5615  0FB4  1683               	bsf	3,5	;RP0=1, select bank1
  5616  0FB5  1303               	bcf	3,6	;RP1=0, select bank1
  5617  0FB6  00DA               	movwf	(___flmul@prod+3)^(0+128)
  5618  0FB7  3080               	movlw	128
  5619  0FB8  00D9               	movwf	(___flmul@prod+2)^(0+128)
  5620  0FB9  3000               	movlw	0
  5621  0FBA  00D8               	movwf	(___flmul@prod+1)^(0+128)
  5622  0FBB  3000               	movlw	0
  5623  0FBC  00D7               	movwf	___flmul@prod^(0+128)
  5624  0FBD  2FF3               	goto	l648
  5625  0FBE                     l3679:
  5626  0FBE  1683               	bsf	3,5	;RP0=1, select bank1
  5627  0FBF  1303               	bcf	3,6	;RP1=0, select bank1
  5628  0FC0  085C               	movf	(___flmul@temp+1)^(0+128),w
  5629  0FC1  3A80               	xorlw	128
  5630  0FC2  00FF               	movwf	btemp+1
  5631  0FC3  3080               	movlw	128
  5632  0FC4  027F               	subwf	btemp+1,w
  5633  0FC5  1D03               	skipz
  5634  0FC6  2FC9               	goto	u6225
  5635  0FC7  3001               	movlw	1
  5636  0FC8  025B               	subwf	___flmul@temp^(0+128),w
  5637  0FC9                     u6225:
  5638  0FC9  1803               	skipnc
  5639  0FCA  2FCC               	goto	u6221
  5640  0FCB  2FCD               	goto	u6220
  5641  0FCC                     u6221:
  5642  0FCC  2FD9               	goto	l3685
  5643  0FCD                     u6220:
  5644  0FCD                     l3681:
  5645  0FCD  3000               	movlw	0
  5646  0FCE  1683               	bsf	3,5	;RP0=1, select bank1
  5647  0FCF  1303               	bcf	3,6	;RP1=0, select bank1
  5648  0FD0  00DA               	movwf	(___flmul@prod+3)^(0+128)
  5649  0FD1  3000               	movlw	0
  5650  0FD2  00D9               	movwf	(___flmul@prod+2)^(0+128)
  5651  0FD3  3000               	movlw	0
  5652  0FD4  00D8               	movwf	(___flmul@prod+1)^(0+128)
  5653  0FD5  3000               	movlw	0
  5654  0FD6  00D7               	movwf	___flmul@prod^(0+128)
  5655  0FD7                     l3683:
  5656  0FD7  01D0               	clrf	___flmul@sign^(0+128)
  5657  0FD8  2FF3               	goto	l648
  5658  0FD9                     l3685:
  5659  0FD9  1683               	bsf	3,5	;RP0=1, select bank1
  5660  0FDA  1303               	bcf	3,6	;RP1=0, select bank1
  5661  0FDB  085B               	movf	___flmul@temp^(0+128),w
  5662  0FDC  00CB               	movwf	??___flmul^(0+128)
  5663  0FDD  084B               	movf	??___flmul^(0+128),w
  5664  0FDE  00D6               	movwf	___flmul@bexp^(0+128)
  5665  0FDF  30FF               	movlw	255
  5666  0FE0  05D7               	andwf	___flmul@prod^(0+128),f
  5667  0FE1  30FF               	movlw	255
  5668  0FE2  05D8               	andwf	(___flmul@prod+1)^(0+128),f
  5669  0FE3  307F               	movlw	127
  5670  0FE4  05D9               	andwf	(___flmul@prod+2)^(0+128),f
  5671  0FE5  3000               	movlw	0
  5672  0FE6  05DA               	andwf	(___flmul@prod+3)^(0+128),f
  5673  0FE7                     l3687:
  5674  0FE7  1C56               	btfss	___flmul@bexp^(0+128),0
  5675  0FE8  2FEA               	goto	u6231
  5676  0FE9  2FEB               	goto	u6230
  5677  0FEA                     u6231:
  5678  0FEA  2FEC               	goto	l3691
  5679  0FEB                     u6230:
  5680  0FEB                     l3689:
  5681  0FEB  17D9               	bsf	(___flmul@prod^(0+128)+2),7
  5682  0FEC                     l3691:
  5683  0FEC  0856               	movf	___flmul@bexp^(0+128),w
  5684  0FED  00CB               	movwf	??___flmul^(0+128)
  5685  0FEE  1003               	clrc
  5686  0FEF  0C4B               	rrf	??___flmul^(0+128),w
  5687  0FF0  00CC               	movwf	(??___flmul+1)^(0+128)
  5688  0FF1  084C               	movf	(??___flmul+1)^(0+128),w
  5689  0FF2  00DA               	movwf	(___flmul@prod^(0+128)+3)
  5690  0FF3                     l648:
  5691  0FF3  0850               	movf	___flmul@sign^(0+128),w
  5692  0FF4  00CB               	movwf	??___flmul^(0+128)
  5693  0FF5  084B               	movf	??___flmul^(0+128),w
  5694  0FF6  04DA               	iorwf	(___flmul@prod^(0+128)+3),f
  5695  0FF7                     l3693:
  5696  0FF7  085A               	movf	(___flmul@prod+3)^(0+128),w
  5697  0FF8  00C6               	movwf	(?___flmul+3)^(0+128)
  5698  0FF9  0859               	movf	(___flmul@prod+2)^(0+128),w
  5699  0FFA  00C5               	movwf	(?___flmul+2)^(0+128)
  5700  0FFB  0858               	movf	(___flmul@prod+1)^(0+128),w
  5701  0FFC  00C4               	movwf	(?___flmul+1)^(0+128)
  5702  0FFD  0857               	movf	___flmul@prod^(0+128),w
  5703  0FFE  00C3               	movwf	?___flmul^(0+128)
  5704  0FFF                     l636:
  5705  0FFF  0008               	return
  5706  1000                     __end_of___flmul:
  5707                           
  5708                           	psect	text9
  5709  1FC9                     __ptext9:	
  5710 ;; *************** function __Umul8_16 *****************
  5711 ;; Defined at:
  5712 ;;		line 4 in file "C:\Program Files\Microchip\xc8\v2.31\pic\sources\c90\common\Umul8_16.c"
  5713 ;; Parameters:    Size  Location     Type
  5714 ;;  multiplier      1    wreg     unsigned char 
  5715 ;;  multiplicand    1   27[BANK0 ] unsigned char 
  5716 ;; Auto vars:     Size  Location     Type
  5717 ;;  multiplier      1    4[BANK1 ] unsigned char 
  5718 ;;  word_mpld       2    2[BANK1 ] unsigned int 
  5719 ;;  product         2    0[BANK1 ] unsigned int 
  5720 ;; Return value:  Size  Location     Type
  5721 ;;                  2   27[BANK0 ] unsigned int 
  5722 ;; Registers used:
  5723 ;;		wreg, status,2, status,0
  5724 ;; Tracked objects:
  5725 ;;		On entry : 0/0
  5726 ;;		On exit  : 0/0
  5727 ;;		Unchanged: 0/0
  5728 ;; Data sizes:     COMMON   BANK0   BANK1   BANK3   BANK2
  5729 ;;      Params:         0       2       0       0       0
  5730 ;;      Locals:         0       0       5       0       0
  5731 ;;      Temps:          0       2       0       0       0
  5732 ;;      Totals:         0       4       5       0       0
  5733 ;;Total ram usage:        9 bytes
  5734 ;; Hardware stack levels used:    1
  5735 ;; Hardware stack levels required when called:    2
  5736 ;; This function calls:
  5737 ;;		Nothing
  5738 ;; This function is called by:
  5739 ;;		___flmul
  5740 ;; This function uses a non-reentrant model
  5741 ;;
  5742                           
  5743                           
  5744                           ;psect for function __Umul8_16
  5745  1FC9                     __Umul8_16:
  5746                           
  5747                           ;incstack = 0
  5748                           ; Regs used in __Umul8_16: [wreg+status,2+status,0]
  5749                           ;__Umul8_16@multiplier stored from wreg
  5750  1FC9  1683               	bsf	3,5	;RP0=1, select bank1
  5751  1FCA  1303               	bcf	3,6	;RP1=0, select bank1
  5752  1FCB  00A4               	movwf	__Umul8_16@multiplier^(0+128)
  5753  1FCC                     l3261:
  5754  1FCC  01A0               	clrf	__Umul8_16@product^(0+128)
  5755  1FCD  01A1               	clrf	(__Umul8_16@product+1)^(0+128)
  5756  1FCE                     l3263:
  5757  1FCE  1283               	bcf	3,5	;RP0=0, select bank0
  5758  1FCF  1303               	bcf	3,6	;RP1=0, select bank0
  5759  1FD0  083B               	movf	__Umul8_16@multiplicand,w
  5760  1FD1  00BD               	movwf	??__Umul8_16
  5761  1FD2  01BE               	clrf	??__Umul8_16+1
  5762  1FD3  083D               	movf	??__Umul8_16,w
  5763  1FD4  1683               	bsf	3,5	;RP0=1, select bank1
  5764  1FD5  1303               	bcf	3,6	;RP1=0, select bank1
  5765  1FD6  00A2               	movwf	__Umul8_16@word_mpld^(0+128)
  5766  1FD7  1283               	bcf	3,5	;RP0=0, select bank0
  5767  1FD8  1303               	bcf	3,6	;RP1=0, select bank0
  5768  1FD9  083E               	movf	??__Umul8_16+1,w
  5769  1FDA  1683               	bsf	3,5	;RP0=1, select bank1
  5770  1FDB  1303               	bcf	3,6	;RP1=0, select bank1
  5771  1FDC  00A3               	movwf	(__Umul8_16@word_mpld+1)^(0+128)
  5772  1FDD                     l3265:
  5773  1FDD  1C24               	btfss	__Umul8_16@multiplier^(0+128),0
  5774  1FDE  2FE0               	goto	u5231
  5775  1FDF  2FE1               	goto	u5230
  5776  1FE0                     u5231:
  5777  1FE0  2FE7               	goto	l655
  5778  1FE1                     u5230:
  5779  1FE1                     l3267:
  5780  1FE1  0822               	movf	__Umul8_16@word_mpld^(0+128),w
  5781  1FE2  07A0               	addwf	__Umul8_16@product^(0+128),f
  5782  1FE3  1803               	skipnc
  5783  1FE4  0AA1               	incf	(__Umul8_16@product+1)^(0+128),f
  5784  1FE5  0823               	movf	(__Umul8_16@word_mpld+1)^(0+128),w
  5785  1FE6  07A1               	addwf	(__Umul8_16@product+1)^(0+128),f
  5786  1FE7                     l655:
  5787  1FE7  3001               	movlw	1
  5788  1FE8                     u5245:
  5789  1FE8  1003               	clrc
  5790  1FE9  0DA2               	rlf	__Umul8_16@word_mpld^(0+128),f
  5791  1FEA  0DA3               	rlf	(__Umul8_16@word_mpld+1)^(0+128),f
  5792  1FEB  3EFF               	addlw	-1
  5793  1FEC  1D03               	skipz
  5794  1FED  2FE8               	goto	u5245
  5795  1FEE  1003               	clrc
  5796  1FEF  0CA4               	rrf	__Umul8_16@multiplier^(0+128),f
  5797  1FF0                     l3269:
  5798  1FF0  0824               	movf	__Umul8_16@multiplier^(0+128),w
  5799  1FF1  1D03               	btfss	3,2
  5800  1FF2  2FF4               	goto	u5251
  5801  1FF3  2FF5               	goto	u5250
  5802  1FF4                     u5251:
  5803  1FF4  2FDD               	goto	l3265
  5804  1FF5                     u5250:
  5805  1FF5                     l3271:
  5806  1FF5  0821               	movf	(__Umul8_16@product+1)^(0+128),w
  5807  1FF6  1283               	bcf	3,5	;RP0=0, select bank0
  5808  1FF7  1303               	bcf	3,6	;RP1=0, select bank0
  5809  1FF8  00BC               	movwf	?__Umul8_16+1
  5810  1FF9  1683               	bsf	3,5	;RP0=1, select bank1
  5811  1FFA  1303               	bcf	3,6	;RP1=0, select bank1
  5812  1FFB  0820               	movf	__Umul8_16@product^(0+128),w
  5813  1FFC  1283               	bcf	3,5	;RP0=0, select bank0
  5814  1FFD  1303               	bcf	3,6	;RP1=0, select bank0
  5815  1FFE  00BB               	movwf	?__Umul8_16
  5816  1FFF                     l657:
  5817  1FFF  0008               	return
  5818  2000                     __end_of__Umul8_16:
  5819                           
  5820                           	psect	text10
  5821  1318                     __ptext10:	
  5822 ;; *************** function ___flge *****************
  5823 ;; Defined at:
  5824 ;;		line 4 in file "C:\Program Files\Microchip\xc8\v2.31\pic\sources\c90\common\flge.c"
  5825 ;; Parameters:    Size  Location     Type
  5826 ;;  ff1             4    0[BANK1 ] unsigned int 
  5827 ;;  ff2             4    4[BANK1 ] unsigned int 
  5828 ;; Auto vars:     Size  Location     Type
  5829 ;;		None
  5830 ;; Return value:  Size  Location     Type
  5831 ;;		None               void
  5832 ;; Registers used:
  5833 ;;		wreg, status,2, status,0
  5834 ;; Tracked objects:
  5835 ;;		On entry : 0/0
  5836 ;;		On exit  : 0/0
  5837 ;;		Unchanged: 0/0
  5838 ;; Data sizes:     COMMON   BANK0   BANK1   BANK3   BANK2
  5839 ;;      Params:         0       0       8       0       0
  5840 ;;      Locals:         0       0       0       0       0
  5841 ;;      Temps:          0       4       0       0       0
  5842 ;;      Totals:         0       4       8       0       0
  5843 ;;Total ram usage:       12 bytes
  5844 ;; Hardware stack levels used:    1
  5845 ;; Hardware stack levels required when called:    2
  5846 ;; This function calls:
  5847 ;;		Nothing
  5848 ;; This function is called by:
  5849 ;;		_convert
  5850 ;; This function uses a non-reentrant model
  5851 ;;
  5852                           
  5853                           
  5854                           ;psect for function ___flge
  5855  1318                     ___flge:
  5856  1318                     l3353:	
  5857                           ;incstack = 0
  5858                           ; Regs used in ___flge: [wreg+status,2+status,0]
  5859                           
  5860  1318  3000               	movlw	0
  5861  1319  1683               	bsf	3,5	;RP0=1, select bank1
  5862  131A  1303               	bcf	3,6	;RP1=0, select bank1
  5863  131B  0520               	andwf	___flge@ff1^(0+128),w
  5864  131C  1283               	bcf	3,5	;RP0=0, select bank0
  5865  131D  1303               	bcf	3,6	;RP1=0, select bank0
  5866  131E  00BB               	movwf	??___flge
  5867  131F  3000               	movlw	0
  5868  1320  1683               	bsf	3,5	;RP0=1, select bank1
  5869  1321  1303               	bcf	3,6	;RP1=0, select bank1
  5870  1322  0521               	andwf	(___flge@ff1+1)^(0+128),w
  5871  1323  1283               	bcf	3,5	;RP0=0, select bank0
  5872  1324  1303               	bcf	3,6	;RP1=0, select bank0
  5873  1325  00BC               	movwf	??___flge+1
  5874  1326  3080               	movlw	128
  5875  1327  1683               	bsf	3,5	;RP0=1, select bank1
  5876  1328  1303               	bcf	3,6	;RP1=0, select bank1
  5877  1329  0522               	andwf	(___flge@ff1+2)^(0+128),w
  5878  132A  1283               	bcf	3,5	;RP0=0, select bank0
  5879  132B  1303               	bcf	3,6	;RP1=0, select bank0
  5880  132C  00BD               	movwf	??___flge+2
  5881  132D  307F               	movlw	127
  5882  132E  1683               	bsf	3,5	;RP0=1, select bank1
  5883  132F  1303               	bcf	3,6	;RP1=0, select bank1
  5884  1330  0523               	andwf	(___flge@ff1+3)^(0+128),w
  5885  1331  1283               	bcf	3,5	;RP0=0, select bank0
  5886  1332  1303               	bcf	3,6	;RP1=0, select bank0
  5887  1333  00BE               	movwf	??___flge+3
  5888  1334  083E               	movf	??___flge+3,w
  5889  1335  043D               	iorwf	??___flge+2,w
  5890  1336  043C               	iorwf	??___flge+1,w
  5891  1337  043B               	iorwf	??___flge,w
  5892  1338  1D03               	skipz
  5893  1339  2B3B               	goto	u5401
  5894  133A  2B3C               	goto	u5400
  5895  133B                     u5401:
  5896  133B  2B46               	goto	l421
  5897  133C                     u5400:
  5898  133C                     l3355:
  5899  133C  3000               	movlw	0
  5900  133D  1683               	bsf	3,5	;RP0=1, select bank1
  5901  133E  1303               	bcf	3,6	;RP1=0, select bank1
  5902  133F  00A3               	movwf	(___flge@ff1+3)^(0+128)
  5903  1340  3000               	movlw	0
  5904  1341  00A2               	movwf	(___flge@ff1+2)^(0+128)
  5905  1342  3000               	movlw	0
  5906  1343  00A1               	movwf	(___flge@ff1+1)^(0+128)
  5907  1344  3000               	movlw	0
  5908  1345  00A0               	movwf	___flge@ff1^(0+128)
  5909  1346                     l421:
  5910  1346  3000               	movlw	0
  5911  1347  1683               	bsf	3,5	;RP0=1, select bank1
  5912  1348  1303               	bcf	3,6	;RP1=0, select bank1
  5913  1349  0524               	andwf	___flge@ff2^(0+128),w
  5914  134A  1283               	bcf	3,5	;RP0=0, select bank0
  5915  134B  1303               	bcf	3,6	;RP1=0, select bank0
  5916  134C  00BB               	movwf	??___flge
  5917  134D  3000               	movlw	0
  5918  134E  1683               	bsf	3,5	;RP0=1, select bank1
  5919  134F  1303               	bcf	3,6	;RP1=0, select bank1
  5920  1350  0525               	andwf	(___flge@ff2+1)^(0+128),w
  5921  1351  1283               	bcf	3,5	;RP0=0, select bank0
  5922  1352  1303               	bcf	3,6	;RP1=0, select bank0
  5923  1353  00BC               	movwf	??___flge+1
  5924  1354  3080               	movlw	128
  5925  1355  1683               	bsf	3,5	;RP0=1, select bank1
  5926  1356  1303               	bcf	3,6	;RP1=0, select bank1
  5927  1357  0526               	andwf	(___flge@ff2+2)^(0+128),w
  5928  1358  1283               	bcf	3,5	;RP0=0, select bank0
  5929  1359  1303               	bcf	3,6	;RP1=0, select bank0
  5930  135A  00BD               	movwf	??___flge+2
  5931  135B  307F               	movlw	127
  5932  135C  1683               	bsf	3,5	;RP0=1, select bank1
  5933  135D  1303               	bcf	3,6	;RP1=0, select bank1
  5934  135E  0527               	andwf	(___flge@ff2+3)^(0+128),w
  5935  135F  1283               	bcf	3,5	;RP0=0, select bank0
  5936  1360  1303               	bcf	3,6	;RP1=0, select bank0
  5937  1361  00BE               	movwf	??___flge+3
  5938  1362  083E               	movf	??___flge+3,w
  5939  1363  043D               	iorwf	??___flge+2,w
  5940  1364  043C               	iorwf	??___flge+1,w
  5941  1365  043B               	iorwf	??___flge,w
  5942  1366  1D03               	skipz
  5943  1367  2B69               	goto	u5411
  5944  1368  2B6A               	goto	u5410
  5945  1369                     u5411:
  5946  1369  2B74               	goto	l3359
  5947  136A                     u5410:
  5948  136A                     l3357:
  5949  136A  3000               	movlw	0
  5950  136B  1683               	bsf	3,5	;RP0=1, select bank1
  5951  136C  1303               	bcf	3,6	;RP1=0, select bank1
  5952  136D  00A7               	movwf	(___flge@ff2+3)^(0+128)
  5953  136E  3000               	movlw	0
  5954  136F  00A6               	movwf	(___flge@ff2+2)^(0+128)
  5955  1370  3000               	movlw	0
  5956  1371  00A5               	movwf	(___flge@ff2+1)^(0+128)
  5957  1372  3000               	movlw	0
  5958  1373  00A4               	movwf	___flge@ff2^(0+128)
  5959  1374                     l3359:
  5960  1374  1683               	bsf	3,5	;RP0=1, select bank1
  5961  1375  1303               	bcf	3,6	;RP1=0, select bank1
  5962  1376  1FA3               	btfss	(___flge@ff1+3)^(0+128),7
  5963  1377  2B79               	goto	u5421
  5964  1378  2B7A               	goto	u5420
  5965  1379                     u5421:
  5966  1379  2BC2               	goto	l3363
  5967  137A                     u5420:
  5968  137A                     l3361:
  5969  137A  3000               	movlw	0
  5970  137B  1283               	bcf	3,5	;RP0=0, select bank0
  5971  137C  1303               	bcf	3,6	;RP1=0, select bank0
  5972  137D  00BB               	movwf	??___flge
  5973  137E  3000               	movlw	0
  5974  137F  00BC               	movwf	??___flge+1
  5975  1380  3000               	movlw	0
  5976  1381  00BD               	movwf	??___flge+2
  5977  1382  3080               	movlw	128
  5978  1383  00BE               	movwf	??___flge+3
  5979  1384  1683               	bsf	3,5	;RP0=1, select bank1
  5980  1385  1303               	bcf	3,6	;RP1=0, select bank1
  5981  1386  0820               	movf	___flge@ff1^(0+128),w
  5982  1387  1283               	bcf	3,5	;RP0=0, select bank0
  5983  1388  1303               	bcf	3,6	;RP1=0, select bank0
  5984  1389  02BB               	subwf	??___flge,f
  5985  138A  1683               	bsf	3,5	;RP0=1, select bank1
  5986  138B  1303               	bcf	3,6	;RP1=0, select bank1
  5987  138C  0821               	movf	(___flge@ff1+1)^(0+128),w
  5988  138D  1C03               	skipc
  5989  138E  0F21               	incfsz	(___flge@ff1+1)^(0+128),w
  5990  138F  2B91               	goto	u5431
  5991  1390  2B94               	goto	u5432
  5992  1391                     u5431:
  5993  1391  1283               	bcf	3,5	;RP0=0, select bank0
  5994  1392  1303               	bcf	3,6	;RP1=0, select bank0
  5995  1393  02BC               	subwf	??___flge+1,f
  5996  1394                     u5432:
  5997  1394  1683               	bsf	3,5	;RP0=1, select bank1
  5998  1395  1303               	bcf	3,6	;RP1=0, select bank1
  5999  1396  0822               	movf	(___flge@ff1+2)^(0+128),w
  6000  1397  1C03               	skipc
  6001  1398  0F22               	incfsz	(___flge@ff1+2)^(0+128),w
  6002  1399  2B9B               	goto	u5433
  6003  139A  2B9E               	goto	u5434
  6004  139B                     u5433:
  6005  139B  1283               	bcf	3,5	;RP0=0, select bank0
  6006  139C  1303               	bcf	3,6	;RP1=0, select bank0
  6007  139D  02BD               	subwf	??___flge+2,f
  6008  139E                     u5434:
  6009  139E  1683               	bsf	3,5	;RP0=1, select bank1
  6010  139F  1303               	bcf	3,6	;RP1=0, select bank1
  6011  13A0  0823               	movf	(___flge@ff1+3)^(0+128),w
  6012  13A1  1C03               	skipc
  6013  13A2  0F23               	incfsz	(___flge@ff1+3)^(0+128),w
  6014  13A3  2BA5               	goto	u5435
  6015  13A4  2BA8               	goto	u5436
  6016  13A5                     u5435:
  6017  13A5  1283               	bcf	3,5	;RP0=0, select bank0
  6018  13A6  1303               	bcf	3,6	;RP1=0, select bank0
  6019  13A7  02BE               	subwf	??___flge+3,f
  6020  13A8                     u5436:
  6021  13A8  1683               	bsf	3,5	;RP0=1, select bank1
  6022  13A9  1303               	bcf	3,6	;RP1=0, select bank1
  6023  13AA  1283               	bcf	3,5	;RP0=0, select bank0
  6024  13AB  1303               	bcf	3,6	;RP1=0, select bank0
  6025  13AC  083E               	movf	??___flge+3,w
  6026  13AD  1683               	bsf	3,5	;RP0=1, select bank1
  6027  13AE  1303               	bcf	3,6	;RP1=0, select bank1
  6028  13AF  00A3               	movwf	(___flge@ff1+3)^(0+128)
  6029  13B0  1283               	bcf	3,5	;RP0=0, select bank0
  6030  13B1  1303               	bcf	3,6	;RP1=0, select bank0
  6031  13B2  083D               	movf	??___flge+2,w
  6032  13B3  1683               	bsf	3,5	;RP0=1, select bank1
  6033  13B4  1303               	bcf	3,6	;RP1=0, select bank1
  6034  13B5  00A2               	movwf	(___flge@ff1+2)^(0+128)
  6035  13B6  1283               	bcf	3,5	;RP0=0, select bank0
  6036  13B7  1303               	bcf	3,6	;RP1=0, select bank0
  6037  13B8  083C               	movf	??___flge+1,w
  6038  13B9  1683               	bsf	3,5	;RP0=1, select bank1
  6039  13BA  1303               	bcf	3,6	;RP1=0, select bank1
  6040  13BB  00A1               	movwf	(___flge@ff1+1)^(0+128)
  6041  13BC  1283               	bcf	3,5	;RP0=0, select bank0
  6042  13BD  1303               	bcf	3,6	;RP1=0, select bank0
  6043  13BE  083B               	movf	??___flge,w
  6044  13BF  1683               	bsf	3,5	;RP0=1, select bank1
  6045  13C0  1303               	bcf	3,6	;RP1=0, select bank1
  6046  13C1  00A0               	movwf	___flge@ff1^(0+128)
  6047  13C2                     l3363:
  6048  13C2  1FA7               	btfss	(___flge@ff2+3)^(0+128),7
  6049  13C3  2BC5               	goto	u5441
  6050  13C4  2BC6               	goto	u5440
  6051  13C5                     u5441:
  6052  13C5  2C0E               	goto	l424
  6053  13C6                     u5440:
  6054  13C6                     l3365:
  6055  13C6  3000               	movlw	0
  6056  13C7  1283               	bcf	3,5	;RP0=0, select bank0
  6057  13C8  1303               	bcf	3,6	;RP1=0, select bank0
  6058  13C9  00BB               	movwf	??___flge
  6059  13CA  3000               	movlw	0
  6060  13CB  00BC               	movwf	??___flge+1
  6061  13CC  3000               	movlw	0
  6062  13CD  00BD               	movwf	??___flge+2
  6063  13CE  3080               	movlw	128
  6064  13CF  00BE               	movwf	??___flge+3
  6065  13D0  1683               	bsf	3,5	;RP0=1, select bank1
  6066  13D1  1303               	bcf	3,6	;RP1=0, select bank1
  6067  13D2  0824               	movf	___flge@ff2^(0+128),w
  6068  13D3  1283               	bcf	3,5	;RP0=0, select bank0
  6069  13D4  1303               	bcf	3,6	;RP1=0, select bank0
  6070  13D5  02BB               	subwf	??___flge,f
  6071  13D6  1683               	bsf	3,5	;RP0=1, select bank1
  6072  13D7  1303               	bcf	3,6	;RP1=0, select bank1
  6073  13D8  0825               	movf	(___flge@ff2+1)^(0+128),w
  6074  13D9  1C03               	skipc
  6075  13DA  0F25               	incfsz	(___flge@ff2+1)^(0+128),w
  6076  13DB  2BDD               	goto	u5451
  6077  13DC  2BE0               	goto	u5452
  6078  13DD                     u5451:
  6079  13DD  1283               	bcf	3,5	;RP0=0, select bank0
  6080  13DE  1303               	bcf	3,6	;RP1=0, select bank0
  6081  13DF  02BC               	subwf	??___flge+1,f
  6082  13E0                     u5452:
  6083  13E0  1683               	bsf	3,5	;RP0=1, select bank1
  6084  13E1  1303               	bcf	3,6	;RP1=0, select bank1
  6085  13E2  0826               	movf	(___flge@ff2+2)^(0+128),w
  6086  13E3  1C03               	skipc
  6087  13E4  0F26               	incfsz	(___flge@ff2+2)^(0+128),w
  6088  13E5  2BE7               	goto	u5453
  6089  13E6  2BEA               	goto	u5454
  6090  13E7                     u5453:
  6091  13E7  1283               	bcf	3,5	;RP0=0, select bank0
  6092  13E8  1303               	bcf	3,6	;RP1=0, select bank0
  6093  13E9  02BD               	subwf	??___flge+2,f
  6094  13EA                     u5454:
  6095  13EA  1683               	bsf	3,5	;RP0=1, select bank1
  6096  13EB  1303               	bcf	3,6	;RP1=0, select bank1
  6097  13EC  0827               	movf	(___flge@ff2+3)^(0+128),w
  6098  13ED  1C03               	skipc
  6099  13EE  0F27               	incfsz	(___flge@ff2+3)^(0+128),w
  6100  13EF  2BF1               	goto	u5455
  6101  13F0  2BF4               	goto	u5456
  6102  13F1                     u5455:
  6103  13F1  1283               	bcf	3,5	;RP0=0, select bank0
  6104  13F2  1303               	bcf	3,6	;RP1=0, select bank0
  6105  13F3  02BE               	subwf	??___flge+3,f
  6106  13F4                     u5456:
  6107  13F4  1683               	bsf	3,5	;RP0=1, select bank1
  6108  13F5  1303               	bcf	3,6	;RP1=0, select bank1
  6109  13F6  1283               	bcf	3,5	;RP0=0, select bank0
  6110  13F7  1303               	bcf	3,6	;RP1=0, select bank0
  6111  13F8  083E               	movf	??___flge+3,w
  6112  13F9  1683               	bsf	3,5	;RP0=1, select bank1
  6113  13FA  1303               	bcf	3,6	;RP1=0, select bank1
  6114  13FB  00A7               	movwf	(___flge@ff2+3)^(0+128)
  6115  13FC  1283               	bcf	3,5	;RP0=0, select bank0
  6116  13FD  1303               	bcf	3,6	;RP1=0, select bank0
  6117  13FE  083D               	movf	??___flge+2,w
  6118  13FF  1683               	bsf	3,5	;RP0=1, select bank1
  6119  1400  1303               	bcf	3,6	;RP1=0, select bank1
  6120  1401  00A6               	movwf	(___flge@ff2+2)^(0+128)
  6121  1402  1283               	bcf	3,5	;RP0=0, select bank0
  6122  1403  1303               	bcf	3,6	;RP1=0, select bank0
  6123  1404  083C               	movf	??___flge+1,w
  6124  1405  1683               	bsf	3,5	;RP0=1, select bank1
  6125  1406  1303               	bcf	3,6	;RP1=0, select bank1
  6126  1407  00A5               	movwf	(___flge@ff2+1)^(0+128)
  6127  1408  1283               	bcf	3,5	;RP0=0, select bank0
  6128  1409  1303               	bcf	3,6	;RP1=0, select bank0
  6129  140A  083B               	movf	??___flge,w
  6130  140B  1683               	bsf	3,5	;RP0=1, select bank1
  6131  140C  1303               	bcf	3,6	;RP1=0, select bank1
  6132  140D  00A4               	movwf	___flge@ff2^(0+128)
  6133  140E                     l424:
  6134  140E  3080               	movlw	128
  6135  140F  06A3               	xorwf	(___flge@ff1+3)^(0+128),f
  6136  1410  3080               	movlw	128
  6137  1411  06A7               	xorwf	(___flge@ff2+3)^(0+128),f
  6138  1412  0827               	movf	(___flge@ff2+3)^(0+128),w
  6139  1413  0223               	subwf	(___flge@ff1+3)^(0+128),w
  6140  1414  1D03               	skipz
  6141  1415  2C20               	goto	u5465
  6142  1416  0826               	movf	(___flge@ff2+2)^(0+128),w
  6143  1417  0222               	subwf	(___flge@ff1+2)^(0+128),w
  6144  1418  1D03               	skipz
  6145  1419  2C20               	goto	u5465
  6146  141A  0825               	movf	(___flge@ff2+1)^(0+128),w
  6147  141B  0221               	subwf	(___flge@ff1+1)^(0+128),w
  6148  141C  1D03               	skipz
  6149  141D  2C20               	goto	u5465
  6150  141E  0824               	movf	___flge@ff2^(0+128),w
  6151  141F  0220               	subwf	___flge@ff1^(0+128),w
  6152  1420                     u5465:
  6153  1420  1803               	skipnc
  6154  1421  2C23               	goto	u5461
  6155  1422  2C24               	goto	u5460
  6156  1423                     u5461:
  6157  1423  2C26               	goto	l3369
  6158  1424                     u5460:
  6159  1424                     l3367:
  6160  1424  1003               	clrc
  6161  1425  2C27               	goto	l425
  6162  1426                     l3369:
  6163  1426  1403               	setc
  6164  1427                     l425:
  6165  1427  0008               	return
  6166  1428                     __end_of___flge:
  6167                           
  6168                           	psect	text11
  6169  052D                     __ptext11:	
  6170 ;; *************** function ___fldiv *****************
  6171 ;; Defined at:
  6172 ;;		line 8 in file "C:\Program Files\Microchip\xc8\v2.31\pic\sources\c90\common\sprcdiv.c"
  6173 ;; Parameters:    Size  Location     Type
  6174 ;;  a               4   61[BANK1 ] unsigned int 
  6175 ;;  b               4   65[BANK1 ] unsigned int 
  6176 ;; Auto vars:     Size  Location     Type
  6177 ;;  grs             4    7[BANK3 ] unsigned long 
  6178 ;;  rem             4    0[BANK3 ] unsigned long 
  6179 ;;  new_exp         2    5[BANK3 ] int 
  6180 ;;  aexp            1   12[BANK3 ] unsigned char 
  6181 ;;  bexp            1   11[BANK3 ] unsigned char 
  6182 ;;  sign            1    4[BANK3 ] unsigned char 
  6183 ;; Return value:  Size  Location     Type
  6184 ;;                  4   61[BANK1 ] unsigned char 
  6185 ;; Registers used:
  6186 ;;		wreg, status,2, status,0, btemp+1
  6187 ;; Tracked objects:
  6188 ;;		On entry : 0/0
  6189 ;;		On exit  : 0/0
  6190 ;;		Unchanged: 0/0
  6191 ;; Data sizes:     COMMON   BANK0   BANK1   BANK3   BANK2
  6192 ;;      Params:         0       0       8       0       0
  6193 ;;      Locals:         0       0       0      13       0
  6194 ;;      Temps:          0       0       5       0       0
  6195 ;;      Totals:         0       0      13      13       0
  6196 ;;Total ram usage:       26 bytes
  6197 ;; Hardware stack levels used:    1
  6198 ;; Hardware stack levels required when called:    2
  6199 ;; This function calls:
  6200 ;;		Nothing
  6201 ;; This function is called by:
  6202 ;;		_main
  6203 ;;		_convert
  6204 ;; This function uses a non-reentrant model
  6205 ;;
  6206                           
  6207                           
  6208                           ;psect for function ___fldiv
  6209  052D                     ___fldiv:
  6210  052D                     l3415:	
  6211                           ;incstack = 0
  6212                           ; Regs used in ___fldiv: [wreg+status,2+status,0+btemp+1]
  6213                           
  6214  052D  1683               	bsf	3,5	;RP0=1, select bank1
  6215  052E  1303               	bcf	3,6	;RP1=0, select bank1
  6216  052F  0864               	movf	(___fldiv@b^(0+128)+3),w
  6217  0530  3980               	andlw	128
  6218  0531  00E5               	movwf	??___fldiv^(0+128)
  6219  0532  0865               	movf	??___fldiv^(0+128),w
  6220  0533  1683               	bsf	3,5	;RP0=1, select bank3
  6221  0534  1703               	bsf	3,6	;RP1=1, select bank3
  6222  0535  0094               	movwf	___fldiv@sign^(0+384)
  6223  0536                     l3417:
  6224  0536  1683               	bsf	3,5	;RP0=1, select bank1
  6225  0537  1303               	bcf	3,6	;RP1=0, select bank1
  6226  0538  0864               	movf	(___fldiv@b^(0+128)+3),w
  6227  0539  00E5               	movwf	??___fldiv^(0+128)
  6228  053A  0765               	addwf	??___fldiv^(0+128),w
  6229  053B  00E6               	movwf	(??___fldiv+1)^(0+128)
  6230  053C  0866               	movf	(??___fldiv+1)^(0+128),w
  6231  053D  1683               	bsf	3,5	;RP0=1, select bank3
  6232  053E  1703               	bsf	3,6	;RP1=1, select bank3
  6233  053F  009B               	movwf	___fldiv@bexp^(0+384)
  6234  0540                     l3419:
  6235  0540  1683               	bsf	3,5	;RP0=1, select bank1
  6236  0541  1303               	bcf	3,6	;RP1=0, select bank1
  6237  0542  1FE3               	btfss	(___fldiv@b^(0+128)+2),7
  6238  0543  2D45               	goto	u5571
  6239  0544  2D46               	goto	u5570
  6240  0545                     u5571:
  6241  0545  2D49               	goto	l3423
  6242  0546                     u5570:
  6243  0546                     l3421:
  6244  0546  1683               	bsf	3,5	;RP0=1, select bank3
  6245  0547  1703               	bsf	3,6	;RP1=1, select bank3
  6246  0548  141B               	bsf	___fldiv@bexp^(0+384),0
  6247  0549                     l3423:
  6248  0549  1683               	bsf	3,5	;RP0=1, select bank3
  6249  054A  1703               	bsf	3,6	;RP1=1, select bank3
  6250  054B  081B               	movf	___fldiv@bexp^(0+384),w
  6251  054C  1903               	btfsc	3,2
  6252  054D  2D4F               	goto	u5581
  6253  054E  2D50               	goto	u5580
  6254  054F                     u5581:
  6255  054F  2D63               	goto	l3433
  6256  0550                     u5580:
  6257  0550                     l3425:
  6258  0550  0A1B               	incf	___fldiv@bexp^(0+384),w
  6259  0551  1D03               	btfss	3,2
  6260  0552  2D54               	goto	u5591
  6261  0553  2D55               	goto	u5590
  6262  0554                     u5591:
  6263  0554  2D5F               	goto	l3429
  6264  0555                     u5590:
  6265  0555                     l3427:
  6266  0555  3000               	movlw	0
  6267  0556  1683               	bsf	3,5	;RP0=1, select bank1
  6268  0557  1303               	bcf	3,6	;RP1=0, select bank1
  6269  0558  00E4               	movwf	(___fldiv@b+3)^(0+128)
  6270  0559  3000               	movlw	0
  6271  055A  00E3               	movwf	(___fldiv@b+2)^(0+128)
  6272  055B  3000               	movlw	0
  6273  055C  00E2               	movwf	(___fldiv@b+1)^(0+128)
  6274  055D  3000               	movlw	0
  6275  055E  00E1               	movwf	___fldiv@b^(0+128)
  6276  055F                     l3429:
  6277  055F  1303               	bcf	3,6	;RP1=0, select bank1
  6278  0560  17E3               	bsf	(___fldiv@b^(0+128)+2),7
  6279  0561                     l3431:
  6280  0561  01E4               	clrf	(___fldiv@b^(0+128)+3)
  6281  0562  2D6D               	goto	l3435
  6282  0563                     l3433:
  6283  0563  3000               	movlw	0
  6284  0564  1683               	bsf	3,5	;RP0=1, select bank1
  6285  0565  1303               	bcf	3,6	;RP1=0, select bank1
  6286  0566  00E4               	movwf	(___fldiv@b+3)^(0+128)
  6287  0567  3000               	movlw	0
  6288  0568  00E3               	movwf	(___fldiv@b+2)^(0+128)
  6289  0569  3000               	movlw	0
  6290  056A  00E2               	movwf	(___fldiv@b+1)^(0+128)
  6291  056B  3000               	movlw	0
  6292  056C  00E1               	movwf	___fldiv@b^(0+128)
  6293  056D                     l3435:
  6294  056D  0860               	movf	(___fldiv@a^(0+128)+3),w
  6295  056E  3980               	andlw	128
  6296  056F  00E5               	movwf	??___fldiv^(0+128)
  6297  0570  0865               	movf	??___fldiv^(0+128),w
  6298  0571  1683               	bsf	3,5	;RP0=1, select bank3
  6299  0572  1703               	bsf	3,6	;RP1=1, select bank3
  6300  0573  0694               	xorwf	___fldiv@sign^(0+384),f
  6301  0574                     l3437:
  6302  0574  1683               	bsf	3,5	;RP0=1, select bank1
  6303  0575  1303               	bcf	3,6	;RP1=0, select bank1
  6304  0576  0860               	movf	(___fldiv@a^(0+128)+3),w
  6305  0577  00E5               	movwf	??___fldiv^(0+128)
  6306  0578  0765               	addwf	??___fldiv^(0+128),w
  6307  0579  00E6               	movwf	(??___fldiv+1)^(0+128)
  6308  057A  0866               	movf	(??___fldiv+1)^(0+128),w
  6309  057B  1683               	bsf	3,5	;RP0=1, select bank3
  6310  057C  1703               	bsf	3,6	;RP1=1, select bank3
  6311  057D  009C               	movwf	___fldiv@aexp^(0+384)
  6312  057E                     l3439:
  6313  057E  1683               	bsf	3,5	;RP0=1, select bank1
  6314  057F  1303               	bcf	3,6	;RP1=0, select bank1
  6315  0580  1FDF               	btfss	(___fldiv@a^(0+128)+2),7
  6316  0581  2D83               	goto	u5601
  6317  0582  2D84               	goto	u5600
  6318  0583                     u5601:
  6319  0583  2D87               	goto	l3443
  6320  0584                     u5600:
  6321  0584                     l3441:
  6322  0584  1683               	bsf	3,5	;RP0=1, select bank3
  6323  0585  1703               	bsf	3,6	;RP1=1, select bank3
  6324  0586  141C               	bsf	___fldiv@aexp^(0+384),0
  6325  0587                     l3443:
  6326  0587  1683               	bsf	3,5	;RP0=1, select bank3
  6327  0588  1703               	bsf	3,6	;RP1=1, select bank3
  6328  0589  081C               	movf	___fldiv@aexp^(0+384),w
  6329  058A  1903               	btfsc	3,2
  6330  058B  2D8D               	goto	u5611
  6331  058C  2D8E               	goto	u5610
  6332  058D                     u5611:
  6333  058D  2DA1               	goto	l3453
  6334  058E                     u5610:
  6335  058E                     l3445:
  6336  058E  0A1C               	incf	___fldiv@aexp^(0+384),w
  6337  058F  1D03               	btfss	3,2
  6338  0590  2D92               	goto	u5621
  6339  0591  2D93               	goto	u5620
  6340  0592                     u5621:
  6341  0592  2D9D               	goto	l3449
  6342  0593                     u5620:
  6343  0593                     l3447:
  6344  0593  3000               	movlw	0
  6345  0594  1683               	bsf	3,5	;RP0=1, select bank1
  6346  0595  1303               	bcf	3,6	;RP1=0, select bank1
  6347  0596  00E0               	movwf	(___fldiv@a+3)^(0+128)
  6348  0597  3000               	movlw	0
  6349  0598  00DF               	movwf	(___fldiv@a+2)^(0+128)
  6350  0599  3000               	movlw	0
  6351  059A  00DE               	movwf	(___fldiv@a+1)^(0+128)
  6352  059B  3000               	movlw	0
  6353  059C  00DD               	movwf	___fldiv@a^(0+128)
  6354  059D                     l3449:
  6355  059D  1303               	bcf	3,6	;RP1=0, select bank1
  6356  059E  17DF               	bsf	(___fldiv@a^(0+128)+2),7
  6357  059F                     l3451:
  6358  059F  01E0               	clrf	(___fldiv@a^(0+128)+3)
  6359  05A0  2DAB               	goto	l596
  6360  05A1                     l3453:
  6361  05A1  3000               	movlw	0
  6362  05A2  1683               	bsf	3,5	;RP0=1, select bank1
  6363  05A3  1303               	bcf	3,6	;RP1=0, select bank1
  6364  05A4  00E0               	movwf	(___fldiv@a+3)^(0+128)
  6365  05A5  3000               	movlw	0
  6366  05A6  00DF               	movwf	(___fldiv@a+2)^(0+128)
  6367  05A7  3000               	movlw	0
  6368  05A8  00DE               	movwf	(___fldiv@a+1)^(0+128)
  6369  05A9  3000               	movlw	0
  6370  05AA  00DD               	movwf	___fldiv@a^(0+128)
  6371  05AB                     l596:
  6372  05AB  0860               	movf	(___fldiv@a+3)^(0+128),w
  6373  05AC  045F               	iorwf	(___fldiv@a+2)^(0+128),w
  6374  05AD  045E               	iorwf	(___fldiv@a+1)^(0+128),w
  6375  05AE  045D               	iorwf	___fldiv@a^(0+128),w
  6376  05AF  1D03               	skipz
  6377  05B0  2DB2               	goto	u5631
  6378  05B1  2DB3               	goto	u5630
  6379  05B2                     u5631:
  6380  05B2  2DD0               	goto	l3463
  6381  05B3                     u5630:
  6382  05B3                     l3455:
  6383  05B3  3000               	movlw	0
  6384  05B4  00E4               	movwf	(___fldiv@b+3)^(0+128)
  6385  05B5  3000               	movlw	0
  6386  05B6  00E3               	movwf	(___fldiv@b+2)^(0+128)
  6387  05B7  3000               	movlw	0
  6388  05B8  00E2               	movwf	(___fldiv@b+1)^(0+128)
  6389  05B9  3000               	movlw	0
  6390  05BA  00E1               	movwf	___fldiv@b^(0+128)
  6391  05BB  3080               	movlw	128
  6392  05BC  04E3               	iorwf	(___fldiv@b^(0+128)+2),f
  6393  05BD  307F               	movlw	127
  6394  05BE  04E4               	iorwf	((___fldiv@b+1)^(0+128)+2),f
  6395  05BF                     l3457:
  6396  05BF  1683               	bsf	3,5	;RP0=1, select bank3
  6397  05C0  1703               	bsf	3,6	;RP1=1, select bank3
  6398  05C1  0814               	movf	___fldiv@sign^(0+384),w
  6399  05C2  1683               	bsf	3,5	;RP0=1, select bank1
  6400  05C3  1303               	bcf	3,6	;RP1=0, select bank1
  6401  05C4  00E5               	movwf	??___fldiv^(0+128)
  6402  05C5  0865               	movf	??___fldiv^(0+128),w
  6403  05C6  04E4               	iorwf	(___fldiv@b^(0+128)+3),f
  6404  05C7                     l3459:
  6405  05C7  0864               	movf	(___fldiv@b+3)^(0+128),w
  6406  05C8  00E0               	movwf	(?___fldiv+3)^(0+128)
  6407  05C9  0863               	movf	(___fldiv@b+2)^(0+128),w
  6408  05CA  00DF               	movwf	(?___fldiv+2)^(0+128)
  6409  05CB  0862               	movf	(___fldiv@b+1)^(0+128),w
  6410  05CC  00DE               	movwf	(?___fldiv+1)^(0+128)
  6411  05CD  0861               	movf	___fldiv@b^(0+128),w
  6412  05CE  00DD               	movwf	?___fldiv^(0+128)
  6413  05CF  2FCC               	goto	l598
  6414  05D0                     l3463:
  6415  05D0  1683               	bsf	3,5	;RP0=1, select bank3
  6416  05D1  1703               	bsf	3,6	;RP1=1, select bank3
  6417  05D2  081B               	movf	___fldiv@bexp^(0+384),w
  6418  05D3  1D03               	btfss	3,2
  6419  05D4  2DD6               	goto	u5641
  6420  05D5  2DD7               	goto	u5640
  6421  05D6                     u5641:
  6422  05D6  2DE2               	goto	l3469
  6423  05D7                     u5640:
  6424  05D7                     l3465:
  6425  05D7  3000               	movlw	0
  6426  05D8  1683               	bsf	3,5	;RP0=1, select bank1
  6427  05D9  1303               	bcf	3,6	;RP1=0, select bank1
  6428  05DA  00E0               	movwf	(?___fldiv+3)^(0+128)
  6429  05DB  3000               	movlw	0
  6430  05DC  00DF               	movwf	(?___fldiv+2)^(0+128)
  6431  05DD  3000               	movlw	0
  6432  05DE  00DE               	movwf	(?___fldiv+1)^(0+128)
  6433  05DF  3000               	movlw	0
  6434  05E0  00DD               	movwf	?___fldiv^(0+128)
  6435  05E1  2FCC               	goto	l598
  6436  05E2                     l3469:
  6437  05E2  081B               	movf	___fldiv@bexp^(0+384),w
  6438  05E3  1683               	bsf	3,5	;RP0=1, select bank1
  6439  05E4  1303               	bcf	3,6	;RP1=0, select bank1
  6440  05E5  00E5               	movwf	??___fldiv^(0+128)
  6441  05E6  01E6               	clrf	(??___fldiv^(0+128)+1)
  6442  05E7  0866               	movf	(??___fldiv+1)^(0+128),w
  6443  05E8  00E8               	movwf	((??___fldiv+2)^(0+128)+1)
  6444  05E9  1683               	bsf	3,5	;RP0=1, select bank3
  6445  05EA  1703               	bsf	3,6	;RP1=1, select bank3
  6446  05EB  081C               	movf	___fldiv@aexp^(0+384),w
  6447  05EC  1683               	bsf	3,5	;RP0=1, select bank1
  6448  05ED  1303               	bcf	3,6	;RP1=0, select bank1
  6449  05EE  0265               	subwf	??___fldiv^(0+128),w
  6450  05EF  00E7               	movwf	(??___fldiv+2)^(0+128)
  6451  05F0  1C03               	skipc
  6452  05F1  03E8               	decf	((??___fldiv+2)^(0+128)+1),f
  6453  05F2  0867               	movf	(??___fldiv+2)^(0+128),w
  6454  05F3  3E7F               	addlw	127
  6455  05F4  1683               	bsf	3,5	;RP0=1, select bank3
  6456  05F5  1703               	bsf	3,6	;RP1=1, select bank3
  6457  05F6  0095               	movwf	___fldiv@new_exp^(0+384)
  6458  05F7  1683               	bsf	3,5	;RP0=1, select bank1
  6459  05F8  1303               	bcf	3,6	;RP1=0, select bank1
  6460  05F9  0868               	movf	(??___fldiv+3)^(0+128),w
  6461  05FA  1803               	skipnc
  6462  05FB  3E01               	addlw	1
  6463  05FC  3E00               	addlw	0
  6464  05FD  1683               	bsf	3,5	;RP0=1, select bank3
  6465  05FE  1703               	bsf	3,6	;RP1=1, select bank3
  6466  05FF  0096               	movwf	(___fldiv@new_exp+1)^(0+384)
  6467  0600                     l3471:
  6468  0600  1683               	bsf	3,5	;RP0=1, select bank1
  6469  0601  1303               	bcf	3,6	;RP1=0, select bank1
  6470  0602  0864               	movf	(___fldiv@b+3)^(0+128),w
  6471  0603  1683               	bsf	3,5	;RP0=1, select bank3
  6472  0604  1703               	bsf	3,6	;RP1=1, select bank3
  6473  0605  0093               	movwf	(___fldiv@rem+3)^(0+384)
  6474  0606  1683               	bsf	3,5	;RP0=1, select bank1
  6475  0607  1303               	bcf	3,6	;RP1=0, select bank1
  6476  0608  0863               	movf	(___fldiv@b+2)^(0+128),w
  6477  0609  1683               	bsf	3,5	;RP0=1, select bank3
  6478  060A  1703               	bsf	3,6	;RP1=1, select bank3
  6479  060B  0092               	movwf	(___fldiv@rem+2)^(0+384)
  6480  060C  1683               	bsf	3,5	;RP0=1, select bank1
  6481  060D  1303               	bcf	3,6	;RP1=0, select bank1
  6482  060E  0862               	movf	(___fldiv@b+1)^(0+128),w
  6483  060F  1683               	bsf	3,5	;RP0=1, select bank3
  6484  0610  1703               	bsf	3,6	;RP1=1, select bank3
  6485  0611  0091               	movwf	(___fldiv@rem+1)^(0+384)
  6486  0612  1683               	bsf	3,5	;RP0=1, select bank1
  6487  0613  1303               	bcf	3,6	;RP1=0, select bank1
  6488  0614  0861               	movf	___fldiv@b^(0+128),w
  6489  0615  1683               	bsf	3,5	;RP0=1, select bank3
  6490  0616  1703               	bsf	3,6	;RP1=1, select bank3
  6491  0617  0090               	movwf	___fldiv@rem^(0+384)
  6492  0618                     l3473:
  6493  0618  3000               	movlw	0
  6494  0619  1683               	bsf	3,5	;RP0=1, select bank1
  6495  061A  1303               	bcf	3,6	;RP1=0, select bank1
  6496  061B  00E4               	movwf	(___fldiv@b+3)^(0+128)
  6497  061C  3000               	movlw	0
  6498  061D  00E3               	movwf	(___fldiv@b+2)^(0+128)
  6499  061E  3000               	movlw	0
  6500  061F  00E2               	movwf	(___fldiv@b+1)^(0+128)
  6501  0620  3000               	movlw	0
  6502  0621  00E1               	movwf	___fldiv@b^(0+128)
  6503  0622                     l3475:
  6504  0622  3000               	movlw	0
  6505  0623  1683               	bsf	3,5	;RP0=1, select bank3
  6506  0624  1703               	bsf	3,6	;RP1=1, select bank3
  6507  0625  009A               	movwf	(___fldiv@grs+3)^(0+384)
  6508  0626  3000               	movlw	0
  6509  0627  0099               	movwf	(___fldiv@grs+2)^(0+384)
  6510  0628  3000               	movlw	0
  6511  0629  0098               	movwf	(___fldiv@grs+1)^(0+384)
  6512  062A  3000               	movlw	0
  6513  062B  0097               	movwf	___fldiv@grs^(0+384)
  6514  062C                     l3477:
  6515  062C  019C               	clrf	___fldiv@aexp^(0+384)
  6516  062D  2EB4               	goto	l3497
  6517  062E                     l3479:
  6518  062E  081C               	movf	___fldiv@aexp^(0+384),w
  6519  062F  1903               	btfsc	3,2
  6520  0630  2E32               	goto	u5651
  6521  0631  2E33               	goto	u5650
  6522  0632                     u5651:
  6523  0632  2E62               	goto	l3489
  6524  0633                     u5650:
  6525  0633                     l3481:
  6526  0633  3001               	movlw	1
  6527  0634  1683               	bsf	3,5	;RP0=1, select bank1
  6528  0635  1303               	bcf	3,6	;RP1=0, select bank1
  6529  0636  00E5               	movwf	??___fldiv^(0+128)
  6530  0637                     u5665:
  6531  0637  1003               	clrc
  6532  0638  1683               	bsf	3,5	;RP0=1, select bank3
  6533  0639  1703               	bsf	3,6	;RP1=1, select bank3
  6534  063A  0D90               	rlf	___fldiv@rem^(0+384),f
  6535  063B  0D91               	rlf	(___fldiv@rem+1)^(0+384),f
  6536  063C  0D92               	rlf	(___fldiv@rem+2)^(0+384),f
  6537  063D  0D93               	rlf	(___fldiv@rem+3)^(0+384),f
  6538  063E  1683               	bsf	3,5	;RP0=1, select bank1
  6539  063F  1303               	bcf	3,6	;RP1=0, select bank1
  6540  0640  0BE5               	decfsz	??___fldiv^(0+128),f
  6541  0641  2E37               	goto	u5665
  6542  0642  3001               	movlw	1
  6543  0643  00E5               	movwf	??___fldiv^(0+128)
  6544  0644                     u5675:
  6545  0644  1003               	clrc
  6546  0645  0DE1               	rlf	___fldiv@b^(0+128),f
  6547  0646  0DE2               	rlf	(___fldiv@b+1)^(0+128),f
  6548  0647  0DE3               	rlf	(___fldiv@b+2)^(0+128),f
  6549  0648  0DE4               	rlf	(___fldiv@b+3)^(0+128),f
  6550  0649  0BE5               	decfsz	??___fldiv^(0+128),f
  6551  064A  2E44               	goto	u5675
  6552  064B                     l3483:
  6553  064B  1683               	bsf	3,5	;RP0=1, select bank3
  6554  064C  1703               	bsf	3,6	;RP1=1, select bank3
  6555  064D  1F9A               	btfss	(___fldiv@grs+3)^(0+384),7
  6556  064E  2E50               	goto	u5681
  6557  064F  2E51               	goto	u5680
  6558  0650                     u5681:
  6559  0650  2E54               	goto	l3487
  6560  0651                     u5680:
  6561  0651                     l3485:
  6562  0651  1683               	bsf	3,5	;RP0=1, select bank1
  6563  0652  1303               	bcf	3,6	;RP1=0, select bank1
  6564  0653  1461               	bsf	___fldiv@b^(0+128),0
  6565  0654                     l3487:
  6566  0654  3001               	movlw	1
  6567  0655  1303               	bcf	3,6	;RP1=0, select bank1
  6568  0656  00E5               	movwf	??___fldiv^(0+128)
  6569  0657                     u5695:
  6570  0657  1003               	clrc
  6571  0658  1683               	bsf	3,5	;RP0=1, select bank3
  6572  0659  1703               	bsf	3,6	;RP1=1, select bank3
  6573  065A  0D97               	rlf	___fldiv@grs^(0+384),f
  6574  065B  0D98               	rlf	(___fldiv@grs+1)^(0+384),f
  6575  065C  0D99               	rlf	(___fldiv@grs+2)^(0+384),f
  6576  065D  0D9A               	rlf	(___fldiv@grs+3)^(0+384),f
  6577  065E  1683               	bsf	3,5	;RP0=1, select bank1
  6578  065F  1303               	bcf	3,6	;RP1=0, select bank1
  6579  0660  0BE5               	decfsz	??___fldiv^(0+128),f
  6580  0661  2E57               	goto	u5695
  6581  0662                     l3489:
  6582  0662  1303               	bcf	3,6	;RP1=0, select bank1
  6583  0663  0860               	movf	(___fldiv@a+3)^(0+128),w
  6584  0664  1683               	bsf	3,5	;RP0=1, select bank3
  6585  0665  1703               	bsf	3,6	;RP1=1, select bank3
  6586  0666  0213               	subwf	(___fldiv@rem+3)^(0+384),w
  6587  0667  1D03               	skipz
  6588  0668  2E7F               	goto	u5705
  6589  0669  1683               	bsf	3,5	;RP0=1, select bank1
  6590  066A  1303               	bcf	3,6	;RP1=0, select bank1
  6591  066B  085F               	movf	(___fldiv@a+2)^(0+128),w
  6592  066C  1683               	bsf	3,5	;RP0=1, select bank3
  6593  066D  1703               	bsf	3,6	;RP1=1, select bank3
  6594  066E  0212               	subwf	(___fldiv@rem+2)^(0+384),w
  6595  066F  1D03               	skipz
  6596  0670  2E7F               	goto	u5705
  6597  0671  1683               	bsf	3,5	;RP0=1, select bank1
  6598  0672  1303               	bcf	3,6	;RP1=0, select bank1
  6599  0673  085E               	movf	(___fldiv@a+1)^(0+128),w
  6600  0674  1683               	bsf	3,5	;RP0=1, select bank3
  6601  0675  1703               	bsf	3,6	;RP1=1, select bank3
  6602  0676  0211               	subwf	(___fldiv@rem+1)^(0+384),w
  6603  0677  1D03               	skipz
  6604  0678  2E7F               	goto	u5705
  6605  0679  1683               	bsf	3,5	;RP0=1, select bank1
  6606  067A  1303               	bcf	3,6	;RP1=0, select bank1
  6607  067B  085D               	movf	___fldiv@a^(0+128),w
  6608  067C  1683               	bsf	3,5	;RP0=1, select bank3
  6609  067D  1703               	bsf	3,6	;RP1=1, select bank3
  6610  067E  0210               	subwf	___fldiv@rem^(0+384),w
  6611  067F                     u5705:
  6612  067F  1C03               	skipc
  6613  0680  2E82               	goto	u5701
  6614  0681  2E83               	goto	u5700
  6615  0682                     u5701:
  6616  0682  2EAC               	goto	l3495
  6617  0683                     u5700:
  6618  0683                     l3491:
  6619  0683  171A               	bsf	(___fldiv@grs^(0+384)+3),6
  6620  0684                     l3493:
  6621  0684  1683               	bsf	3,5	;RP0=1, select bank1
  6622  0685  1303               	bcf	3,6	;RP1=0, select bank1
  6623  0686  085D               	movf	___fldiv@a^(0+128),w
  6624  0687  1683               	bsf	3,5	;RP0=1, select bank3
  6625  0688  1703               	bsf	3,6	;RP1=1, select bank3
  6626  0689  0290               	subwf	___fldiv@rem^(0+384),f
  6627  068A  1683               	bsf	3,5	;RP0=1, select bank1
  6628  068B  1303               	bcf	3,6	;RP1=0, select bank1
  6629  068C  085E               	movf	(___fldiv@a+1)^(0+128),w
  6630  068D  1C03               	skipc
  6631  068E  0F5E               	incfsz	(___fldiv@a+1)^(0+128),w
  6632  068F  2E91               	goto	u5715
  6633  0690  2E94               	goto	u5716
  6634  0691                     u5715:
  6635  0691  1683               	bsf	3,5	;RP0=1, select bank3
  6636  0692  1703               	bsf	3,6	;RP1=1, select bank3
  6637  0693  0291               	subwf	(___fldiv@rem+1)^(0+384),f
  6638  0694                     u5716:
  6639  0694  1683               	bsf	3,5	;RP0=1, select bank1
  6640  0695  1303               	bcf	3,6	;RP1=0, select bank1
  6641  0696  085F               	movf	(___fldiv@a+2)^(0+128),w
  6642  0697  1C03               	skipc
  6643  0698  0F5F               	incfsz	(___fldiv@a+2)^(0+128),w
  6644  0699  2E9B               	goto	u5717
  6645  069A  2E9E               	goto	u5718
  6646  069B                     u5717:
  6647  069B  1683               	bsf	3,5	;RP0=1, select bank3
  6648  069C  1703               	bsf	3,6	;RP1=1, select bank3
  6649  069D  0292               	subwf	(___fldiv@rem+2)^(0+384),f
  6650  069E                     u5718:
  6651  069E  1683               	bsf	3,5	;RP0=1, select bank1
  6652  069F  1303               	bcf	3,6	;RP1=0, select bank1
  6653  06A0  0860               	movf	(___fldiv@a+3)^(0+128),w
  6654  06A1  1C03               	skipc
  6655  06A2  0F60               	incfsz	(___fldiv@a+3)^(0+128),w
  6656  06A3  2EA5               	goto	u5719
  6657  06A4  2EA8               	goto	u5710
  6658  06A5                     u5719:
  6659  06A5  1683               	bsf	3,5	;RP0=1, select bank3
  6660  06A6  1703               	bsf	3,6	;RP1=1, select bank3
  6661  06A7  0293               	subwf	(___fldiv@rem+3)^(0+384),f
  6662  06A8                     u5710:
  6663  06A8  1683               	bsf	3,5	;RP0=1, select bank1
  6664  06A9  1303               	bcf	3,6	;RP1=0, select bank1
  6665  06AA  1683               	bsf	3,5	;RP0=1, select bank3
  6666  06AB  1703               	bsf	3,6	;RP1=1, select bank3
  6667  06AC                     l3495:
  6668  06AC  3001               	movlw	1
  6669  06AD  1683               	bsf	3,5	;RP0=1, select bank1
  6670  06AE  1303               	bcf	3,6	;RP1=0, select bank1
  6671  06AF  00E5               	movwf	??___fldiv^(0+128)
  6672  06B0  0865               	movf	??___fldiv^(0+128),w
  6673  06B1  1683               	bsf	3,5	;RP0=1, select bank3
  6674  06B2  1703               	bsf	3,6	;RP1=1, select bank3
  6675  06B3  079C               	addwf	___fldiv@aexp^(0+384),f
  6676  06B4                     l3497:
  6677  06B4  301A               	movlw	26
  6678  06B5  021C               	subwf	___fldiv@aexp^(0+384),w
  6679  06B6  1C03               	skipc
  6680  06B7  2EB9               	goto	u5721
  6681  06B8  2EBA               	goto	u5720
  6682  06B9                     u5721:
  6683  06B9  2E2E               	goto	l3479
  6684  06BA                     u5720:
  6685  06BA                     l3499:
  6686  06BA  0813               	movf	(___fldiv@rem+3)^(0+384),w
  6687  06BB  0412               	iorwf	(___fldiv@rem+2)^(0+384),w
  6688  06BC  0411               	iorwf	(___fldiv@rem+1)^(0+384),w
  6689  06BD  0410               	iorwf	___fldiv@rem^(0+384),w
  6690  06BE  1903               	skipnz
  6691  06BF  2EC1               	goto	u5731
  6692  06C0  2EC2               	goto	u5730
  6693  06C1                     u5731:
  6694  06C1  2EEC               	goto	l3513
  6695  06C2                     u5730:
  6696  06C2                     l3501:
  6697  06C2  1417               	bsf	___fldiv@grs^(0+384),0
  6698  06C3  2EEC               	goto	l3513
  6699  06C4                     l3503:
  6700  06C4  3001               	movlw	1
  6701  06C5  00E5               	movwf	??___fldiv^(0+128)
  6702  06C6                     u5745:
  6703  06C6  1003               	clrc
  6704  06C7  0DE1               	rlf	___fldiv@b^(0+128),f
  6705  06C8  0DE2               	rlf	(___fldiv@b+1)^(0+128),f
  6706  06C9  0DE3               	rlf	(___fldiv@b+2)^(0+128),f
  6707  06CA  0DE4               	rlf	(___fldiv@b+3)^(0+128),f
  6708  06CB  0BE5               	decfsz	??___fldiv^(0+128),f
  6709  06CC  2EC6               	goto	u5745
  6710  06CD                     l3505:
  6711  06CD  1683               	bsf	3,5	;RP0=1, select bank3
  6712  06CE  1703               	bsf	3,6	;RP1=1, select bank3
  6713  06CF  1F9A               	btfss	(___fldiv@grs+3)^(0+384),7
  6714  06D0  2ED2               	goto	u5751
  6715  06D1  2ED3               	goto	u5750
  6716  06D2                     u5751:
  6717  06D2  2ED6               	goto	l3509
  6718  06D3                     u5750:
  6719  06D3                     l3507:
  6720  06D3  1683               	bsf	3,5	;RP0=1, select bank1
  6721  06D4  1303               	bcf	3,6	;RP1=0, select bank1
  6722  06D5  1461               	bsf	___fldiv@b^(0+128),0
  6723  06D6                     l3509:
  6724  06D6  3001               	movlw	1
  6725  06D7  1303               	bcf	3,6	;RP1=0, select bank1
  6726  06D8  00E5               	movwf	??___fldiv^(0+128)
  6727  06D9                     u5765:
  6728  06D9  1003               	clrc
  6729  06DA  1683               	bsf	3,5	;RP0=1, select bank3
  6730  06DB  1703               	bsf	3,6	;RP1=1, select bank3
  6731  06DC  0D97               	rlf	___fldiv@grs^(0+384),f
  6732  06DD  0D98               	rlf	(___fldiv@grs+1)^(0+384),f
  6733  06DE  0D99               	rlf	(___fldiv@grs+2)^(0+384),f
  6734  06DF  0D9A               	rlf	(___fldiv@grs+3)^(0+384),f
  6735  06E0  1683               	bsf	3,5	;RP0=1, select bank1
  6736  06E1  1303               	bcf	3,6	;RP1=0, select bank1
  6737  06E2  0BE5               	decfsz	??___fldiv^(0+128),f
  6738  06E3  2ED9               	goto	u5765
  6739  06E4                     l3511:
  6740  06E4  30FF               	movlw	255
  6741  06E5  1683               	bsf	3,5	;RP0=1, select bank3
  6742  06E6  1703               	bsf	3,6	;RP1=1, select bank3
  6743  06E7  0795               	addwf	___fldiv@new_exp^(0+384),f
  6744  06E8  1803               	skipnc
  6745  06E9  0A96               	incf	(___fldiv@new_exp+1)^(0+384),f
  6746  06EA  30FF               	movlw	255
  6747  06EB  0796               	addwf	(___fldiv@new_exp+1)^(0+384),f
  6748  06EC                     l3513:
  6749  06EC  1683               	bsf	3,5	;RP0=1, select bank1
  6750  06ED  1303               	bcf	3,6	;RP1=0, select bank1
  6751  06EE  1FE3               	btfss	(___fldiv@b+2)^(0+128),7
  6752  06EF  2EF1               	goto	u5771
  6753  06F0  2EF2               	goto	u5770
  6754  06F1                     u5771:
  6755  06F1  2EC4               	goto	l3503
  6756  06F2                     u5770:
  6757  06F2                     l3515:
  6758  06F2  1683               	bsf	3,5	;RP0=1, select bank3
  6759  06F3  1703               	bsf	3,6	;RP1=1, select bank3
  6760  06F4  019C               	clrf	___fldiv@aexp^(0+384)
  6761  06F5                     l3517:
  6762  06F5  1F9A               	btfss	(___fldiv@grs+3)^(0+384),7
  6763  06F6  2EF8               	goto	u5781
  6764  06F7  2EF9               	goto	u5780
  6765  06F8                     u5781:
  6766  06F8  2F25               	goto	l3525
  6767  06F9                     u5780:
  6768  06F9                     l3519:
  6769  06F9  30FF               	movlw	255
  6770  06FA  0517               	andwf	___fldiv@grs^(0+384),w
  6771  06FB  1683               	bsf	3,5	;RP0=1, select bank1
  6772  06FC  1303               	bcf	3,6	;RP1=0, select bank1
  6773  06FD  00E5               	movwf	??___fldiv^(0+128)
  6774  06FE  30FF               	movlw	255
  6775  06FF  1683               	bsf	3,5	;RP0=1, select bank3
  6776  0700  1703               	bsf	3,6	;RP1=1, select bank3
  6777  0701  0518               	andwf	(___fldiv@grs+1)^(0+384),w
  6778  0702  1683               	bsf	3,5	;RP0=1, select bank1
  6779  0703  1303               	bcf	3,6	;RP1=0, select bank1
  6780  0704  00E6               	movwf	(??___fldiv^(0+128)+1)
  6781  0705  30FF               	movlw	255
  6782  0706  1683               	bsf	3,5	;RP0=1, select bank3
  6783  0707  1703               	bsf	3,6	;RP1=1, select bank3
  6784  0708  0519               	andwf	(___fldiv@grs+2)^(0+384),w
  6785  0709  1683               	bsf	3,5	;RP0=1, select bank1
  6786  070A  1303               	bcf	3,6	;RP1=0, select bank1
  6787  070B  00E7               	movwf	(??___fldiv^(0+128)+2)
  6788  070C  307F               	movlw	127
  6789  070D  1683               	bsf	3,5	;RP0=1, select bank3
  6790  070E  1703               	bsf	3,6	;RP1=1, select bank3
  6791  070F  051A               	andwf	(___fldiv@grs+3)^(0+384),w
  6792  0710  1683               	bsf	3,5	;RP0=1, select bank1
  6793  0711  1303               	bcf	3,6	;RP1=0, select bank1
  6794  0712  00E8               	movwf	(??___fldiv^(0+128)+3)
  6795  0713  0868               	movf	(??___fldiv+3)^(0+128),w
  6796  0714  0467               	iorwf	(??___fldiv+2)^(0+128),w
  6797  0715  0466               	iorwf	(??___fldiv+1)^(0+128),w
  6798  0716  0465               	iorwf	??___fldiv^(0+128),w
  6799  0717  1903               	skipnz
  6800  0718  2F1A               	goto	u5791
  6801  0719  2F1B               	goto	u5790
  6802  071A                     u5791:
  6803  071A  2F20               	goto	l612
  6804  071B                     u5790:
  6805  071B                     l3521:
  6806  071B  1683               	bsf	3,5	;RP0=1, select bank3
  6807  071C  1703               	bsf	3,6	;RP1=1, select bank3
  6808  071D  019C               	clrf	___fldiv@aexp^(0+384)
  6809  071E  0A9C               	incf	___fldiv@aexp^(0+384),f
  6810  071F  2F25               	goto	l3525
  6811  0720                     l612:
  6812  0720  1C61               	btfss	___fldiv@b^(0+128),0
  6813  0721  2F23               	goto	u5801
  6814  0722  2F24               	goto	u5800
  6815  0723                     u5801:
  6816  0723  2F25               	goto	l3525
  6817  0724                     u5800:
  6818  0724  2F1B               	goto	l3521
  6819  0725                     l3525:
  6820  0725  1683               	bsf	3,5	;RP0=1, select bank3
  6821  0726  1703               	bsf	3,6	;RP1=1, select bank3
  6822  0727  081C               	movf	___fldiv@aexp^(0+384),w
  6823  0728  1903               	btfsc	3,2
  6824  0729  2F2B               	goto	u5811
  6825  072A  2F2C               	goto	u5810
  6826  072B                     u5811:
  6827  072B  2F61               	goto	l3535
  6828  072C                     u5810:
  6829  072C                     l3527:
  6830  072C  3001               	movlw	1
  6831  072D  1683               	bsf	3,5	;RP0=1, select bank1
  6832  072E  1303               	bcf	3,6	;RP1=0, select bank1
  6833  072F  07E1               	addwf	___fldiv@b^(0+128),f
  6834  0730  3000               	movlw	0
  6835  0731  1803               	skipnc
  6836  0732  3001               	movlw	1
  6837  0733  07E2               	addwf	(___fldiv@b+1)^(0+128),f
  6838  0734  3000               	movlw	0
  6839  0735  1803               	skipnc
  6840  0736  3001               	movlw	1
  6841  0737  07E3               	addwf	(___fldiv@b+2)^(0+128),f
  6842  0738  3000               	movlw	0
  6843  0739  1803               	skipnc
  6844  073A  3001               	movlw	1
  6845  073B  07E4               	addwf	(___fldiv@b+3)^(0+128),f
  6846  073C                     l3529:
  6847  073C  1C64               	btfss	(___fldiv@b+3)^(0+128),0
  6848  073D  2F3F               	goto	u5821
  6849  073E  2F40               	goto	u5820
  6850  073F                     u5821:
  6851  073F  2F61               	goto	l3535
  6852  0740                     u5820:
  6853  0740                     l3531:
  6854  0740  0861               	movf	___fldiv@b^(0+128),w
  6855  0741  00E5               	movwf	??___fldiv^(0+128)
  6856  0742  0862               	movf	(___fldiv@b+1)^(0+128),w
  6857  0743  00E6               	movwf	(??___fldiv^(0+128)+1)
  6858  0744  0863               	movf	(___fldiv@b+2)^(0+128),w
  6859  0745  00E7               	movwf	(??___fldiv^(0+128)+2)
  6860  0746  0864               	movf	(___fldiv@b+3)^(0+128),w
  6861  0747  00E8               	movwf	(??___fldiv^(0+128)+3)
  6862  0748  3001               	movlw	1
  6863  0749  00E9               	movwf	(??___fldiv+4)^(0+128)
  6864  074A                     u5835:
  6865  074A  0D68               	rlf	(??___fldiv^(0+128)+3),w
  6866  074B  0CE8               	rrf	(??___fldiv^(0+128)+3),f
  6867  074C  0CE7               	rrf	(??___fldiv^(0+128)+2),f
  6868  074D  0CE6               	rrf	(??___fldiv^(0+128)+1),f
  6869  074E  0CE5               	rrf	??___fldiv^(0+128),f
  6870  074F                     u5830:
  6871  074F  0BE9               	decfsz	(??___fldiv+4)^(0+128),f
  6872  0750  2F4A               	goto	u5835
  6873  0751  0868               	movf	(??___fldiv+3)^(0+128),w
  6874  0752  00E4               	movwf	(___fldiv@b+3)^(0+128)
  6875  0753  0867               	movf	(??___fldiv+2)^(0+128),w
  6876  0754  00E3               	movwf	(___fldiv@b+2)^(0+128)
  6877  0755  0866               	movf	(??___fldiv+1)^(0+128),w
  6878  0756  00E2               	movwf	(___fldiv@b+1)^(0+128)
  6879  0757  0865               	movf	??___fldiv^(0+128),w
  6880  0758  00E1               	movwf	___fldiv@b^(0+128)
  6881  0759                     l3533:
  6882  0759  3001               	movlw	1
  6883  075A  1683               	bsf	3,5	;RP0=1, select bank3
  6884  075B  1703               	bsf	3,6	;RP1=1, select bank3
  6885  075C  0795               	addwf	___fldiv@new_exp^(0+384),f
  6886  075D  1803               	skipnc
  6887  075E  0A96               	incf	(___fldiv@new_exp+1)^(0+384),f
  6888  075F  3000               	movlw	0
  6889  0760  0796               	addwf	(___fldiv@new_exp+1)^(0+384),f
  6890  0761                     l3535:
  6891  0761  1683               	bsf	3,5	;RP0=1, select bank3
  6892  0762  1703               	bsf	3,6	;RP1=1, select bank3
  6893  0763  0816               	movf	(___fldiv@new_exp+1)^(0+384),w
  6894  0764  3A80               	xorlw	128
  6895  0765  00FF               	movwf	btemp+1
  6896  0766  3080               	movlw	128
  6897  0767  027F               	subwf	btemp+1,w
  6898  0768  1D03               	skipz
  6899  0769  2F6C               	goto	u5845
  6900  076A  30FF               	movlw	255
  6901  076B  0215               	subwf	___fldiv@new_exp^(0+384),w
  6902  076C                     u5845:
  6903  076C  1C03               	skipc
  6904  076D  2F6F               	goto	u5841
  6905  076E  2F70               	goto	u5840
  6906  076F                     u5841:
  6907  076F  2F80               	goto	l3539
  6908  0770                     u5840:
  6909  0770                     l3537:
  6910  0770  30FF               	movlw	255
  6911  0771  1683               	bsf	3,5	;RP0=1, select bank3
  6912  0772  1703               	bsf	3,6	;RP1=1, select bank3
  6913  0773  0095               	movwf	___fldiv@new_exp^(0+384)
  6914  0774  3000               	movlw	0
  6915  0775  0096               	movwf	(___fldiv@new_exp^(0+384)+1)
  6916  0776  3000               	movlw	0
  6917  0777  1683               	bsf	3,5	;RP0=1, select bank1
  6918  0778  1303               	bcf	3,6	;RP1=0, select bank1
  6919  0779  00E4               	movwf	(___fldiv@b+3)^(0+128)
  6920  077A  3000               	movlw	0
  6921  077B  00E3               	movwf	(___fldiv@b+2)^(0+128)
  6922  077C  3000               	movlw	0
  6923  077D  00E2               	movwf	(___fldiv@b+1)^(0+128)
  6924  077E  3000               	movlw	0
  6925  077F  00E1               	movwf	___fldiv@b^(0+128)
  6926  0780                     l3539:
  6927  0780  1683               	bsf	3,5	;RP0=1, select bank3
  6928  0781  1703               	bsf	3,6	;RP1=1, select bank3
  6929  0782  0816               	movf	(___fldiv@new_exp+1)^(0+384),w
  6930  0783  3A80               	xorlw	128
  6931  0784  00FF               	movwf	btemp+1
  6932  0785  3080               	movlw	128
  6933  0786  027F               	subwf	btemp+1,w
  6934  0787  1D03               	skipz
  6935  0788  2F8B               	goto	u5855
  6936  0789  3001               	movlw	1
  6937  078A  0215               	subwf	___fldiv@new_exp^(0+384),w
  6938  078B                     u5855:
  6939  078B  1803               	skipnc
  6940  078C  2F8E               	goto	u5851
  6941  078D  2F8F               	goto	u5850
  6942  078E                     u5851:
  6943  078E  2FA0               	goto	l618
  6944  078F                     u5850:
  6945  078F                     l3541:
  6946  078F  1683               	bsf	3,5	;RP0=1, select bank3
  6947  0790  1703               	bsf	3,6	;RP1=1, select bank3
  6948  0791  0195               	clrf	___fldiv@new_exp^(0+384)
  6949  0792  0196               	clrf	(___fldiv@new_exp+1)^(0+384)
  6950  0793                     l3543:
  6951  0793  3000               	movlw	0
  6952  0794  1683               	bsf	3,5	;RP0=1, select bank1
  6953  0795  1303               	bcf	3,6	;RP1=0, select bank1
  6954  0796  00E4               	movwf	(___fldiv@b+3)^(0+128)
  6955  0797  3000               	movlw	0
  6956  0798  00E3               	movwf	(___fldiv@b+2)^(0+128)
  6957  0799  3000               	movlw	0
  6958  079A  00E2               	movwf	(___fldiv@b+1)^(0+128)
  6959  079B  3000               	movlw	0
  6960  079C  00E1               	movwf	___fldiv@b^(0+128)
  6961  079D                     l3545:
  6962  079D  1683               	bsf	3,5	;RP0=1, select bank3
  6963  079E  1703               	bsf	3,6	;RP1=1, select bank3
  6964  079F  0194               	clrf	___fldiv@sign^(0+384)
  6965  07A0                     l618:
  6966  07A0  1683               	bsf	3,5	;RP0=1, select bank3
  6967  07A1  1703               	bsf	3,6	;RP1=1, select bank3
  6968  07A2  0815               	movf	___fldiv@new_exp^(0+384),w
  6969  07A3  1683               	bsf	3,5	;RP0=1, select bank1
  6970  07A4  1303               	bcf	3,6	;RP1=0, select bank1
  6971  07A5  00E5               	movwf	??___fldiv^(0+128)
  6972  07A6  0865               	movf	??___fldiv^(0+128),w
  6973  07A7  1683               	bsf	3,5	;RP0=1, select bank3
  6974  07A8  1703               	bsf	3,6	;RP1=1, select bank3
  6975  07A9  009B               	movwf	___fldiv@bexp^(0+384)
  6976  07AA                     l3547:
  6977  07AA  1C1B               	btfss	___fldiv@bexp^(0+384),0
  6978  07AB  2FAD               	goto	u5861
  6979  07AC  2FAE               	goto	u5860
  6980  07AD                     u5861:
  6981  07AD  2FB2               	goto	l3551
  6982  07AE                     u5860:
  6983  07AE                     l3549:
  6984  07AE  1683               	bsf	3,5	;RP0=1, select bank1
  6985  07AF  1303               	bcf	3,6	;RP1=0, select bank1
  6986  07B0  17E3               	bsf	(___fldiv@b^(0+128)+2),7
  6987  07B1  2FB8               	goto	l620
  6988  07B2                     l3551:
  6989  07B2  307F               	movlw	127
  6990  07B3  1683               	bsf	3,5	;RP0=1, select bank1
  6991  07B4  1303               	bcf	3,6	;RP1=0, select bank1
  6992  07B5  00E5               	movwf	??___fldiv^(0+128)
  6993  07B6  0865               	movf	??___fldiv^(0+128),w
  6994  07B7  05E3               	andwf	(___fldiv@b^(0+128)+2),f
  6995  07B8                     l620:
  6996  07B8  1683               	bsf	3,5	;RP0=1, select bank3
  6997  07B9  1703               	bsf	3,6	;RP1=1, select bank3
  6998  07BA  081B               	movf	___fldiv@bexp^(0+384),w
  6999  07BB  1683               	bsf	3,5	;RP0=1, select bank1
  7000  07BC  1303               	bcf	3,6	;RP1=0, select bank1
  7001  07BD  00E5               	movwf	??___fldiv^(0+128)
  7002  07BE  1003               	clrc
  7003  07BF  0C65               	rrf	??___fldiv^(0+128),w
  7004  07C0  00E6               	movwf	(??___fldiv+1)^(0+128)
  7005  07C1  0866               	movf	(??___fldiv+1)^(0+128),w
  7006  07C2  00E4               	movwf	(___fldiv@b^(0+128)+3)
  7007  07C3  1683               	bsf	3,5	;RP0=1, select bank3
  7008  07C4  1703               	bsf	3,6	;RP1=1, select bank3
  7009  07C5  0814               	movf	___fldiv@sign^(0+384),w
  7010  07C6  1683               	bsf	3,5	;RP0=1, select bank1
  7011  07C7  1303               	bcf	3,6	;RP1=0, select bank1
  7012  07C8  00E5               	movwf	??___fldiv^(0+128)
  7013  07C9  0865               	movf	??___fldiv^(0+128),w
  7014  07CA  04E4               	iorwf	(___fldiv@b^(0+128)+3),f
  7015  07CB  2DC7               	goto	l3459
  7016  07CC                     l598:
  7017  07CC  0008               	return
  7018  07CD                     __end_of___fldiv:
  7019                           
  7020                           	psect	text12
  7021  1135                     __ptext12:	
  7022 ;; *************** function ___awdiv *****************
  7023 ;; Defined at:
  7024 ;;		line 5 in file "C:\Program Files\Microchip\xc8\v2.31\pic\sources\c90\common\awdiv.c"
  7025 ;; Parameters:    Size  Location     Type
  7026 ;;  divisor         2   27[BANK0 ] int 
  7027 ;;  dividend        2   29[BANK0 ] int 
  7028 ;; Auto vars:     Size  Location     Type
  7029 ;;  quotient        2    2[BANK1 ] int 
  7030 ;;  sign            1    1[BANK1 ] unsigned char 
  7031 ;;  counter         1    0[BANK1 ] unsigned char 
  7032 ;; Return value:  Size  Location     Type
  7033 ;;                  2   27[BANK0 ] int 
  7034 ;; Registers used:
  7035 ;;		wreg, status,2, status,0
  7036 ;; Tracked objects:
  7037 ;;		On entry : 0/0
  7038 ;;		On exit  : 0/0
  7039 ;;		Unchanged: 0/0
  7040 ;; Data sizes:     COMMON   BANK0   BANK1   BANK3   BANK2
  7041 ;;      Params:         0       4       0       0       0
  7042 ;;      Locals:         0       0       4       0       0
  7043 ;;      Temps:          0       1       0       0       0
  7044 ;;      Totals:         0       5       4       0       0
  7045 ;;Total ram usage:        9 bytes
  7046 ;; Hardware stack levels used:    1
  7047 ;; Hardware stack levels required when called:    2
  7048 ;; This function calls:
  7049 ;;		Nothing
  7050 ;; This function is called by:
  7051 ;;		_convert
  7052 ;; This function uses a non-reentrant model
  7053 ;;
  7054                           
  7055                           
  7056                           ;psect for function ___awdiv
  7057  1135                     ___awdiv:
  7058  1135                     l3309:	
  7059                           ;incstack = 0
  7060                           ; Regs used in ___awdiv: [wreg+status,2+status,0]
  7061                           
  7062  1135  1683               	bsf	3,5	;RP0=1, select bank1
  7063  1136  1303               	bcf	3,6	;RP1=0, select bank1
  7064  1137  01A1               	clrf	___awdiv@sign^(0+128)
  7065  1138                     l3311:
  7066  1138  1283               	bcf	3,5	;RP0=0, select bank0
  7067  1139  1303               	bcf	3,6	;RP1=0, select bank0
  7068  113A  1FBC               	btfss	___awdiv@divisor+1,7
  7069  113B  293D               	goto	u5301
  7070  113C  293E               	goto	u5300
  7071  113D                     u5301:
  7072  113D  2947               	goto	l3317
  7073  113E                     u5300:
  7074  113E                     l3313:
  7075  113E  09BB               	comf	___awdiv@divisor,f
  7076  113F  09BC               	comf	___awdiv@divisor+1,f
  7077  1140  0ABB               	incf	___awdiv@divisor,f
  7078  1141  1903               	skipnz
  7079  1142  0ABC               	incf	___awdiv@divisor+1,f
  7080  1143                     l3315:
  7081  1143  1683               	bsf	3,5	;RP0=1, select bank1
  7082  1144  1303               	bcf	3,6	;RP1=0, select bank1
  7083  1145  01A1               	clrf	___awdiv@sign^(0+128)
  7084  1146  0AA1               	incf	___awdiv@sign^(0+128),f
  7085  1147                     l3317:
  7086  1147  1283               	bcf	3,5	;RP0=0, select bank0
  7087  1148  1FBE               	btfss	___awdiv@dividend+1,7
  7088  1149  294B               	goto	u5311
  7089  114A  294C               	goto	u5310
  7090  114B                     u5311:
  7091  114B  2957               	goto	l3323
  7092  114C                     u5310:
  7093  114C                     l3319:
  7094  114C  09BD               	comf	___awdiv@dividend,f
  7095  114D  09BE               	comf	___awdiv@dividend+1,f
  7096  114E  0ABD               	incf	___awdiv@dividend,f
  7097  114F  1903               	skipnz
  7098  1150  0ABE               	incf	___awdiv@dividend+1,f
  7099  1151                     l3321:
  7100  1151  3001               	movlw	1
  7101  1152  00BF               	movwf	??___awdiv
  7102  1153  083F               	movf	??___awdiv,w
  7103  1154  1683               	bsf	3,5	;RP0=1, select bank1
  7104  1155  1303               	bcf	3,6	;RP1=0, select bank1
  7105  1156  06A1               	xorwf	___awdiv@sign^(0+128),f
  7106  1157                     l3323:
  7107  1157  1683               	bsf	3,5	;RP0=1, select bank1
  7108  1158  1303               	bcf	3,6	;RP1=0, select bank1
  7109  1159  01A2               	clrf	___awdiv@quotient^(0+128)
  7110  115A  01A3               	clrf	(___awdiv@quotient+1)^(0+128)
  7111  115B                     l3325:
  7112  115B  1283               	bcf	3,5	;RP0=0, select bank0
  7113  115C  1303               	bcf	3,6	;RP1=0, select bank0
  7114  115D  083B               	movf	___awdiv@divisor,w
  7115  115E  043C               	iorwf	___awdiv@divisor+1,w
  7116  115F  1903               	btfsc	3,2
  7117  1160  2962               	goto	u5321
  7118  1161  2963               	goto	u5320
  7119  1162                     u5321:
  7120  1162  29A9               	goto	l3345
  7121  1163                     u5320:
  7122  1163                     l3327:
  7123  1163  1683               	bsf	3,5	;RP0=1, select bank1
  7124  1164  1303               	bcf	3,6	;RP1=0, select bank1
  7125  1165  01A0               	clrf	___awdiv@counter^(0+128)
  7126  1166  0AA0               	incf	___awdiv@counter^(0+128),f
  7127  1167  2975               	goto	l3333
  7128  1168                     l3329:
  7129  1168  3001               	movlw	1
  7130  1169                     u5335:
  7131  1169  1003               	clrc
  7132  116A  0DBB               	rlf	___awdiv@divisor,f
  7133  116B  0DBC               	rlf	___awdiv@divisor+1,f
  7134  116C  3EFF               	addlw	-1
  7135  116D  1D03               	skipz
  7136  116E  2969               	goto	u5335
  7137  116F                     l3331:
  7138  116F  3001               	movlw	1
  7139  1170  00BF               	movwf	??___awdiv
  7140  1171  083F               	movf	??___awdiv,w
  7141  1172  1683               	bsf	3,5	;RP0=1, select bank1
  7142  1173  1303               	bcf	3,6	;RP1=0, select bank1
  7143  1174  07A0               	addwf	___awdiv@counter^(0+128),f
  7144  1175                     l3333:
  7145  1175  1283               	bcf	3,5	;RP0=0, select bank0
  7146  1176  1303               	bcf	3,6	;RP1=0, select bank0
  7147  1177  1FBC               	btfss	___awdiv@divisor+1,7
  7148  1178  297A               	goto	u5341
  7149  1179  297B               	goto	u5340
  7150  117A                     u5341:
  7151  117A  2968               	goto	l3329
  7152  117B                     u5340:
  7153  117B                     l3335:
  7154  117B  3001               	movlw	1
  7155  117C  1683               	bsf	3,5	;RP0=1, select bank1
  7156  117D  1303               	bcf	3,6	;RP1=0, select bank1
  7157  117E                     u5355:
  7158  117E  1003               	clrc
  7159  117F  0DA2               	rlf	___awdiv@quotient^(0+128),f
  7160  1180  0DA3               	rlf	(___awdiv@quotient+1)^(0+128),f
  7161  1181  3EFF               	addlw	-1
  7162  1182  1D03               	skipz
  7163  1183  297E               	goto	u5355
  7164  1184  1283               	bcf	3,5	;RP0=0, select bank0
  7165  1185  1303               	bcf	3,6	;RP1=0, select bank0
  7166  1186  083C               	movf	___awdiv@divisor+1,w
  7167  1187  023E               	subwf	___awdiv@dividend+1,w
  7168  1188  1D03               	skipz
  7169  1189  298C               	goto	u5365
  7170  118A  083B               	movf	___awdiv@divisor,w
  7171  118B  023D               	subwf	___awdiv@dividend,w
  7172  118C                     u5365:
  7173  118C  1C03               	skipc
  7174  118D  298F               	goto	u5361
  7175  118E  2990               	goto	u5360
  7176  118F                     u5361:
  7177  118F  2999               	goto	l3341
  7178  1190                     u5360:
  7179  1190                     l3337:
  7180  1190  083B               	movf	___awdiv@divisor,w
  7181  1191  02BD               	subwf	___awdiv@dividend,f
  7182  1192  083C               	movf	___awdiv@divisor+1,w
  7183  1193  1C03               	skipc
  7184  1194  03BE               	decf	___awdiv@dividend+1,f
  7185  1195  02BE               	subwf	___awdiv@dividend+1,f
  7186  1196                     l3339:
  7187  1196  1683               	bsf	3,5	;RP0=1, select bank1
  7188  1197  1303               	bcf	3,6	;RP1=0, select bank1
  7189  1198  1422               	bsf	___awdiv@quotient^(0+128),0
  7190  1199                     l3341:
  7191  1199  3001               	movlw	1
  7192  119A  1283               	bcf	3,5	;RP0=0, select bank0
  7193  119B                     u5375:
  7194  119B  1003               	clrc
  7195  119C  0CBC               	rrf	___awdiv@divisor+1,f
  7196  119D  0CBB               	rrf	___awdiv@divisor,f
  7197  119E  3EFF               	addlw	-1
  7198  119F  1D03               	skipz
  7199  11A0  299B               	goto	u5375
  7200  11A1                     l3343:
  7201  11A1  3001               	movlw	1
  7202  11A2  1683               	bsf	3,5	;RP0=1, select bank1
  7203  11A3  1303               	bcf	3,6	;RP1=0, select bank1
  7204  11A4  02A0               	subwf	___awdiv@counter^(0+128),f
  7205  11A5  1D03               	btfss	3,2
  7206  11A6  29A8               	goto	u5381
  7207  11A7  29A9               	goto	u5380
  7208  11A8                     u5381:
  7209  11A8  297B               	goto	l3335
  7210  11A9                     u5380:
  7211  11A9                     l3345:
  7212  11A9  1683               	bsf	3,5	;RP0=1, select bank1
  7213  11AA  1303               	bcf	3,6	;RP1=0, select bank1
  7214  11AB  0821               	movf	___awdiv@sign^(0+128),w
  7215  11AC  1903               	btfsc	3,2
  7216  11AD  29AF               	goto	u5391
  7217  11AE  29B0               	goto	u5390
  7218  11AF                     u5391:
  7219  11AF  29B5               	goto	l3349
  7220  11B0                     u5390:
  7221  11B0                     l3347:
  7222  11B0  09A2               	comf	___awdiv@quotient^(0+128),f
  7223  11B1  09A3               	comf	(___awdiv@quotient+1)^(0+128),f
  7224  11B2  0AA2               	incf	___awdiv@quotient^(0+128),f
  7225  11B3  1903               	skipnz
  7226  11B4  0AA3               	incf	(___awdiv@quotient+1)^(0+128),f
  7227  11B5                     l3349:
  7228  11B5  0823               	movf	(___awdiv@quotient+1)^(0+128),w
  7229  11B6  1283               	bcf	3,5	;RP0=0, select bank0
  7230  11B7  1303               	bcf	3,6	;RP1=0, select bank0
  7231  11B8  00BC               	movwf	?___awdiv+1
  7232  11B9  1683               	bsf	3,5	;RP0=1, select bank1
  7233  11BA  1303               	bcf	3,6	;RP1=0, select bank1
  7234  11BB  0822               	movf	___awdiv@quotient^(0+128),w
  7235  11BC  1283               	bcf	3,5	;RP0=0, select bank0
  7236  11BD  1303               	bcf	3,6	;RP1=0, select bank0
  7237  11BE  00BB               	movwf	?___awdiv
  7238  11BF                     l400:
  7239  11BF  0008               	return
  7240  11C0                     __end_of___awdiv:
  7241                           
  7242                           	psect	text13
  7243  1062                     __ptext13:	
  7244 ;; *************** function _Lcd_Write_String *****************
  7245 ;; Defined at:
  7246 ;;		line 66 in file "Librerias.c"
  7247 ;; Parameters:    Size  Location     Type
  7248 ;;  a               2   30[BANK0 ] PTR unsigned char 
  7249 ;;		 -> STR_4(2), temperatura(10), STR_3(4), STR_2(4), 
  7250 ;;		 -> STR_1(5), 
  7251 ;; Auto vars:     Size  Location     Type
  7252 ;;  i               2    3[BANK1 ] int 
  7253 ;; Return value:  Size  Location     Type
  7254 ;;                  1    wreg      void 
  7255 ;; Registers used:
  7256 ;;		wreg, fsr0l, fsr0h, status,2, status,0, btemp+1, pclath, cstack
  7257 ;; Tracked objects:
  7258 ;;		On entry : 0/0
  7259 ;;		On exit  : 0/0
  7260 ;;		Unchanged: 0/0
  7261 ;; Data sizes:     COMMON   BANK0   BANK1   BANK3   BANK2
  7262 ;;      Params:         0       2       0       0       0
  7263 ;;      Locals:         0       0       2       0       0
  7264 ;;      Temps:          0       0       3       0       0
  7265 ;;      Totals:         0       2       5       0       0
  7266 ;;Total ram usage:        7 bytes
  7267 ;; Hardware stack levels used:    1
  7268 ;; Hardware stack levels required when called:    4
  7269 ;; This function calls:
  7270 ;;		_Lcd_Write_Char
  7271 ;; This function is called by:
  7272 ;;		_main
  7273 ;; This function uses a non-reentrant model
  7274 ;;
  7275                           
  7276                           
  7277                           ;psect for function _Lcd_Write_String
  7278  1062                     _Lcd_Write_String:
  7279  1062                     l3765:	
  7280                           ;incstack = 0
  7281                           ; Regs used in _Lcd_Write_String: [wreg-fsr0h+status,2+status,0+btemp+1+pclath+cstack]
  7282                           
  7283                           
  7284                           ;Librerias.c: 67:     int i;;Librerias.c: 68:     for (i = 0; a[i] != '\0'; i++)
  7285  1062  1683               	bsf	3,5	;RP0=1, select bank1
  7286  1063  1303               	bcf	3,6	;RP1=0, select bank1
  7287  1064  01A3               	clrf	Lcd_Write_String@i^(0+128)
  7288  1065  01A4               	clrf	(Lcd_Write_String@i+1)^(0+128)
  7289  1066  289B               	goto	l3771
  7290  1067                     l3767:
  7291                           
  7292                           ;Librerias.c: 69:         Lcd_Write_Char(a[i]);
  7293  1067  1683               	bsf	3,5	;RP0=1, select bank1
  7294  1068  1303               	bcf	3,6	;RP1=0, select bank1
  7295  1069  0823               	movf	Lcd_Write_String@i^(0+128),w
  7296  106A  1283               	bcf	3,5	;RP0=0, select bank0
  7297  106B  1303               	bcf	3,6	;RP1=0, select bank0
  7298  106C  073E               	addwf	Lcd_Write_String@a,w
  7299  106D  1683               	bsf	3,5	;RP0=1, select bank1
  7300  106E  1303               	bcf	3,6	;RP1=0, select bank1
  7301  106F  00A1               	movwf	(??_Lcd_Write_String+1)^(0+128)
  7302  1070  1283               	bcf	3,5	;RP0=0, select bank0
  7303  1071  1303               	bcf	3,6	;RP1=0, select bank0
  7304  1072  083F               	movf	Lcd_Write_String@a+1,w
  7305  1073  1683               	bsf	3,5	;RP0=1, select bank1
  7306  1074  1303               	bcf	3,6	;RP1=0, select bank1
  7307  1075  00A0               	movwf	??_Lcd_Write_String^(0+128)
  7308  1076  1803               	skipnc
  7309  1077  0AA0               	incf	??_Lcd_Write_String^(0+128),f
  7310  1078  1FA3               	btfss	Lcd_Write_String@i^(0+128),7
  7311  1079  287B               	goto	u6400
  7312  107A  03A0               	decf	??_Lcd_Write_String^(0+128),f
  7313  107B                     u6400:
  7314  107B  1683               	bsf	3,5	;RP0=1, select bank1
  7315  107C  1303               	bcf	3,6	;RP1=0, select bank1
  7316  107D  0820               	movf	??_Lcd_Write_String^(0+128),w
  7317  107E  00A2               	movwf	((??_Lcd_Write_String+1)^(0+128)+1)
  7318  107F  0822               	movf	(??_Lcd_Write_String+2)^(0+128),w
  7319  1080  1283               	bcf	3,5	;RP0=0, select bank0
  7320  1081  1303               	bcf	3,6	;RP1=0, select bank0
  7321  1082  00FF               	movwf	btemp+1
  7322  1083  1683               	bsf	3,5	;RP0=1, select bank1
  7323  1084  1303               	bcf	3,6	;RP1=0, select bank1
  7324  1085  0821               	movf	(??_Lcd_Write_String+1)^(0+128),w
  7325  1086  0084               	movwf	4
  7326  1087  1283               	bcf	3,5	;RP0=0, select bank0
  7327  1088  1303               	bcf	3,6	;RP1=0, select bank0
  7328  1089  160A  158A  2000  160A  118A  	fcall	stringtab
  7329  108E  160A  158A  2771  160A  118A  	fcall	_Lcd_Write_Char
  7330  1093                     l3769:
  7331  1093  3001               	movlw	1
  7332  1094  1683               	bsf	3,5	;RP0=1, select bank1
  7333  1095  1303               	bcf	3,6	;RP1=0, select bank1
  7334  1096  07A3               	addwf	Lcd_Write_String@i^(0+128),f
  7335  1097  1803               	skipnc
  7336  1098  0AA4               	incf	(Lcd_Write_String@i+1)^(0+128),f
  7337  1099  3000               	movlw	0
  7338  109A  07A4               	addwf	(Lcd_Write_String@i+1)^(0+128),f
  7339  109B                     l3771:
  7340  109B  0823               	movf	Lcd_Write_String@i^(0+128),w
  7341  109C  1283               	bcf	3,5	;RP0=0, select bank0
  7342  109D  1303               	bcf	3,6	;RP1=0, select bank0
  7343  109E  073E               	addwf	Lcd_Write_String@a,w
  7344  109F  1683               	bsf	3,5	;RP0=1, select bank1
  7345  10A0  1303               	bcf	3,6	;RP1=0, select bank1
  7346  10A1  00A1               	movwf	(??_Lcd_Write_String+1)^(0+128)
  7347  10A2  1283               	bcf	3,5	;RP0=0, select bank0
  7348  10A3  1303               	bcf	3,6	;RP1=0, select bank0
  7349  10A4  083F               	movf	Lcd_Write_String@a+1,w
  7350  10A5  1683               	bsf	3,5	;RP0=1, select bank1
  7351  10A6  1303               	bcf	3,6	;RP1=0, select bank1
  7352  10A7  00A0               	movwf	??_Lcd_Write_String^(0+128)
  7353  10A8  1803               	skipnc
  7354  10A9  0AA0               	incf	??_Lcd_Write_String^(0+128),f
  7355  10AA  1FA3               	btfss	Lcd_Write_String@i^(0+128),7
  7356  10AB  28AD               	goto	u6410
  7357  10AC  03A0               	decf	??_Lcd_Write_String^(0+128),f
  7358  10AD                     u6410:
  7359  10AD  1683               	bsf	3,5	;RP0=1, select bank1
  7360  10AE  1303               	bcf	3,6	;RP1=0, select bank1
  7361  10AF  0820               	movf	??_Lcd_Write_String^(0+128),w
  7362  10B0  00A2               	movwf	((??_Lcd_Write_String+1)^(0+128)+1)
  7363  10B1  0822               	movf	(??_Lcd_Write_String+2)^(0+128),w
  7364  10B2  1283               	bcf	3,5	;RP0=0, select bank0
  7365  10B3  1303               	bcf	3,6	;RP1=0, select bank0
  7366  10B4  00FF               	movwf	btemp+1
  7367  10B5  1683               	bsf	3,5	;RP0=1, select bank1
  7368  10B6  1303               	bcf	3,6	;RP1=0, select bank1
  7369  10B7  0821               	movf	(??_Lcd_Write_String+1)^(0+128),w
  7370  10B8  0084               	movwf	4
  7371  10B9  1283               	bcf	3,5	;RP0=0, select bank0
  7372  10BA  1303               	bcf	3,6	;RP1=0, select bank0
  7373  10BB  160A  158A  2000  160A  118A  	fcall	stringtab
  7374  10C0  3A00               	xorlw	0
  7375  10C1  1D03               	skipz
  7376  10C2  28C4               	goto	u6421
  7377  10C3  28C5               	goto	u6420
  7378  10C4                     u6421:
  7379  10C4  2867               	goto	l3767
  7380  10C5                     u6420:
  7381  10C5                     l129:
  7382  10C5  0008               	return
  7383  10C6                     __end_of_Lcd_Write_String:
  7384                           
  7385                           	psect	text14
  7386  1F71                     __ptext14:	
  7387 ;; *************** function _Lcd_Write_Char *****************
  7388 ;; Defined at:
  7389 ;;		line 58 in file "Librerias.c"
  7390 ;; Parameters:    Size  Location     Type
  7391 ;;  a               1    wreg     unsigned char 
  7392 ;; Auto vars:     Size  Location     Type
  7393 ;;  a               1   29[BANK0 ] unsigned char 
  7394 ;; Return value:  Size  Location     Type
  7395 ;;                  1    wreg      void 
  7396 ;; Registers used:
  7397 ;;		wreg, status,2, status,0, pclath, cstack
  7398 ;; Tracked objects:
  7399 ;;		On entry : 0/0
  7400 ;;		On exit  : 0/0
  7401 ;;		Unchanged: 0/0
  7402 ;; Data sizes:     COMMON   BANK0   BANK1   BANK3   BANK2
  7403 ;;      Params:         0       0       0       0       0
  7404 ;;      Locals:         0       1       0       0       0
  7405 ;;      Temps:          0       1       0       0       0
  7406 ;;      Totals:         0       2       0       0       0
  7407 ;;Total ram usage:        2 bytes
  7408 ;; Hardware stack levels used:    1
  7409 ;; Hardware stack levels required when called:    3
  7410 ;; This function calls:
  7411 ;;		_Lcd_Port
  7412 ;; This function is called by:
  7413 ;;		_Lcd_Write_String
  7414 ;; This function uses a non-reentrant model
  7415 ;;
  7416                           
  7417                           
  7418                           ;psect for function _Lcd_Write_Char
  7419  1F71                     _Lcd_Write_Char:
  7420                           
  7421                           ;incstack = 0
  7422                           ; Regs used in _Lcd_Write_Char: [wreg+status,2+status,0+pclath+cstack]
  7423                           ;Lcd_Write_Char@a stored from wreg
  7424  1F71  1283               	bcf	3,5	;RP0=0, select bank0
  7425  1F72  1303               	bcf	3,6	;RP1=0, select bank0
  7426  1F73  00BD               	movwf	Lcd_Write_Char@a
  7427  1F74                     l3285:
  7428                           
  7429                           ;Librerias.c: 59:     PORTCbits.RC0 = 1;
  7430  1F74  1407               	bsf	7,0	;volatile
  7431  1F75                     l3287:
  7432                           
  7433                           ;Librerias.c: 60:     Lcd_Port(a);
  7434  1F75  083D               	movf	Lcd_Write_Char@a,w
  7435  1F76  160A  158A  2756  160A  158A  	fcall	_Lcd_Port
  7436  1F7B                     l3289:
  7437                           
  7438                           ;Librerias.c: 61:     PORTCbits.RC1 = 1;
  7439  1F7B  1283               	bcf	3,5	;RP0=0, select bank0
  7440  1F7C  1303               	bcf	3,6	;RP1=0, select bank0
  7441  1F7D  1487               	bsf	7,1	;volatile
  7442  1F7E                     l3291:
  7443                           
  7444                           ;Librerias.c: 62:     _delay((unsigned long)((10)*(4000000/4000000.0)));
  7445  1F7E  3002               	movlw	2
  7446  1F7F  1283               	bcf	3,5	;RP0=0, select bank0
  7447  1F80  1303               	bcf	3,6	;RP1=0, select bank0
  7448  1F81  00BC               	movwf	??_Lcd_Write_Char
  7449  1F82                     u6577:
  7450  1F82  0BBC               	decfsz	??_Lcd_Write_Char,f
  7451  1F83  2F82               	goto	u6577
  7452  1F84  0000               	nop
  7453  1F85                     l3293:
  7454                           
  7455                           ;Librerias.c: 63:     PORTCbits.RC1 = 0;
  7456  1F85  1283               	bcf	3,5	;RP0=0, select bank0
  7457  1F86  1303               	bcf	3,6	;RP1=0, select bank0
  7458  1F87  1087               	bcf	7,1	;volatile
  7459  1F88                     l123:
  7460  1F88  0008               	return
  7461  1F89                     __end_of_Lcd_Write_Char:
  7462                           
  7463                           	psect	text15
  7464  07CD                     __ptext15:	
  7465 ;; *************** function _Lcd_Set_Cursor *****************
  7466 ;; Defined at:
  7467 ;;		line 33 in file "Librerias.c"
  7468 ;; Parameters:    Size  Location     Type
  7469 ;;  a               1    wreg     unsigned char 
  7470 ;;  b               1   31[BANK0 ] unsigned char 
  7471 ;; Auto vars:     Size  Location     Type
  7472 ;;  a               1    1[BANK1 ] unsigned char 
  7473 ;;  temp            1    2[BANK1 ] unsigned char 
  7474 ;; Return value:  Size  Location     Type
  7475 ;;                  1    wreg      void 
  7476 ;; Registers used:
  7477 ;;		wreg, status,2, status,0, pclath, cstack
  7478 ;; Tracked objects:
  7479 ;;		On entry : 0/0
  7480 ;;		On exit  : 0/0
  7481 ;;		Unchanged: 0/0
  7482 ;; Data sizes:     COMMON   BANK0   BANK1   BANK3   BANK2
  7483 ;;      Params:         0       1       0       0       0
  7484 ;;      Locals:         0       0       2       0       0
  7485 ;;      Temps:          0       0       1       0       0
  7486 ;;      Totals:         0       1       3       0       0
  7487 ;;Total ram usage:        4 bytes
  7488 ;; Hardware stack levels used:    1
  7489 ;; Hardware stack levels required when called:    4
  7490 ;; This function calls:
  7491 ;;		_Lcd_Cmd
  7492 ;; This function is called by:
  7493 ;;		_main
  7494 ;; This function uses a non-reentrant model
  7495 ;;
  7496                           
  7497                           
  7498                           ;psect for function _Lcd_Set_Cursor
  7499  07CD                     _Lcd_Set_Cursor:
  7500                           
  7501                           ;incstack = 0
  7502                           ; Regs used in _Lcd_Set_Cursor: [wreg+status,2+status,0+pclath+cstack]
  7503                           ;Lcd_Set_Cursor@a stored from wreg
  7504  07CD  1683               	bsf	3,5	;RP0=1, select bank1
  7505  07CE  1303               	bcf	3,6	;RP1=0, select bank1
  7506  07CF  00A1               	movwf	Lcd_Set_Cursor@a^(0+128)
  7507  07D0                     l3753:
  7508                           
  7509                           ;Librerias.c: 34:     char temp;;Librerias.c: 35:     if (a == 1) {
  7510  07D0  0321               	decf	Lcd_Set_Cursor@a^(0+128),w
  7511  07D1  1D03               	btfss	3,2
  7512  07D2  2FD4               	goto	u6381
  7513  07D3  2FD5               	goto	u6380
  7514  07D4                     u6381:
  7515  07D4  2FE5               	goto	l3759
  7516  07D5                     u6380:
  7517  07D5                     l3755:
  7518                           
  7519                           ;Librerias.c: 36:         temp = 0x80 + b - 1;
  7520  07D5  1283               	bcf	3,5	;RP0=0, select bank0
  7521  07D6  1303               	bcf	3,6	;RP1=0, select bank0
  7522  07D7  083F               	movf	Lcd_Set_Cursor@b,w
  7523  07D8  3E7F               	addlw	127
  7524  07D9  1683               	bsf	3,5	;RP0=1, select bank1
  7525  07DA  1303               	bcf	3,6	;RP1=0, select bank1
  7526  07DB  00A0               	movwf	??_Lcd_Set_Cursor^(0+128)
  7527  07DC  0820               	movf	??_Lcd_Set_Cursor^(0+128),w
  7528  07DD  00A2               	movwf	Lcd_Set_Cursor@temp^(0+128)
  7529  07DE                     l3757:
  7530                           
  7531                           ;Librerias.c: 37:         Lcd_Cmd(temp);
  7532  07DE  0822               	movf	Lcd_Set_Cursor@temp^(0+128),w
  7533  07DF  160A  158A  2789  120A  118A  	fcall	_Lcd_Cmd
  7534                           
  7535                           ;Librerias.c: 38:     } else if (a == 2) {
  7536  07E4  2FFA               	goto	l117
  7537  07E5                     l3759:
  7538  07E5  3002               	movlw	2
  7539  07E6  0621               	xorwf	Lcd_Set_Cursor@a^(0+128),w
  7540  07E7  1D03               	btfss	3,2
  7541  07E8  2FEA               	goto	u6391
  7542  07E9  2FEB               	goto	u6390
  7543  07EA                     u6391:
  7544  07EA  2FFA               	goto	l117
  7545  07EB                     u6390:
  7546  07EB                     l3761:
  7547                           
  7548                           ;Librerias.c: 39:         temp = 0xC0 + b - 1;
  7549  07EB  1283               	bcf	3,5	;RP0=0, select bank0
  7550  07EC  1303               	bcf	3,6	;RP1=0, select bank0
  7551  07ED  083F               	movf	Lcd_Set_Cursor@b,w
  7552  07EE  3EBF               	addlw	191
  7553  07EF  1683               	bsf	3,5	;RP0=1, select bank1
  7554  07F0  1303               	bcf	3,6	;RP1=0, select bank1
  7555  07F1  00A0               	movwf	??_Lcd_Set_Cursor^(0+128)
  7556  07F2  0820               	movf	??_Lcd_Set_Cursor^(0+128),w
  7557  07F3  00A2               	movwf	Lcd_Set_Cursor@temp^(0+128)
  7558  07F4                     l3763:
  7559                           
  7560                           ;Librerias.c: 40:         Lcd_Cmd(temp);
  7561  07F4  0822               	movf	Lcd_Set_Cursor@temp^(0+128),w
  7562  07F5  160A  158A  2789  120A  118A  	fcall	_Lcd_Cmd
  7563  07FA                     l117:
  7564  07FA  0008               	return
  7565  07FB                     __end_of_Lcd_Set_Cursor:
  7566                           
  7567                           	psect	text16
  7568  0800                     __ptext16:	
  7569 ;; *************** function _Lcd_Init *****************
  7570 ;; Defined at:
  7571 ;;		line 44 in file "Librerias.c"
  7572 ;; Parameters:    Size  Location     Type
  7573 ;;		None
  7574 ;; Auto vars:     Size  Location     Type
  7575 ;;		None
  7576 ;; Return value:  Size  Location     Type
  7577 ;;                  1    wreg      void 
  7578 ;; Registers used:
  7579 ;;		wreg, status,2, status,0, pclath, cstack
  7580 ;; Tracked objects:
  7581 ;;		On entry : 0/0
  7582 ;;		On exit  : 0/0
  7583 ;;		Unchanged: 0/0
  7584 ;; Data sizes:     COMMON   BANK0   BANK1   BANK3   BANK2
  7585 ;;      Params:         0       0       0       0       0
  7586 ;;      Locals:         0       0       0       0       0
  7587 ;;      Temps:          0       0       2       0       0
  7588 ;;      Totals:         0       0       2       0       0
  7589 ;;Total ram usage:        2 bytes
  7590 ;; Hardware stack levels used:    1
  7591 ;; Hardware stack levels required when called:    4
  7592 ;; This function calls:
  7593 ;;		_Lcd_Cmd
  7594 ;;		_Lcd_Port
  7595 ;; This function is called by:
  7596 ;;		_main
  7597 ;; This function uses a non-reentrant model
  7598 ;;
  7599                           
  7600                           
  7601                           ;psect for function _Lcd_Init
  7602  0800                     _Lcd_Init:
  7603  0800                     l3741:	
  7604                           ;incstack = 0
  7605                           ; Regs used in _Lcd_Init: [wreg+status,2+status,0+pclath+cstack]
  7606                           
  7607                           
  7608                           ;Librerias.c: 45:     Lcd_Port(0x00);
  7609  0800  3000               	movlw	0
  7610  0801  160A  158A  2756  120A  158A  	fcall	_Lcd_Port
  7611  0806                     l3743:
  7612                           
  7613                           ;Librerias.c: 46:     _delay((unsigned long)((20)*(4000000/4000.0)));
  7614  0806  301A               	movlw	26
  7615  0807  1683               	bsf	3,5	;RP0=1, select bank1
  7616  0808  1303               	bcf	3,6	;RP1=0, select bank1
  7617  0809  00A1               	movwf	(??_Lcd_Init^(0+128)+1)
  7618  080A  30F7               	movlw	247
  7619  080B  00A0               	movwf	??_Lcd_Init^(0+128)
  7620  080C                     u6587:
  7621  080C  0BA0               	decfsz	??_Lcd_Init^(0+128),f
  7622  080D  280C               	goto	u6587
  7623  080E  0BA1               	decfsz	(??_Lcd_Init^(0+128)+1),f
  7624  080F  280C               	goto	u6587
  7625  0810  2811               	nop2
  7626  0811                     l3745:
  7627                           
  7628                           ;Librerias.c: 47:     Lcd_Cmd(0x30);
  7629  0811  3030               	movlw	48
  7630  0812  160A  158A  2789  120A  158A  	fcall	_Lcd_Cmd
  7631                           
  7632                           ;Librerias.c: 48:     _delay((unsigned long)((5)*(4000000/4000.0)));
  7633  0817  3007               	movlw	7
  7634  0818  1683               	bsf	3,5	;RP0=1, select bank1
  7635  0819  1303               	bcf	3,6	;RP1=0, select bank1
  7636  081A  00A1               	movwf	(??_Lcd_Init^(0+128)+1)
  7637  081B  307C               	movlw	124
  7638  081C  00A0               	movwf	??_Lcd_Init^(0+128)
  7639  081D                     u6597:
  7640  081D  0BA0               	decfsz	??_Lcd_Init^(0+128),f
  7641  081E  281D               	goto	u6597
  7642  081F  0BA1               	decfsz	(??_Lcd_Init^(0+128)+1),f
  7643  0820  281D               	goto	u6597
  7644  0821  0000               	nop
  7645  0822                     l3747:
  7646                           
  7647                           ;Librerias.c: 49:     Lcd_Cmd(0x30);
  7648  0822  3030               	movlw	48
  7649  0823  160A  158A  2789  120A  158A  	fcall	_Lcd_Cmd
  7650  0828                     l3749:
  7651                           
  7652                           ;Librerias.c: 50:     _delay((unsigned long)((11)*(4000000/4000.0)));
  7653  0828  300F               	movlw	15
  7654  0829  1683               	bsf	3,5	;RP0=1, select bank1
  7655  082A  1303               	bcf	3,6	;RP1=0, select bank1
  7656  082B  00A1               	movwf	(??_Lcd_Init^(0+128)+1)
  7657  082C  3047               	movlw	71
  7658  082D  00A0               	movwf	??_Lcd_Init^(0+128)
  7659  082E                     u6607:
  7660  082E  0BA0               	decfsz	??_Lcd_Init^(0+128),f
  7661  082F  282E               	goto	u6607
  7662  0830  0BA1               	decfsz	(??_Lcd_Init^(0+128)+1),f
  7663  0831  282E               	goto	u6607
  7664                           
  7665                           ;Librerias.c: 51:     Lcd_Cmd(0x30);
  7666  0832  3030               	movlw	48
  7667  0833  160A  158A  2789  120A  158A  	fcall	_Lcd_Cmd
  7668                           
  7669                           ;Librerias.c: 53:     Lcd_Cmd(0x38);
  7670  0838  3038               	movlw	56
  7671  0839  160A  158A  2789  120A  158A  	fcall	_Lcd_Cmd
  7672                           
  7673                           ;Librerias.c: 54:     Lcd_Cmd(0x0C);
  7674  083E  300C               	movlw	12
  7675  083F  160A  158A  2789  120A  158A  	fcall	_Lcd_Cmd
  7676                           
  7677                           ;Librerias.c: 55:     Lcd_Cmd(0x6);
  7678  0844  3006               	movlw	6
  7679  0845  160A  158A  2789  120A  158A  	fcall	_Lcd_Cmd
  7680  084A                     l120:
  7681  084A  0008               	return
  7682  084B                     __end_of_Lcd_Init:
  7683                           
  7684                           	psect	text17
  7685  1F64                     __ptext17:	
  7686 ;; *************** function _Lcd_Clear *****************
  7687 ;; Defined at:
  7688 ;;		line 28 in file "Librerias.c"
  7689 ;; Parameters:    Size  Location     Type
  7690 ;;		None
  7691 ;; Auto vars:     Size  Location     Type
  7692 ;;		None
  7693 ;; Return value:  Size  Location     Type
  7694 ;;                  1    wreg      void 
  7695 ;; Registers used:
  7696 ;;		wreg, status,2, status,0, pclath, cstack
  7697 ;; Tracked objects:
  7698 ;;		On entry : 0/0
  7699 ;;		On exit  : 0/0
  7700 ;;		Unchanged: 0/0
  7701 ;; Data sizes:     COMMON   BANK0   BANK1   BANK3   BANK2
  7702 ;;      Params:         0       0       0       0       0
  7703 ;;      Locals:         0       0       0       0       0
  7704 ;;      Temps:          0       0       0       0       0
  7705 ;;      Totals:         0       0       0       0       0
  7706 ;;Total ram usage:        0 bytes
  7707 ;; Hardware stack levels used:    1
  7708 ;; Hardware stack levels required when called:    4
  7709 ;; This function calls:
  7710 ;;		_Lcd_Cmd
  7711 ;; This function is called by:
  7712 ;;		_main
  7713 ;; This function uses a non-reentrant model
  7714 ;;
  7715                           
  7716                           
  7717                           ;psect for function _Lcd_Clear
  7718  1F64                     _Lcd_Clear:
  7719  1F64                     l3751:	
  7720                           ;incstack = 0
  7721                           ; Regs used in _Lcd_Clear: [wreg+status,2+status,0+pclath+cstack]
  7722                           
  7723                           
  7724                           ;Librerias.c: 29:     Lcd_Cmd(0);
  7725  1F64  3000               	movlw	0
  7726  1F65  160A  158A  2789  160A  158A  	fcall	_Lcd_Cmd
  7727                           
  7728                           ;Librerias.c: 30:     Lcd_Cmd(1);
  7729  1F6A  3001               	movlw	1
  7730  1F6B  160A  158A  2789  160A  158A  	fcall	_Lcd_Cmd
  7731  1F70                     l111:
  7732  1F70  0008               	return
  7733  1F71                     __end_of_Lcd_Clear:
  7734                           
  7735                           	psect	text18
  7736  1F89                     __ptext18:	
  7737 ;; *************** function _Lcd_Cmd *****************
  7738 ;; Defined at:
  7739 ;;		line 20 in file "Librerias.c"
  7740 ;; Parameters:    Size  Location     Type
  7741 ;;  a               1    wreg     unsigned char 
  7742 ;; Auto vars:     Size  Location     Type
  7743 ;;  a               1   30[BANK0 ] unsigned char 
  7744 ;; Return value:  Size  Location     Type
  7745 ;;                  1    wreg      void 
  7746 ;; Registers used:
  7747 ;;		wreg, status,2, status,0, pclath, cstack
  7748 ;; Tracked objects:
  7749 ;;		On entry : 0/0
  7750 ;;		On exit  : 0/0
  7751 ;;		Unchanged: 0/0
  7752 ;; Data sizes:     COMMON   BANK0   BANK1   BANK3   BANK2
  7753 ;;      Params:         0       0       0       0       0
  7754 ;;      Locals:         0       1       0       0       0
  7755 ;;      Temps:          0       2       0       0       0
  7756 ;;      Totals:         0       3       0       0       0
  7757 ;;Total ram usage:        3 bytes
  7758 ;; Hardware stack levels used:    1
  7759 ;; Hardware stack levels required when called:    3
  7760 ;; This function calls:
  7761 ;;		_Lcd_Port
  7762 ;; This function is called by:
  7763 ;;		_Lcd_Clear
  7764 ;;		_Lcd_Set_Cursor
  7765 ;;		_Lcd_Init
  7766 ;;		_Lcd_Shift_Right
  7767 ;;		_Lcd_Shift_Left
  7768 ;; This function uses a non-reentrant model
  7769 ;;
  7770                           
  7771                           
  7772                           ;psect for function _Lcd_Cmd
  7773  1F89                     _Lcd_Cmd:
  7774                           
  7775                           ;incstack = 0
  7776                           ; Regs used in _Lcd_Cmd: [wreg+status,2+status,0+pclath+cstack]
  7777                           ;Lcd_Cmd@a stored from wreg
  7778  1F89  1283               	bcf	3,5	;RP0=0, select bank0
  7779  1F8A  1303               	bcf	3,6	;RP1=0, select bank0
  7780  1F8B  00BE               	movwf	Lcd_Cmd@a
  7781  1F8C                     l3275:
  7782                           
  7783                           ;Librerias.c: 21:     PORTCbits.RC0 = 0;
  7784  1F8C  1007               	bcf	7,0	;volatile
  7785  1F8D                     l3277:
  7786                           
  7787                           ;Librerias.c: 22:     Lcd_Port(a);
  7788  1F8D  083E               	movf	Lcd_Cmd@a,w
  7789  1F8E  160A  158A  2756  160A  158A  	fcall	_Lcd_Port
  7790  1F93                     l3279:
  7791                           
  7792                           ;Librerias.c: 23:     PORTCbits.RC1 = 1;
  7793  1F93  1283               	bcf	3,5	;RP0=0, select bank0
  7794  1F94  1303               	bcf	3,6	;RP1=0, select bank0
  7795  1F95  1487               	bsf	7,1	;volatile
  7796  1F96                     l3281:
  7797                           
  7798                           ;Librerias.c: 24:     _delay((unsigned long)((4)*(4000000/4000.0)));
  7799  1F96  3006               	movlw	6
  7800  1F97  1283               	bcf	3,5	;RP0=0, select bank0
  7801  1F98  1303               	bcf	3,6	;RP1=0, select bank0
  7802  1F99  00BD               	movwf	??_Lcd_Cmd+1
  7803  1F9A  302F               	movlw	47
  7804  1F9B  00BC               	movwf	??_Lcd_Cmd
  7805  1F9C                     u6617:
  7806  1F9C  0BBC               	decfsz	??_Lcd_Cmd,f
  7807  1F9D  2F9C               	goto	u6617
  7808  1F9E  0BBD               	decfsz	??_Lcd_Cmd+1,f
  7809  1F9F  2F9C               	goto	u6617
  7810  1FA0  2FA1               	nop2
  7811  1FA1                     l3283:
  7812                           
  7813                           ;Librerias.c: 25:     PORTCbits.RC1 = 0;
  7814  1FA1  1283               	bcf	3,5	;RP0=0, select bank0
  7815  1FA2  1303               	bcf	3,6	;RP1=0, select bank0
  7816  1FA3  1087               	bcf	7,1	;volatile
  7817  1FA4                     l108:
  7818  1FA4  0008               	return
  7819  1FA5                     __end_of_Lcd_Cmd:
  7820                           
  7821                           	psect	text19
  7822  1F56                     __ptext19:	
  7823 ;; *************** function _Lcd_Port *****************
  7824 ;; Defined at:
  7825 ;;		line 16 in file "Librerias.c"
  7826 ;; Parameters:    Size  Location     Type
  7827 ;;  a               1    wreg     unsigned char 
  7828 ;; Auto vars:     Size  Location     Type
  7829 ;;  a               1   27[BANK0 ] unsigned char 
  7830 ;; Return value:  Size  Location     Type
  7831 ;;                  1    wreg      void 
  7832 ;; Registers used:
  7833 ;;		wreg
  7834 ;; Tracked objects:
  7835 ;;		On entry : 0/0
  7836 ;;		On exit  : 0/0
  7837 ;;		Unchanged: 0/0
  7838 ;; Data sizes:     COMMON   BANK0   BANK1   BANK3   BANK2
  7839 ;;      Params:         0       0       0       0       0
  7840 ;;      Locals:         0       1       0       0       0
  7841 ;;      Temps:          0       0       0       0       0
  7842 ;;      Totals:         0       1       0       0       0
  7843 ;;Total ram usage:        1 bytes
  7844 ;; Hardware stack levels used:    1
  7845 ;; Hardware stack levels required when called:    2
  7846 ;; This function calls:
  7847 ;;		Nothing
  7848 ;; This function is called by:
  7849 ;;		_Lcd_Cmd
  7850 ;;		_Lcd_Init
  7851 ;;		_Lcd_Write_Char
  7852 ;; This function uses a non-reentrant model
  7853 ;;
  7854                           
  7855                           
  7856                           ;psect for function _Lcd_Port
  7857  1F56                     _Lcd_Port:
  7858                           
  7859                           ;incstack = 0
  7860                           ; Regs used in _Lcd_Port: [wreg]
  7861                           ;Lcd_Port@a stored from wreg
  7862  1F56  1283               	bcf	3,5	;RP0=0, select bank0
  7863  1F57  1303               	bcf	3,6	;RP1=0, select bank0
  7864  1F58  00BB               	movwf	Lcd_Port@a
  7865  1F59                     l3065:
  7866                           
  7867                           ;Librerias.c: 17:     PORTB = a;
  7868  1F59  083B               	movf	Lcd_Port@a,w
  7869  1F5A  0086               	movwf	6	;volatile
  7870  1F5B                     l105:
  7871  1F5B  0008               	return
  7872  1F5C                     __end_of_Lcd_Port:
  7873                           
  7874                           	psect	text20
  7875  10C6                     __ptext20:	
  7876 ;; *************** function _isr *****************
  7877 ;; Defined at:
  7878 ;;		line 70 in file "Slave3.c"
  7879 ;; Parameters:    Size  Location     Type
  7880 ;;		None
  7881 ;; Auto vars:     Size  Location     Type
  7882 ;;		None
  7883 ;; Return value:  Size  Location     Type
  7884 ;;                  1    wreg      void 
  7885 ;; Registers used:
  7886 ;;		wreg, status,2, status,0, btemp+1, pclath, cstack
  7887 ;; Tracked objects:
  7888 ;;		On entry : 0/0
  7889 ;;		On exit  : 0/0
  7890 ;;		Unchanged: 0/0
  7891 ;; Data sizes:     COMMON   BANK0   BANK1   BANK3   BANK2
  7892 ;;      Params:         0       0       0       0       0
  7893 ;;      Locals:         0       0       0       0       0
  7894 ;;      Temps:          0       7       0       0       0
  7895 ;;      Totals:         0       7       0       0       0
  7896 ;;Total ram usage:        7 bytes
  7897 ;; Hardware stack levels used:    1
  7898 ;; Hardware stack levels required when called:    1
  7899 ;; This function calls:
  7900 ;;		i1___fladd
  7901 ;;		i1___xxtofl
  7902 ;; This function is called by:
  7903 ;;		Interrupt level 1
  7904 ;; This function uses a non-reentrant model
  7905 ;;
  7906                           
  7907                           
  7908                           ;psect for function _isr
  7909  10C6                     _isr:
  7910  10C6                     i1l3001:
  7911                           
  7912                           ;Slave3.c: 74:     if (PIR1bits.ADIF) {
  7913  10C6  1F0C               	btfss	12,6	;volatile
  7914  10C7  28C9               	goto	u473_21
  7915  10C8  28CA               	goto	u473_20
  7916  10C9                     u473_21:
  7917  10C9  292C               	goto	i1l82
  7918  10CA                     u473_20:
  7919  10CA                     i1l3003:
  7920                           
  7921                           ;Slave3.c: 75:         if (ADCON0bits.CHS == 0) {
  7922  10CA  0C1F               	rrf	31,w	;volatile
  7923  10CB  00B4               	movwf	??_isr
  7924  10CC  0C34               	rrf	??_isr,w
  7925  10CD  390F               	andlw	15
  7926  10CE  3A00               	xorlw	0
  7927  10CF  1D03               	skipz
  7928  10D0  28D2               	goto	u474_21
  7929  10D1  28D3               	goto	u474_20
  7930  10D2                     u474_21:
  7931  10D2  2929               	goto	i1l3009
  7932  10D3                     u474_20:
  7933  10D3                     i1l3005:
  7934                           
  7935                           ;Slave3.c: 76:             lec1 = ADRESH;
  7936  10D3  081E               	movf	30,w	;volatile
  7937  10D4  00B4               	movwf	??_isr
  7938  10D5  01B5               	clrf	??_isr+1
  7939  10D6  01B6               	clrf	??_isr+2
  7940  10D7  01B7               	clrf	??_isr+3
  7941  10D8  0837               	movf	??_isr+3,w
  7942  10D9  00F3               	movwf	i1___xxtofl@val+3
  7943  10DA  0836               	movf	??_isr+2,w
  7944  10DB  00F2               	movwf	i1___xxtofl@val+2
  7945  10DC  0835               	movf	??_isr+1,w
  7946  10DD  00F1               	movwf	i1___xxtofl@val+1
  7947  10DE  0834               	movf	??_isr,w
  7948  10DF  00F0               	movwf	i1___xxtofl@val
  7949  10E0  3000               	movlw	0
  7950  10E1  160A  118A  225E  160A  118A  	fcall	i1___xxtofl
  7951  10E6  0873               	movf	?i1___xxtofl+3,w
  7952  10E7  1283               	bcf	3,5	;RP0=0, select bank0
  7953  10E8  1303               	bcf	3,6	;RP1=0, select bank0
  7954  10E9  00D1               	movwf	_lec1+3
  7955  10EA  0872               	movf	?i1___xxtofl+2,w
  7956  10EB  00D0               	movwf	_lec1+2
  7957  10EC  0871               	movf	?i1___xxtofl+1,w
  7958  10ED  00CF               	movwf	_lec1+1
  7959  10EE  0870               	movf	?i1___xxtofl,w
  7960  10EF  00CE               	movwf	_lec1
  7961  10F0                     i1l3007:
  7962                           
  7963                           ;Slave3.c: 77:             lec1 = lec1 + ADRESL;
  7964  10F0  0851               	movf	_lec1+3,w
  7965  10F1  00A3               	movwf	i1___fladd@b+3
  7966  10F2  0850               	movf	_lec1+2,w
  7967  10F3  00A2               	movwf	i1___fladd@b+2
  7968  10F4  084F               	movf	_lec1+1,w
  7969  10F5  00A1               	movwf	i1___fladd@b+1
  7970  10F6  084E               	movf	_lec1,w
  7971  10F7  00A0               	movwf	i1___fladd@b
  7972  10F8  1683               	bsf	3,5	;RP0=1, select bank1
  7973  10F9  1303               	bcf	3,6	;RP1=0, select bank1
  7974  10FA  081E               	movf	30,w	;volatile
  7975  10FB  1283               	bcf	3,5	;RP0=0, select bank0
  7976  10FC  1303               	bcf	3,6	;RP1=0, select bank0
  7977  10FD  00B4               	movwf	??_isr
  7978  10FE  01B5               	clrf	??_isr+1
  7979  10FF  01B6               	clrf	??_isr+2
  7980  1100  01B7               	clrf	??_isr+3
  7981  1101  0837               	movf	??_isr+3,w
  7982  1102  00F3               	movwf	i1___xxtofl@val+3
  7983  1103  0836               	movf	??_isr+2,w
  7984  1104  00F2               	movwf	i1___xxtofl@val+2
  7985  1105  0835               	movf	??_isr+1,w
  7986  1106  00F1               	movwf	i1___xxtofl@val+1
  7987  1107  0834               	movf	??_isr,w
  7988  1108  00F0               	movwf	i1___xxtofl@val
  7989  1109  3001               	movlw	1
  7990  110A  160A  118A  225E  160A  118A  	fcall	i1___xxtofl
  7991  110F  0873               	movf	?i1___xxtofl+3,w
  7992  1110  1283               	bcf	3,5	;RP0=0, select bank0
  7993  1111  1303               	bcf	3,6	;RP1=0, select bank0
  7994  1112  00A7               	movwf	i1___fladd@a+3
  7995  1113  0872               	movf	?i1___xxtofl+2,w
  7996  1114  00A6               	movwf	i1___fladd@a+2
  7997  1115  0871               	movf	?i1___xxtofl+1,w
  7998  1116  00A5               	movwf	i1___fladd@a+1
  7999  1117  0870               	movf	?i1___xxtofl,w
  8000  1118  00A4               	movwf	i1___fladd@a
  8001  1119  160A  118A  2578  160A  118A  	fcall	i1___fladd
  8002  111E  1283               	bcf	3,5	;RP0=0, select bank0
  8003  111F  1303               	bcf	3,6	;RP1=0, select bank0
  8004  1120  0823               	movf	?i1___fladd+3,w
  8005  1121  00D1               	movwf	_lec1+3
  8006  1122  0822               	movf	?i1___fladd+2,w
  8007  1123  00D0               	movwf	_lec1+2
  8008  1124  0821               	movf	?i1___fladd+1,w
  8009  1125  00CF               	movwf	_lec1+1
  8010  1126  0820               	movf	?i1___fladd,w
  8011  1127  00CE               	movwf	_lec1
  8012                           
  8013                           ;Slave3.c: 78:         }
  8014  1128  292B               	goto	i1l3011
  8015  1129                     i1l3009:
  8016                           
  8017                           ;Slave3.c: 81:             PORTD = ADRESH;
  8018  1129  081E               	movf	30,w	;volatile
  8019  112A  0088               	movwf	8	;volatile
  8020  112B                     i1l3011:
  8021                           
  8022                           ;Slave3.c: 84:         PIR1bits.ADIF = 0;
  8023  112B  130C               	bcf	12,6	;volatile
  8024  112C                     i1l82:
  8025  112C  083A               	movf	??_isr+6,w
  8026  112D  00FF               	movwf	btemp+1
  8027  112E  0839               	movf	??_isr+5,w
  8028  112F  008A               	movwf	10
  8029  1130  0E38               	swapf	??_isr+4,w
  8030  1131  0083               	movwf	3
  8031  1132  0EFE               	swapf	btemp,f
  8032  1133  0E7E               	swapf	btemp,w
  8033  1134  0009               	retfie
  8034  1135                     __end_of_isr:
  8035                           
  8036                           	psect	intentry
  8037  0004                     __pintentry:	
  8038                           ;incstack = 0
  8039                           ; Regs used in _isr: [wreg+status,2+status,0+btemp+1+pclath+cstack]
  8040                           
  8041  0004                     interrupt_function:
  8042  007E                     saved_w	set	btemp
  8043  0004  00FE               	movwf	btemp
  8044  0005  0E03               	swapf	3,w
  8045  0006  1283               	bcf	3,5	;RP0=0, select bank0
  8046  0007  1303               	bcf	3,6	;RP1=0, select bank0
  8047  0008  00B8               	movwf	??_isr+4
  8048  0009  080A               	movf	10,w
  8049  000A  00B9               	movwf	??_isr+5
  8050  000B  087F               	movf	btemp+1,w
  8051  000C  00BA               	movwf	??_isr+6
  8052  000D  160A  118A  28C6   	ljmp	_isr
  8053                           
  8054                           	psect	text21
  8055  125E                     __ptext21:	
  8056 ;; *************** function i1___xxtofl *****************
  8057 ;; Defined at:
  8058 ;;		line 10 in file "C:\Program Files\Microchip\xc8\v2.31\pic\sources\c90\common\xxtofl.c"
  8059 ;; Parameters:    Size  Location     Type
  8060 ;;  sign            1    wreg     unsigned char 
  8061 ;;  val             4    0[COMMON] long 
  8062 ;; Auto vars:     Size  Location     Type
  8063 ;;  sign            1    8[COMMON] unsigned char 
  8064 ;;  arg             4   10[COMMON] unsigned long 
  8065 ;;  exp             1    9[COMMON] unsigned char 
  8066 ;; Return value:  Size  Location     Type
  8067 ;;                  4    0[COMMON] unsigned char 
  8068 ;; Registers used:
  8069 ;;		wreg, status,2, status,0
  8070 ;; Tracked objects:
  8071 ;;		On entry : 0/0
  8072 ;;		On exit  : 0/0
  8073 ;;		Unchanged: 0/0
  8074 ;; Data sizes:     COMMON   BANK0   BANK1   BANK3   BANK2
  8075 ;;      Params:         4       0       0       0       0
  8076 ;;      Locals:         6       0       0       0       0
  8077 ;;      Temps:          4       0       0       0       0
  8078 ;;      Totals:        14       0       0       0       0
  8079 ;;Total ram usage:       14 bytes
  8080 ;; Hardware stack levels used:    1
  8081 ;; This function calls:
  8082 ;;		Nothing
  8083 ;; This function is called by:
  8084 ;;		_isr
  8085 ;; This function uses a non-reentrant model
  8086 ;;
  8087                           
  8088                           
  8089                           ;psect for function i1___xxtofl
  8090  125E                     i1___xxtofl:
  8091                           
  8092                           ;incstack = 0
  8093                           ; Regs used in i1___xxtofl: [wreg+status,2+status,0]
  8094                           ;i1___xxtofl@sign stored from wreg
  8095  125E  00F8               	movwf	i1___xxtofl@sign
  8096  125F                     i1l2957:
  8097  125F  0878               	movf	i1___xxtofl@sign,w
  8098  1260  1903               	btfsc	3,2
  8099  1261  2A63               	goto	u459_21
  8100  1262  2A64               	goto	u459_20
  8101  1263                     u459_21:
  8102  1263  2A78               	goto	i1l2963
  8103  1264                     u459_20:
  8104  1264                     i1l2959:
  8105  1264  1FF3               	btfss	i1___xxtofl@val+3,7
  8106  1265  2A67               	goto	u460_21
  8107  1266  2A68               	goto	u460_20
  8108  1267                     u460_21:
  8109  1267  2A78               	goto	i1l2963
  8110  1268                     u460_20:
  8111  1268                     i1l2961:
  8112  1268  0970               	comf	i1___xxtofl@val,w
  8113  1269  00FA               	movwf	i1___xxtofl@arg
  8114  126A  0971               	comf	i1___xxtofl@val+1,w
  8115  126B  00FB               	movwf	i1___xxtofl@arg+1
  8116  126C  0972               	comf	i1___xxtofl@val+2,w
  8117  126D  00FC               	movwf	i1___xxtofl@arg+2
  8118  126E  0973               	comf	i1___xxtofl@val+3,w
  8119  126F  00FD               	movwf	i1___xxtofl@arg+3
  8120  1270  0AFA               	incf	i1___xxtofl@arg,f
  8121  1271  1903               	skipnz
  8122  1272  0AFB               	incf	i1___xxtofl@arg+1,f
  8123  1273  1903               	skipnz
  8124  1274  0AFC               	incf	i1___xxtofl@arg+2,f
  8125  1275  1903               	skipnz
  8126  1276  0AFD               	incf	i1___xxtofl@arg+3,f
  8127  1277  2A80               	goto	i1l680
  8128  1278                     i1l2963:
  8129  1278  0873               	movf	i1___xxtofl@val+3,w
  8130  1279  00FD               	movwf	i1___xxtofl@arg+3
  8131  127A  0872               	movf	i1___xxtofl@val+2,w
  8132  127B  00FC               	movwf	i1___xxtofl@arg+2
  8133  127C  0871               	movf	i1___xxtofl@val+1,w
  8134  127D  00FB               	movwf	i1___xxtofl@arg+1
  8135  127E  0870               	movf	i1___xxtofl@val,w
  8136  127F  00FA               	movwf	i1___xxtofl@arg
  8137  1280                     i1l680:
  8138  1280  0873               	movf	i1___xxtofl@val+3,w
  8139  1281  0472               	iorwf	i1___xxtofl@val+2,w
  8140  1282  0471               	iorwf	i1___xxtofl@val+1,w
  8141  1283  0470               	iorwf	i1___xxtofl@val,w
  8142  1284  1D03               	skipz
  8143  1285  2A87               	goto	u461_21
  8144  1286  2A88               	goto	u461_20
  8145  1287                     u461_21:
  8146  1287  2A91               	goto	i1l2969
  8147  1288                     u461_20:
  8148  1288                     i1l2965:
  8149  1288  3000               	movlw	0
  8150  1289  00F3               	movwf	?i1___xxtofl+3
  8151  128A  3000               	movlw	0
  8152  128B  00F2               	movwf	?i1___xxtofl+2
  8153  128C  3000               	movlw	0
  8154  128D  00F1               	movwf	?i1___xxtofl+1
  8155  128E  3000               	movlw	0
  8156  128F  00F0               	movwf	?i1___xxtofl
  8157  1290  2B17               	goto	i1l682
  8158  1291                     i1l2969:
  8159  1291  3096               	movlw	150
  8160  1292  00F4               	movwf	??i1___xxtofl
  8161  1293  0874               	movf	??i1___xxtofl,w
  8162  1294  00F9               	movwf	i1___xxtofl@exp
  8163  1295  2AA3               	goto	i1l2973
  8164  1296                     i1l2971:
  8165  1296  3001               	movlw	1
  8166  1297  00F4               	movwf	??i1___xxtofl
  8167  1298  0874               	movf	??i1___xxtofl,w
  8168  1299  07F9               	addwf	i1___xxtofl@exp,f
  8169  129A  3001               	movlw	1
  8170  129B                     u462_25:
  8171  129B  1003               	clrc
  8172  129C  0CFD               	rrf	i1___xxtofl@arg+3,f
  8173  129D  0CFC               	rrf	i1___xxtofl@arg+2,f
  8174  129E  0CFB               	rrf	i1___xxtofl@arg+1,f
  8175  129F  0CFA               	rrf	i1___xxtofl@arg,f
  8176  12A0  3EFF               	addlw	-1
  8177  12A1  1D03               	skipz
  8178  12A2  2A9B               	goto	u462_25
  8179  12A3                     i1l2973:
  8180  12A3  30FE               	movlw	254
  8181  12A4  057D               	andwf	i1___xxtofl@arg+3,w
  8182  12A5  1D03               	btfss	3,2
  8183  12A6  2AA8               	goto	u463_21
  8184  12A7  2AA9               	goto	u463_20
  8185  12A8                     u463_21:
  8186  12A8  2A96               	goto	i1l2971
  8187  12A9                     u463_20:
  8188  12A9  2AC5               	goto	i1l686
  8189  12AA                     i1l2975:
  8190  12AA  3001               	movlw	1
  8191  12AB  00F4               	movwf	??i1___xxtofl
  8192  12AC  0874               	movf	??i1___xxtofl,w
  8193  12AD  07F9               	addwf	i1___xxtofl@exp,f
  8194  12AE                     i1l2977:
  8195  12AE  3001               	movlw	1
  8196  12AF  07FA               	addwf	i1___xxtofl@arg,f
  8197  12B0  3000               	movlw	0
  8198  12B1  1803               	skipnc
  8199  12B2  3001               	movlw	1
  8200  12B3  07FB               	addwf	i1___xxtofl@arg+1,f
  8201  12B4  3000               	movlw	0
  8202  12B5  1803               	skipnc
  8203  12B6  3001               	movlw	1
  8204  12B7  07FC               	addwf	i1___xxtofl@arg+2,f
  8205  12B8  3000               	movlw	0
  8206  12B9  1803               	skipnc
  8207  12BA  3001               	movlw	1
  8208  12BB  07FD               	addwf	i1___xxtofl@arg+3,f
  8209  12BC                     i1l2979:
  8210  12BC  3001               	movlw	1
  8211  12BD                     u464_25:
  8212  12BD  1003               	clrc
  8213  12BE  0CFD               	rrf	i1___xxtofl@arg+3,f
  8214  12BF  0CFC               	rrf	i1___xxtofl@arg+2,f
  8215  12C0  0CFB               	rrf	i1___xxtofl@arg+1,f
  8216  12C1  0CFA               	rrf	i1___xxtofl@arg,f
  8217  12C2  3EFF               	addlw	-1
  8218  12C3  1D03               	skipz
  8219  12C4  2ABD               	goto	u464_25
  8220  12C5                     i1l686:
  8221  12C5  30FF               	movlw	255
  8222  12C6  057D               	andwf	i1___xxtofl@arg+3,w
  8223  12C7  1D03               	btfss	3,2
  8224  12C8  2ACA               	goto	u465_21
  8225  12C9  2ACB               	goto	u465_20
  8226  12CA                     u465_21:
  8227  12CA  2AAA               	goto	i1l2975
  8228  12CB                     u465_20:
  8229  12CB  2AD7               	goto	i1l2983
  8230  12CC                     i1l2981:
  8231  12CC  3001               	movlw	1
  8232  12CD  02F9               	subwf	i1___xxtofl@exp,f
  8233  12CE  3001               	movlw	1
  8234  12CF  00F4               	movwf	??i1___xxtofl
  8235  12D0                     u466_25:
  8236  12D0  1003               	clrc
  8237  12D1  0DFA               	rlf	i1___xxtofl@arg,f
  8238  12D2  0DFB               	rlf	i1___xxtofl@arg+1,f
  8239  12D3  0DFC               	rlf	i1___xxtofl@arg+2,f
  8240  12D4  0DFD               	rlf	i1___xxtofl@arg+3,f
  8241  12D5  0BF4               	decfsz	??i1___xxtofl,f
  8242  12D6  2AD0               	goto	u466_25
  8243  12D7                     i1l2983:
  8244  12D7  1BFC               	btfsc	i1___xxtofl@arg+2,7
  8245  12D8  2ADA               	goto	u467_21
  8246  12D9  2ADB               	goto	u467_20
  8247  12DA                     u467_21:
  8248  12DA  2AE1               	goto	i1l693
  8249  12DB                     u467_20:
  8250  12DB                     i1l2985:
  8251  12DB  3002               	movlw	2
  8252  12DC  0279               	subwf	i1___xxtofl@exp,w
  8253  12DD  1803               	skipnc
  8254  12DE  2AE0               	goto	u468_21
  8255  12DF  2AE1               	goto	u468_20
  8256  12E0                     u468_21:
  8257  12E0  2ACC               	goto	i1l2981
  8258  12E1                     u468_20:
  8259  12E1                     i1l693:
  8260  12E1  1879               	btfsc	i1___xxtofl@exp,0
  8261  12E2  2AE4               	goto	u469_21
  8262  12E3  2AE5               	goto	u469_20
  8263  12E4                     u469_21:
  8264  12E4  2AED               	goto	i1l694
  8265  12E5                     u469_20:
  8266  12E5                     i1l2987:
  8267  12E5  30FF               	movlw	255
  8268  12E6  05FA               	andwf	i1___xxtofl@arg,f
  8269  12E7  30FF               	movlw	255
  8270  12E8  05FB               	andwf	i1___xxtofl@arg+1,f
  8271  12E9  307F               	movlw	127
  8272  12EA  05FC               	andwf	i1___xxtofl@arg+2,f
  8273  12EB  30FF               	movlw	255
  8274  12EC  05FD               	andwf	i1___xxtofl@arg+3,f
  8275  12ED                     i1l694:
  8276  12ED  1003               	clrc
  8277  12EE  0CF9               	rrf	i1___xxtofl@exp,f
  8278  12EF                     i1l2989:
  8279  12EF  0879               	movf	i1___xxtofl@exp,w
  8280  12F0  00F4               	movwf	??i1___xxtofl
  8281  12F1  01F5               	clrf	??i1___xxtofl+1
  8282  12F2  01F6               	clrf	??i1___xxtofl+2
  8283  12F3  01F7               	clrf	??i1___xxtofl+3
  8284  12F4  3018               	movlw	24
  8285  12F5                     u470_25:
  8286  12F5  1003               	clrc
  8287  12F6  0DF4               	rlf	??i1___xxtofl,f
  8288  12F7  0DF5               	rlf	??i1___xxtofl+1,f
  8289  12F8  0DF6               	rlf	??i1___xxtofl+2,f
  8290  12F9  0DF7               	rlf	??i1___xxtofl+3,f
  8291  12FA                     u470_20:
  8292  12FA  3EFF               	addlw	-1
  8293  12FB  1D03               	skipz
  8294  12FC  2AF5               	goto	u470_25
  8295  12FD  0874               	movf	??i1___xxtofl,w
  8296  12FE  04FA               	iorwf	i1___xxtofl@arg,f
  8297  12FF  0875               	movf	??i1___xxtofl+1,w
  8298  1300  04FB               	iorwf	i1___xxtofl@arg+1,f
  8299  1301  0876               	movf	??i1___xxtofl+2,w
  8300  1302  04FC               	iorwf	i1___xxtofl@arg+2,f
  8301  1303  0877               	movf	??i1___xxtofl+3,w
  8302  1304  04FD               	iorwf	i1___xxtofl@arg+3,f
  8303  1305                     i1l2991:
  8304  1305  0878               	movf	i1___xxtofl@sign,w
  8305  1306  1903               	btfsc	3,2
  8306  1307  2B09               	goto	u471_21
  8307  1308  2B0A               	goto	u471_20
  8308  1309                     u471_21:
  8309  1309  2B0F               	goto	i1l2997
  8310  130A                     u471_20:
  8311  130A                     i1l2993:
  8312  130A  1FF3               	btfss	i1___xxtofl@val+3,7
  8313  130B  2B0D               	goto	u472_21
  8314  130C  2B0E               	goto	u472_20
  8315  130D                     u472_21:
  8316  130D  2B0F               	goto	i1l2997
  8317  130E                     u472_20:
  8318  130E                     i1l2995:
  8319  130E  17FD               	bsf	i1___xxtofl@arg+3,7
  8320  130F                     i1l2997:
  8321  130F  087D               	movf	i1___xxtofl@arg+3,w
  8322  1310  00F3               	movwf	?i1___xxtofl+3
  8323  1311  087C               	movf	i1___xxtofl@arg+2,w
  8324  1312  00F2               	movwf	?i1___xxtofl+2
  8325  1313  087B               	movf	i1___xxtofl@arg+1,w
  8326  1314  00F1               	movwf	?i1___xxtofl+1
  8327  1315  087A               	movf	i1___xxtofl@arg,w
  8328  1316  00F0               	movwf	?i1___xxtofl
  8329  1317                     i1l682:
  8330  1317  0008               	return
  8331  1318                     __end_ofi1___xxtofl:
  8332                           
  8333                           	psect	text22
  8334  1578                     __ptext22:	
  8335 ;; *************** function i1___fladd *****************
  8336 ;; Defined at:
  8337 ;;		line 10 in file "C:\Program Files\Microchip\xc8\v2.31\pic\sources\c90\common\sprcadd.c"
  8338 ;; Parameters:    Size  Location     Type
  8339 ;;  b               4    0[BANK0 ] unsigned char 
  8340 ;;  a               4    4[BANK0 ] unsigned char 
  8341 ;; Auto vars:     Size  Location     Type
  8342 ;;  grs             1   19[BANK0 ] unsigned char 
  8343 ;;  bexp            1   18[BANK0 ] unsigned char 
  8344 ;;  aexp            1   17[BANK0 ] unsigned char 
  8345 ;;  signs           1   16[BANK0 ] unsigned char 
  8346 ;; Return value:  Size  Location     Type
  8347 ;;                  4    0[BANK0 ] unsigned char 
  8348 ;; Registers used:
  8349 ;;		wreg, status,2, status,0, btemp+1
  8350 ;; Tracked objects:
  8351 ;;		On entry : 0/0
  8352 ;;		On exit  : 0/0
  8353 ;;		Unchanged: 0/0
  8354 ;; Data sizes:     COMMON   BANK0   BANK1   BANK3   BANK2
  8355 ;;      Params:         0       8       0       0       0
  8356 ;;      Locals:         0       4       0       0       0
  8357 ;;      Temps:          0       8       0       0       0
  8358 ;;      Totals:         0      20       0       0       0
  8359 ;;Total ram usage:       20 bytes
  8360 ;; Hardware stack levels used:    1
  8361 ;; This function calls:
  8362 ;;		Nothing
  8363 ;; This function is called by:
  8364 ;;		_isr
  8365 ;; This function uses a non-reentrant model
  8366 ;;
  8367                           
  8368                           
  8369                           ;psect for function i1___fladd
  8370  1578                     i1___fladd:
  8371  1578                     i1l2763:	
  8372                           ;incstack = 0
  8373                           ; Regs used in i1___fladd: [wreg+status,2+status,0+btemp+1]
  8374                           
  8375  1578  1283               	bcf	3,5	;RP0=0, select bank0
  8376  1579  1303               	bcf	3,6	;RP1=0, select bank0
  8377  157A  0823               	movf	i1___fladd@b+3,w
  8378  157B  3980               	andlw	128
  8379  157C  00A8               	movwf	??i1___fladd
  8380  157D  0828               	movf	??i1___fladd,w
  8381  157E  00B0               	movwf	i1___fladd@signs
  8382  157F                     i1l2765:
  8383  157F  0823               	movf	i1___fladd@b+3,w
  8384  1580  00A8               	movwf	??i1___fladd
  8385  1581  0728               	addwf	??i1___fladd,w
  8386  1582  00A9               	movwf	??i1___fladd+1
  8387  1583  0829               	movf	??i1___fladd+1,w
  8388  1584  00B2               	movwf	i1___fladd@bexp
  8389  1585                     i1l2767:
  8390  1585  1FA2               	btfss	i1___fladd@b+2,7
  8391  1586  2D88               	goto	u413_21
  8392  1587  2D89               	goto	u413_20
  8393  1588                     u413_21:
  8394  1588  2D8A               	goto	i1l2771
  8395  1589                     u413_20:
  8396  1589                     i1l2769:
  8397  1589  1432               	bsf	i1___fladd@bexp,0
  8398  158A                     i1l2771:
  8399  158A  0832               	movf	i1___fladd@bexp,w
  8400  158B  1903               	btfsc	3,2
  8401  158C  2D8E               	goto	u414_21
  8402  158D  2D8F               	goto	u414_20
  8403  158E                     u414_21:
  8404  158E  2D9F               	goto	i1l2781
  8405  158F                     u414_20:
  8406  158F                     i1l2773:
  8407  158F  0A32               	incf	i1___fladd@bexp,w
  8408  1590  1D03               	btfss	3,2
  8409  1591  2D93               	goto	u415_21
  8410  1592  2D94               	goto	u415_20
  8411  1593                     u415_21:
  8412  1593  2D9C               	goto	i1l2777
  8413  1594                     u415_20:
  8414  1594                     i1l2775:
  8415  1594  3000               	movlw	0
  8416  1595  00A3               	movwf	i1___fladd@b+3
  8417  1596  3000               	movlw	0
  8418  1597  00A2               	movwf	i1___fladd@b+2
  8419  1598  3000               	movlw	0
  8420  1599  00A1               	movwf	i1___fladd@b+1
  8421  159A  3000               	movlw	0
  8422  159B  00A0               	movwf	i1___fladd@b
  8423  159C                     i1l2777:
  8424  159C  17A2               	bsf	i1___fladd@b+2,7
  8425  159D                     i1l2779:
  8426  159D  01A3               	clrf	i1___fladd@b+3
  8427  159E  2DA7               	goto	i1l2783
  8428  159F                     i1l2781:
  8429  159F  3000               	movlw	0
  8430  15A0  00A3               	movwf	i1___fladd@b+3
  8431  15A1  3000               	movlw	0
  8432  15A2  00A2               	movwf	i1___fladd@b+2
  8433  15A3  3000               	movlw	0
  8434  15A4  00A1               	movwf	i1___fladd@b+1
  8435  15A5  3000               	movlw	0
  8436  15A6  00A0               	movwf	i1___fladd@b
  8437  15A7                     i1l2783:
  8438  15A7  0827               	movf	i1___fladd@a+3,w
  8439  15A8  3980               	andlw	128
  8440  15A9  00A8               	movwf	??i1___fladd
  8441  15AA  0828               	movf	??i1___fladd,w
  8442  15AB  00B1               	movwf	i1___fladd@aexp
  8443  15AC                     i1l2785:
  8444  15AC  0831               	movf	i1___fladd@aexp,w
  8445  15AD  0630               	xorwf	i1___fladd@signs,w
  8446  15AE  1903               	skipnz
  8447  15AF  2DB1               	goto	u416_21
  8448  15B0  2DB2               	goto	u416_20
  8449  15B1                     u416_21:
  8450  15B1  2DB3               	goto	i1l2789
  8451  15B2                     u416_20:
  8452  15B2                     i1l2787:
  8453  15B2  1730               	bsf	i1___fladd@signs,6
  8454  15B3                     i1l2789:
  8455  15B3  0827               	movf	i1___fladd@a+3,w
  8456  15B4  00A8               	movwf	??i1___fladd
  8457  15B5  0728               	addwf	??i1___fladd,w
  8458  15B6  00A9               	movwf	??i1___fladd+1
  8459  15B7  0829               	movf	??i1___fladd+1,w
  8460  15B8  00B1               	movwf	i1___fladd@aexp
  8461  15B9                     i1l2791:
  8462  15B9  1FA6               	btfss	i1___fladd@a+2,7
  8463  15BA  2DBC               	goto	u417_21
  8464  15BB  2DBD               	goto	u417_20
  8465  15BC                     u417_21:
  8466  15BC  2DBE               	goto	i1l2795
  8467  15BD                     u417_20:
  8468  15BD                     i1l2793:
  8469  15BD  1431               	bsf	i1___fladd@aexp,0
  8470  15BE                     i1l2795:
  8471  15BE  0831               	movf	i1___fladd@aexp,w
  8472  15BF  1903               	btfsc	3,2
  8473  15C0  2DC2               	goto	u418_21
  8474  15C1  2DC3               	goto	u418_20
  8475  15C2                     u418_21:
  8476  15C2  2DD3               	goto	i1l2805
  8477  15C3                     u418_20:
  8478  15C3                     i1l2797:
  8479  15C3  0A31               	incf	i1___fladd@aexp,w
  8480  15C4  1D03               	btfss	3,2
  8481  15C5  2DC7               	goto	u419_21
  8482  15C6  2DC8               	goto	u419_20
  8483  15C7                     u419_21:
  8484  15C7  2DD0               	goto	i1l2801
  8485  15C8                     u419_20:
  8486  15C8                     i1l2799:
  8487  15C8  3000               	movlw	0
  8488  15C9  00A7               	movwf	i1___fladd@a+3
  8489  15CA  3000               	movlw	0
  8490  15CB  00A6               	movwf	i1___fladd@a+2
  8491  15CC  3000               	movlw	0
  8492  15CD  00A5               	movwf	i1___fladd@a+1
  8493  15CE  3000               	movlw	0
  8494  15CF  00A4               	movwf	i1___fladd@a
  8495  15D0                     i1l2801:
  8496  15D0  17A6               	bsf	i1___fladd@a+2,7
  8497  15D1                     i1l2803:
  8498  15D1  01A7               	clrf	i1___fladd@a+3
  8499  15D2  2DDB               	goto	i1l540
  8500  15D3                     i1l2805:
  8501  15D3  3000               	movlw	0
  8502  15D4  00A7               	movwf	i1___fladd@a+3
  8503  15D5  3000               	movlw	0
  8504  15D6  00A6               	movwf	i1___fladd@a+2
  8505  15D7  3000               	movlw	0
  8506  15D8  00A5               	movwf	i1___fladd@a+1
  8507  15D9  3000               	movlw	0
  8508  15DA  00A4               	movwf	i1___fladd@a
  8509  15DB                     i1l540:
  8510  15DB  0832               	movf	i1___fladd@bexp,w
  8511  15DC  0231               	subwf	i1___fladd@aexp,w
  8512  15DD  1803               	skipnc
  8513  15DE  2DE0               	goto	u420_21
  8514  15DF  2DE1               	goto	u420_20
  8515  15E0                     u420_21:
  8516  15E0  2E25               	goto	i1l2841
  8517  15E1                     u420_20:
  8518  15E1                     i1l2807:
  8519  15E1  1F30               	btfss	i1___fladd@signs,6
  8520  15E2  2DE4               	goto	u421_21
  8521  15E3  2DE5               	goto	u421_20
  8522  15E4                     u421_21:
  8523  15E4  2DE9               	goto	i1l2811
  8524  15E5                     u421_20:
  8525  15E5                     i1l2809:
  8526  15E5  3080               	movlw	128
  8527  15E6  00A8               	movwf	??i1___fladd
  8528  15E7  0828               	movf	??i1___fladd,w
  8529  15E8  06B0               	xorwf	i1___fladd@signs,f
  8530  15E9                     i1l2811:
  8531  15E9  0832               	movf	i1___fladd@bexp,w
  8532  15EA  00A8               	movwf	??i1___fladd
  8533  15EB  0828               	movf	??i1___fladd,w
  8534  15EC  00B3               	movwf	i1___fladd@grs
  8535  15ED                     i1l2813:
  8536  15ED  0831               	movf	i1___fladd@aexp,w
  8537  15EE  00A8               	movwf	??i1___fladd
  8538  15EF  0828               	movf	??i1___fladd,w
  8539  15F0  00B2               	movwf	i1___fladd@bexp
  8540  15F1                     i1l2815:
  8541  15F1  0833               	movf	i1___fladd@grs,w
  8542  15F2  00A8               	movwf	??i1___fladd
  8543  15F3  0828               	movf	??i1___fladd,w
  8544  15F4  00B1               	movwf	i1___fladd@aexp
  8545  15F5                     i1l2817:
  8546  15F5  0820               	movf	i1___fladd@b,w
  8547  15F6  00A8               	movwf	??i1___fladd
  8548  15F7  0828               	movf	??i1___fladd,w
  8549  15F8  00B3               	movwf	i1___fladd@grs
  8550  15F9                     i1l2819:
  8551  15F9  0824               	movf	i1___fladd@a,w
  8552  15FA  00A8               	movwf	??i1___fladd
  8553  15FB  0828               	movf	??i1___fladd,w
  8554  15FC  00A0               	movwf	i1___fladd@b
  8555  15FD                     i1l2821:
  8556  15FD  0833               	movf	i1___fladd@grs,w
  8557  15FE  00A8               	movwf	??i1___fladd
  8558  15FF  0828               	movf	??i1___fladd,w
  8559  1600  00A4               	movwf	i1___fladd@a
  8560  1601                     i1l2823:
  8561  1601  0821               	movf	i1___fladd@b+1,w
  8562  1602  00A8               	movwf	??i1___fladd
  8563  1603  0828               	movf	??i1___fladd,w
  8564  1604  00B3               	movwf	i1___fladd@grs
  8565  1605                     i1l2825:
  8566  1605  0825               	movf	i1___fladd@a+1,w
  8567  1606  00A8               	movwf	??i1___fladd
  8568  1607  0828               	movf	??i1___fladd,w
  8569  1608  00A1               	movwf	i1___fladd@b+1
  8570  1609                     i1l2827:
  8571  1609  0833               	movf	i1___fladd@grs,w
  8572  160A  00A8               	movwf	??i1___fladd
  8573  160B  0828               	movf	??i1___fladd,w
  8574  160C  00A5               	movwf	i1___fladd@a+1
  8575  160D                     i1l2829:
  8576  160D  0822               	movf	i1___fladd@b+2,w
  8577  160E  00A8               	movwf	??i1___fladd
  8578  160F  0828               	movf	??i1___fladd,w
  8579  1610  00B3               	movwf	i1___fladd@grs
  8580  1611                     i1l2831:
  8581  1611  0826               	movf	i1___fladd@a+2,w
  8582  1612  00A8               	movwf	??i1___fladd
  8583  1613  0828               	movf	??i1___fladd,w
  8584  1614  00A2               	movwf	i1___fladd@b+2
  8585  1615                     i1l2833:
  8586  1615  0833               	movf	i1___fladd@grs,w
  8587  1616  00A8               	movwf	??i1___fladd
  8588  1617  0828               	movf	??i1___fladd,w
  8589  1618  00A6               	movwf	i1___fladd@a+2
  8590  1619                     i1l2835:
  8591  1619  0823               	movf	i1___fladd@b+3,w
  8592  161A  00A8               	movwf	??i1___fladd
  8593  161B  0828               	movf	??i1___fladd,w
  8594  161C  00B3               	movwf	i1___fladd@grs
  8595  161D                     i1l2837:
  8596  161D  0827               	movf	i1___fladd@a+3,w
  8597  161E  00A8               	movwf	??i1___fladd
  8598  161F  0828               	movf	??i1___fladd,w
  8599  1620  00A3               	movwf	i1___fladd@b+3
  8600  1621                     i1l2839:
  8601  1621  0833               	movf	i1___fladd@grs,w
  8602  1622  00A8               	movwf	??i1___fladd
  8603  1623  0828               	movf	??i1___fladd,w
  8604  1624  00A7               	movwf	i1___fladd@a+3
  8605  1625                     i1l2841:
  8606  1625  01B3               	clrf	i1___fladd@grs
  8607  1626                     i1l2843:
  8608  1626  0831               	movf	i1___fladd@aexp,w
  8609  1627  00A8               	movwf	??i1___fladd
  8610  1628  01A9               	clrf	??i1___fladd+1
  8611  1629  0829               	movf	??i1___fladd+1,w
  8612  162A  00AB               	movwf	??i1___fladd+3
  8613  162B  0832               	movf	i1___fladd@bexp,w
  8614  162C  0228               	subwf	??i1___fladd,w
  8615  162D  00AA               	movwf	??i1___fladd+2
  8616  162E  1C03               	skipc
  8617  162F  03AB               	decf	??i1___fladd+3,f
  8618  1630  082B               	movf	??i1___fladd+3,w
  8619  1631  3A80               	xorlw	128
  8620  1632  00FF               	movwf	btemp+1
  8621  1633  3080               	movlw	128
  8622  1634  027F               	subwf	btemp+1,w
  8623  1635  1D03               	skipz
  8624  1636  2E39               	goto	u422_25
  8625  1637  301A               	movlw	26
  8626  1638  022A               	subwf	??i1___fladd+2,w
  8627  1639                     u422_25:
  8628  1639  1C03               	skipc
  8629  163A  2E3C               	goto	u422_21
  8630  163B  2E3D               	goto	u422_20
  8631  163C                     u422_21:
  8632  163C  2E7A               	goto	i1l2859
  8633  163D                     u422_20:
  8634  163D                     i1l2845:
  8635  163D  1283               	bcf	3,5	;RP0=0, select bank0
  8636  163E  1303               	bcf	3,6	;RP1=0, select bank0
  8637  163F  0823               	movf	i1___fladd@b+3,w
  8638  1640  0422               	iorwf	i1___fladd@b+2,w
  8639  1641  0421               	iorwf	i1___fladd@b+1,w
  8640  1642  0420               	iorwf	i1___fladd@b,w
  8641  1643  1D03               	skipz
  8642  1644  2E46               	goto	u423_21
  8643  1645  2E48               	goto	u423_20
  8644  1646                     u423_21:
  8645  1646  3001               	movlw	1
  8646  1647  2E49               	goto	u424_20
  8647  1648                     u423_20:
  8648  1648  3000               	movlw	0
  8649  1649                     u424_20:
  8650  1649  00A8               	movwf	??i1___fladd
  8651  164A  0828               	movf	??i1___fladd,w
  8652  164B  00B3               	movwf	i1___fladd@grs
  8653  164C  3000               	movlw	0
  8654  164D  00A3               	movwf	i1___fladd@b+3
  8655  164E  3000               	movlw	0
  8656  164F  00A2               	movwf	i1___fladd@b+2
  8657  1650  3000               	movlw	0
  8658  1651  00A1               	movwf	i1___fladd@b+1
  8659  1652  3000               	movlw	0
  8660  1653  00A0               	movwf	i1___fladd@b
  8661  1654  0831               	movf	i1___fladd@aexp,w
  8662  1655  00A8               	movwf	??i1___fladd
  8663  1656  0828               	movf	??i1___fladd,w
  8664  1657  00B2               	movwf	i1___fladd@bexp
  8665  1658  2E82               	goto	i1l544
  8666  1659                     i1l546:
  8667  1659  1C33               	btfss	i1___fladd@grs,0
  8668  165A  2E5C               	goto	u425_21
  8669  165B  2E5D               	goto	u425_20
  8670  165C                     u425_21:
  8671  165C  2E66               	goto	i1l2849
  8672  165D                     u425_20:
  8673  165D                     i1l2847:
  8674  165D  0833               	movf	i1___fladd@grs,w
  8675  165E  00A8               	movwf	??i1___fladd
  8676  165F  1003               	clrc
  8677  1660  0C28               	rrf	??i1___fladd,w
  8678  1661  3801               	iorlw	1
  8679  1662  00A9               	movwf	??i1___fladd+1
  8680  1663  0829               	movf	??i1___fladd+1,w
  8681  1664  00B3               	movwf	i1___fladd@grs
  8682  1665  2E68               	goto	i1l2851
  8683  1666                     i1l2849:
  8684  1666  1003               	clrc
  8685  1667  0CB3               	rrf	i1___fladd@grs,f
  8686  1668                     i1l2851:
  8687  1668  1C20               	btfss	i1___fladd@b,0
  8688  1669  2E6B               	goto	u426_21
  8689  166A  2E6C               	goto	u426_20
  8690  166B                     u426_21:
  8691  166B  2E6D               	goto	i1l2855
  8692  166C                     u426_20:
  8693  166C                     i1l2853:
  8694  166C  17B3               	bsf	i1___fladd@grs,7
  8695  166D                     i1l2855:
  8696  166D  3001               	movlw	1
  8697  166E  00A8               	movwf	??i1___fladd
  8698  166F                     u427_25:
  8699  166F  0D23               	rlf	i1___fladd@b+3,w
  8700  1670  0CA3               	rrf	i1___fladd@b+3,f
  8701  1671  0CA2               	rrf	i1___fladd@b+2,f
  8702  1672  0CA1               	rrf	i1___fladd@b+1,f
  8703  1673  0CA0               	rrf	i1___fladd@b,f
  8704  1674  0BA8               	decfsz	??i1___fladd& (0+127),f
  8705  1675  2E6F               	goto	u427_25
  8706  1676                     i1l2857:
  8707  1676  3001               	movlw	1
  8708  1677  00A8               	movwf	??i1___fladd
  8709  1678  0828               	movf	??i1___fladd,w
  8710  1679  07B2               	addwf	i1___fladd@bexp,f
  8711  167A                     i1l2859:
  8712  167A  1283               	bcf	3,5	;RP0=0, select bank0
  8713  167B  1303               	bcf	3,6	;RP1=0, select bank0
  8714  167C  0831               	movf	i1___fladd@aexp,w
  8715  167D  0232               	subwf	i1___fladd@bexp,w
  8716  167E  1C03               	skipc
  8717  167F  2E81               	goto	u428_21
  8718  1680  2E82               	goto	u428_20
  8719  1681                     u428_21:
  8720  1681  2E59               	goto	i1l546
  8721  1682                     u428_20:
  8722  1682                     i1l544:
  8723  1682  1B30               	btfsc	i1___fladd@signs,6
  8724  1683  2E85               	goto	u429_21
  8725  1684  2E86               	goto	u429_20
  8726  1685                     u429_21:
  8727  1685  2ED1               	goto	i1l2885
  8728  1686                     u429_20:
  8729  1686                     i1l2861:
  8730  1686  0832               	movf	i1___fladd@bexp,w
  8731  1687  1D03               	btfss	3,2
  8732  1688  2E8A               	goto	u430_21
  8733  1689  2E8B               	goto	u430_20
  8734  168A                     u430_21:
  8735  168A  2E94               	goto	i1l2867
  8736  168B                     u430_20:
  8737  168B                     i1l2863:
  8738  168B  3000               	movlw	0
  8739  168C  00A3               	movwf	?i1___fladd+3
  8740  168D  3000               	movlw	0
  8741  168E  00A2               	movwf	?i1___fladd+2
  8742  168F  3000               	movlw	0
  8743  1690  00A1               	movwf	?i1___fladd+1
  8744  1691  3000               	movlw	0
  8745  1692  00A0               	movwf	?i1___fladd
  8746  1693  2FFF               	goto	i1l553
  8747  1694                     i1l2867:
  8748  1694  0824               	movf	i1___fladd@a,w
  8749  1695  07A0               	addwf	i1___fladd@b,f
  8750  1696  0825               	movf	i1___fladd@a+1,w
  8751  1697  1103               	clrz
  8752  1698  1803               	skipnc
  8753  1699  3E01               	addlw	1
  8754  169A  1903               	skipnz
  8755  169B  2E9D               	goto	u431_21
  8756  169C  07A1               	addwf	i1___fladd@b+1,f
  8757  169D                     u431_21:
  8758  169D  0826               	movf	i1___fladd@a+2,w
  8759  169E  1103               	clrz
  8760  169F  1803               	skipnc
  8761  16A0  3E01               	addlw	1
  8762  16A1  1903               	skipnz
  8763  16A2  2EA4               	goto	u431_22
  8764  16A3  07A2               	addwf	i1___fladd@b+2,f
  8765  16A4                     u431_22:
  8766  16A4  0827               	movf	i1___fladd@a+3,w
  8767  16A5  1103               	clrz
  8768  16A6  1803               	skipnc
  8769  16A7  3E01               	addlw	1
  8770  16A8  1903               	skipnz
  8771  16A9  2EAB               	goto	u431_23
  8772  16AA  07A3               	addwf	i1___fladd@b+3,f
  8773  16AB                     u431_23:
  8774  16AB                     i1l2869:
  8775  16AB  1C23               	btfss	i1___fladd@b+3,0
  8776  16AC  2EAE               	goto	u432_21
  8777  16AD  2EAF               	goto	u432_20
  8778  16AE                     u432_21:
  8779  16AE  2F85               	goto	i1l2919
  8780  16AF                     u432_20:
  8781  16AF                     i1l2871:
  8782  16AF  1C33               	btfss	i1___fladd@grs,0
  8783  16B0  2EB2               	goto	u433_21
  8784  16B1  2EB3               	goto	u433_20
  8785  16B2                     u433_21:
  8786  16B2  2EBC               	goto	i1l2875
  8787  16B3                     u433_20:
  8788  16B3                     i1l2873:
  8789  16B3  0833               	movf	i1___fladd@grs,w
  8790  16B4  00A8               	movwf	??i1___fladd
  8791  16B5  1003               	clrc
  8792  16B6  0C28               	rrf	??i1___fladd,w
  8793  16B7  3801               	iorlw	1
  8794  16B8  00A9               	movwf	??i1___fladd+1
  8795  16B9  0829               	movf	??i1___fladd+1,w
  8796  16BA  00B3               	movwf	i1___fladd@grs
  8797  16BB  2EBE               	goto	i1l2877
  8798  16BC                     i1l2875:
  8799  16BC  1003               	clrc
  8800  16BD  0CB3               	rrf	i1___fladd@grs,f
  8801  16BE                     i1l2877:
  8802  16BE  1C20               	btfss	i1___fladd@b,0
  8803  16BF  2EC1               	goto	u434_21
  8804  16C0  2EC2               	goto	u434_20
  8805  16C1                     u434_21:
  8806  16C1  2EC3               	goto	i1l2881
  8807  16C2                     u434_20:
  8808  16C2                     i1l2879:
  8809  16C2  17B3               	bsf	i1___fladd@grs,7
  8810  16C3                     i1l2881:
  8811  16C3  3001               	movlw	1
  8812  16C4  00A8               	movwf	??i1___fladd
  8813  16C5                     u435_25:
  8814  16C5  0D23               	rlf	i1___fladd@b+3,w
  8815  16C6  0CA3               	rrf	i1___fladd@b+3,f
  8816  16C7  0CA2               	rrf	i1___fladd@b+2,f
  8817  16C8  0CA1               	rrf	i1___fladd@b+1,f
  8818  16C9  0CA0               	rrf	i1___fladd@b,f
  8819  16CA  0BA8               	decfsz	??i1___fladd& (0+127),f
  8820  16CB  2EC5               	goto	u435_25
  8821  16CC                     i1l2883:
  8822  16CC  3001               	movlw	1
  8823  16CD  00A8               	movwf	??i1___fladd
  8824  16CE  0828               	movf	??i1___fladd,w
  8825  16CF  07B2               	addwf	i1___fladd@bexp,f
  8826  16D0  2F85               	goto	i1l2919
  8827  16D1                     i1l2885:
  8828  16D1  0823               	movf	i1___fladd@b+3,w
  8829  16D2  3A80               	xorlw	128
  8830  16D3  00FF               	movwf	btemp+1
  8831  16D4  0827               	movf	i1___fladd@a+3,w
  8832  16D5  3A80               	xorlw	128
  8833  16D6  027F               	subwf	btemp+1,w
  8834  16D7  1D03               	skipz
  8835  16D8  2EE3               	goto	u436_23
  8836  16D9  0826               	movf	i1___fladd@a+2,w
  8837  16DA  0222               	subwf	i1___fladd@b+2,w
  8838  16DB  1D03               	skipz
  8839  16DC  2EE3               	goto	u436_23
  8840  16DD  0825               	movf	i1___fladd@a+1,w
  8841  16DE  0221               	subwf	i1___fladd@b+1,w
  8842  16DF  1D03               	skipz
  8843  16E0  2EE3               	goto	u436_23
  8844  16E1  0824               	movf	i1___fladd@a,w
  8845  16E2  0220               	subwf	i1___fladd@b,w
  8846  16E3                     u436_23:
  8847  16E3  1803               	skipnc
  8848  16E4  2EE6               	goto	u436_21
  8849  16E5  2EE7               	goto	u436_20
  8850  16E6                     u436_21:
  8851  16E6  2F3F               	goto	i1l2895
  8852  16E7                     u436_20:
  8853  16E7                     i1l2887:
  8854  16E7  30FF               	movlw	255
  8855  16E8  00A8               	movwf	??i1___fladd
  8856  16E9  30FF               	movlw	255
  8857  16EA  00A9               	movwf	??i1___fladd+1
  8858  16EB  30FF               	movlw	255
  8859  16EC  00AA               	movwf	??i1___fladd+2
  8860  16ED  30FF               	movlw	255
  8861  16EE  00AB               	movwf	??i1___fladd+3
  8862  16EF  0824               	movf	i1___fladd@a,w
  8863  16F0  00AC               	movwf	??i1___fladd+4
  8864  16F1  0825               	movf	i1___fladd@a+1,w
  8865  16F2  00AD               	movwf	??i1___fladd+5
  8866  16F3  0826               	movf	i1___fladd@a+2,w
  8867  16F4  00AE               	movwf	??i1___fladd+6
  8868  16F5  0827               	movf	i1___fladd@a+3,w
  8869  16F6  00AF               	movwf	??i1___fladd+7
  8870  16F7  0820               	movf	i1___fladd@b,w
  8871  16F8  02AC               	subwf	??i1___fladd+4,f
  8872  16F9  0821               	movf	i1___fladd@b+1,w
  8873  16FA  1C03               	skipc
  8874  16FB  0F21               	incfsz	i1___fladd@b+1,w
  8875  16FC  2EFE               	goto	u437_21
  8876  16FD  2EFF               	goto	u437_22
  8877  16FE                     u437_21:
  8878  16FE  02AD               	subwf	??i1___fladd+5,f
  8879  16FF                     u437_22:
  8880  16FF  0822               	movf	i1___fladd@b+2,w
  8881  1700  1C03               	skipc
  8882  1701  0F22               	incfsz	i1___fladd@b+2,w
  8883  1702  2F04               	goto	u437_23
  8884  1703  2F05               	goto	u437_24
  8885  1704                     u437_23:
  8886  1704  02AE               	subwf	??i1___fladd+6,f
  8887  1705                     u437_24:
  8888  1705  0823               	movf	i1___fladd@b+3,w
  8889  1706  1C03               	skipc
  8890  1707  0F23               	incfsz	i1___fladd@b+3,w
  8891  1708  2F0A               	goto	u437_25
  8892  1709  2F0B               	goto	u437_26
  8893  170A                     u437_25:
  8894  170A  02AF               	subwf	??i1___fladd+7,f
  8895  170B                     u437_26:
  8896  170B  082C               	movf	??i1___fladd+4,w
  8897  170C  07A8               	addwf	??i1___fladd,f
  8898  170D  082D               	movf	??i1___fladd+5,w
  8899  170E  1803               	skipnc
  8900  170F  0F2D               	incfsz	??i1___fladd+5,w
  8901  1710  2F12               	goto	u438_20
  8902  1711  2F13               	goto	u438_21
  8903  1712                     u438_20:
  8904  1712  07A9               	addwf	??i1___fladd+1,f
  8905  1713                     u438_21:
  8906  1713  082E               	movf	??i1___fladd+6,w
  8907  1714  1803               	skipnc
  8908  1715  0F2E               	incfsz	??i1___fladd+6,w
  8909  1716  2F18               	goto	u438_22
  8910  1717  2F19               	goto	u438_23
  8911  1718                     u438_22:
  8912  1718  07AA               	addwf	??i1___fladd+2,f
  8913  1719                     u438_23:
  8914  1719  082F               	movf	??i1___fladd+7,w
  8915  171A  1803               	skipnc
  8916  171B  0A2F               	incf	??i1___fladd+7,w
  8917  171C  07AB               	addwf	??i1___fladd+3,f
  8918  171D  082B               	movf	??i1___fladd+3,w
  8919  171E  00A3               	movwf	i1___fladd@b+3
  8920  171F  082A               	movf	??i1___fladd+2,w
  8921  1720  00A2               	movwf	i1___fladd@b+2
  8922  1721  0829               	movf	??i1___fladd+1,w
  8923  1722  00A1               	movwf	i1___fladd@b+1
  8924  1723  0828               	movf	??i1___fladd,w
  8925  1724  00A0               	movwf	i1___fladd@b
  8926  1725                     i1l2889:
  8927  1725  3080               	movlw	128
  8928  1726  00A8               	movwf	??i1___fladd
  8929  1727  0828               	movf	??i1___fladd,w
  8930  1728  06B0               	xorwf	i1___fladd@signs,f
  8931  1729  09B3               	comf	i1___fladd@grs,f
  8932  172A  0AB3               	incf	i1___fladd@grs,f
  8933  172B                     i1l2891:
  8934  172B  0833               	movf	i1___fladd@grs,w
  8935  172C  1D03               	btfss	3,2
  8936  172D  2F2F               	goto	u439_21
  8937  172E  2F30               	goto	u439_20
  8938  172F                     u439_21:
  8939  172F  2F4D               	goto	i1l561
  8940  1730                     u439_20:
  8941  1730                     i1l2893:
  8942  1730  3001               	movlw	1
  8943  1731  07A0               	addwf	i1___fladd@b,f
  8944  1732  3000               	movlw	0
  8945  1733  1803               	skipnc
  8946  1734  3001               	movlw	1
  8947  1735  07A1               	addwf	i1___fladd@b+1,f
  8948  1736  3000               	movlw	0
  8949  1737  1803               	skipnc
  8950  1738  3001               	movlw	1
  8951  1739  07A2               	addwf	i1___fladd@b+2,f
  8952  173A  3000               	movlw	0
  8953  173B  1803               	skipnc
  8954  173C  3001               	movlw	1
  8955  173D  07A3               	addwf	i1___fladd@b+3,f
  8956  173E  2F4D               	goto	i1l561
  8957  173F                     i1l2895:
  8958  173F  0824               	movf	i1___fladd@a,w
  8959  1740  02A0               	subwf	i1___fladd@b,f
  8960  1741  0825               	movf	i1___fladd@a+1,w
  8961  1742  1C03               	skipc
  8962  1743  0F25               	incfsz	i1___fladd@a+1,w
  8963  1744  02A1               	subwf	i1___fladd@b+1,f
  8964  1745  0826               	movf	i1___fladd@a+2,w
  8965  1746  1C03               	skipc
  8966  1747  0F26               	incfsz	i1___fladd@a+2,w
  8967  1748  02A2               	subwf	i1___fladd@b+2,f
  8968  1749  0827               	movf	i1___fladd@a+3,w
  8969  174A  1C03               	skipc
  8970  174B  0F27               	incfsz	i1___fladd@a+3,w
  8971  174C  02A3               	subwf	i1___fladd@b+3,f
  8972  174D                     i1l561:
  8973  174D  0823               	movf	i1___fladd@b+3,w
  8974  174E  0422               	iorwf	i1___fladd@b+2,w
  8975  174F  0421               	iorwf	i1___fladd@b+1,w
  8976  1750  0420               	iorwf	i1___fladd@b,w
  8977  1751  1D03               	skipz
  8978  1752  2F54               	goto	u440_21
  8979  1753  2F55               	goto	u440_20
  8980  1754                     u440_21:
  8981  1754  2F81               	goto	i1l2917
  8982  1755                     u440_20:
  8983  1755                     i1l2897:
  8984  1755  0833               	movf	i1___fladd@grs,w
  8985  1756  1D03               	btfss	3,2
  8986  1757  2F59               	goto	u441_21
  8987  1758  2F5A               	goto	u441_20
  8988  1759                     u441_21:
  8989  1759  2F81               	goto	i1l2917
  8990  175A                     u441_20:
  8991  175A                     i1l2899:
  8992  175A  3000               	movlw	0
  8993  175B  00A3               	movwf	?i1___fladd+3
  8994  175C  3000               	movlw	0
  8995  175D  00A2               	movwf	?i1___fladd+2
  8996  175E  3000               	movlw	0
  8997  175F  00A1               	movwf	?i1___fladd+1
  8998  1760  3000               	movlw	0
  8999  1761  00A0               	movwf	?i1___fladd
  9000  1762  2FFF               	goto	i1l553
  9001  1763                     i1l2903:
  9002  1763  3001               	movlw	1
  9003  1764  00A8               	movwf	??i1___fladd
  9004  1765                     u442_25:
  9005  1765  1003               	clrc
  9006  1766  0DA0               	rlf	i1___fladd@b,f
  9007  1767  0DA1               	rlf	i1___fladd@b+1,f
  9008  1768  0DA2               	rlf	i1___fladd@b+2,f
  9009  1769  0DA3               	rlf	i1___fladd@b+3,f
  9010  176A  0BA8               	decfsz	??i1___fladd,f
  9011  176B  2F65               	goto	u442_25
  9012  176C                     i1l2905:
  9013  176C  1FB3               	btfss	i1___fladd@grs,7
  9014  176D  2F6F               	goto	u443_21
  9015  176E  2F70               	goto	u443_20
  9016  176F                     u443_21:
  9017  176F  2F71               	goto	i1l565
  9018  1770                     u443_20:
  9019  1770                     i1l2907:
  9020  1770  1420               	bsf	i1___fladd@b,0
  9021  1771                     i1l565:
  9022  1771  1C33               	btfss	i1___fladd@grs,0
  9023  1772  2F74               	goto	u444_21
  9024  1773  2F75               	goto	u444_20
  9025  1774                     u444_21:
  9026  1774  2F78               	goto	i1l2911
  9027  1775                     u444_20:
  9028  1775                     i1l2909:
  9029  1775  1403               	setc
  9030  1776  0DB3               	rlf	i1___fladd@grs,f
  9031  1777  2F7A               	goto	i1l2913
  9032  1778                     i1l2911:
  9033  1778  1003               	clrc
  9034  1779  0DB3               	rlf	i1___fladd@grs,f
  9035  177A                     i1l2913:
  9036  177A  0832               	movf	i1___fladd@bexp,w
  9037  177B  1903               	btfsc	3,2
  9038  177C  2F7E               	goto	u445_21
  9039  177D  2F7F               	goto	u445_20
  9040  177E                     u445_21:
  9041  177E  2F81               	goto	i1l2917
  9042  177F                     u445_20:
  9043  177F                     i1l2915:
  9044  177F  3001               	movlw	1
  9045  1780  02B2               	subwf	i1___fladd@bexp,f
  9046  1781                     i1l2917:
  9047  1781  1FA2               	btfss	i1___fladd@b+2,7
  9048  1782  2F84               	goto	u446_21
  9049  1783  2F85               	goto	u446_20
  9050  1784                     u446_21:
  9051  1784  2F63               	goto	i1l2903
  9052  1785                     u446_20:
  9053  1785                     i1l2919:
  9054  1785  01B1               	clrf	i1___fladd@aexp
  9055  1786                     i1l2921:
  9056  1786  1FB3               	btfss	i1___fladd@grs,7
  9057  1787  2F89               	goto	u447_21
  9058  1788  2F8A               	goto	u447_20
  9059  1789                     u447_21:
  9060  1789  2F98               	goto	i1l2929
  9061  178A                     u447_20:
  9062  178A                     i1l2923:
  9063  178A  0833               	movf	i1___fladd@grs,w
  9064  178B  397F               	andlw	127
  9065  178C  1903               	btfsc	3,2
  9066  178D  2F8F               	goto	u448_21
  9067  178E  2F90               	goto	u448_20
  9068  178F                     u448_21:
  9069  178F  2F93               	goto	i1l571
  9070  1790                     u448_20:
  9071  1790                     i1l2925:
  9072  1790  01B1               	clrf	i1___fladd@aexp
  9073  1791  0AB1               	incf	i1___fladd@aexp,f
  9074  1792  2F98               	goto	i1l2929
  9075  1793                     i1l571:
  9076  1793  1C20               	btfss	i1___fladd@b,0
  9077  1794  2F96               	goto	u449_21
  9078  1795  2F97               	goto	u449_20
  9079  1796                     u449_21:
  9080  1796  2F98               	goto	i1l2929
  9081  1797                     u449_20:
  9082  1797  2F90               	goto	i1l2925
  9083  1798                     i1l2929:
  9084  1798  0831               	movf	i1___fladd@aexp,w
  9085  1799  1903               	btfsc	3,2
  9086  179A  2F9C               	goto	u450_21
  9087  179B  2F9D               	goto	u450_20
  9088  179C                     u450_21:
  9089  179C  2FD1               	goto	i1l574
  9090  179D                     u450_20:
  9091  179D                     i1l2931:
  9092  179D  3001               	movlw	1
  9093  179E  07A0               	addwf	i1___fladd@b,f
  9094  179F  3000               	movlw	0
  9095  17A0  1803               	skipnc
  9096  17A1  3001               	movlw	1
  9097  17A2  07A1               	addwf	i1___fladd@b+1,f
  9098  17A3  3000               	movlw	0
  9099  17A4  1803               	skipnc
  9100  17A5  3001               	movlw	1
  9101  17A6  07A2               	addwf	i1___fladd@b+2,f
  9102  17A7  3000               	movlw	0
  9103  17A8  1803               	skipnc
  9104  17A9  3001               	movlw	1
  9105  17AA  07A3               	addwf	i1___fladd@b+3,f
  9106  17AB                     i1l2933:
  9107  17AB  1C23               	btfss	i1___fladd@b+3,0
  9108  17AC  2FAE               	goto	u451_21
  9109  17AD  2FAF               	goto	u451_20
  9110  17AE                     u451_21:
  9111  17AE  2FD1               	goto	i1l574
  9112  17AF                     u451_20:
  9113  17AF                     i1l2935:
  9114  17AF  0820               	movf	i1___fladd@b,w
  9115  17B0  00A8               	movwf	??i1___fladd
  9116  17B1  0821               	movf	i1___fladd@b+1,w
  9117  17B2  00A9               	movwf	??i1___fladd+1
  9118  17B3  0822               	movf	i1___fladd@b+2,w
  9119  17B4  00AA               	movwf	??i1___fladd+2
  9120  17B5  0823               	movf	i1___fladd@b+3,w
  9121  17B6  00AB               	movwf	??i1___fladd+3
  9122  17B7  3001               	movlw	1
  9123  17B8  00AC               	movwf	??i1___fladd+4
  9124  17B9                     u452_25:
  9125  17B9  0D2B               	rlf	??i1___fladd+3,w
  9126  17BA  0CAB               	rrf	??i1___fladd+3,f
  9127  17BB  0CAA               	rrf	??i1___fladd+2,f
  9128  17BC  0CA9               	rrf	??i1___fladd+1,f
  9129  17BD  0CA8               	rrf	??i1___fladd,f
  9130  17BE                     u452_20:
  9131  17BE  0BAC               	decfsz	??i1___fladd+4,f
  9132  17BF  2FB9               	goto	u452_25
  9133  17C0  082B               	movf	??i1___fladd+3,w
  9134  17C1  00A3               	movwf	i1___fladd@b+3
  9135  17C2  082A               	movf	??i1___fladd+2,w
  9136  17C3  00A2               	movwf	i1___fladd@b+2
  9137  17C4  0829               	movf	??i1___fladd+1,w
  9138  17C5  00A1               	movwf	i1___fladd@b+1
  9139  17C6  0828               	movf	??i1___fladd,w
  9140  17C7  00A0               	movwf	i1___fladd@b
  9141  17C8  0A32               	incf	i1___fladd@bexp,w
  9142  17C9  1903               	btfsc	3,2
  9143  17CA  2FCC               	goto	u453_21
  9144  17CB  2FCD               	goto	u453_20
  9145  17CC                     u453_21:
  9146  17CC  2FD1               	goto	i1l574
  9147  17CD                     u453_20:
  9148  17CD                     i1l2937:
  9149  17CD  3001               	movlw	1
  9150  17CE  00A8               	movwf	??i1___fladd
  9151  17CF  0828               	movf	??i1___fladd,w
  9152  17D0  07B2               	addwf	i1___fladd@bexp,f
  9153  17D1                     i1l574:
  9154  17D1  0A32               	incf	i1___fladd@bexp,w
  9155  17D2  1903               	btfsc	3,2
  9156  17D3  2FD5               	goto	u454_21
  9157  17D4  2FD6               	goto	u454_20
  9158  17D5                     u454_21:
  9159  17D5  2FDB               	goto	i1l2941
  9160  17D6                     u454_20:
  9161  17D6                     i1l2939:
  9162  17D6  0832               	movf	i1___fladd@bexp,w
  9163  17D7  1D03               	btfss	3,2
  9164  17D8  2FDA               	goto	u455_21
  9165  17D9  2FDB               	goto	u455_20
  9166  17DA                     u455_21:
  9167  17DA  2FE9               	goto	i1l2947
  9168  17DB                     u455_20:
  9169  17DB                     i1l2941:
  9170  17DB  3000               	movlw	0
  9171  17DC  00A3               	movwf	i1___fladd@b+3
  9172  17DD  3000               	movlw	0
  9173  17DE  00A2               	movwf	i1___fladd@b+2
  9174  17DF  3000               	movlw	0
  9175  17E0  00A1               	movwf	i1___fladd@b+1
  9176  17E1  3000               	movlw	0
  9177  17E2  00A0               	movwf	i1___fladd@b
  9178  17E3                     i1l2943:
  9179  17E3  0832               	movf	i1___fladd@bexp,w
  9180  17E4  1D03               	btfss	3,2
  9181  17E5  2FE7               	goto	u456_21
  9182  17E6  2FE8               	goto	u456_20
  9183  17E7                     u456_21:
  9184  17E7  2FE9               	goto	i1l2947
  9185  17E8                     u456_20:
  9186  17E8                     i1l2945:
  9187  17E8  01B0               	clrf	i1___fladd@signs
  9188  17E9                     i1l2947:
  9189  17E9  1C32               	btfss	i1___fladd@bexp,0
  9190  17EA  2FEC               	goto	u457_21
  9191  17EB  2FED               	goto	u457_20
  9192  17EC                     u457_21:
  9193  17EC  2FEF               	goto	i1l2951
  9194  17ED                     u457_20:
  9195  17ED                     i1l2949:
  9196  17ED  17A2               	bsf	i1___fladd@b+2,7
  9197  17EE  2FF3               	goto	i1l582
  9198  17EF                     i1l2951:
  9199  17EF  307F               	movlw	127
  9200  17F0  00A8               	movwf	??i1___fladd
  9201  17F1  0828               	movf	??i1___fladd,w
  9202  17F2  05A2               	andwf	i1___fladd@b+2,f
  9203  17F3                     i1l582:
  9204  17F3  0832               	movf	i1___fladd@bexp,w
  9205  17F4  00A8               	movwf	??i1___fladd
  9206  17F5  1003               	clrc
  9207  17F6  0C28               	rrf	??i1___fladd,w
  9208  17F7  00A9               	movwf	??i1___fladd+1
  9209  17F8  0829               	movf	??i1___fladd+1,w
  9210  17F9  00A3               	movwf	i1___fladd@b+3
  9211  17FA                     i1l2953:
  9212  17FA  1FB0               	btfss	i1___fladd@signs,7
  9213  17FB  2FFD               	goto	u458_21
  9214  17FC  2FFE               	goto	u458_20
  9215  17FD                     u458_21:
  9216  17FD  2FFF               	goto	i1l583
  9217  17FE                     u458_20:
  9218  17FE                     i1l2955:
  9219  17FE  17A3               	bsf	i1___fladd@b+3,7
  9220  17FF                     i1l583:
  9221  17FF                     i1l553:
  9222  17FF  0008               	return
  9223  1800                     __end_ofi1___fladd:
  9224  007E                     btemp	set	126	;btemp
  9225  007E                     wtemp0	set	126
  9226                           
  9227                           	psect	config
  9228                           
  9229                           ;Config register CONFIG1 @ 0x2007
  9230                           ;	Oscillator Selection bits
  9231                           ;	FOSC = INTRC_NOCLKOUT, INTOSCIO oscillator: I/O function on RA6/OSC2/CLKOUT pin, I/O f
      +                          unction on RA7/OSC1/CLKIN
  9232                           ;	Watchdog Timer Enable bit
  9233                           ;	WDTE = OFF, WDT disabled and can be enabled by SWDTEN bit of the WDTCON register
  9234                           ;	Power-up Timer Enable bit
  9235                           ;	PWRTE = OFF, PWRT disabled
  9236                           ;	RE3/MCLR pin function select bit
  9237                           ;	MCLRE = OFF, RE3/MCLR pin function is digital input, MCLR internally tied to VDD
  9238                           ;	Code Protection bit
  9239                           ;	CP = OFF, Program memory code protection is disabled
  9240                           ;	Data Code Protection bit
  9241                           ;	CPD = OFF, Data memory code protection is disabled
  9242                           ;	Brown Out Reset Selection bits
  9243                           ;	BOREN = OFF, BOR disabled
  9244                           ;	Internal External Switchover bit
  9245                           ;	IESO = OFF, Internal/External Switchover mode is disabled
  9246                           ;	Fail-Safe Clock Monitor Enabled bit
  9247                           ;	FCMEN = OFF, Fail-Safe Clock Monitor is disabled
  9248                           ;	Low Voltage Programming Enable bit
  9249                           ;	LVP = OFF, RB3 pin has digital I/O, HV on MCLR must be used for programming
  9250                           ;	In-Circuit Debugger Mode bit
  9251                           ;	DEBUG = 0x1, unprogrammed default
  9252  2007                     	org	8199
  9253  2007  20D4               	dw	8404
  9254                           
  9255                           ;Config register CONFIG2 @ 0x2008
  9256                           ;	Brown-out Reset Selection bit
  9257                           ;	BOR4V = BOR40V, Brown-out Reset set to 4.0V
  9258                           ;	Flash Program Memory Self Write Enable bits
  9259                           ;	WRT = OFF, Write protection off
  9260  2008                     	org	8200
  9261  2008  3FFF               	dw	16383

Data Sizes:
    Strings     15
    Constant    0
    Data        0
    BSS         57
    Persistent  0
    Stack       0

Auto Spaces:
    Space          Size  Autos    Used
    COMMON           14     14      14
    BANK0            80     32      53
    BANK1            80     76      80
    BANK3            96     35      67
    BANK2            96      0       0

Pointer List with Targets:

    convert@data	PTR unsigned char  size(1) Largest target is 10
		 -> temperatura(BANK3[10]), 

    Lcd_Write_String@a	PTR unsigned char  size(2) Largest target is 10
		 -> STR_4(CODE[2]), temperatura(BANK3[10]), STR_3(CODE[4]), STR_2(CODE[4]), 
		 -> STR_1(CODE[5]), 


Critical Paths under _main in COMMON

    None.

Critical Paths under _isr in COMMON

    _isr->i1___xxtofl
    i1___fladd->i1___xxtofl

Critical Paths under _main in BANK0

    _main->_Lcd_Set_Cursor
    _main->_Lcd_Write_String
    _convert->___awdiv
    ___xxtofl->___fltol
    ___wmul->___fltol
    ___flsub->___fladd
    ___flsub->___fltol
    ___flmul->__Umul8_16
    ___flmul->___fltol
    _Lcd_Write_String->_Lcd_Write_Char
    _Lcd_Write_Char->_Lcd_Port
    _Lcd_Set_Cursor->_Lcd_Cmd
    _Lcd_Init->_Lcd_Cmd
    _Lcd_Clear->_Lcd_Cmd
    _Lcd_Cmd->_Lcd_Port

Critical Paths under _isr in BANK0

    _isr->i1___fladd

Critical Paths under _main in BANK1

    _main->_convert
    _convert->___fldiv
    ___xxtofl->___wmul
    ___wmul->___fltol
    ___flsub->___xxtofl
    ___flmul->___flsub
    ___fldiv->___flmul

Critical Paths under _isr in BANK1

    None.

Critical Paths under _main in BANK3

    _main->_convert
    _convert->___fldiv

Critical Paths under _isr in BANK3

    None.

Critical Paths under _main in BANK2

    None.

Critical Paths under _isr in BANK2

    None.

Call Graph Tables:

 ---------------------------------------------------------------------------------
 (Depth) Function   	        Calls       Base Space   Used Autos Params    Refs
 ---------------------------------------------------------------------------------
 (0) _main                                                 3     3      0   23529
                                             34 BANK3      1     1      0
                          _Lcd_Clear
                           _Lcd_Init
                     _Lcd_Set_Cursor
                   _Lcd_Write_String
                            ___fldiv
                            ___flmul
                            _convert
                              _setup
 ---------------------------------------------------------------------------------
 (1) _setup                                                1     1      0       0
                                             27 BANK0      1     1      0
 ---------------------------------------------------------------------------------
 (1) _convert                                             23    17      6   15912
                                             74 BANK1      2     2      0
                                             13 BANK3     21    15      6
                            ___awdiv
                            ___fldiv
                             ___flge
                            ___flmul
                            ___flsub
                            ___fltol
                             ___wmul
                           ___xxtofl
 ---------------------------------------------------------------------------------
 (2) ___xxtofl                                            14    10      4    1126
                                             13 BANK1     14    10      4
                            ___fltol (ARG)
                             ___wmul (ARG)
 ---------------------------------------------------------------------------------
 (2) ___wmul                                               6     2      4    1036
                                              7 BANK1      6     2      4
                            ___fltol (ARG)
 ---------------------------------------------------------------------------------
 (2) ___fltol                                             11     7      4     967
                                             27 BANK0      4     0      4
                                              0 BANK1      7     7      0
 ---------------------------------------------------------------------------------
 (2) ___flsub                                              8     0      8    3837
                                             27 BANK1      8     0      8
                            ___fladd
                            ___fltol (ARG)
                             ___wmul (ARG)
                           ___xxtofl (ARG)
 ---------------------------------------------------------------------------------
 (3) ___fladd                                             20    12      8    3232
                                             27 BANK0      4     4      0
                                              0 BANK1     16     8      8
 ---------------------------------------------------------------------------------
 (2) ___flmul                                             26    18      8    3893
                                             35 BANK1     26    18      8
                          __Umul8_16
                            ___flsub (ARG)
                            ___fltol (ARG)
                           ___xxtofl (ARG)
 ---------------------------------------------------------------------------------
 (3) __Umul8_16                                            9     7      2     980
                                             27 BANK0      4     2      2
                                              0 BANK1      5     5      0
 ---------------------------------------------------------------------------------
 (2) ___flge                                              12     4      8     446
                                             27 BANK0      4     4      0
                                              0 BANK1      8     0      8
 ---------------------------------------------------------------------------------
 (2) ___fldiv                                             26    18      8    2223
                                             61 BANK1     13     5      8
                                              0 BANK3     13    13      0
                            ___flmul (ARG)
                           ___xxtofl (ARG)
 ---------------------------------------------------------------------------------
 (2) ___awdiv                                              9     5      4     625
                                             27 BANK0      5     1      4
                                              0 BANK1      4     4      0
 ---------------------------------------------------------------------------------
 (1) _Lcd_Write_String                                     7     5      2     642
                                             30 BANK0      2     0      2
                                              0 BANK1      5     5      0
                     _Lcd_Write_Char
 ---------------------------------------------------------------------------------
 (2) _Lcd_Write_Char                                       2     2      0      62
                                             28 BANK0      2     2      0
                           _Lcd_Port
 ---------------------------------------------------------------------------------
 (1) _Lcd_Set_Cursor                                       4     3      1     704
                                             31 BANK0      1     0      1
                                              0 BANK1      3     3      0
                            _Lcd_Cmd
 ---------------------------------------------------------------------------------
 (1) _Lcd_Init                                             2     2      0      93
                                              0 BANK1      2     2      0
                            _Lcd_Cmd
                           _Lcd_Port
 ---------------------------------------------------------------------------------
 (1) _Lcd_Clear                                            0     0      0      62
                            _Lcd_Cmd
 ---------------------------------------------------------------------------------
 (2) _Lcd_Cmd                                              3     3      0      62
                                             28 BANK0      3     3      0
                           _Lcd_Port
 ---------------------------------------------------------------------------------
 (3) _Lcd_Port                                             1     1      0      31
                                             27 BANK0      1     1      0
 ---------------------------------------------------------------------------------
 Estimated maximum stack depth 3
 ---------------------------------------------------------------------------------
 (Depth) Function   	        Calls       Base Space   Used Autos Params    Refs
 ---------------------------------------------------------------------------------
 (4) _isr                                                  7     7      0    2410
                                             20 BANK0      7     7      0
                          i1___fladd
                         i1___xxtofl
 ---------------------------------------------------------------------------------
 (5) i1___xxtofl                                          14    10      4     374
                                              0 COMMON    14    10      4
 ---------------------------------------------------------------------------------
 (5) i1___fladd                                           20    12      8    2036
                                              0 BANK0     20    12      8
                         i1___xxtofl (ARG)
 ---------------------------------------------------------------------------------
 Estimated maximum stack depth 5
 ---------------------------------------------------------------------------------

 Call Graph Graphs:

 _main (ROOT)
   _Lcd_Clear
     _Lcd_Cmd
       _Lcd_Port
   _Lcd_Init
     _Lcd_Cmd
       _Lcd_Port
     _Lcd_Port
   _Lcd_Set_Cursor
     _Lcd_Cmd
       _Lcd_Port
   _Lcd_Write_String
     _Lcd_Write_Char
       _Lcd_Port
   ___fldiv
     ___flmul (ARG)
       __Umul8_16
       ___flsub (ARG)
         ___fladd
         ___fltol (ARG)
         ___wmul (ARG)
           ___fltol (ARG)
         ___xxtofl (ARG)
           ___fltol (ARG)
           ___wmul (ARG)
             ___fltol (ARG)
       ___fltol (ARG)
       ___xxtofl (ARG)
         ___fltol (ARG)
         ___wmul (ARG)
           ___fltol (ARG)
     ___xxtofl (ARG)
       ___fltol (ARG)
       ___wmul (ARG)
         ___fltol (ARG)
   ___flmul
     __Umul8_16
     ___flsub (ARG)
       ___fladd
       ___fltol (ARG)
       ___wmul (ARG)
         ___fltol (ARG)
       ___xxtofl (ARG)
         ___fltol (ARG)
         ___wmul (ARG)
           ___fltol (ARG)
     ___fltol (ARG)
     ___xxtofl (ARG)
       ___fltol (ARG)
       ___wmul (ARG)
         ___fltol (ARG)
   _convert
     ___awdiv
     ___fldiv
       ___flmul (ARG)
         __Umul8_16
         ___flsub (ARG)
           ___fladd
           ___fltol (ARG)
           ___wmul (ARG)
             ___fltol (ARG)
           ___xxtofl (ARG)
             ___fltol (ARG)
             ___wmul (ARG)
               ___fltol (ARG)
         ___fltol (ARG)
         ___xxtofl (ARG)
           ___fltol (ARG)
           ___wmul (ARG)
             ___fltol (ARG)
       ___xxtofl (ARG)
         ___fltol (ARG)
         ___wmul (ARG)
           ___fltol (ARG)
     ___flge
     ___flmul
       __Umul8_16
       ___flsub (ARG)
         ___fladd
         ___fltol (ARG)
         ___wmul (ARG)
           ___fltol (ARG)
         ___xxtofl (ARG)
           ___fltol (ARG)
           ___wmul (ARG)
             ___fltol (ARG)
       ___fltol (ARG)
       ___xxtofl (ARG)
         ___fltol (ARG)
         ___wmul (ARG)
           ___fltol (ARG)
     ___flsub
       ___fladd
       ___fltol (ARG)
       ___wmul (ARG)
         ___fltol (ARG)
       ___xxtofl (ARG)
         ___fltol (ARG)
         ___wmul (ARG)
           ___fltol (ARG)
     ___fltol
     ___wmul
       ___fltol (ARG)
     ___xxtofl
       ___fltol (ARG)
       ___wmul (ARG)
         ___fltol (ARG)
   _setup

 _isr (ROOT)
   i1___fladd
     i1___xxtofl (ARG)
   i1___xxtofl

 Address spaces:
Name               Size   Autos  Total    Cost      Usage
BITCOMMON            E      0       0       0        0.0%
EEDATA             100      0       0       0        0.0%
NULL                 0      0       0       0        0.0%
CODE                 0      0       0       0        0.0%
COMMON               E      E       E       1      100.0%
BITSFR0              0      0       0       1        0.0%
SFR0                 0      0       0       1        0.0%
BITSFR1              0      0       0       2        0.0%
SFR1                 0      0       0       2        0.0%
STACK                0      0       0       2        0.0%
ABS                  0      0      D6       3        0.0%
BITBANK0            50      0       0       4        0.0%
BITSFR3              0      0       0       4        0.0%
SFR3                 0      0       0       4        0.0%
BANK0               50     20      35       5       66.2%
BITSFR2              0      0       0       5        0.0%
SFR2                 0      0       0       5        0.0%
BITBANK1            50      0       0       6        0.0%
BANK1               50     4C      50       7      100.0%
BITBANK3            60      0       0       8        0.0%
BANK3               60     23      43       9       69.8%
BITBANK2            60      0       0      10        0.0%
BANK2               60      0       0      11        0.0%
DATA                 0      0      D6      12        0.0%


Microchip Technology PIC Macro Assembler V2.31 build 20201012212115 
Symbol Table                                                                                   Fri Sep 03 19:47:43 2021

             ___fldiv@aexp 019C               ___fldiv@bexp 019B                          pc 0002  
              i1___fladd@a 0024                i1___fladd@b 0020               ___fldiv@sign 0194  
                       l87 143A                         l96 1061               ___awdiv@sign 00A1  
                       fsr 0004        ___wmul@multiplicand 00A9        __Umul8_16@word_mpld 00A2  
               i1___xxtofl 125E                        l111 1F70                        l120 084A  
                      l105 1F5B                        l123 1F88                        l108 1FA4  
                      l117 07FA                        l400 11BF                        l129 10C5  
                      l161 052C                        l421 1346                        l247 100F  
                      l424 140E                        l440 1246                        l425 1427  
                      l433 125D                        l249 1027                        l443 125D  
                      l620 07B8                        l612 0720                        l540 098C  
                      l544 0A84                        l561 0B67                        l553 0C44  
                      l618 07A0                        l642 0F6B                        l546 0A4F  
                      l571 0BBC                        l636 0FFF                        l565 0B95  
                      l582 0C30                        l574 0C05                        l655 1FE7  
                      l583 0C44                        l648 0FF3                        l680 086F  
                      l657 1FFF                        l586 1FC8                        l682 0906  
                      l596 05AB                        l693 08D0                        l598 07CC  
                      l694 08DC                        l686 08B4                        _isr 10C6  
                      fsr0 0004                        indf 0000              i1___fladd@grs 0033  
             ___flmul@aexp 00D1               ___flmul@bexp 00D6               ___flmul@sign 00D0  
             ___flmul@temp 00DB               ___flmul@prod 00D7               ___fltol@exp1 00A6  
                     l3101 096E                       l3111 0994                       l3103 0973  
                     l3201 0B71                       l3121 09B8                       l3113 0998  
                     l3105 097D                       l3211 0B92                       l3203 0B78  
                     l3131 09DA                       l3123 09C0                       l3115 09A0  
                     l3107 0980                       l3213 0B9A                       l3221 0BA6  
                     l3141 09FC                       l3133 09E2                       l3125 09C6  
                     l3117 09A8                       l3109 0982                       l3301 1016  
                     l3311 1138                       l3215 0B9D                       l3207 0B83  
                     l3223 0BAC                       l3151 0A53                       l3143 0A02  
                     l3135 09E8                       l3127 09CE                       l3119 09B0  
                     l3071 091A                       l3303 101D                       l3065 1F59  
                     l3321 1151                       l3313 113E                       l3241 0BFD  
                     l3233 0BC3                       l3225 0BAE                       l3217 0B9F  
                     l3209 0B8C                       l3161 0A76                       l3153 0A60  
                     l3137 09EE                       l3129 09D4                       l3145 0A0A  
                     l3081 0938                       l3073 0920                       l3305 1023  
                     l2601 103E                       l3331 116F                       l3323 1157  
                     l3315 1143                       l3251 0C22                       l3243 0C0B  
                     l3235 0BC9                       l3227 0BB2                       l3219 0BA4  
                     l3171 0A98                       l3155 0A62                       l3163 0A7C  
                     l3147 0A0C                       l3139 09F6                       l3091 0954  
                     l3083 093B                       l3075 0923                       l3067 0907  
                     l3411 1FA9                       l3403 1237                       l2611 1043  
                     l2603 103F                       l3341 1199                       l3333 1175  
                     l3325 115B                       l3317 1147                       l3309 1135  
                     l3501 06C2                       l3421 0546                       l3261 1FCC  
                     l3253 0C26                       l3245 0C10                       l3237 0BD9  
                     l3229 0BB8                       l3181 0ACA                       l3173 0AB1  
                     l3165 0A88                       l3157 0A68                       l3149 0A29  
                     l3093 0955                       l3077 0929                       l3085 093D  
                     l3069 0910                       l3405 124B                       l2621 104E  
                     l2613 1046                       l2605 1040                       l3343 11A1  
                     l3335 117B                       l3327 1163                       l3319 114C  
                     l3511 06E4                       l3503 06C4                       l3431 0561  
                     l3423 0549                       l3415 052D                       l3271 1FF5  
                     l3263 1FCE                       l3255 0C2A                       l3247 0C1A  
                     l3239 0BDD                       l3191 0AFD                       l3183 0AD0  
                     l3175 0AB5                       l3167 0A8D                       l3159 0A6B  
                     l3095 095F                       l3087 0947                       l3079 092E  
                     l3407 1250                       l2623 1050                       l2615 1049  
                     l2607 1041                       l3281 1F96                       l3337 1190  
                     l3329 1168                       l3345 11A9                       l3521 071B  
                     l3505 06CD                       l3513 06EC                       l3441 0584  
                     l3425 0550                       l3433 0563                       l3417 0536  
                     l3361 137A                       l3353 1318                       l3265 1FDD  
                     l3601 0CB2                       l3257 0C3B                       l3249 0C21  
                     l3193 0B3B                       l3185 0AD3                       l3177 0ABB  
                     l3097 0965                       l3089 094E                       l3409 1FA5  
                     l2625 1057                       l2617 104A                       l2609 1042  
                     l3283 1FA1                       l3275 1F8C                       l3291 1F7E  
                     l3347 11B0                       l3339 1196                       l3531 0740  
                     l3515 06F2                       l3507 06D3                       l3451 059F  
                     l3443 0587                       l3435 056D                       l3427 0555  
                     l3419 0540                       l3363 13C2                       l3355 133C  
                     l3267 1FE1                       l3611 0D52                       l3603 0CCC  
                     l3259 0C41                       l3195 0B43                       l3187 0ADE  
                     l3179 0AC8                       l3099 0968                       l2627 105A  
                     l2619 104B                       l3277 1F8D                       l3293 1F85  
                     l3285 1F74                       l3349 11B5                       l3541 078F  
                     l3533 0759                       l3525 0725                       l3517 06F5  
                     l3509 06D6                       l3445 058E                       l3453 05A1  
                     l3437 0574                       l3429 055F                       l3365 13C6  
                     l3357 136A                       l3269 1FF0                       l3621 0DCA  
                     l3613 0D6E                       l3605 0CD9                       l3197 0B48  
                     l3189 0AE5                       l3381 11FF                       l3373 11C0  
                     l3701 0857                       l3279 1F93                       l3287 1F75  
                     l3551 07B2                       l3543 0793                       l3527 072C  
                     l3535 0761                       l3519 06F9                       l3471 0600  
                     l3455 05B3                       l3463 05D0                       l3447 0593  
                     l3439 057E                       l3367 1424                       l3359 1374  
                     l3631 0E78                       l3623 0DE4                       l3615 0D8A  
                     l3607 0D00                       l3199 0B59                       l3383 1202  
                     l3375 11CF                       l3295 1001                       l3711 0885  
                     l3703 0867                       l2591 1028                       l3289 1F7B  
                     l3545 079D                       l3537 0770                       l3529 073C  
                     l3481 0633                       l3473 0618                       l3465 05D7  
                     l3457 05BF                       l3449 059D                       l3369 1426  
                     l3641 0F20                       l3633 0E92                       l3625 0E01  
                     l3617 0D93                       l3609 0D1C                       l3561 0C52  
                     l3385 120A                       l3297 1005                       l3721 08BB  
                     l3713 0892                       l3705 0877                       l3801 0115  
                     l2593 102C                       l3547 07AA                       l3539 0780  
                     l3491 0683                       l3483 064B                       l3475 0622  
                     l3459 05C7                       l3651 0F45                       l3643 0F2E  
                     l3635 0EC9                       l3627 0E24                       l3619 0DAD  
                     l3571 0C69                       l3563 0C56                       l3395 121A  
                     l3387 120E                       l3379 11DA                       l3299 1009  
                     l3731 08F4                       l3723 08C6                       l3715 0899  
                     l3811 015C                       l3803 011A                       l2595 102D  
                     l3741 0800                       l3549 07AE                       l3493 0684  
                     l3485 0651                       l3477 062C                       l3469 05E2  
                     l3661 0F68                       l3645 0F37                       l3653 0F4B  
                     l3637 0EEF                       l3629 0E41                       l3581 0C82  
                     l3573 0C6B                       l3565 0C57                       l3557 0C45  
                     l3389 1212                       l3397 1230                       l3733 08F9  
                     l3725 08CA                       l3717 089D                       l3709 0880  
                     l3813 023A                       l3805 011F                       l3821 027A  
                     l2597 103A                       l3901 1519                       l3751 1F64  
                     l3743 0806                       l3495 06AC                       l3487 0654  
                     l3479 062E                       l3671 0F87                       l3655 0F4F  
                     l3647 0F3B                       l3639 0F17                       l3591 0C97  
                     l3583 0C83                       l3575 0C73                       l3567 0C5C  
                     l3559 0C4C                       l3735 08FD                       l3727 08D4  
                     l3719 08AB                       l3831 029D                       l3823 0280  
                     l3815 0268                       l3807 0140                       l2599 103D  
                     l3911 1548                       l3903 151C                       l3745 0811  
                     l3761 07EB                       l3753 07D0                       l3489 0662  
                     l3497 06B4                       l3681 0FCD                       l3673 0FA0  
                     l3665 0F70                       l3657 0F50                       l3649 0F3C  
                     l3593 0C9F                       l3585 0C88                       l3577 0C78  
                     l3569 0C61                       l3737 08FE                       l3729 08DE  
                     l3841 0385                       l3833 02BE                       l3825 0290  
                     l3817 0270                       l3809 0146                       l3913 1552  
                     l3905 1524                       l3747 0822                       l3763 07F4  
                     l3755 07D5                       l3771 109B                       l3499 06BA  
                     l3691 0FEC                       l3683 0FD7                       l3667 0F75  
                     l3675 0FA6                       l3659 0F54                       l3595 0CA4  
                     l3587 0C8D                       l3579 0C7E                       l3851 03B1  
                     l3843 03A0                       l3835 02C4                       l3827 0298  
                     l3819 0276                       l3915 155A                       l3907 152F  
                     l3749 0828                       l3757 07DE                       l3765 1062  
                     l3693 0FF7                       l3685 0FD9                       l3677 0FB3  
                     l3669 0F83                       l3597 0CA9                       l3589 0C95  
                     l3861 03F8                       l3853 03B6                       l3845 03A0  
                     l3837 02DA                       l3829 0298                       l3781 005D  
                     l3773 0032                       l3917 1562                       l3909 153D  
                     l3759 07E5                       l3767 1067                       l3687 0FE7  
                     l3679 0FBE                       l3863 04D6                       l3855 03BB  
                     l3871 0516                       l3847 03A6                       l3839 037D  
                     l3791 00D4                       l3783 0061                       l3775 0059  
                     l3769 1093                       l3689 0FEB                       l3697 084E  
                     l3873 051C                       l3865 0504                       l3857 03DC  
                     l3849 03AB                       l3793 00DD                       l3785 0061  
                     l3777 0059                       l3881 144F                       l3699 0853  
                     l3867 050C                       l3859 03E2                       l3795 0100  
                     l3787 0088                       l3779 005B                       l3891 14F6  
                     l3883 1468                       l3875 1428                       l3869 0512  
                     l3789 00C7                       l3797 0106                       l3893 14FC  
                     l3885 1476                       l3877 1437                       l3799 010F  
                     l3895 1507                       l3887 1481                       l3879 1444  
                     l3897 150E                       l3889 14C9                       l3899 1512  
                     ?_isr 0070                       STR_1 1810                       STR_2 1815  
                     STR_3 1819                       STR_4 181D                       u5000 0AFD  
                     u5001 0AFC                       u5011 0B14                       u5003 0AF9  
                     u5100 0BAC                       u5020 0B28                       u5012 0B15  
                     u5101 0BAB                       u5021 0B29                       u5013 0B1A  
                     u5110 0BB2                       u5030 0B48                       u5022 0B2E  
                     u5014 0B1B                       u5111 0BB1                       u5031 0B47  
                     u5023 0B2F                       u5015 0B20                       u5200 0C21  
                     u5120 0BB8                       u5040 0B71                       u5016 0B21  
                     u6001 0DBC                       u5201 0C20                       u5121 0BB7  
                     u5041 0B70                       u6002 0DC3                       u5210 0C26  
                     u5130 0BC2                       u5050 0B78                       u6011 0DF3  
                     u6003 0DCA                       u5211 0C25                       u5131 0BC1  
                     u5051 0B77                       u5300 113E                       u6012 0DFA  
                     u5220 0C41                       u5140 0BC9                       u5301 113D  
                     u6013 0E01                       u5221 0C40                       u5141 0BC8  
                     u5310 114C                       u5230 1FE1                       u5150 0BDD  
                     u5070 0B92                       u5311 114B                       u5231 1FE0  
                     u6031 0E33                       u5151 0BDC                       u5071 0B91  
                     u5320 1163                       u5400 133C                       u6200 0F96  
                     u6120 0F3B                       u6032 0E3A                       u5160 0BEC  
                     u5080 0B9A                       u5321 1162                       u5401 133B  
                     u6121 0F3A                       u6105 0F19                       u6041 0E6A  
                     u6033 0E41                       u6025 0E03                       u5081 0B99  
                     u5065 0B85                       u5410 136A                       u5250 1FF5  
                     u6210 0FB3                       u6042 0E71                       u5170 0BFD  
                     u5090 0BA4                       u5411 1369                       u5251 1FF4  
                     u6211 0FB2                       u6115 0F30                       u6051 0EA1  
                     u6043 0E78                       u5171 0BFC                       u5091 0BA3  
                     u5340 117B                       u5420 137A                       u6220 0FCD  
                     u6140 0F4F                       u6060 0ED5                       u6052 0EA8  
                     u5180 0C0B                       u5500 1219                       u5260 1009  
                     u6300 08BA                       u5341 117A                       u5421 1379  
                     u5245 1FE8                       u6221 0FCC                       u6205 0F91  
                     u6141 0F4E                       u6053 0EAF                       u5181 0C0A  
                     u5165 0BE7                       u5501 1218                       u5261 1008  
                     u6301 08B9                       u6230 0FEB                       u6150 0F54  
                     u5190 0C10                       u5335 1169                       u5431 1391  
                     u6231 0FEA                       u6215 0FAF                       u6151 0F53  
                     u6135 0F3E                       u6071 0EE1                       u5191 0C0F  
                     u6400 107B                       u5360 1190                       u5600 0584  
                     u5440 13C6                       u5432 1394                       u6160 0F68  
                     u6080 0EFD                       u6072 0EE8                       u4800 0954  
                     u5520 122F                       u6320 08CA                       u6240 0853  
                     u5361 118F                       u5601 0583                       u5441 13C5  
                     u5433 139B                       u6225 0FC9                       u6161 0F67  
                     u6073 0EEF                       u6065 0ED0                       u4801 0953  
                     u5521 122E                       u6321 08C9                       u6241 0852  
                     u6410 10AD                       u5610 058E                       u5434 139E  
                     u6170 0F6F                       u4810 0965                       u5530 1236  
                     u5290 1023                       u6330 08D0                       u6250 0857  
                     u5355 117E                       u5611 058D                       u5451 13DD  
                     u5435 13A5                       u6171 0F6E                       u6091 0F09  
                     u4811 0964                       u5531 1235                       u5515 121B  
                     u5291 1022                       u5275 1010                       u6331 08CF  
                     u6315 08BF                       u6251 0856                       u6420 10C5  
                     u5380 11A9                       u5700 0683                       u5620 0593  
                     u5460 1424                       u5452 13E0                       u5436 13A8  
                     u6180 0F75                       u6092 0F10                       u4900 0A68  
                     u4820 096E                       u6340 08D4                       u6260 0877  
                     u6500 03F8                       u6421 10C4                       u5381 11A8  
                     u5365 118C                       u5701 0682                       u5621 0592  
                     u5461 1423                       u5453 13E7                       u6181 0F74  
                     u6093 0F17                       u6085 0EF8                       u4901 0A67  
                     u4821 096D                       u5285 1017                       u6341 08D3  
                     u6261 0876                       u6501 03F7                       u5390 11B0  
                     u5710 06A8                       u5630 05B3                       u5454 13EA  
                     u6190 0F87                       u4830 0973                       u5550 124B  
                     u5470 11CF                       u6350 08E9                       u6510 051C  
                     u6430 0088                       u5391 11AF                       u5375 119B  
                     u5631 05B2                       u5455 13F1                       u6191 0F86  
                     u4831 0972                       u5551 124A                       u5471 11CE  
                     u6511 051B                       u6431 0087                       u5800 0724  
                     u5720 06BA                       u5640 05D7                       u5456 13F4  
                     u4920 0A84                       u4840 0994                       u5560 1250  
                     u5480 11F8                       u6360 08F9                       u6280 0898  
                     u6440 010E                       u6520 14FC                       u5801 0723  
                     u5721 06B9                       u5705 067F                       u5641 05D6  
                     u5465 1420                       u4921 0A83                       u4841 0993  
                     u5561 124F                       u5545 1239                       u6361 08F8  
                     u6281 0897                       u6505 03F4                       u6441 010D  
                     u6521 14FB                       i1l82 112C                       u5810 072C  
                     u5730 06C2                       u5650 0633                       u5570 0546  
                     u4930 0A88                       u4850 0998                       u4770 0920  
                     u5490 1212                       u6370 08FD                       u6450 0115  
                     u6530 1507                       u5811 072B                       u5731 06C1  
                     u5715 0691                       u5651 0632                       u5571 0545  
                     u4931 0A87                       u4915 0A6F                       u4851 0997  
                     u4771 091F                       u5491 1211                       u6371 08FC  
                     u6355 08E4                       u6275 088A                       u6451 0114  
                     u6531 1506                       u6380 07D5                       u5820 0740  
                     u5716 0694                       u5580 0550                       u5900 0C82  
                     u4940 0A8D                       u4860 0A29                       u4780 0929  
                     u6460 015C                       u6381 07D4                       u5821 073F  
                     u5717 069B                       u5581 054F                       u5901 0C81  
                     u4941 0A8C                       u4861 0A28                       u4781 0928  
                     u5485 11F3                       u6461 015B                       u6390 07EB  
                     u5830 074F                       u5750 06D3                       u5718 069E  
                     u5590 0555                       u5910 0C88                       u4870 0A34  
                     u4790 092E                       u6470 0280                       u6607 082E  
                     u6391 07EA                       u5751 06D2                       u5719 06A5  
                     u5591 0554                       u5911 0C87                       u4951 0AA3  
                     u4871 0A32                       u4791 092D                       u6295 08AC  
                     u6471 027F                       u5840 0770                       u5680 0651  
                     u5920 0C8D                       u4960 0AB5                       u4952 0AAA  
                     u4880 0A35                       u6480 02DA                       u6617 1F9C  
                     u5841 076F                       u5745 06C6                       u5681 0650  
                     u5665 0637                       u5921 0C8C                       u4961 0AB4  
                     u4953 0AB1                       u4865 0A25                       u6481 02D9  
                     u6465 0158                       u5850 078F                       u5770 06F2  
                     u5930 0CA4                       u4970 0ABB                       u4890 0A53  
                     u6490 03B1                       u5851 078E                       u5835 074A  
                     u5771 06F1                       u5675 0644                       u5931 0CA3  
                     u4971 0ABA                       u4891 0A52                       u6491 03B0  
                     u6547 1516                       u5860 07AE                       u5780 06F9  
                     u5940 0CA9                       u4980 0AD0                       u5861 07AD  
                     u5845 076C                       u5781 06F8                       u5765 06D9  
                     u5941 0CA8                       u4981 0ACF                       u6485 02D6  
                     u6557 1054                       u5790 071B                       u5870 0C56  
                     u5855 078B                       u5791 071A                       u5695 0657  
                     u5951 0D0E                       u5871 0C55                       u6567 105E  
                     u5952 0D15                       u5880 0C5C                       u6577 1F82  
                     u5961 0D2A                       u5953 0D1C                       u5881 0C5B  
                     u5962 0D31                       u5890 0C61                       u6587 080C  
                     u5971 0D60                       u5963 0D38                       u5891 0C60  
                     u4995 0AD7                       u5972 0D67                       u6597 081D  
                     u5981 0D7C                       u5973 0D6E                       u5982 0D83  
                     u5983 0D8A                       u5995 0D8C                       _adc1 0054  
                     _adc2 0053                       _lec1 004E          ?_Lcd_Write_String 003E  
                     _main 1428                       btemp 007E             i1___fladd@aexp 0031  
           i1___fladd@bexp 0032                       start 0010         ??_Lcd_Write_String 00A0  
          ___fldiv@new_exp 0195            __end_of_Lcd_Cmd 1FA5                      ??_isr 0034  
            ___fltol@sign1 00A5            __end_of___fladd 0C45                      ?_main 0070  
          __end_of___fldiv 07CD            __end_of___awdiv 11C0            __end_of___flmul 1000  
          __end_of___flsub 1FC9            __end_of___fltol 125E                      _ANSEL 0188  
          ___awdiv@divisor 003B                      i1l540 15DB                      i1l544 1682  
                    i1l561 174D                      i1l553 17FF                      i1l546 1659  
                    i1l571 1793                      i1l565 1771                      i1l582 17F3  
                    i1l574 17D1                      i1l583 17FF                      i1l680 1280  
                    i1l682 1317                      i1l693 12E1                      i1l694 12ED  
                    i1l686 12C5            ___awdiv@counter 00A0                      _PORTA 0005  
                    _PORTB 0006                      _PORTC 0007                      _PORTD 0008  
  __size_of_Lcd_Set_Cursor 002E                      _TRISA 0085                      _TRISB 0086  
                    _TRISC 0087                      _TRISD 0088                convert@data 01A7  
              convert@temp 01A3            __end_of_convert 052D                      _cont1 01B3  
                    _conv1 01C1                      _conv2 01BD                      _conv3 004A  
                    _setup 1028                      _volt1 00EC                      pclath 000A  
                    status 0003                      wtemp0 007E         __size_ofi1___fladd 0288  
          i1___fladd@signs 0030           __end_of_Lcd_Init 084B           __end_of_Lcd_Port 1F5C  
          __initialization 0013               __end_of_main 1578                     ??_main 01B2  
              ?i1___xxtofl 0070         __size_of_Lcd_Clear 000D                     _ADRESH 001E  
                   _ADRESL 009E           ___awdiv@dividend 003D                     ?_setup 0070  
                   _ANSELH 0189                     i1l3001 10C6                     i1l3011 112B  
                   i1l3003 10CA                     i1l3005 10D3                     i1l3007 10F0  
                   i1l3009 1129                     i1l2801 15D0                     i1l2811 15E9  
                   i1l2803 15D1                     i1l2821 15FD                     i1l2813 15ED  
                   i1l2805 15D3                     i1l2911 1778                     i1l2903 1763  
                   i1l2831 1611                     i1l2823 1601                     i1l2815 15F1  
                   i1l2807 15E1                     i1l2921 1786                     i1l2913 177A  
                   i1l2905 176C                     i1l2833 1615                     i1l2825 1605  
                   i1l2817 15F5                     i1l2809 15E5                     i1l2841 1625  
                   i1l2931 179D                     i1l2923 178A                     i1l2915 177F  
                   i1l2907 1770                     i1l2851 1668                     i1l2843 1626  
                   i1l2835 1619                     i1l2827 1609                     i1l2819 15F9  
                   i1l2771 158A                     i1l2763 1578                     i1l2941 17DB  
                   i1l2933 17AB                     i1l2925 1790                     i1l2909 1775  
                   i1l2917 1781                     i1l2861 1686                     i1l2853 166C  
                   i1l2845 163D                     i1l2837 161D                     i1l2829 160D  
                   i1l2773 158F                     i1l2781 159F                     i1l2765 157F  
                   i1l2951 17EF                     i1l2943 17E3                     i1l2935 17AF  
                   i1l2871 16AF                     i1l2919 1785                     i1l2863 168B  
                   i1l2855 166D                     i1l2847 165D                     i1l2839 1621  
                   i1l2791 15B9                     i1l2783 15A7                     i1l2775 1594  
                   i1l2767 1585                     i1l2953 17FA                     i1l2945 17E8  
                   i1l2937 17CD                     i1l2929 1798                     i1l2881 16C3  
                   i1l2873 16B3                     i1l2857 1676                     i1l2849 1666  
                   i1l2793 15BD                     i1l2785 15AC                     i1l2777 159C  
                   i1l2769 1589                     i1l2961 1268                     i1l2955 17FE  
                   i1l2947 17E9                     i1l2939 17D6                     i1l2891 172B  
                   i1l2883 16CC                     i1l2875 16BC                     i1l2867 1694  
                   i1l2859 167A                     i1l2795 15BE                     i1l2787 15B2  
                   i1l2779 159D                     i1l2971 1296                     i1l2963 1278  
                   i1l2949 17ED                     i1l2893 1730                     i1l2877 16BE  
                   i1l2869 16AB                     i1l2885 16D1                     i1l2797 15C3  
                   i1l2789 15B3                     i1l2981 12CC                     i1l2973 12A3  
                   i1l2965 1288                     i1l2957 125F                     i1l2887 16E7  
                   i1l2895 173F                     i1l2879 16C2                     i1l2799 15C8  
                   i1l2991 1305                     i1l2983 12D7                     i1l2975 12AA  
                   i1l2959 1264                     i1l2897 1755                     i1l2889 1725  
                   i1l2993 130A                     i1l2985 12DB                     i1l2977 12AE  
                   i1l2969 1291                     i1l2899 175A                     i1l2995 130E  
                   i1l2987 12E5                     i1l2979 12BC                     i1l2997 130F  
                   i1l2989 12EF                     u420_20 15E1                     u420_21 15E0  
                   u421_20 15E5                     u413_20 1589                     u421_21 15E4  
                   u413_21 1588                     u430_20 168B                     u422_20 163D  
                   u414_20 158F                     u430_21 168A                     u422_21 163C  
                   u414_21 158E                     u422_25 1639                     u423_20 1648  
                   u415_20 1594                     u431_21 169D                     u423_21 1646  
                   u415_21 1593                     u431_22 16A4                     u431_23 16AB  
                   u440_20 1755                     u432_20 16AF                     u424_20 1649  
                   u416_20 15B2                     u440_21 1754                     u432_21 16AE  
                   u416_21 15B1                     u441_20 175A                     u433_20 16B3  
                   u425_20 165D                     u417_20 15BD                     u441_21 1759  
                   u433_21 16B2                     u425_21 165C                     u417_21 15BC  
                   u450_20 179D                     u434_20 16C2                     u426_20 166C  
                   u418_20 15C3                     u450_21 179C                     u434_21 16C1  
                   u426_21 166B                     u418_21 15C2                     u442_25 1765  
                   u451_20 17AF                     u443_20 1770                     u419_20 15C8  
                   u451_21 17AE                     u443_21 176F                     u419_21 15C7  
                   u435_25 16C5                     u427_25 166F                     u452_20 17BE  
                   u444_20 1775                     u436_20 16E7                     u428_20 1682  
                   u460_20 1268                     u444_21 1774                     u436_21 16E6  
                   u428_21 1681                     u460_21 1267                     u436_23 16E3  
                   u452_25 17B9                     u453_20 17CD                     u445_20 177F  
                   u429_20 1686                     u461_20 1288                     u453_21 17CC  
                   u445_21 177E                     u437_21 16FE                     u429_21 1685  
                   u461_21 1287                     u437_22 16FF                     u437_23 1704  
                   u437_24 1705                     u437_25 170A                     u437_26 170B  
                   u454_20 17D6                     u446_20 1785                     u438_20 1712  
                   u470_20 12FA                     u454_21 17D5                     u446_21 1784  
                   u438_21 1713                     u438_22 1718                     u438_23 1719  
                   u470_25 12F5                     u462_25 129B                     u455_20 17DB  
                   u447_20 178A                     u439_20 1730                     u471_20 130A  
                   u463_20 12A9                     u455_21 17DA                     u447_21 1789  
                   u439_21 172F                     u471_21 1309                     u463_21 12A8  
                   u456_20 17E8                     u448_20 1790                     u472_20 130E  
                   u456_21 17E7                     u448_21 178F                     u472_21 130D  
                   u464_25 12BD                     u457_20 17ED                     u449_20 1797  
                   u465_20 12CB                     u473_20 10CA                     u457_21 17EC  
                   u449_21 1796                     u465_21 12CA                     u473_21 10C9  
                   u458_20 17FE                     u474_20 10D3                     u458_21 17FD  
                   u474_21 10D2                     u466_25 12D0                     u467_20 12DB  
                   u459_20 1264                     u467_21 12DA                     u459_21 1263  
                   u468_20 12E1                     u468_21 12E0                     u469_20 12E5  
                   u469_21 12E4                  ??_Lcd_Cmd 003C    __size_of_Lcd_Write_Char 0018  
         __end_of___xxtofl 0907                     ___flge 1318               convert@place 01A1  
                ??___fladd 00A8                     ___wmul 1001                  ??___fldiv 00E5  
                ??___awdiv 003F                  ??___flmul 00CB                  ??___flsub 003F  
                ??___fltol 00A0           ___awdiv@quotient 00A2          __end_ofi1___fladd 1800  
                ??_convert 00EA         __size_of__Umul8_16 0037                     saved_w 007E  
          Lcd_Set_Cursor@a 00A1            Lcd_Set_Cursor@b 003F                 ___flge@ff1 00A0  
               ___flge@ff2 00A4               ___xxtofl@arg 00B7               ___xxtofl@exp 00B6  
             ___xxtofl@val 00AD    __end_of__initialization 002B          __end_of_Lcd_Clear 1F71  
      __size_ofi1___xxtofl 00BA                 ___fltol@f1 003B             __pcstackCOMMON 0070  
            __end_of_setup 1062             _Lcd_Set_Cursor 07CD                  ?_Lcd_Init 0070  
                ?_Lcd_Port 0070                    ??_setup 003B                 __pbssBANK0 0040  
               __pbssBANK1 00EC                 __pbssBANK3 01B3             i1___xxtofl@arg 007A  
           i1___xxtofl@exp 0079             i1___xxtofl@val 0070          __end_of__Umul8_16 2000  
               __pmaintext 1428                    ?___flge 00A0                    ?___wmul 00A7  
               __pintentry 0004  __size_of_Lcd_Write_String 0064     __end_of_Lcd_Set_Cursor 07FB  
                ?___xxtofl 00AD                 ??_Lcd_Init 00A0                 ??_Lcd_Port 003B  
               __stringtab 1800             _Lcd_Write_Char 1F71                    _Lcd_Cmd 1F89  
            convert@digits 01AE            __size_of___flge 0110                    ___fladd 0907  
                  ___fldiv 052D                    ___awdiv 1135                    ___flmul 0C45  
                  ___flsub 1FA5                    ___fltol 11C0            __size_of___wmul 0027  
          ?_Lcd_Set_Cursor 003F               ??i1___xxtofl 0074                    __ptext1 1028  
                  __ptext2 002F                    __ptext3 084B                    __ptext4 1001  
                  __ptext5 11C0                    __ptext6 1FA5                    __ptext7 0907  
                  __ptext8 0C45                    __ptext9 1FC9                    _convert 002F  
             __size_of_isr 006F                 ??___xxtofl 00B1                    _sensor2 0040  
                  clrloop0 1F5D     __end_of_Lcd_Write_Char 1F89       end_of_initialization 002B  
       __end_ofi1___xxtofl 1318                  Lcd_Port@a 003B                  _PORTCbits 0007  
              ___fladd@grs 003E              ___xxtofl@sign 00B5                  i1___fladd 1578  
              ___fldiv@grs 0197                ___fldiv@rem 0190            ?_Lcd_Write_Char 0070  
        Lcd_Write_String@a 003E          Lcd_Write_String@i 00A3                ___flmul@grs 00D2  
                _Lcd_Clear 1F64             __end_of___flge 1428             __end_of___wmul 1028  
         _Lcd_Write_String 1062        start_initialization 0013                 ?i1___fladd 0020  
              __end_of_isr 1135          __size_of_Lcd_Init 004B          __size_of_Lcd_Port 0006  
               ?_Lcd_Clear 0070                   ??___flge 003B                   ??___wmul 003F  
                __Umul8_16 1FC9            Lcd_Write_Char@a 003D                  ___fladd@a 00A4  
                ___fladd@b 00A0                  ___fldiv@a 00DD                  ___fldiv@b 00E1  
                ___flmul@a 00C7                  ___flmul@b 00C3                  ___flsub@a 00BB  
                ___flsub@b 00BF                  ___latbits 0002              __pcstackBANK0 0020  
            __pcstackBANK1 00A0              __pcstackBANK3 0190          __size_of___xxtofl 00BC  
          i1___xxtofl@sign 0078                   ?_Lcd_Cmd 0070           ??_Lcd_Set_Cursor 00A0  
                 ?___fladd 00A0                   ?___fldiv 00DD                   ?___awdiv 003B  
                 ?___flmul 00C3                   ?___flsub 00BB                   ?___fltol 003B  
               ?__Umul8_16 003B                  __pstrings 1800                   ?_convert 019D  
              ??i1___fladd 0028             __size_of_setup 003A          interrupt_function 0004  
           ___wmul@product 00AB                  clear_ram0 1F5C                   _PIE1bits 008C  
                 Lcd_Cmd@a 003E                   _PIR1bits 000C                ??_Lcd_Clear 003F  
               _ADCON0bits 001F                __stringbase 180F                 _ADCON1bits 009F  
        ___wmul@multiplier 00A7           ??_Lcd_Write_Char 003C                   _Lcd_Init 0800  
                 _Lcd_Port 1F56                  convert@mu 01B0   __end_of_Lcd_Write_String 10C6  
         __size_of_Lcd_Cmd 001C                ??__Umul8_16 003D           __size_of___fladd 033E  
         __size_of___fldiv 02A0           __size_of___awdiv 008B           __size_of___flmul 03BB  
         __size_of___flsub 0024           __size_of___fltol 009E         __end_of__stringtab 1810  
         __size_of_convert 04FE                   ___xxtofl 084B                   __ptext10 1318  
                 __ptext11 052D                   __ptext20 10C6                   __ptext12 1135  
                 __ptext21 125E                   __ptext13 1062                   __ptext22 1578  
                 __ptext14 1F71                   __ptext15 07CD                   __ptext16 0800  
                 __ptext17 1F64                   __ptext18 1F89                   __ptext19 1F56  
                 _contador 0052              __size_of_main 0150                   _sen_temp 01C5  
                 convert@a 019D                   convert@i 01AC                   convert@j 01A5  
                 convert@x 01A8                 _INTCONbits 000B                   intlevel1 0000  
                stringcode 180A                 _OSCCONbits 008F         Lcd_Set_Cursor@temp 00A2  
   __Umul8_16@multiplicand 003B                _temperatura 01C9                   stringdir 180A  
                 stringtab 1800              ___fladd@signs 003B               ___fladd@aexp 003C  
             ___fladd@bexp 003D       __Umul8_16@multiplier 00A4          __Umul8_16@product 00A0  
