

Microchip MPLAB XC8 Assembler V2.31 build 20201012212115 
                                                                                               Sun Sep 05 23:55:52 2021

Microchip MPLAB XC8 C Compiler v2.31 (Free license) build 20201012212115 Og1 
     1                           	processor	16F887
     2                           	pagewidth 120
     3                           	opt	flic
     4                           	psect	idataBANK1,global,class=CODE,delta=2,noexec
     5                           	psect	strings,global,class=STRING,delta=2,noexec
     6                           	psect	cinit,global,class=CODE,merge=1,delta=2
     7                           	psect	bssCOMMON,global,class=COMMON,space=1,delta=1,noexec
     8                           	psect	bssBANK0,global,class=BANK0,space=1,delta=1,noexec
     9                           	psect	bssBANK1,global,class=BANK1,space=1,delta=1,noexec
    10                           	psect	dataBANK1,global,class=BANK1,space=1,delta=1,noexec
    11                           	psect	bssBANK3,global,class=BANK3,space=1,delta=1,noexec
    12                           	psect	inittext,global,class=CODE,delta=2
    13                           	psect	clrtext,global,class=CODE,delta=2
    14                           	psect	cstackBANK1,global,class=BANK1,space=1,delta=1,noexec
    15                           	psect	cstackCOMMON,global,class=COMMON,space=1,delta=1,noexec
    16                           	psect	cstackBANK0,global,class=BANK0,space=1,delta=1,noexec
    17                           	psect	maintext,global,class=CODE,split=1,delta=2
    18                           	psect	text1,local,class=CODE,merge=1,delta=2
    19                           	psect	text2,local,class=CODE,merge=1,delta=2
    20                           	psect	text3,local,class=CODE,merge=1,delta=2
    21                           	psect	text4,local,class=CODE,merge=1,delta=2
    22                           	psect	text5,local,class=CODE,merge=1,delta=2,group=1
    23                           	psect	text6,local,class=CODE,merge=1,delta=2
    24                           	psect	text7,local,class=CODE,merge=1,delta=2
    25                           	psect	text8,local,class=CODE,merge=1,delta=2
    26                           	psect	text9,local,class=CODE,merge=1,delta=2
    27                           	psect	text10,local,class=CODE,merge=1,delta=2,group=1
    28                           	psect	text11,local,class=CODE,merge=1,delta=2,group=1
    29                           	psect	text12,local,class=CODE,merge=1,delta=2,group=1
    30                           	psect	text13,local,class=CODE,merge=1,delta=2,group=1
    31                           	psect	text14,local,class=CODE,merge=1,delta=2,group=1
    32                           	psect	text15,local,class=CODE,merge=1,delta=2,group=1
    33                           	psect	text16,local,class=CODE,merge=1,delta=2,group=1
    34                           	psect	text17,local,class=CODE,merge=1,delta=2,group=1
    35                           	psect	text18,local,class=CODE,merge=1,delta=2,group=1
    36                           	psect	text19,local,class=CODE,merge=1,delta=2
    37                           	psect	text20,local,class=CODE,merge=1,delta=2
    38                           	psect	text21,local,class=CODE,merge=1,delta=2
    39                           	psect	text22,local,class=CODE,merge=1,delta=2
    40                           	psect	text23,local,class=CODE,merge=1,delta=2
    41                           	psect	text24,local,class=CODE,merge=1,delta=2
    42                           	psect	text25,local,class=CODE,merge=1,delta=2
    43                           	psect	text26,local,class=CODE,merge=1,delta=2
    44                           	psect	text27,local,class=CODE,merge=1,delta=2
    45                           	psect	text28,local,class=CODE,merge=1,delta=2
    46                           	psect	text29,local,class=CODE,merge=1,delta=2
    47                           	psect	intentry,global,class=CODE,delta=2
    48                           	psect	config,global,abs,ovrld,class=CONFIG,space=4,delta=2,noexec
    49                           	dabs	1,0x7E,2
    50  0000                     
    51                           ; Version 2.20
    52                           ; Generated 12/02/2020 GMT
    53                           ; 
    54                           ; Copyright © 2020, Microchip Technology Inc. and its subsidiaries ("Microchip")
    55                           ; All rights reserved.
    56                           ; 
    57                           ; This software is developed by Microchip Technology Inc. and its subsidiaries ("Microch
      +                          ip").
    58                           ; 
    59                           ; Redistribution and use in source and binary forms, with or without modification, are
    60                           ; permitted provided that the following conditions are met:
    61                           ; 
    62                           ;     1. Redistributions of source code must retain the above copyright notice, this lis
      +                          t of
    63                           ;        conditions and the following disclaimer.
    64                           ; 
    65                           ;     2. Redistributions in binary form must reproduce the above copyright notice, this 
      +                          list
    66                           ;        of conditions and the following disclaimer in the documentation and/or other
    67                           ;        materials provided with the distribution.
    68                           ; 
    69                           ;     3. Microchip's name may not be used to endorse or promote products derived from th
      +                          is
    70                           ;        software without specific prior written permission.
    71                           ; 
    72                           ; THIS SOFTWARE IS PROVIDED BY MICROCHIP "AS IS" AND ANY EXPRESS OR IMPLIED WARRANTIES,
    73                           ; INCLUDING, BUT NOT LIMITED TO, THE IMPLIED WARRANTIES OF MERCHANTABILITY AND FITNESS F
      +                          OR
    74                           ; PURPOSE ARE DISCLAIMED.  IN NO EVENT SHALL MICROCHIP BE LIABLE FOR ANY DIRECT, INDIREC
      +                          T,
    75                           ; INCIDENTAL, SPECIAL, EXEMPLARY, OR CONSEQUENTIAL DAMAGES (INCLUDING BUT NOT LIMITED TO
    76                           ; PROCUREMENT OF SUBSTITUTE GOODS OR SERVICES; LOSS OF USE, DATA OR PROFITS; OR BUSINESS
    77                           ; INTERRUPTION) HOWSOEVER CAUSED AND ON ANY THEORY OF LIABILITY, WHETHER IN CONTRACT, ST
      +                          RICT
    78                           ; LIABILITY, OR TORT (INCLUDING NEGLIGENCE OR OTHERWISE) ARISING IN ANY WAY OUT OF THE U
      +                          SE OF
    79                           ; THIS SOFTWARE, EVEN IF ADVISED OF THE POSSIBILITY OF SUCH DAMAGE.
    80                           ; 
    81                           ; 
    82                           ; Code-generator required, PIC16F887 Definitions
    83                           ; 
    84                           ; SFR Addresses
    85  0000                     	;# 
    86  0001                     	;# 
    87  0002                     	;# 
    88  0003                     	;# 
    89  0004                     	;# 
    90  0005                     	;# 
    91  0006                     	;# 
    92  0007                     	;# 
    93  0008                     	;# 
    94  0009                     	;# 
    95  000A                     	;# 
    96  000B                     	;# 
    97  000C                     	;# 
    98  000D                     	;# 
    99  000E                     	;# 
   100  000E                     	;# 
   101  000F                     	;# 
   102  0010                     	;# 
   103  0011                     	;# 
   104  0012                     	;# 
   105  0013                     	;# 
   106  0014                     	;# 
   107  0015                     	;# 
   108  0015                     	;# 
   109  0016                     	;# 
   110  0017                     	;# 
   111  0018                     	;# 
   112  0019                     	;# 
   113  001A                     	;# 
   114  001B                     	;# 
   115  001B                     	;# 
   116  001C                     	;# 
   117  001D                     	;# 
   118  001E                     	;# 
   119  001F                     	;# 
   120  0081                     	;# 
   121  0085                     	;# 
   122  0086                     	;# 
   123  0087                     	;# 
   124  0088                     	;# 
   125  0089                     	;# 
   126  008C                     	;# 
   127  008D                     	;# 
   128  008E                     	;# 
   129  008F                     	;# 
   130  0090                     	;# 
   131  0091                     	;# 
   132  0092                     	;# 
   133  0093                     	;# 
   134  0093                     	;# 
   135  0093                     	;# 
   136  0094                     	;# 
   137  0095                     	;# 
   138  0096                     	;# 
   139  0097                     	;# 
   140  0098                     	;# 
   141  0099                     	;# 
   142  009A                     	;# 
   143  009B                     	;# 
   144  009C                     	;# 
   145  009D                     	;# 
   146  009E                     	;# 
   147  009F                     	;# 
   148  0105                     	;# 
   149  0107                     	;# 
   150  0108                     	;# 
   151  0109                     	;# 
   152  010C                     	;# 
   153  010C                     	;# 
   154  010D                     	;# 
   155  010E                     	;# 
   156  010F                     	;# 
   157  0185                     	;# 
   158  0187                     	;# 
   159  0188                     	;# 
   160  0189                     	;# 
   161  018C                     	;# 
   162  018D                     	;# 
   163  0000                     	;# 
   164  0001                     	;# 
   165  0002                     	;# 
   166  0003                     	;# 
   167  0004                     	;# 
   168  0005                     	;# 
   169  0006                     	;# 
   170  0007                     	;# 
   171  0008                     	;# 
   172  0009                     	;# 
   173  000A                     	;# 
   174  000B                     	;# 
   175  000C                     	;# 
   176  000D                     	;# 
   177  000E                     	;# 
   178  000E                     	;# 
   179  000F                     	;# 
   180  0010                     	;# 
   181  0011                     	;# 
   182  0012                     	;# 
   183  0013                     	;# 
   184  0014                     	;# 
   185  0015                     	;# 
   186  0015                     	;# 
   187  0016                     	;# 
   188  0017                     	;# 
   189  0018                     	;# 
   190  0019                     	;# 
   191  001A                     	;# 
   192  001B                     	;# 
   193  001B                     	;# 
   194  001C                     	;# 
   195  001D                     	;# 
   196  001E                     	;# 
   197  001F                     	;# 
   198  0081                     	;# 
   199  0085                     	;# 
   200  0086                     	;# 
   201  0087                     	;# 
   202  0088                     	;# 
   203  0089                     	;# 
   204  008C                     	;# 
   205  008D                     	;# 
   206  008E                     	;# 
   207  008F                     	;# 
   208  0090                     	;# 
   209  0091                     	;# 
   210  0092                     	;# 
   211  0093                     	;# 
   212  0093                     	;# 
   213  0093                     	;# 
   214  0094                     	;# 
   215  0095                     	;# 
   216  0096                     	;# 
   217  0097                     	;# 
   218  0098                     	;# 
   219  0099                     	;# 
   220  009A                     	;# 
   221  009B                     	;# 
   222  009C                     	;# 
   223  009D                     	;# 
   224  009E                     	;# 
   225  009F                     	;# 
   226  0105                     	;# 
   227  0107                     	;# 
   228  0108                     	;# 
   229  0109                     	;# 
   230  010C                     	;# 
   231  010C                     	;# 
   232  010D                     	;# 
   233  010E                     	;# 
   234  010F                     	;# 
   235  0185                     	;# 
   236  0187                     	;# 
   237  0188                     	;# 
   238  0189                     	;# 
   239  018C                     	;# 
   240  018D                     	;# 
   241  0000                     	;# 
   242  0001                     	;# 
   243  0002                     	;# 
   244  0003                     	;# 
   245  0004                     	;# 
   246  0005                     	;# 
   247  0006                     	;# 
   248  0007                     	;# 
   249  0008                     	;# 
   250  0009                     	;# 
   251  000A                     	;# 
   252  000B                     	;# 
   253  000C                     	;# 
   254  000D                     	;# 
   255  000E                     	;# 
   256  000E                     	;# 
   257  000F                     	;# 
   258  0010                     	;# 
   259  0011                     	;# 
   260  0012                     	;# 
   261  0013                     	;# 
   262  0014                     	;# 
   263  0015                     	;# 
   264  0015                     	;# 
   265  0016                     	;# 
   266  0017                     	;# 
   267  0018                     	;# 
   268  0019                     	;# 
   269  001A                     	;# 
   270  001B                     	;# 
   271  001B                     	;# 
   272  001C                     	;# 
   273  001D                     	;# 
   274  001E                     	;# 
   275  001F                     	;# 
   276  0081                     	;# 
   277  0085                     	;# 
   278  0086                     	;# 
   279  0087                     	;# 
   280  0088                     	;# 
   281  0089                     	;# 
   282  008C                     	;# 
   283  008D                     	;# 
   284  008E                     	;# 
   285  008F                     	;# 
   286  0090                     	;# 
   287  0091                     	;# 
   288  0092                     	;# 
   289  0093                     	;# 
   290  0093                     	;# 
   291  0093                     	;# 
   292  0094                     	;# 
   293  0095                     	;# 
   294  0096                     	;# 
   295  0097                     	;# 
   296  0098                     	;# 
   297  0099                     	;# 
   298  009A                     	;# 
   299  009B                     	;# 
   300  009C                     	;# 
   301  009D                     	;# 
   302  009E                     	;# 
   303  009F                     	;# 
   304  0105                     	;# 
   305  0107                     	;# 
   306  0108                     	;# 
   307  0109                     	;# 
   308  010C                     	;# 
   309  010C                     	;# 
   310  010D                     	;# 
   311  010E                     	;# 
   312  010F                     	;# 
   313  0185                     	;# 
   314  0187                     	;# 
   315  0188                     	;# 
   316  0189                     	;# 
   317  018C                     	;# 
   318  018D                     	;# 
   319  0000                     	;# 
   320  0001                     	;# 
   321  0002                     	;# 
   322  0003                     	;# 
   323  0004                     	;# 
   324  0005                     	;# 
   325  0006                     	;# 
   326  0007                     	;# 
   327  0008                     	;# 
   328  0009                     	;# 
   329  000A                     	;# 
   330  000B                     	;# 
   331  000C                     	;# 
   332  000D                     	;# 
   333  000E                     	;# 
   334  000E                     	;# 
   335  000F                     	;# 
   336  0010                     	;# 
   337  0011                     	;# 
   338  0012                     	;# 
   339  0013                     	;# 
   340  0014                     	;# 
   341  0015                     	;# 
   342  0015                     	;# 
   343  0016                     	;# 
   344  0017                     	;# 
   345  0018                     	;# 
   346  0019                     	;# 
   347  001A                     	;# 
   348  001B                     	;# 
   349  001B                     	;# 
   350  001C                     	;# 
   351  001D                     	;# 
   352  001E                     	;# 
   353  001F                     	;# 
   354  0081                     	;# 
   355  0085                     	;# 
   356  0086                     	;# 
   357  0087                     	;# 
   358  0088                     	;# 
   359  0089                     	;# 
   360  008C                     	;# 
   361  008D                     	;# 
   362  008E                     	;# 
   363  008F                     	;# 
   364  0090                     	;# 
   365  0091                     	;# 
   366  0092                     	;# 
   367  0093                     	;# 
   368  0093                     	;# 
   369  0093                     	;# 
   370  0094                     	;# 
   371  0095                     	;# 
   372  0096                     	;# 
   373  0097                     	;# 
   374  0098                     	;# 
   375  0099                     	;# 
   376  009A                     	;# 
   377  009B                     	;# 
   378  009C                     	;# 
   379  009D                     	;# 
   380  009E                     	;# 
   381  009F                     	;# 
   382  0105                     	;# 
   383  0107                     	;# 
   384  0108                     	;# 
   385  0109                     	;# 
   386  010C                     	;# 
   387  010C                     	;# 
   388  010D                     	;# 
   389  010E                     	;# 
   390  010F                     	;# 
   391  0185                     	;# 
   392  0187                     	;# 
   393  0188                     	;# 
   394  0189                     	;# 
   395  018C                     	;# 
   396  018D                     	;# 
   397  0000                     	;# 
   398  0001                     	;# 
   399  0002                     	;# 
   400  0003                     	;# 
   401  0004                     	;# 
   402  0005                     	;# 
   403  0006                     	;# 
   404  0007                     	;# 
   405  0008                     	;# 
   406  0009                     	;# 
   407  000A                     	;# 
   408  000B                     	;# 
   409  000C                     	;# 
   410  000D                     	;# 
   411  000E                     	;# 
   412  000E                     	;# 
   413  000F                     	;# 
   414  0010                     	;# 
   415  0011                     	;# 
   416  0012                     	;# 
   417  0013                     	;# 
   418  0014                     	;# 
   419  0015                     	;# 
   420  0015                     	;# 
   421  0016                     	;# 
   422  0017                     	;# 
   423  0018                     	;# 
   424  0019                     	;# 
   425  001A                     	;# 
   426  001B                     	;# 
   427  001B                     	;# 
   428  001C                     	;# 
   429  001D                     	;# 
   430  001E                     	;# 
   431  001F                     	;# 
   432  0081                     	;# 
   433  0085                     	;# 
   434  0086                     	;# 
   435  0087                     	;# 
   436  0088                     	;# 
   437  0089                     	;# 
   438  008C                     	;# 
   439  008D                     	;# 
   440  008E                     	;# 
   441  008F                     	;# 
   442  0090                     	;# 
   443  0091                     	;# 
   444  0092                     	;# 
   445  0093                     	;# 
   446  0093                     	;# 
   447  0093                     	;# 
   448  0094                     	;# 
   449  0095                     	;# 
   450  0096                     	;# 
   451  0097                     	;# 
   452  0098                     	;# 
   453  0099                     	;# 
   454  009A                     	;# 
   455  009B                     	;# 
   456  009C                     	;# 
   457  009D                     	;# 
   458  009E                     	;# 
   459  009F                     	;# 
   460  0105                     	;# 
   461  0107                     	;# 
   462  0108                     	;# 
   463  0109                     	;# 
   464  010C                     	;# 
   465  010C                     	;# 
   466  010D                     	;# 
   467  010E                     	;# 
   468  010F                     	;# 
   469  0185                     	;# 
   470  0187                     	;# 
   471  0188                     	;# 
   472  0189                     	;# 
   473  018C                     	;# 
   474  018D                     	;# 
   475  0000                     	;# 
   476  0001                     	;# 
   477  0002                     	;# 
   478  0003                     	;# 
   479  0004                     	;# 
   480  0005                     	;# 
   481  0006                     	;# 
   482  0007                     	;# 
   483  0008                     	;# 
   484  0009                     	;# 
   485  000A                     	;# 
   486  000B                     	;# 
   487  000C                     	;# 
   488  000D                     	;# 
   489  000E                     	;# 
   490  000E                     	;# 
   491  000F                     	;# 
   492  0010                     	;# 
   493  0011                     	;# 
   494  0012                     	;# 
   495  0013                     	;# 
   496  0014                     	;# 
   497  0015                     	;# 
   498  0015                     	;# 
   499  0016                     	;# 
   500  0017                     	;# 
   501  0018                     	;# 
   502  0019                     	;# 
   503  001A                     	;# 
   504  001B                     	;# 
   505  001B                     	;# 
   506  001C                     	;# 
   507  001D                     	;# 
   508  001E                     	;# 
   509  001F                     	;# 
   510  0081                     	;# 
   511  0085                     	;# 
   512  0086                     	;# 
   513  0087                     	;# 
   514  0088                     	;# 
   515  0089                     	;# 
   516  008C                     	;# 
   517  008D                     	;# 
   518  008E                     	;# 
   519  008F                     	;# 
   520  0090                     	;# 
   521  0091                     	;# 
   522  0092                     	;# 
   523  0093                     	;# 
   524  0093                     	;# 
   525  0093                     	;# 
   526  0094                     	;# 
   527  0095                     	;# 
   528  0096                     	;# 
   529  0097                     	;# 
   530  0098                     	;# 
   531  0099                     	;# 
   532  009A                     	;# 
   533  009B                     	;# 
   534  009C                     	;# 
   535  009D                     	;# 
   536  009E                     	;# 
   537  009F                     	;# 
   538  0105                     	;# 
   539  0107                     	;# 
   540  0108                     	;# 
   541  0109                     	;# 
   542  010C                     	;# 
   543  010C                     	;# 
   544  010D                     	;# 
   545  010E                     	;# 
   546  010F                     	;# 
   547  0185                     	;# 
   548  0187                     	;# 
   549  0188                     	;# 
   550  0189                     	;# 
   551  018C                     	;# 
   552  018D                     	;# 
   553                           
   554                           	psect	idataBANK1
   555  0800                     __pidataBANK1:
   556                           
   557                           ;initializer for _offset
   558  0800  34A5               	retlw	165
   559  0801  3447               	retlw	71
   560  0802  3401               	retlw	1
   561  0803  3400               	retlw	0
   562                           
   563                           ;initializer for _factor
   564  0804  3421               	retlw	33
   565  0805  3455               	retlw	85
   566  0806  3443               	retlw	67
   567  0807  343B               	retlw	59
   568                           
   569                           	psect	strings
   570  1000                     __pstrings:
   571  1000                     stringtab:
   572  1000                     __stringtab:
   573                           
   574                           ;	String table - string pointers are 1 byte each
   575  1000  1BFF               	btfsc	btemp+1,7
   576  1001  280A               	ljmp	stringcode
   577  1002  1383               	bcf	3,7
   578  1003  187F               	btfsc	btemp+1,0
   579  1004  1783               	bsf	3,7
   580  1005  0800               	movf	0,w
   581  1006  0A84               	incf	4,f
   582  1007  1903               	skipnz
   583  1008  0AFF               	incf	btemp+1,f
   584  1009  0008               	return
   585  100A                     stringcode:
   586  100A                     stringdir:
   587  100A  3010               	movlw	high stringdir
   588  100B  008A               	movwf	10
   589  100C  0804               	movf	4,w
   590  100D  0A84               	incf	4,f
   591  100E  0782               	addwf	2,f
   592  100F                     __stringbase:
   593  100F  3400               	retlw	0
   594  1010                     __end_of__stringtab:
   595  1010                     _calibra:
   596  1010  34BD               	retlw	189
   597  1011  34D2               	retlw	210
   598  1012  34A3               	retlw	163
   599  1013  3448               	retlw	72
   600  1014                     __end_of_calibra:
   601  1014                     _prueba:
   602  1014  3400               	retlw	0
   603  1015  3400               	retlw	0
   604  1016  347A               	retlw	122
   605  1017  3444               	retlw	68
   606  1018                     __end_of_prueba:
   607  1018                     _offset_manual:
   608  1018  3480               	retlw	128
   609  1019  34D2               	retlw	210
   610  101A  34A3               	retlw	163
   611  101B  3447               	retlw	71
   612  101C                     __end_of_offset_manual:
   613  0010                     _T1CONbits	set	16
   614  0014                     _SSPCON	set	20
   615  0009                     _PORTEbits	set	9
   616  000B                     _INTCONbits	set	11
   617  000E                     _TMR1L	set	14
   618  000F                     _TMR1H	set	15
   619  0010                     _T1CON	set	16
   620  0012                     _T2CONbits	set	18
   621  001D                     _CCP2CONbits	set	29
   622  0017                     _CCP1CONbits	set	23
   623  0009                     _PORTE	set	9
   624  0008                     _PORTD	set	8
   625  0006                     _PORTB	set	6
   626  0005                     _PORTA	set	5
   627  0008                     _PORTDbits	set	8
   628  0013                     _SSPBUF	set	19
   629  0014                     _SSPCONbits	set	20
   630  001B                     _CCPR2L	set	27
   631  0007                     _PORTC	set	7
   632  001E                     _ADRESH	set	30
   633  0015                     _CCPR1L	set	21
   634  001F                     _ADCON0bits	set	31
   635  000C                     _PIR1bits	set	12
   636  0029                     _RA1	set	41
   637  0063                     _SSPIF	set	99
   638  005E                     _PEIE	set	94
   639  005F                     _GIE	set	95
   640  0085                     _TRISAbits	set	133
   641  0091                     _SSPCON2bits	set	145
   642  0094                     _SSPSTAT	set	148
   643  0093                     _SSPADD	set	147
   644  0091                     _SSPCON2	set	145
   645  008C                     _PIE1bits	set	140
   646  0092                     _PR2	set	146
   647  0087                     _TRISCbits	set	135
   648  009F                     _ADCON1bits	set	159
   649  008F                     _OSCCONbits	set	143
   650  0089                     _TRISE	set	137
   651  0086                     _TRISB	set	134
   652  0088                     _TRISDbits	set	136
   653  0085                     _TRISA	set	133
   654  0094                     _SSPSTATbits	set	148
   655  0463                     _SSPIE	set	1123
   656  043C                     _TRISC4	set	1084
   657  043B                     _TRISC3	set	1083
   658  04A0                     _BF	set	1184
   659  0189                     _ANSELH	set	393
   660  0188                     _ANSEL	set	392
   661  101C                     STR_2:
   662  101C  3450               	retlw	80	;'P'
   663  101D  3445               	retlw	69	;'E'
   664  101E  3453               	retlw	83	;'S'
   665  101F  344F               	retlw	79	;'O'
   666  1020  343A               	retlw	58	;':'
   667  1021  3400               	retlw	0
   668  1022                     STR_1:
   669  1022  344F               	retlw	79	;'O'
   670  1023  3466               	retlw	102	;'f'
   671  1024  3466               	retlw	102	;'f'
   672  1025  343A               	retlw	58	;':'
   673  1026  3400               	retlw	0
   674                           
   675                           	psect	cinit
   676  000F                     start_initialization:	
   677                           ; #config settings
   678                           
   679  000F                     __initialization:
   680                           
   681                           ; Initialize objects allocated to BANK1
   682  000F  1383               	bcf	3,7	;select IRP bank0
   683  0010  30DB               	movlw	low (__pdataBANK1+8)
   684  0011  00FD               	movwf	btemp+-1
   685  0012  3008               	movlw	high __pidataBANK1
   686  0013  00FE               	movwf	btemp
   687  0014  3000               	movlw	low __pidataBANK1
   688  0015  00FF               	movwf	btemp+1
   689  0016  30D3               	movlw	low __pdataBANK1
   690  0017  0084               	movwf	4
   691  0018  160A  118A  2324  120A  118A  	fcall	init_ram0
   692                           
   693                           ; Clear objects allocated to BANK3
   694  001D  1783               	bsf	3,7	;select IRP bank2
   695  001E  3090               	movlw	low __pbssBANK3
   696  001F  0084               	movwf	4
   697  0020  30C2               	movlw	low (__pbssBANK3+50)
   698  0021  160A  118A  22F2  120A  118A  	fcall	clear_ram0
   699                           
   700                           ; Clear objects allocated to BANK1
   701  0026  1383               	bcf	3,7	;select IRP bank0
   702  0027  30A0               	movlw	low __pbssBANK1
   703  0028  0084               	movwf	4
   704  0029  30D3               	movlw	low (__pbssBANK1+51)
   705  002A  160A  118A  22F2  120A  118A  	fcall	clear_ram0
   706                           
   707                           ; Clear objects allocated to BANK0
   708  002F  01EC               	clrf	__pbssBANK0& (0+127)
   709                           
   710                           ; Clear objects allocated to COMMON
   711  0030  01F8               	clrf	__pbssCOMMON& (0+127)
   712  0031  01F9               	clrf	(__pbssCOMMON+1)& (0+127)
   713  0032  01FA               	clrf	(__pbssCOMMON+2)& (0+127)
   714  0033                     end_of_initialization:	
   715                           ;End of C runtime variable initialization code
   716                           
   717  0033                     __end_of__initialization:
   718  0033  0183               	clrf	3
   719  0034  120A  118A  2B98   	ljmp	_main	;jump to C main() function
   720                           
   721                           	psect	bssCOMMON
   722  0078                     __pbssCOMMON:
   723  0078                     _dummyHum1:
   724  0078                     	ds	1
   725  0079                     _dummyT1:
   726  0079                     	ds	1
   727  007A                     _Temp1:
   728  007A                     	ds	1
   729                           
   730                           	psect	bssBANK0
   731  006C                     __pbssBANK0:
   732  006C                     _Hum1:
   733  006C                     	ds	1
   734                           
   735                           	psect	bssBANK1
   736  00A0                     __pbssBANK1:
   737  00A0                     _bits:
   738  00A0                     	ds	10
   739  00AA                     _peso:
   740  00AA                     	ds	4
   741  00AE                     _celda:
   742  00AE                     	ds	4
   743  00B2                     _lectura:
   744  00B2                     	ds	1
   745  00B3                     _z:
   746  00B3                     	ds	1
   747  00B4                     _contador:
   748  00B4                     	ds	1
   749  00B5                     _texto:
   750  00B5                     	ds	25
   751  00CE                     _cal:
   752  00CE                     	ds	4
   753  00D2                     _CHECKSUM:
   754  00D2                     	ds	1
   755                           
   756                           	psect	dataBANK1
   757  00D3                     __pdataBANK1:
   758  00D3                     _offset:
   759  00D3                     	ds	4
   760  00D7                     _factor:
   761  00D7                     	ds	4
   762                           
   763                           	psect	bssBANK3
   764  0190                     __pbssBANK3:
   765  0190                     _tarart:
   766  0190                     	ds	25
   767  01A9                     _offsett:
   768  01A9                     	ds	25
   769                           
   770                           	psect	inittext
   771  1320                     init_fetch0:	
   772                           ;	Called with low address in FSR and high address in W
   773                           
   774  1320  087E               	movf	btemp,w
   775  1321  008A               	movwf	10
   776  1322  087F               	movf	btemp+1,w
   777  1323  0082               	movwf	2
   778  1324                     init_ram0:	
   779                           ;Called with:
   780                           ;	high address of idata address in btemp 
   781                           ;	low address of idata address in btemp+1 
   782                           ;	low address of data in FSR
   783                           ;	high address + 1 of data in btemp-1
   784                           
   785  1324  160A  118A  2320  160A  118A  	fcall	init_fetch0
   786  1329  0080               	movwf	0
   787  132A  0A84               	incf	4,f
   788  132B  0804               	movf	4,w
   789  132C  067D               	xorwf	btemp+-1,w
   790  132D  1903               	btfsc	3,2
   791  132E  3400               	retlw	0
   792  132F  0AFF               	incf	btemp+1,f
   793  1330  1903               	btfsc	3,2
   794  1331  0AFE               	incf	btemp,f
   795  1332  2B24               	goto	init_ram0
   796                           
   797                           	psect	clrtext
   798  12F2                     clear_ram0:	
   799                           ;	Called with FSR containing the base address, and
   800                           ;	W with the last address+1
   801                           
   802  12F2  0064               	clrwdt	;clear the watchdog before getting into this loop
   803  12F3                     clrloop0:
   804  12F3  0180               	clrf	0	;clear RAM location pointed to by FSR
   805  12F4  0A84               	incf	4,f	;increment pointer
   806  12F5  0604               	xorwf	4,w	;XOR with final address
   807  12F6  1903               	btfsc	3,2	;have we reached the end yet?
   808  12F7  3400               	retlw	0	;all done for this memory range, return
   809  12F8  0604               	xorwf	4,w	;XOR again to restore value
   810  12F9  2AF3               	goto	clrloop0	;do the next byte
   811                           
   812                           	psect	cstackBANK1
   813  00DB                     __pcstackBANK1:
   814  00DB                     _main$1527:
   815                           
   816                           ; 4 bytes @ 0x0
   817  00DB                     	ds	4
   818                           
   819                           	psect	cstackCOMMON
   820  0070                     __pcstackCOMMON:
   821  0070                     ?_setup:
   822  0070                     ?_hx711_init:	
   823                           ; 1 bytes @ 0x0
   824                           
   825  0070                     ?_Lcd_Init:	
   826                           ; 1 bytes @ 0x0
   827                           
   828  0070                     ?_Lcd_Clear:	
   829                           ; 1 bytes @ 0x0
   830                           
   831  0070                     ?_DHT11_start:	
   832                           ; 1 bytes @ 0x0
   833                           
   834  0070                     ?_DHT11_response:	
   835                           ; 1 bytes @ 0x0
   836                           
   837  0070                     ?_DHT11_ReadData:	
   838                           ; 1 bytes @ 0x0
   839                           
   840  0070                     ?_I2C_Slave_Init:	
   841                           ; 1 bytes @ 0x0
   842                           
   843  0070                     ?_ISR:	
   844                           ; 1 bytes @ 0x0
   845                           
   846  0070                     ??_ISR:	
   847                           ; 1 bytes @ 0x0
   848                           
   849  0070                     ?_main:	
   850                           ; 1 bytes @ 0x0
   851                           
   852  0070                     ?_hx711_pulso:	
   853                           ; 1 bytes @ 0x0
   854                           
   855  0070                     ?_Lcd_Port:	
   856                           ; 1 bytes @ 0x0
   857                           
   858  0070                     ?_Lcd_Cmd:	
   859                           ; 1 bytes @ 0x0
   860                           
   861  0070                     ?_Lcd_Write_Char:	
   862                           ; 1 bytes @ 0x0
   863                           
   864                           
   865                           ; 1 bytes @ 0x0
   866  0070                     	ds	3
   867  0073                     ??_hx711_init:
   868  0073                     ??_DHT11_start:	
   869                           ; 1 bytes @ 0x3
   870                           
   871  0073                     ??_DHT11_response:	
   872                           ; 1 bytes @ 0x3
   873                           
   874  0073                     ??_DHT11_ReadData:	
   875                           ; 1 bytes @ 0x3
   876                           
   877  0073                     ??_I2C_Slave_Init:	
   878                           ; 1 bytes @ 0x3
   879                           
   880  0073                     ??_hx711_pulso:	
   881                           ; 1 bytes @ 0x3
   882                           
   883  0073                     ??_Lcd_Port:	
   884                           ; 1 bytes @ 0x3
   885                           
   886  0073                     ??___aldiv:	
   887                           ; 1 bytes @ 0x3
   888                           
   889  0073                     ??___flge:	
   890                           ; 1 bytes @ 0x3
   891                           
   892  0073                     ??___fldiv:	
   893                           ; 1 bytes @ 0x3
   894                           
   895  0073                     ?__Umul8_16:	
   896                           ; 1 bytes @ 0x3
   897                           
   898  0073                     ?___flneg:	
   899                           ; 2 bytes @ 0x3
   900                           
   901  0073                     ?___fltol:	
   902                           ; 4 bytes @ 0x3
   903                           
   904  0073                     hx711_pulso@lei:	
   905                           ; 4 bytes @ 0x3
   906                           
   907  0073                     Lcd_Port@a:	
   908                           ; 1 bytes @ 0x3
   909                           
   910  0073                     I2C_Slave_Init@address:	
   911                           ; 1 bytes @ 0x3
   912                           
   913  0073                     __Umul8_16@multiplicand:	
   914                           ; 1 bytes @ 0x3
   915                           
   916  0073                     ___flneg@f1:	
   917                           ; 1 bytes @ 0x3
   918                           
   919  0073                     ___fltol@f1:	
   920                           ; 4 bytes @ 0x3
   921                           
   922                           
   923                           ; 4 bytes @ 0x3
   924  0073                     	ds	1
   925  0074                     ??_setup:
   926  0074                     ??_Lcd_Cmd:	
   927                           ; 1 bytes @ 0x4
   928                           
   929  0074                     ??_Lcd_Write_Char:	
   930                           ; 1 bytes @ 0x4
   931                           
   932  0074                     ?_hx711_lectura:	
   933                           ; 1 bytes @ 0x4
   934                           
   935                           
   936                           ; 4 bytes @ 0x4
   937  0074                     	ds	1
   938  0075                     ??__Umul8_16:
   939  0075                     Lcd_Write_Char@a:	
   940                           ; 1 bytes @ 0x5
   941                           
   942  0075                     DHT11_ReadData@datos:	
   943                           ; 1 bytes @ 0x5
   944                           
   945                           
   946                           ; 1 bytes @ 0x5
   947  0075                     	ds	1
   948  0076                     ?_Lcd_Write_String:
   949  0076                     Lcd_Cmd@a:	
   950                           ; 1 bytes @ 0x6
   951                           
   952  0076                     DHT11_ReadData@i:	
   953                           ; 1 bytes @ 0x6
   954                           
   955  0076                     Lcd_Write_String@a:	
   956                           ; 1 bytes @ 0x6
   957                           
   958                           
   959                           ; 2 bytes @ 0x6
   960  0076                     	ds	1
   961  0077                     ??_Lcd_Clear:
   962  0077                     ?_Lcd_Set_Cursor:	
   963                           ; 1 bytes @ 0x7
   964                           
   965  0077                     ??___flneg:	
   966                           ; 1 bytes @ 0x7
   967                           
   968  0077                     Lcd_Set_Cursor@b:	
   969                           ; 1 bytes @ 0x7
   970                           
   971                           
   972                           ; 1 bytes @ 0x7
   973  0077                     	ds	1
   974  0078                     ??___flsub:
   975                           
   976                           	psect	cstackBANK0
   977  0020                     __pcstackBANK0:	
   978                           ; 1 bytes @ 0x8
   979                           
   980  0020                     ?___flge:
   981  0020                     ??_Lcd_Init:	
   982                           ; 1 bit 
   983                           
   984  0020                     ??_Lcd_Set_Cursor:	
   985                           ; 1 bytes @ 0x0
   986                           
   987  0020                     ??_Lcd_Write_String:	
   988                           ; 1 bytes @ 0x0
   989                           
   990  0020                     ??_hx711_lectura:	
   991                           ; 1 bytes @ 0x0
   992                           
   993  0020                     ??___fltol:	
   994                           ; 1 bytes @ 0x0
   995                           
   996  0020                     ?___aldiv:	
   997                           ; 1 bytes @ 0x0
   998                           
   999  0020                     ?___fldiv:	
  1000                           ; 4 bytes @ 0x0
  1001                           
  1002  0020                     __Umul8_16@product:	
  1003                           ; 4 bytes @ 0x0
  1004                           
  1005  0020                     ___aldiv@divisor:	
  1006                           ; 2 bytes @ 0x0
  1007                           
  1008  0020                     ___flge@ff1:	
  1009                           ; 4 bytes @ 0x0
  1010                           
  1011  0020                     ___fldiv@a:	
  1012                           ; 4 bytes @ 0x0
  1013                           
  1014                           
  1015                           ; 4 bytes @ 0x0
  1016  0020                     	ds	1
  1017  0021                     Lcd_Set_Cursor@a:
  1018                           
  1019                           ; 1 bytes @ 0x1
  1020  0021                     	ds	1
  1021  0022                     Lcd_Set_Cursor@temp:
  1022  0022                     __Umul8_16@word_mpld:	
  1023                           ; 1 bytes @ 0x2
  1024                           
  1025                           
  1026                           ; 2 bytes @ 0x2
  1027  0022                     	ds	1
  1028  0023                     Lcd_Write_String@i:
  1029                           
  1030                           ; 2 bytes @ 0x3
  1031  0023                     	ds	1
  1032  0024                     __Umul8_16@multiplier:
  1033  0024                     ___aldiv@dividend:	
  1034                           ; 1 bytes @ 0x4
  1035                           
  1036  0024                     ___flge@ff2:	
  1037                           ; 4 bytes @ 0x4
  1038                           
  1039  0024                     ___fldiv@b:	
  1040                           ; 4 bytes @ 0x4
  1041                           
  1042                           
  1043                           ; 4 bytes @ 0x4
  1044  0024                     	ds	1
  1045  0025                     ?___flmul:
  1046  0025                     ___fltol@sign1:	
  1047                           ; 4 bytes @ 0x5
  1048                           
  1049  0025                     ___flmul@b:	
  1050                           ; 1 bytes @ 0x5
  1051                           
  1052                           
  1053                           ; 4 bytes @ 0x5
  1054  0025                     	ds	1
  1055  0026                     ___fltol@exp1:
  1056                           
  1057                           ; 1 bytes @ 0x6
  1058  0026                     	ds	2
  1059  0028                     hx711_lectura@ganancia:
  1060  0028                     ___aldiv@counter:	
  1061                           ; 1 bytes @ 0x8
  1062                           
  1063  0028                     ___fldiv@rem:	
  1064                           ; 1 bytes @ 0x8
  1065                           
  1066                           
  1067                           ; 4 bytes @ 0x8
  1068  0028                     	ds	1
  1069  0029                     ___aldiv@sign:
  1070  0029                     hx711_lectura@hx711_cont:	
  1071                           ; 1 bytes @ 0x9
  1072                           
  1073  0029                     ___flmul@a:	
  1074                           ; 2 bytes @ 0x9
  1075                           
  1076                           
  1077                           ; 4 bytes @ 0x9
  1078  0029                     	ds	1
  1079  002A                     ___aldiv@quotient:
  1080                           
  1081                           ; 4 bytes @ 0xA
  1082  002A                     	ds	1
  1083  002B                     hx711_lectura@hx711_dato:
  1084                           
  1085                           ; 4 bytes @ 0xB
  1086  002B                     	ds	1
  1087  002C                     ___fldiv@sign:
  1088                           
  1089                           ; 1 bytes @ 0xC
  1090  002C                     	ds	1
  1091  002D                     ??___flmul:
  1092  002D                     ___fldiv@new_exp:	
  1093                           ; 1 bytes @ 0xD
  1094                           
  1095                           
  1096                           ; 2 bytes @ 0xD
  1097  002D                     	ds	2
  1098  002F                     ?_hx711_promedio:
  1099  002F                     hx711_promedio@ganancia:	
  1100                           ; 4 bytes @ 0xF
  1101                           
  1102  002F                     ___fldiv@grs:	
  1103                           ; 1 bytes @ 0xF
  1104                           
  1105                           
  1106                           ; 4 bytes @ 0xF
  1107  002F                     	ds	3
  1108  0032                     ___flmul@sign:
  1109                           
  1110                           ; 1 bytes @ 0x12
  1111  0032                     	ds	1
  1112  0033                     ??_hx711_promedio:
  1113  0033                     ___fldiv@bexp:	
  1114                           ; 1 bytes @ 0x13
  1115                           
  1116  0033                     ___flmul@aexp:	
  1117                           ; 1 bytes @ 0x13
  1118                           
  1119                           
  1120                           ; 1 bytes @ 0x13
  1121  0033                     	ds	1
  1122  0034                     ___fldiv@aexp:
  1123  0034                     ___flmul@grs:	
  1124                           ; 1 bytes @ 0x14
  1125                           
  1126                           
  1127                           ; 4 bytes @ 0x14
  1128  0034                     	ds	1
  1129  0035                     ?___fladd:
  1130  0035                     ___fladd@b:	
  1131                           ; 4 bytes @ 0x15
  1132                           
  1133                           
  1134                           ; 4 bytes @ 0x15
  1135  0035                     	ds	2
  1136  0037                     hx711_promedio@veces:
  1137                           
  1138                           ; 1 bytes @ 0x17
  1139  0037                     	ds	1
  1140  0038                     ___flmul@bexp:
  1141  0038                     hx711_promedio@prom:	
  1142                           ; 1 bytes @ 0x18
  1143                           
  1144                           
  1145                           ; 4 bytes @ 0x18
  1146  0038                     	ds	1
  1147  0039                     ___fladd@a:
  1148  0039                     ___flmul@prod:	
  1149                           ; 4 bytes @ 0x19
  1150                           
  1151                           
  1152                           ; 4 bytes @ 0x19
  1153  0039                     	ds	3
  1154  003C                     hx711_promedio@cont:
  1155                           
  1156                           ; 1 bytes @ 0x1C
  1157  003C                     	ds	1
  1158  003D                     ?_tarar:
  1159  003D                     ??___fladd:	
  1160                           ; 1 bytes @ 0x1D
  1161                           
  1162  003D                     ?___xxtofl:	
  1163                           ; 1 bytes @ 0x1D
  1164                           
  1165  003D                     tarar@ganancia:	
  1166                           ; 4 bytes @ 0x1D
  1167                           
  1168  003D                     ___flmul@temp:	
  1169                           ; 1 bytes @ 0x1D
  1170                           
  1171  003D                     ___xxtofl@val:	
  1172                           ; 2 bytes @ 0x1D
  1173                           
  1174                           
  1175                           ; 4 bytes @ 0x1D
  1176  003D                     	ds	1
  1177  003E                     ??_tarar:
  1178                           
  1179                           ; 1 bytes @ 0x1E
  1180  003E                     	ds	1
  1181  003F                     tarar@veces:
  1182                           
  1183                           ; 1 bytes @ 0x1F
  1184  003F                     	ds	2
  1185  0041                     ??___xxtofl:
  1186                           
  1187                           ; 1 bytes @ 0x21
  1188  0041                     	ds	4
  1189  0045                     ___fladd@signs:
  1190  0045                     ___xxtofl@sign:	
  1191                           ; 1 bytes @ 0x25
  1192                           
  1193                           
  1194                           ; 1 bytes @ 0x25
  1195  0045                     	ds	1
  1196  0046                     ___fladd@aexp:
  1197  0046                     ___xxtofl@exp:	
  1198                           ; 1 bytes @ 0x26
  1199                           
  1200                           
  1201                           ; 1 bytes @ 0x26
  1202  0046                     	ds	1
  1203  0047                     ___fladd@bexp:
  1204  0047                     ___xxtofl@arg:	
  1205                           ; 1 bytes @ 0x27
  1206                           
  1207                           
  1208                           ; 4 bytes @ 0x27
  1209  0047                     	ds	1
  1210  0048                     ___fladd@grs:
  1211                           
  1212                           ; 1 bytes @ 0x28
  1213  0048                     	ds	3
  1214  004B                     ?___flsub:
  1215  004B                     ___flsub@a:	
  1216                           ; 4 bytes @ 0x2B
  1217                           
  1218                           
  1219                           ; 4 bytes @ 0x2B
  1220  004B                     	ds	4
  1221  004F                     ___flsub@b:
  1222                           
  1223                           ; 4 bytes @ 0x2F
  1224  004F                     	ds	4
  1225  0053                     ?_floattostr_:
  1226  0053                     floattostr_@numero_:	
  1227                           ; 1 bytes @ 0x33
  1228                           
  1229                           
  1230                           ; 4 bytes @ 0x33
  1231  0053                     	ds	4
  1232  0057                     floattostr_@cadena_:
  1233                           
  1234                           ; 2 bytes @ 0x37
  1235  0057                     	ds	2
  1236  0059                     floattostr_@decimales_:
  1237                           
  1238                           ; 1 bytes @ 0x39
  1239  0059                     	ds	1
  1240  005A                     ??_floattostr_:
  1241                           
  1242                           ; 1 bytes @ 0x3A
  1243  005A                     	ds	1
  1244  005B                     floattostr_@tempo_int:
  1245                           
  1246                           ; 2 bytes @ 0x3B
  1247  005B                     	ds	2
  1248  005D                     floattostr_@tempo_float:
  1249                           
  1250                           ; 4 bytes @ 0x3D
  1251  005D                     	ds	4
  1252  0061                     floattostr_@largo_n:
  1253                           
  1254                           ; 2 bytes @ 0x41
  1255  0061                     	ds	2
  1256  0063                     floattostr_@cont_for:
  1257                           
  1258                           ; 2 bytes @ 0x43
  1259  0063                     	ds	2
  1260  0065                     floattostr_@largo_entera:
  1261                           
  1262                           ; 2 bytes @ 0x45
  1263  0065                     	ds	2
  1264  0067                     ??_main:
  1265                           
  1266                           ; 1 bytes @ 0x47
  1267  0067                     	ds	5
  1268                           
  1269                           	psect	maintext
  1270  0398                     __pmaintext:	
  1271 ;;
  1272 ;;Main: autosize = 0, tempsize = 5, incstack = 0, save=0
  1273 ;;
  1274 ;; *************** function _main *****************
  1275 ;; Defined at:
  1276 ;;		line 183 in file "Slave2.c"
  1277 ;; Parameters:    Size  Location     Type
  1278 ;;		None
  1279 ;; Auto vars:     Size  Location     Type
  1280 ;;		None
  1281 ;; Return value:  Size  Location     Type
  1282 ;;                  1    wreg      void 
  1283 ;; Registers used:
  1284 ;;		wreg, fsr0l, fsr0h, status,2, status,0, btemp+1, pclath, cstack
  1285 ;; Tracked objects:
  1286 ;;		On entry : B00/0
  1287 ;;		On exit  : 0/0
  1288 ;;		Unchanged: 0/0
  1289 ;; Data sizes:     COMMON   BANK0   BANK1   BANK3   BANK2
  1290 ;;      Params:         0       0       0       0       0
  1291 ;;      Locals:         0       0       4       0       0
  1292 ;;      Temps:          0       5       0       0       0
  1293 ;;      Totals:         0       5       4       0       0
  1294 ;;Total ram usage:        9 bytes
  1295 ;; Hardware stack levels required when called:    5
  1296 ;; This function calls:
  1297 ;;		_DHT11_ReadData
  1298 ;;		_DHT11_response
  1299 ;;		_DHT11_start
  1300 ;;		_Lcd_Clear
  1301 ;;		_Lcd_Init
  1302 ;;		_Lcd_Set_Cursor
  1303 ;;		_Lcd_Write_String
  1304 ;;		___fldiv
  1305 ;;		___flge
  1306 ;;		___flmul
  1307 ;;		___xxtofl
  1308 ;;		_floattostr_
  1309 ;;		_hx711_init
  1310 ;;		_hx711_promedio
  1311 ;;		_setup
  1312 ;;		_tarar
  1313 ;; This function is called by:
  1314 ;;		Startup code after reset
  1315 ;; This function uses a non-reentrant model
  1316 ;;
  1317                           
  1318                           
  1319                           ;psect for function _main
  1320  0398                     _main:
  1321  0398                     l4319:	
  1322                           ;incstack = 0
  1323                           ; Regs used in _main: [wreg-fsr0h+status,2+status,0+btemp+1+pclath+cstack]
  1324                           
  1325                           
  1326                           ;Slave2.c: 185:     setup();
  1327  0398  160A  118A  24D2  120A  118A  	fcall	_setup
  1328                           
  1329                           ;Slave2.c: 186:     hx711_init();
  1330  039D  160A  118A  2333  120A  118A  	fcall	_hx711_init
  1331                           
  1332                           ;Slave2.c: 187:     floattostr_(offset,offsett,1);
  1333  03A2  1683               	bsf	3,5	;RP0=1, select bank1
  1334  03A3  1303               	bcf	3,6	;RP1=0, select bank1
  1335  03A4  0856               	movf	(_offset+3)^(0+128),w
  1336  03A5  1283               	bcf	3,5	;RP0=0, select bank0
  1337  03A6  1303               	bcf	3,6	;RP1=0, select bank0
  1338  03A7  00C0               	movwf	___xxtofl@val+3
  1339  03A8  1683               	bsf	3,5	;RP0=1, select bank1
  1340  03A9  1303               	bcf	3,6	;RP1=0, select bank1
  1341  03AA  0855               	movf	(_offset+2)^(0+128),w
  1342  03AB  1283               	bcf	3,5	;RP0=0, select bank0
  1343  03AC  1303               	bcf	3,6	;RP1=0, select bank0
  1344  03AD  00BF               	movwf	___xxtofl@val+2
  1345  03AE  1683               	bsf	3,5	;RP0=1, select bank1
  1346  03AF  1303               	bcf	3,6	;RP1=0, select bank1
  1347  03B0  0854               	movf	(_offset+1)^(0+128),w
  1348  03B1  1283               	bcf	3,5	;RP0=0, select bank0
  1349  03B2  1303               	bcf	3,6	;RP1=0, select bank0
  1350  03B3  00BE               	movwf	___xxtofl@val+1
  1351  03B4  1683               	bsf	3,5	;RP0=1, select bank1
  1352  03B5  1303               	bcf	3,6	;RP1=0, select bank1
  1353  03B6  0853               	movf	_offset^(0+128),w
  1354  03B7  1283               	bcf	3,5	;RP0=0, select bank0
  1355  03B8  1303               	bcf	3,6	;RP1=0, select bank0
  1356  03B9  00BD               	movwf	___xxtofl@val
  1357  03BA  3001               	movlw	1
  1358  03BB  120A  158A  2023  120A  118A  	fcall	___xxtofl
  1359  03C0  1283               	bcf	3,5	;RP0=0, select bank0
  1360  03C1  1303               	bcf	3,6	;RP1=0, select bank0
  1361  03C2  0840               	movf	?___xxtofl+3,w
  1362  03C3  1683               	bsf	3,5	;RP0=1, select bank1
  1363  03C4  1303               	bcf	3,6	;RP1=0, select bank1
  1364  03C5  00DE               	movwf	(_main$1527+3)^(0+128)
  1365  03C6  1283               	bcf	3,5	;RP0=0, select bank0
  1366  03C7  1303               	bcf	3,6	;RP1=0, select bank0
  1367  03C8  083F               	movf	?___xxtofl+2,w
  1368  03C9  1683               	bsf	3,5	;RP0=1, select bank1
  1369  03CA  1303               	bcf	3,6	;RP1=0, select bank1
  1370  03CB  00DD               	movwf	(_main$1527+2)^(0+128)
  1371  03CC  1283               	bcf	3,5	;RP0=0, select bank0
  1372  03CD  1303               	bcf	3,6	;RP1=0, select bank0
  1373  03CE  083E               	movf	?___xxtofl+1,w
  1374  03CF  1683               	bsf	3,5	;RP0=1, select bank1
  1375  03D0  1303               	bcf	3,6	;RP1=0, select bank1
  1376  03D1  00DC               	movwf	(_main$1527+1)^(0+128)
  1377  03D2  1283               	bcf	3,5	;RP0=0, select bank0
  1378  03D3  1303               	bcf	3,6	;RP1=0, select bank0
  1379  03D4  083D               	movf	?___xxtofl,w
  1380  03D5  1683               	bsf	3,5	;RP0=1, select bank1
  1381  03D6  1303               	bcf	3,6	;RP1=0, select bank1
  1382  03D7  00DB               	movwf	_main$1527^(0+128)
  1383  03D8                     l4321:
  1384                           
  1385                           ;Slave2.c: 187:     floattostr_(offset,offsett,1);
  1386  03D8  085E               	movf	(_main$1527+3)^(0+128),w
  1387  03D9  1283               	bcf	3,5	;RP0=0, select bank0
  1388  03DA  1303               	bcf	3,6	;RP1=0, select bank0
  1389  03DB  00D6               	movwf	floattostr_@numero_+3
  1390  03DC  1683               	bsf	3,5	;RP0=1, select bank1
  1391  03DD  1303               	bcf	3,6	;RP1=0, select bank1
  1392  03DE  085D               	movf	(_main$1527+2)^(0+128),w
  1393  03DF  1283               	bcf	3,5	;RP0=0, select bank0
  1394  03E0  1303               	bcf	3,6	;RP1=0, select bank0
  1395  03E1  00D5               	movwf	floattostr_@numero_+2
  1396  03E2  1683               	bsf	3,5	;RP0=1, select bank1
  1397  03E3  1303               	bcf	3,6	;RP1=0, select bank1
  1398  03E4  085C               	movf	(_main$1527+1)^(0+128),w
  1399  03E5  1283               	bcf	3,5	;RP0=0, select bank0
  1400  03E6  1303               	bcf	3,6	;RP1=0, select bank0
  1401  03E7  00D4               	movwf	floattostr_@numero_+1
  1402  03E8  1683               	bsf	3,5	;RP0=1, select bank1
  1403  03E9  1303               	bcf	3,6	;RP1=0, select bank1
  1404  03EA  085B               	movf	_main$1527^(0+128),w
  1405  03EB  1283               	bcf	3,5	;RP0=0, select bank0
  1406  03EC  1303               	bcf	3,6	;RP1=0, select bank0
  1407  03ED  00D3               	movwf	floattostr_@numero_
  1408  03EE  30A9               	movlw	(low (_offsett| (0+256)))& (0+255)
  1409  03EF  00D7               	movwf	floattostr_@cadena_
  1410  03F0  3001               	movlw	1
  1411  03F1  00D8               	movwf	floattostr_@cadena_+1
  1412  03F2  01D9               	clrf	floattostr_@decimales_
  1413  03F3  0AD9               	incf	floattostr_@decimales_,f
  1414  03F4  120A  158A  2544  120A  118A  	fcall	_floattostr_
  1415  03F9                     l4323:
  1416                           
  1417                           ;Slave2.c: 188:     Lcd_Init();
  1418  03F9  120A  118A  27B0  120A  118A  	fcall	_Lcd_Init
  1419  03FE                     l4325:
  1420                           
  1421                           ;Slave2.c: 189:     Lcd_Clear();
  1422  03FE  160A  118A  2305  120A  118A  	fcall	_Lcd_Clear
  1423  0403                     l4327:
  1424                           
  1425                           ;Slave2.c: 190:      Lcd_Set_Cursor(1, 8);
  1426  0403  3008               	movlw	8
  1427  0404  1283               	bcf	3,5	;RP0=0, select bank0
  1428  0405  1303               	bcf	3,6	;RP1=0, select bank0
  1429  0406  00E7               	movwf	??_main
  1430  0407  0867               	movf	??_main,w
  1431  0408  00F7               	movwf	Lcd_Set_Cursor@b
  1432  0409  3001               	movlw	1
  1433  040A  160A  118A  23B6  120A  118A  	fcall	_Lcd_Set_Cursor
  1434                           
  1435                           ;Slave2.c: 191:      Lcd_Write_String("Off:");
  1436  040F  3013               	movlw	(low ((STR_1-__stringbase)| (0+32768)))& (0+255)
  1437  0410  00F6               	movwf	Lcd_Write_String@a
  1438  0411  3080               	movlw	128
  1439  0412  00F7               	movwf	Lcd_Write_String@a+1
  1440  0413  160A  118A  248C  120A  118A  	fcall	_Lcd_Write_String
  1441  0418                     l4329:
  1442                           
  1443                           ;Slave2.c: 192:      Lcd_Set_Cursor(2, 8);
  1444  0418  3008               	movlw	8
  1445  0419  1283               	bcf	3,5	;RP0=0, select bank0
  1446  041A  1303               	bcf	3,6	;RP1=0, select bank0
  1447  041B  00E7               	movwf	??_main
  1448  041C  0867               	movf	??_main,w
  1449  041D  00F7               	movwf	Lcd_Set_Cursor@b
  1450  041E  3002               	movlw	2
  1451  041F  160A  118A  23B6  120A  118A  	fcall	_Lcd_Set_Cursor
  1452  0424                     l4331:
  1453                           
  1454                           ;Slave2.c: 193:      Lcd_Write_String(offsett);
  1455  0424  30A9               	movlw	(low (_offsett| (0+256)))& (0+255)
  1456  0425  00F6               	movwf	Lcd_Write_String@a
  1457  0426  3001               	movlw	1
  1458  0427  00F7               	movwf	Lcd_Write_String@a+1
  1459  0428  160A  118A  248C  120A  118A  	fcall	_Lcd_Write_String
  1460  042D                     l4333:
  1461                           
  1462                           ;Slave2.c: 194:      ADCON0bits.GO = 1;
  1463  042D  1283               	bcf	3,5	;RP0=0, select bank0
  1464  042E  1303               	bcf	3,6	;RP1=0, select bank0
  1465  042F  149F               	bsf	31,1	;volatile
  1466  0430                     l180:	
  1467                           ;Slave2.c: 195:     while(1){
  1468                           
  1469                           
  1470                           ;Slave2.c: 196:         DHT11_start();
  1471  0430  120A  158A  2008  120A  118A  	fcall	_DHT11_start
  1472  0435                     l4335:
  1473                           
  1474                           ;Slave2.c: 197:         if(DHT11_response()){
  1475  0435  160A  118A  242B  120A  118A  	fcall	_DHT11_response
  1476  043A  3A00               	xorlw	0
  1477  043B  1903               	skipnz
  1478  043C  2C3E               	goto	u6301
  1479  043D  2C3F               	goto	u6300
  1480  043E                     u6301:
  1481  043E  2C5D               	goto	l4339
  1482  043F                     u6300:
  1483  043F                     l4337:
  1484                           
  1485                           ;Slave2.c: 198:             DHT11_ReadData(&Hum1);
  1486  043F  306C               	movlw	(low (_Hum1| 0))& (0+255)
  1487  0440  160A  118A  2457  120A  118A  	fcall	_DHT11_ReadData
  1488                           
  1489                           ;Slave2.c: 199:             DHT11_ReadData(&dummyHum1);
  1490  0445  3078               	movlw	(low (_dummyHum1| 0))& (0+255)
  1491  0446  160A  118A  2457  120A  118A  	fcall	_DHT11_ReadData
  1492                           
  1493                           ;Slave2.c: 200:             DHT11_ReadData(&Temp1);
  1494  044B  307A               	movlw	(low (_Temp1| 0))& (0+255)
  1495  044C  160A  118A  2457  120A  118A  	fcall	_DHT11_ReadData
  1496                           
  1497                           ;Slave2.c: 201:             DHT11_ReadData(&dummyT1);
  1498  0451  3079               	movlw	(low (_dummyT1| 0))& (0+255)
  1499  0452  160A  118A  2457  120A  118A  	fcall	_DHT11_ReadData
  1500                           
  1501                           ;Slave2.c: 202:             DHT11_ReadData(&CHECKSUM);
  1502  0457  30D2               	movlw	(low (_CHECKSUM| 0))& (0+255)
  1503  0458  160A  118A  2457  120A  118A  	fcall	_DHT11_ReadData
  1504  045D                     l4339:
  1505                           
  1506                           ;Slave2.c: 204:         _delay((unsigned long)((500)*(8000000/4000.0)));
  1507  045D  3006               	movlw	6
  1508  045E  1283               	bcf	3,5	;RP0=0, select bank0
  1509  045F  1303               	bcf	3,6	;RP1=0, select bank0
  1510  0460  00E9               	movwf	??_main+2
  1511  0461  3013               	movlw	19
  1512  0462  00E8               	movwf	??_main+1
  1513  0463  30AD               	movlw	173
  1514  0464  00E7               	movwf	??_main
  1515  0465                     u6387:
  1516  0465  0BE7               	decfsz	??_main,f
  1517  0466  2C65               	goto	u6387
  1518  0467  0BE8               	decfsz	??_main+1,f
  1519  0468  2C65               	goto	u6387
  1520  0469  0BE9               	decfsz	??_main+2,f
  1521  046A  2C65               	goto	u6387
  1522  046B                     l4341:
  1523                           
  1524                           ;Slave2.c: 205:         if(ADCON0bits.GO == 0){
  1525  046B  1283               	bcf	3,5	;RP0=0, select bank0
  1526  046C  1303               	bcf	3,6	;RP1=0, select bank0
  1527  046D  189F               	btfsc	31,1	;volatile
  1528  046E  2C70               	goto	u6311
  1529  046F  2C71               	goto	u6310
  1530  0470                     u6311:
  1531  0470  2C8B               	goto	l4353
  1532  0471                     u6310:
  1533  0471                     l4343:
  1534                           
  1535                           ;Slave2.c: 206:             if (ADCON0bits.CHS == 0){
  1536  0471  0C1F               	rrf	31,w	;volatile
  1537  0472  00E7               	movwf	??_main
  1538  0473  0C67               	rrf	??_main,w
  1539  0474  390F               	andlw	15
  1540  0475  3A00               	xorlw	0
  1541  0476  1D03               	skipz
  1542  0477  2C79               	goto	u6321
  1543  0478  2C7A               	goto	u6320
  1544  0479                     u6321:
  1545  0479  2C7F               	goto	l4347
  1546  047A                     u6320:
  1547  047A                     l4345:
  1548                           
  1549                           ;Slave2.c: 207:                 ADCON0bits.CHS = 1;
  1550  047A  081F               	movf	31,w	;volatile
  1551  047B  39C3               	andlw	-61
  1552  047C  3804               	iorlw	4
  1553  047D  009F               	movwf	31	;volatile
  1554                           
  1555                           ;Slave2.c: 208:             }
  1556  047E  2C81               	goto	l4349
  1557  047F                     l4347:
  1558                           
  1559                           ;Slave2.c: 210:                 ADCON0bits.CHS = 0;
  1560  047F  30C3               	movlw	-61
  1561  0480  059F               	andwf	31,f	;volatile
  1562  0481                     l4349:
  1563                           
  1564                           ;Slave2.c: 213:             _delay((unsigned long)((200)*(8000000/4000000.0)));
  1565  0481  3084               	movlw	132
  1566  0482  1283               	bcf	3,5	;RP0=0, select bank0
  1567  0483  1303               	bcf	3,6	;RP1=0, select bank0
  1568  0484  00E7               	movwf	??_main
  1569  0485                     u6397:
  1570  0485  0BE7               	decfsz	??_main,f
  1571  0486  2C85               	goto	u6397
  1572  0487  0000               	nop
  1573  0488                     l4351:
  1574                           
  1575                           ;Slave2.c: 214:             ADCON0bits.GO = 1;
  1576  0488  1283               	bcf	3,5	;RP0=0, select bank0
  1577  0489  1303               	bcf	3,6	;RP1=0, select bank0
  1578  048A  149F               	bsf	31,1	;volatile
  1579  048B                     l4353:
  1580                           
  1581                           ;Slave2.c: 217:     peso=hx711_promedio(10,128)-(float)offset;
  1582  048B  3080               	movlw	128
  1583  048C  00E7               	movwf	??_main
  1584  048D  0867               	movf	??_main,w
  1585  048E  00AF               	movwf	hx711_promedio@ganancia
  1586  048F  300A               	movlw	10
  1587  0490  160A  118A  253D  120A  118A  	fcall	_hx711_promedio
  1588  0495  1283               	bcf	3,5	;RP0=0, select bank0
  1589  0496  1303               	bcf	3,6	;RP1=0, select bank0
  1590  0497  082F               	movf	?_hx711_promedio,w
  1591  0498  00E8               	movwf	??_main+1
  1592  0499  0830               	movf	?_hx711_promedio+1,w
  1593  049A  00E9               	movwf	??_main+2
  1594  049B  0831               	movf	?_hx711_promedio+2,w
  1595  049C  00EA               	movwf	??_main+3
  1596  049D  0832               	movf	?_hx711_promedio+3,w
  1597  049E  00EB               	movwf	??_main+4
  1598  049F  1683               	bsf	3,5	;RP0=1, select bank1
  1599  04A0  1303               	bcf	3,6	;RP1=0, select bank1
  1600  04A1  0853               	movf	_offset^(0+128),w
  1601  04A2  1283               	bcf	3,5	;RP0=0, select bank0
  1602  04A3  1303               	bcf	3,6	;RP1=0, select bank0
  1603  04A4  02E8               	subwf	??_main+1,f
  1604  04A5  1683               	bsf	3,5	;RP0=1, select bank1
  1605  04A6  1303               	bcf	3,6	;RP1=0, select bank1
  1606  04A7  0854               	movf	(_offset+1)^(0+128),w
  1607  04A8  1C03               	skipc
  1608  04A9  0F54               	incfsz	(_offset+1)^(0+128),w
  1609  04AA  2CAC               	goto	u6331
  1610  04AB  2CAF               	goto	u6332
  1611  04AC                     u6331:
  1612  04AC  1283               	bcf	3,5	;RP0=0, select bank0
  1613  04AD  1303               	bcf	3,6	;RP1=0, select bank0
  1614  04AE  02E9               	subwf	??_main+2,f
  1615  04AF                     u6332:
  1616  04AF  1683               	bsf	3,5	;RP0=1, select bank1
  1617  04B0  1303               	bcf	3,6	;RP1=0, select bank1
  1618  04B1  0855               	movf	(_offset+2)^(0+128),w
  1619  04B2  1C03               	skipc
  1620  04B3  0F55               	incfsz	(_offset+2)^(0+128),w
  1621  04B4  2CB6               	goto	u6333
  1622  04B5  2CB9               	goto	u6334
  1623  04B6                     u6333:
  1624  04B6  1283               	bcf	3,5	;RP0=0, select bank0
  1625  04B7  1303               	bcf	3,6	;RP1=0, select bank0
  1626  04B8  02EA               	subwf	??_main+3,f
  1627  04B9                     u6334:
  1628  04B9  1683               	bsf	3,5	;RP0=1, select bank1
  1629  04BA  1303               	bcf	3,6	;RP1=0, select bank1
  1630  04BB  0856               	movf	(_offset+3)^(0+128),w
  1631  04BC  1C03               	skipc
  1632  04BD  0F56               	incfsz	(_offset+3)^(0+128),w
  1633  04BE  2CC0               	goto	u6335
  1634  04BF  2CC3               	goto	u6336
  1635  04C0                     u6335:
  1636  04C0  1283               	bcf	3,5	;RP0=0, select bank0
  1637  04C1  1303               	bcf	3,6	;RP1=0, select bank0
  1638  04C2  02EB               	subwf	??_main+4,f
  1639  04C3                     u6336:
  1640  04C3  1683               	bsf	3,5	;RP0=1, select bank1
  1641  04C4  1303               	bcf	3,6	;RP1=0, select bank1
  1642  04C5  1283               	bcf	3,5	;RP0=0, select bank0
  1643  04C6  1303               	bcf	3,6	;RP1=0, select bank0
  1644  04C7  086B               	movf	??_main+4,w
  1645  04C8  00C0               	movwf	___xxtofl@val+3
  1646  04C9  086A               	movf	??_main+3,w
  1647  04CA  00BF               	movwf	___xxtofl@val+2
  1648  04CB  0869               	movf	??_main+2,w
  1649  04CC  00BE               	movwf	___xxtofl@val+1
  1650  04CD  0868               	movf	??_main+1,w
  1651  04CE  00BD               	movwf	___xxtofl@val
  1652  04CF  3001               	movlw	1
  1653  04D0  120A  158A  2023  120A  118A  	fcall	___xxtofl
  1654  04D5  1283               	bcf	3,5	;RP0=0, select bank0
  1655  04D6  1303               	bcf	3,6	;RP1=0, select bank0
  1656  04D7  0840               	movf	?___xxtofl+3,w
  1657  04D8  1683               	bsf	3,5	;RP0=1, select bank1
  1658  04D9  1303               	bcf	3,6	;RP1=0, select bank1
  1659  04DA  00AD               	movwf	(_peso+3)^(0+128)
  1660  04DB  1283               	bcf	3,5	;RP0=0, select bank0
  1661  04DC  1303               	bcf	3,6	;RP1=0, select bank0
  1662  04DD  083F               	movf	?___xxtofl+2,w
  1663  04DE  1683               	bsf	3,5	;RP0=1, select bank1
  1664  04DF  1303               	bcf	3,6	;RP1=0, select bank1
  1665  04E0  00AC               	movwf	(_peso+2)^(0+128)
  1666  04E1  1283               	bcf	3,5	;RP0=0, select bank0
  1667  04E2  1303               	bcf	3,6	;RP1=0, select bank0
  1668  04E3  083E               	movf	?___xxtofl+1,w
  1669  04E4  1683               	bsf	3,5	;RP0=1, select bank1
  1670  04E5  1303               	bcf	3,6	;RP1=0, select bank1
  1671  04E6  00AB               	movwf	(_peso+1)^(0+128)
  1672  04E7  1283               	bcf	3,5	;RP0=0, select bank0
  1673  04E8  1303               	bcf	3,6	;RP1=0, select bank0
  1674  04E9  083D               	movf	?___xxtofl,w
  1675  04EA  1683               	bsf	3,5	;RP0=1, select bank1
  1676  04EB  1303               	bcf	3,6	;RP1=0, select bank1
  1677  04EC  00AA               	movwf	_peso^(0+128)
  1678  04ED                     l4355:
  1679                           
  1680                           ;Slave2.c: 218:     peso=peso*factor;
  1681  04ED  085A               	movf	(_factor+3)^(0+128),w
  1682  04EE  1283               	bcf	3,5	;RP0=0, select bank0
  1683  04EF  1303               	bcf	3,6	;RP1=0, select bank0
  1684  04F0  00A8               	movwf	___flmul@b+3
  1685  04F1  1683               	bsf	3,5	;RP0=1, select bank1
  1686  04F2  1303               	bcf	3,6	;RP1=0, select bank1
  1687  04F3  0859               	movf	(_factor+2)^(0+128),w
  1688  04F4  1283               	bcf	3,5	;RP0=0, select bank0
  1689  04F5  1303               	bcf	3,6	;RP1=0, select bank0
  1690  04F6  00A7               	movwf	___flmul@b+2
  1691  04F7  1683               	bsf	3,5	;RP0=1, select bank1
  1692  04F8  1303               	bcf	3,6	;RP1=0, select bank1
  1693  04F9  0858               	movf	(_factor+1)^(0+128),w
  1694  04FA  1283               	bcf	3,5	;RP0=0, select bank0
  1695  04FB  1303               	bcf	3,6	;RP1=0, select bank0
  1696  04FC  00A6               	movwf	___flmul@b+1
  1697  04FD  1683               	bsf	3,5	;RP0=1, select bank1
  1698  04FE  1303               	bcf	3,6	;RP1=0, select bank1
  1699  04FF  0857               	movf	_factor^(0+128),w
  1700  0500  1283               	bcf	3,5	;RP0=0, select bank0
  1701  0501  1303               	bcf	3,6	;RP1=0, select bank0
  1702  0502  00A5               	movwf	___flmul@b
  1703  0503  1683               	bsf	3,5	;RP0=1, select bank1
  1704  0504  1303               	bcf	3,6	;RP1=0, select bank1
  1705  0505  082D               	movf	(_peso+3)^(0+128),w
  1706  0506  1283               	bcf	3,5	;RP0=0, select bank0
  1707  0507  1303               	bcf	3,6	;RP1=0, select bank0
  1708  0508  00AC               	movwf	___flmul@a+3
  1709  0509  1683               	bsf	3,5	;RP0=1, select bank1
  1710  050A  1303               	bcf	3,6	;RP1=0, select bank1
  1711  050B  082C               	movf	(_peso+2)^(0+128),w
  1712  050C  1283               	bcf	3,5	;RP0=0, select bank0
  1713  050D  1303               	bcf	3,6	;RP1=0, select bank0
  1714  050E  00AB               	movwf	___flmul@a+2
  1715  050F  1683               	bsf	3,5	;RP0=1, select bank1
  1716  0510  1303               	bcf	3,6	;RP1=0, select bank1
  1717  0511  082B               	movf	(_peso+1)^(0+128),w
  1718  0512  1283               	bcf	3,5	;RP0=0, select bank0
  1719  0513  1303               	bcf	3,6	;RP1=0, select bank0
  1720  0514  00AA               	movwf	___flmul@a+1
  1721  0515  1683               	bsf	3,5	;RP0=1, select bank1
  1722  0516  1303               	bcf	3,6	;RP1=0, select bank1
  1723  0517  082A               	movf	_peso^(0+128),w
  1724  0518  1283               	bcf	3,5	;RP0=0, select bank0
  1725  0519  1303               	bcf	3,6	;RP1=0, select bank0
  1726  051A  00A9               	movwf	___flmul@a
  1727  051B  120A  118A  2037  120A  118A  	fcall	___flmul
  1728  0520  1283               	bcf	3,5	;RP0=0, select bank0
  1729  0521  1303               	bcf	3,6	;RP1=0, select bank0
  1730  0522  0828               	movf	?___flmul+3,w
  1731  0523  1683               	bsf	3,5	;RP0=1, select bank1
  1732  0524  1303               	bcf	3,6	;RP1=0, select bank1
  1733  0525  00AD               	movwf	(_peso+3)^(0+128)
  1734  0526  1283               	bcf	3,5	;RP0=0, select bank0
  1735  0527  1303               	bcf	3,6	;RP1=0, select bank0
  1736  0528  0827               	movf	?___flmul+2,w
  1737  0529  1683               	bsf	3,5	;RP0=1, select bank1
  1738  052A  1303               	bcf	3,6	;RP1=0, select bank1
  1739  052B  00AC               	movwf	(_peso+2)^(0+128)
  1740  052C  1283               	bcf	3,5	;RP0=0, select bank0
  1741  052D  1303               	bcf	3,6	;RP1=0, select bank0
  1742  052E  0826               	movf	?___flmul+1,w
  1743  052F  1683               	bsf	3,5	;RP0=1, select bank1
  1744  0530  1303               	bcf	3,6	;RP1=0, select bank1
  1745  0531  00AB               	movwf	(_peso+1)^(0+128)
  1746  0532  1283               	bcf	3,5	;RP0=0, select bank0
  1747  0533  1303               	bcf	3,6	;RP1=0, select bank0
  1748  0534  0825               	movf	?___flmul,w
  1749  0535  1683               	bsf	3,5	;RP0=1, select bank1
  1750  0536  1303               	bcf	3,6	;RP1=0, select bank1
  1751  0537  00AA               	movwf	_peso^(0+128)
  1752  0538                     l4357:
  1753                           
  1754                           ;Slave2.c: 219:    if (peso<=0) peso=0;
  1755  0538  3000               	movlw	0
  1756  0539  1283               	bcf	3,5	;RP0=0, select bank0
  1757  053A  1303               	bcf	3,6	;RP1=0, select bank0
  1758  053B  00A3               	movwf	___flge@ff1+3
  1759  053C  3000               	movlw	0
  1760  053D  00A2               	movwf	___flge@ff1+2
  1761  053E  3000               	movlw	0
  1762  053F  00A1               	movwf	___flge@ff1+1
  1763  0540  3000               	movlw	0
  1764  0541  00A0               	movwf	___flge@ff1
  1765  0542  1683               	bsf	3,5	;RP0=1, select bank1
  1766  0543  1303               	bcf	3,6	;RP1=0, select bank1
  1767  0544  082D               	movf	(_peso+3)^(0+128),w
  1768  0545  1283               	bcf	3,5	;RP0=0, select bank0
  1769  0546  1303               	bcf	3,6	;RP1=0, select bank0
  1770  0547  00A7               	movwf	___flge@ff2+3
  1771  0548  1683               	bsf	3,5	;RP0=1, select bank1
  1772  0549  1303               	bcf	3,6	;RP1=0, select bank1
  1773  054A  082C               	movf	(_peso+2)^(0+128),w
  1774  054B  1283               	bcf	3,5	;RP0=0, select bank0
  1775  054C  1303               	bcf	3,6	;RP1=0, select bank0
  1776  054D  00A6               	movwf	___flge@ff2+2
  1777  054E  1683               	bsf	3,5	;RP0=1, select bank1
  1778  054F  1303               	bcf	3,6	;RP1=0, select bank1
  1779  0550  082B               	movf	(_peso+1)^(0+128),w
  1780  0551  1283               	bcf	3,5	;RP0=0, select bank0
  1781  0552  1303               	bcf	3,6	;RP1=0, select bank0
  1782  0553  00A5               	movwf	___flge@ff2+1
  1783  0554  1683               	bsf	3,5	;RP0=1, select bank1
  1784  0555  1303               	bcf	3,6	;RP1=0, select bank1
  1785  0556  082A               	movf	_peso^(0+128),w
  1786  0557  1283               	bcf	3,5	;RP0=0, select bank0
  1787  0558  1303               	bcf	3,6	;RP1=0, select bank0
  1788  0559  00A4               	movwf	___flge@ff2
  1789  055A  160A  118A  275C  120A  118A  	fcall	___flge
  1790  055F  1C03               	btfss	3,0
  1791  0560  2D62               	goto	u6341
  1792  0561  2D63               	goto	u6340
  1793  0562                     u6341:
  1794  0562  2D6D               	goto	l4361
  1795  0563                     u6340:
  1796  0563                     l4359:
  1797  0563  3000               	movlw	0
  1798  0564  1683               	bsf	3,5	;RP0=1, select bank1
  1799  0565  1303               	bcf	3,6	;RP1=0, select bank1
  1800  0566  00AD               	movwf	(_peso+3)^(0+128)
  1801  0567  3000               	movlw	0
  1802  0568  00AC               	movwf	(_peso+2)^(0+128)
  1803  0569  3000               	movlw	0
  1804  056A  00AB               	movwf	(_peso+1)^(0+128)
  1805  056B  3000               	movlw	0
  1806  056C  00AA               	movwf	_peso^(0+128)
  1807  056D                     l4361:
  1808                           
  1809                           ;Slave2.c: 220:      floattostr_(peso,texto,1);
  1810  056D  1683               	bsf	3,5	;RP0=1, select bank1
  1811  056E  1303               	bcf	3,6	;RP1=0, select bank1
  1812  056F  082D               	movf	(_peso+3)^(0+128),w
  1813  0570  1283               	bcf	3,5	;RP0=0, select bank0
  1814  0571  1303               	bcf	3,6	;RP1=0, select bank0
  1815  0572  00D6               	movwf	floattostr_@numero_+3
  1816  0573  1683               	bsf	3,5	;RP0=1, select bank1
  1817  0574  1303               	bcf	3,6	;RP1=0, select bank1
  1818  0575  082C               	movf	(_peso+2)^(0+128),w
  1819  0576  1283               	bcf	3,5	;RP0=0, select bank0
  1820  0577  1303               	bcf	3,6	;RP1=0, select bank0
  1821  0578  00D5               	movwf	floattostr_@numero_+2
  1822  0579  1683               	bsf	3,5	;RP0=1, select bank1
  1823  057A  1303               	bcf	3,6	;RP1=0, select bank1
  1824  057B  082B               	movf	(_peso+1)^(0+128),w
  1825  057C  1283               	bcf	3,5	;RP0=0, select bank0
  1826  057D  1303               	bcf	3,6	;RP1=0, select bank0
  1827  057E  00D4               	movwf	floattostr_@numero_+1
  1828  057F  1683               	bsf	3,5	;RP0=1, select bank1
  1829  0580  1303               	bcf	3,6	;RP1=0, select bank1
  1830  0581  082A               	movf	_peso^(0+128),w
  1831  0582  1283               	bcf	3,5	;RP0=0, select bank0
  1832  0583  1303               	bcf	3,6	;RP1=0, select bank0
  1833  0584  00D3               	movwf	floattostr_@numero_
  1834  0585  30B5               	movlw	(low (_texto| 0))& (0+255)
  1835  0586  00D7               	movwf	floattostr_@cadena_
  1836  0587  3000               	movlw	0
  1837  0588  00D8               	movwf	floattostr_@cadena_+1
  1838  0589  01D9               	clrf	floattostr_@decimales_
  1839  058A  0AD9               	incf	floattostr_@decimales_,f
  1840  058B  120A  158A  2544  120A  118A  	fcall	_floattostr_
  1841  0590                     l4363:
  1842                           
  1843                           ;Slave2.c: 221:      Lcd_Set_Cursor(1, 1);
  1844  0590  01F7               	clrf	Lcd_Set_Cursor@b
  1845  0591  0AF7               	incf	Lcd_Set_Cursor@b,f
  1846  0592  3001               	movlw	1
  1847  0593  160A  118A  23B6  120A  118A  	fcall	_Lcd_Set_Cursor
  1848  0598                     l4365:
  1849                           
  1850                           ;Slave2.c: 222:      Lcd_Write_String("PESO:");
  1851  0598  300D               	movlw	(low ((STR_2-__stringbase)| (0+32768)))& (0+255)
  1852  0599  00F6               	movwf	Lcd_Write_String@a
  1853  059A  3080               	movlw	128
  1854  059B  00F7               	movwf	Lcd_Write_String@a+1
  1855  059C  160A  118A  248C  120A  118A  	fcall	_Lcd_Write_String
  1856  05A1                     l4367:
  1857                           
  1858                           ;Slave2.c: 223:      Lcd_Set_Cursor(2, 1);
  1859  05A1  01F7               	clrf	Lcd_Set_Cursor@b
  1860  05A2  0AF7               	incf	Lcd_Set_Cursor@b,f
  1861  05A3  3002               	movlw	2
  1862  05A4  160A  118A  23B6  120A  118A  	fcall	_Lcd_Set_Cursor
  1863  05A9                     l4369:
  1864                           
  1865                           ;Slave2.c: 224:      Lcd_Write_String(texto);
  1866  05A9  30B5               	movlw	(low (_texto| 0))& (0+255)
  1867  05AA  00F6               	movwf	Lcd_Write_String@a
  1868  05AB  3000               	movlw	0
  1869  05AC  00F7               	movwf	Lcd_Write_String@a+1
  1870  05AD  160A  118A  248C  120A  118A  	fcall	_Lcd_Write_String
  1871  05B2                     l4371:
  1872                           
  1873                           ;Slave2.c: 226:     if(PORTDbits.RD5==1)
  1874  05B2  1283               	bcf	3,5	;RP0=0, select bank0
  1875  05B3  1303               	bcf	3,6	;RP1=0, select bank0
  1876  05B4  1E88               	btfss	8,5	;volatile
  1877  05B5  2DB7               	goto	u6351
  1878  05B6  2DB8               	goto	u6350
  1879  05B7                     u6351:
  1880  05B7  2E2E               	goto	l4379
  1881  05B8                     u6350:
  1882  05B8                     l4373:
  1883                           
  1884                           ;Slave2.c: 227:    {;Slave2.c: 228:     tarar(10,128);
  1885  05B8  3080               	movlw	128
  1886  05B9  00E7               	movwf	??_main
  1887  05BA  0867               	movf	??_main,w
  1888  05BB  00BD               	movwf	tarar@ganancia
  1889  05BC  300A               	movlw	10
  1890  05BD  160A  118A  23DC  120A  118A  	fcall	_tarar
  1891                           
  1892                           ;Slave2.c: 229:     floattostr_(offset,tarart,1);
  1893  05C2  1683               	bsf	3,5	;RP0=1, select bank1
  1894  05C3  1303               	bcf	3,6	;RP1=0, select bank1
  1895  05C4  0856               	movf	(_offset+3)^(0+128),w
  1896  05C5  1283               	bcf	3,5	;RP0=0, select bank0
  1897  05C6  1303               	bcf	3,6	;RP1=0, select bank0
  1898  05C7  00C0               	movwf	___xxtofl@val+3
  1899  05C8  1683               	bsf	3,5	;RP0=1, select bank1
  1900  05C9  1303               	bcf	3,6	;RP1=0, select bank1
  1901  05CA  0855               	movf	(_offset+2)^(0+128),w
  1902  05CB  1283               	bcf	3,5	;RP0=0, select bank0
  1903  05CC  1303               	bcf	3,6	;RP1=0, select bank0
  1904  05CD  00BF               	movwf	___xxtofl@val+2
  1905  05CE  1683               	bsf	3,5	;RP0=1, select bank1
  1906  05CF  1303               	bcf	3,6	;RP1=0, select bank1
  1907  05D0  0854               	movf	(_offset+1)^(0+128),w
  1908  05D1  1283               	bcf	3,5	;RP0=0, select bank0
  1909  05D2  1303               	bcf	3,6	;RP1=0, select bank0
  1910  05D3  00BE               	movwf	___xxtofl@val+1
  1911  05D4  1683               	bsf	3,5	;RP0=1, select bank1
  1912  05D5  1303               	bcf	3,6	;RP1=0, select bank1
  1913  05D6  0853               	movf	_offset^(0+128),w
  1914  05D7  1283               	bcf	3,5	;RP0=0, select bank0
  1915  05D8  1303               	bcf	3,6	;RP1=0, select bank0
  1916  05D9  00BD               	movwf	___xxtofl@val
  1917  05DA  3001               	movlw	1
  1918  05DB  120A  158A  2023  120A  118A  	fcall	___xxtofl
  1919  05E0  1283               	bcf	3,5	;RP0=0, select bank0
  1920  05E1  1303               	bcf	3,6	;RP1=0, select bank0
  1921  05E2  0840               	movf	?___xxtofl+3,w
  1922  05E3  1683               	bsf	3,5	;RP0=1, select bank1
  1923  05E4  1303               	bcf	3,6	;RP1=0, select bank1
  1924  05E5  00DE               	movwf	(_main$1527+3)^(0+128)
  1925  05E6  1283               	bcf	3,5	;RP0=0, select bank0
  1926  05E7  1303               	bcf	3,6	;RP1=0, select bank0
  1927  05E8  083F               	movf	?___xxtofl+2,w
  1928  05E9  1683               	bsf	3,5	;RP0=1, select bank1
  1929  05EA  1303               	bcf	3,6	;RP1=0, select bank1
  1930  05EB  00DD               	movwf	(_main$1527+2)^(0+128)
  1931  05EC  1283               	bcf	3,5	;RP0=0, select bank0
  1932  05ED  1303               	bcf	3,6	;RP1=0, select bank0
  1933  05EE  083E               	movf	?___xxtofl+1,w
  1934  05EF  1683               	bsf	3,5	;RP0=1, select bank1
  1935  05F0  1303               	bcf	3,6	;RP1=0, select bank1
  1936  05F1  00DC               	movwf	(_main$1527+1)^(0+128)
  1937  05F2  1283               	bcf	3,5	;RP0=0, select bank0
  1938  05F3  1303               	bcf	3,6	;RP1=0, select bank0
  1939  05F4  083D               	movf	?___xxtofl,w
  1940  05F5  1683               	bsf	3,5	;RP0=1, select bank1
  1941  05F6  1303               	bcf	3,6	;RP1=0, select bank1
  1942  05F7  00DB               	movwf	_main$1527^(0+128)
  1943  05F8                     l4375:
  1944                           
  1945                           ;Slave2.c: 229:     floattostr_(offset,tarart,1);
  1946  05F8  085E               	movf	(_main$1527+3)^(0+128),w
  1947  05F9  1283               	bcf	3,5	;RP0=0, select bank0
  1948  05FA  1303               	bcf	3,6	;RP1=0, select bank0
  1949  05FB  00D6               	movwf	floattostr_@numero_+3
  1950  05FC  1683               	bsf	3,5	;RP0=1, select bank1
  1951  05FD  1303               	bcf	3,6	;RP1=0, select bank1
  1952  05FE  085D               	movf	(_main$1527+2)^(0+128),w
  1953  05FF  1283               	bcf	3,5	;RP0=0, select bank0
  1954  0600  1303               	bcf	3,6	;RP1=0, select bank0
  1955  0601  00D5               	movwf	floattostr_@numero_+2
  1956  0602  1683               	bsf	3,5	;RP0=1, select bank1
  1957  0603  1303               	bcf	3,6	;RP1=0, select bank1
  1958  0604  085C               	movf	(_main$1527+1)^(0+128),w
  1959  0605  1283               	bcf	3,5	;RP0=0, select bank0
  1960  0606  1303               	bcf	3,6	;RP1=0, select bank0
  1961  0607  00D4               	movwf	floattostr_@numero_+1
  1962  0608  1683               	bsf	3,5	;RP0=1, select bank1
  1963  0609  1303               	bcf	3,6	;RP1=0, select bank1
  1964  060A  085B               	movf	_main$1527^(0+128),w
  1965  060B  1283               	bcf	3,5	;RP0=0, select bank0
  1966  060C  1303               	bcf	3,6	;RP1=0, select bank0
  1967  060D  00D3               	movwf	floattostr_@numero_
  1968  060E  3090               	movlw	(low (_tarart| (0+256)))& (0+255)
  1969  060F  00D7               	movwf	floattostr_@cadena_
  1970  0610  3001               	movlw	1
  1971  0611  00D8               	movwf	floattostr_@cadena_+1
  1972  0612  01D9               	clrf	floattostr_@decimales_
  1973  0613  0AD9               	incf	floattostr_@decimales_,f
  1974  0614  120A  158A  2544  120A  118A  	fcall	_floattostr_
  1975  0619                     l4377:
  1976                           
  1977                           ;Slave2.c: 230:     Lcd_Set_Cursor(2, 8);
  1978  0619  3008               	movlw	8
  1979  061A  1283               	bcf	3,5	;RP0=0, select bank0
  1980  061B  1303               	bcf	3,6	;RP1=0, select bank0
  1981  061C  00E7               	movwf	??_main
  1982  061D  0867               	movf	??_main,w
  1983  061E  00F7               	movwf	Lcd_Set_Cursor@b
  1984  061F  3002               	movlw	2
  1985  0620  160A  118A  23B6  120A  118A  	fcall	_Lcd_Set_Cursor
  1986                           
  1987                           ;Slave2.c: 231:     Lcd_Write_String(tarart);
  1988  0625  3090               	movlw	(low (_tarart| (0+256)))& (0+255)
  1989  0626  00F6               	movwf	Lcd_Write_String@a
  1990  0627  3001               	movlw	1
  1991  0628  00F7               	movwf	Lcd_Write_String@a+1
  1992  0629  160A  118A  248C  120A  118A  	fcall	_Lcd_Write_String
  1993  062E                     l4379:
  1994                           
  1995                           ;Slave2.c: 235:      if (PORTDbits.RD4==1)
  1996  062E  1283               	bcf	3,5	;RP0=0, select bank0
  1997  062F  1303               	bcf	3,6	;RP1=0, select bank0
  1998  0630  1E08               	btfss	8,4	;volatile
  1999  0631  2E33               	goto	u6361
  2000  0632  2E34               	goto	u6360
  2001  0633                     u6361:
  2002  0633  2C30               	goto	l180
  2003  0634                     u6360:
  2004  0634                     l4381:
  2005                           
  2006                           ;Slave2.c: 236:    {;Slave2.c: 237:    cal=hx711_promedio(50,128)-(float)offset;
  2007  0634  3080               	movlw	128
  2008  0635  00E7               	movwf	??_main
  2009  0636  0867               	movf	??_main,w
  2010  0637  00AF               	movwf	hx711_promedio@ganancia
  2011  0638  3032               	movlw	50
  2012  0639  160A  118A  253D  120A  118A  	fcall	_hx711_promedio
  2013  063E  1283               	bcf	3,5	;RP0=0, select bank0
  2014  063F  1303               	bcf	3,6	;RP1=0, select bank0
  2015  0640  082F               	movf	?_hx711_promedio,w
  2016  0641  00E8               	movwf	??_main+1
  2017  0642  0830               	movf	?_hx711_promedio+1,w
  2018  0643  00E9               	movwf	??_main+2
  2019  0644  0831               	movf	?_hx711_promedio+2,w
  2020  0645  00EA               	movwf	??_main+3
  2021  0646  0832               	movf	?_hx711_promedio+3,w
  2022  0647  00EB               	movwf	??_main+4
  2023  0648  1683               	bsf	3,5	;RP0=1, select bank1
  2024  0649  1303               	bcf	3,6	;RP1=0, select bank1
  2025  064A  0853               	movf	_offset^(0+128),w
  2026  064B  1283               	bcf	3,5	;RP0=0, select bank0
  2027  064C  1303               	bcf	3,6	;RP1=0, select bank0
  2028  064D  02E8               	subwf	??_main+1,f
  2029  064E  1683               	bsf	3,5	;RP0=1, select bank1
  2030  064F  1303               	bcf	3,6	;RP1=0, select bank1
  2031  0650  0854               	movf	(_offset+1)^(0+128),w
  2032  0651  1C03               	skipc
  2033  0652  0F54               	incfsz	(_offset+1)^(0+128),w
  2034  0653  2E55               	goto	u6371
  2035  0654  2E58               	goto	u6372
  2036  0655                     u6371:
  2037  0655  1283               	bcf	3,5	;RP0=0, select bank0
  2038  0656  1303               	bcf	3,6	;RP1=0, select bank0
  2039  0657  02E9               	subwf	??_main+2,f
  2040  0658                     u6372:
  2041  0658  1683               	bsf	3,5	;RP0=1, select bank1
  2042  0659  1303               	bcf	3,6	;RP1=0, select bank1
  2043  065A  0855               	movf	(_offset+2)^(0+128),w
  2044  065B  1C03               	skipc
  2045  065C  0F55               	incfsz	(_offset+2)^(0+128),w
  2046  065D  2E5F               	goto	u6373
  2047  065E  2E62               	goto	u6374
  2048  065F                     u6373:
  2049  065F  1283               	bcf	3,5	;RP0=0, select bank0
  2050  0660  1303               	bcf	3,6	;RP1=0, select bank0
  2051  0661  02EA               	subwf	??_main+3,f
  2052  0662                     u6374:
  2053  0662  1683               	bsf	3,5	;RP0=1, select bank1
  2054  0663  1303               	bcf	3,6	;RP1=0, select bank1
  2055  0664  0856               	movf	(_offset+3)^(0+128),w
  2056  0665  1C03               	skipc
  2057  0666  0F56               	incfsz	(_offset+3)^(0+128),w
  2058  0667  2E69               	goto	u6375
  2059  0668  2E6C               	goto	u6376
  2060  0669                     u6375:
  2061  0669  1283               	bcf	3,5	;RP0=0, select bank0
  2062  066A  1303               	bcf	3,6	;RP1=0, select bank0
  2063  066B  02EB               	subwf	??_main+4,f
  2064  066C                     u6376:
  2065  066C  1683               	bsf	3,5	;RP0=1, select bank1
  2066  066D  1303               	bcf	3,6	;RP1=0, select bank1
  2067  066E  1283               	bcf	3,5	;RP0=0, select bank0
  2068  066F  1303               	bcf	3,6	;RP1=0, select bank0
  2069  0670  086B               	movf	??_main+4,w
  2070  0671  00C0               	movwf	___xxtofl@val+3
  2071  0672  086A               	movf	??_main+3,w
  2072  0673  00BF               	movwf	___xxtofl@val+2
  2073  0674  0869               	movf	??_main+2,w
  2074  0675  00BE               	movwf	___xxtofl@val+1
  2075  0676  0868               	movf	??_main+1,w
  2076  0677  00BD               	movwf	___xxtofl@val
  2077  0678  3001               	movlw	1
  2078  0679  120A  158A  2023  120A  118A  	fcall	___xxtofl
  2079  067E  1283               	bcf	3,5	;RP0=0, select bank0
  2080  067F  1303               	bcf	3,6	;RP1=0, select bank0
  2081  0680  0840               	movf	?___xxtofl+3,w
  2082  0681  1683               	bsf	3,5	;RP0=1, select bank1
  2083  0682  1303               	bcf	3,6	;RP1=0, select bank1
  2084  0683  00D1               	movwf	(_cal+3)^(0+128)
  2085  0684  1283               	bcf	3,5	;RP0=0, select bank0
  2086  0685  1303               	bcf	3,6	;RP1=0, select bank0
  2087  0686  083F               	movf	?___xxtofl+2,w
  2088  0687  1683               	bsf	3,5	;RP0=1, select bank1
  2089  0688  1303               	bcf	3,6	;RP1=0, select bank1
  2090  0689  00D0               	movwf	(_cal+2)^(0+128)
  2091  068A  1283               	bcf	3,5	;RP0=0, select bank0
  2092  068B  1303               	bcf	3,6	;RP1=0, select bank0
  2093  068C  083E               	movf	?___xxtofl+1,w
  2094  068D  1683               	bsf	3,5	;RP0=1, select bank1
  2095  068E  1303               	bcf	3,6	;RP1=0, select bank1
  2096  068F  00CF               	movwf	(_cal+1)^(0+128)
  2097  0690  1283               	bcf	3,5	;RP0=0, select bank0
  2098  0691  1303               	bcf	3,6	;RP1=0, select bank0
  2099  0692  083D               	movf	?___xxtofl,w
  2100  0693  1683               	bsf	3,5	;RP0=1, select bank1
  2101  0694  1303               	bcf	3,6	;RP1=0, select bank1
  2102  0695  00CE               	movwf	_cal^(0+128)
  2103  0696                     l4383:
  2104                           
  2105                           ;Slave2.c: 238:    factor= prueba/cal;
  2106  0696  0851               	movf	(_cal+3)^(0+128),w
  2107  0697  1283               	bcf	3,5	;RP0=0, select bank0
  2108  0698  1303               	bcf	3,6	;RP1=0, select bank0
  2109  0699  00A3               	movwf	___fldiv@a+3
  2110  069A  1683               	bsf	3,5	;RP0=1, select bank1
  2111  069B  1303               	bcf	3,6	;RP1=0, select bank1
  2112  069C  0850               	movf	(_cal+2)^(0+128),w
  2113  069D  1283               	bcf	3,5	;RP0=0, select bank0
  2114  069E  1303               	bcf	3,6	;RP1=0, select bank0
  2115  069F  00A2               	movwf	___fldiv@a+2
  2116  06A0  1683               	bsf	3,5	;RP0=1, select bank1
  2117  06A1  1303               	bcf	3,6	;RP1=0, select bank1
  2118  06A2  084F               	movf	(_cal+1)^(0+128),w
  2119  06A3  1283               	bcf	3,5	;RP0=0, select bank0
  2120  06A4  1303               	bcf	3,6	;RP1=0, select bank0
  2121  06A5  00A1               	movwf	___fldiv@a+1
  2122  06A6  1683               	bsf	3,5	;RP0=1, select bank1
  2123  06A7  1303               	bcf	3,6	;RP1=0, select bank1
  2124  06A8  084E               	movf	_cal^(0+128),w
  2125  06A9  1283               	bcf	3,5	;RP0=0, select bank0
  2126  06AA  1303               	bcf	3,6	;RP1=0, select bank0
  2127  06AB  00A0               	movwf	___fldiv@a
  2128  06AC  3044               	movlw	68
  2129  06AD  00A7               	movwf	___fldiv@b+3
  2130  06AE  307A               	movlw	122
  2131  06AF  00A6               	movwf	___fldiv@b+2
  2132  06B0  3000               	movlw	0
  2133  06B1  00A5               	movwf	___fldiv@b+1
  2134  06B2  3000               	movlw	0
  2135  06B3  00A4               	movwf	___fldiv@b
  2136  06B4  120A  158A  20DF  120A  118A  	fcall	___fldiv
  2137  06B9  1283               	bcf	3,5	;RP0=0, select bank0
  2138  06BA  1303               	bcf	3,6	;RP1=0, select bank0
  2139  06BB  0823               	movf	?___fldiv+3,w
  2140  06BC  1683               	bsf	3,5	;RP0=1, select bank1
  2141  06BD  1303               	bcf	3,6	;RP1=0, select bank1
  2142  06BE  00DA               	movwf	(_factor+3)^(0+128)
  2143  06BF  1283               	bcf	3,5	;RP0=0, select bank0
  2144  06C0  1303               	bcf	3,6	;RP1=0, select bank0
  2145  06C1  0822               	movf	?___fldiv+2,w
  2146  06C2  1683               	bsf	3,5	;RP0=1, select bank1
  2147  06C3  1303               	bcf	3,6	;RP1=0, select bank1
  2148  06C4  00D9               	movwf	(_factor+2)^(0+128)
  2149  06C5  1283               	bcf	3,5	;RP0=0, select bank0
  2150  06C6  1303               	bcf	3,6	;RP1=0, select bank0
  2151  06C7  0821               	movf	?___fldiv+1,w
  2152  06C8  1683               	bsf	3,5	;RP0=1, select bank1
  2153  06C9  1303               	bcf	3,6	;RP1=0, select bank1
  2154  06CA  00D8               	movwf	(_factor+1)^(0+128)
  2155  06CB  1283               	bcf	3,5	;RP0=0, select bank0
  2156  06CC  1303               	bcf	3,6	;RP1=0, select bank0
  2157  06CD  0820               	movf	?___fldiv,w
  2158  06CE  1683               	bsf	3,5	;RP0=1, select bank1
  2159  06CF  1303               	bcf	3,6	;RP1=0, select bank1
  2160  06D0  00D7               	movwf	_factor^(0+128)
  2161  06D1  2C30               	goto	l180
  2162  06D2  120A  118A  280C   	ljmp	start
  2163  06D5                     __end_of_main:
  2164                           
  2165                           	psect	text1
  2166  13DC                     __ptext1:	
  2167 ;; *************** function _tarar *****************
  2168 ;; Defined at:
  2169 ;;		line 104 in file "hx711.c"
  2170 ;; Parameters:    Size  Location     Type
  2171 ;;  veces           1    wreg     unsigned char 
  2172 ;;  ganancia        1   29[BANK0 ] unsigned char 
  2173 ;; Auto vars:     Size  Location     Type
  2174 ;;  veces           1   31[BANK0 ] unsigned char 
  2175 ;; Return value:  Size  Location     Type
  2176 ;;                  1    wreg      void 
  2177 ;; Registers used:
  2178 ;;		wreg, status,2, status,0, pclath, cstack
  2179 ;; Tracked objects:
  2180 ;;		On entry : 0/0
  2181 ;;		On exit  : 0/0
  2182 ;;		Unchanged: 0/0
  2183 ;; Data sizes:     COMMON   BANK0   BANK1   BANK3   BANK2
  2184 ;;      Params:         0       1       0       0       0
  2185 ;;      Locals:         0       1       0       0       0
  2186 ;;      Temps:          0       1       0       0       0
  2187 ;;      Totals:         0       3       0       0       0
  2188 ;;Total ram usage:        3 bytes
  2189 ;; Hardware stack levels used:    1
  2190 ;; Hardware stack levels required when called:    4
  2191 ;; This function calls:
  2192 ;;		_hx711_promedio
  2193 ;; This function is called by:
  2194 ;;		_main
  2195 ;; This function uses a non-reentrant model
  2196 ;;
  2197                           
  2198                           
  2199                           ;psect for function _tarar
  2200  13DC                     _tarar:
  2201                           
  2202                           ;incstack = 0
  2203                           ; Regs used in _tarar: [wreg+status,2+status,0+pclath+cstack]
  2204                           ;tarar@veces stored from wreg
  2205  13DC  1283               	bcf	3,5	;RP0=0, select bank0
  2206  13DD  1303               	bcf	3,6	;RP1=0, select bank0
  2207  13DE  00BF               	movwf	tarar@veces
  2208  13DF                     l4317:
  2209                           
  2210                           ;hx711.c: 104: void tarar(unsigned char veces,unsigned char ganancia);hx711.c: 105:  {;h
      +                          x711.c: 106:          offset=hx711_promedio(veces,ganancia);
  2211  13DF  083D               	movf	tarar@ganancia,w
  2212  13E0  00BE               	movwf	??_tarar
  2213  13E1  083E               	movf	??_tarar,w
  2214  13E2  00AF               	movwf	hx711_promedio@ganancia
  2215  13E3  083F               	movf	tarar@veces,w
  2216  13E4  160A  118A  253D  160A  118A  	fcall	_hx711_promedio
  2217  13E9  1283               	bcf	3,5	;RP0=0, select bank0
  2218  13EA  1303               	bcf	3,6	;RP1=0, select bank0
  2219  13EB  0832               	movf	?_hx711_promedio+3,w
  2220  13EC  1683               	bsf	3,5	;RP0=1, select bank1
  2221  13ED  1303               	bcf	3,6	;RP1=0, select bank1
  2222  13EE  00D6               	movwf	(_offset+3)^(0+128)
  2223  13EF  1283               	bcf	3,5	;RP0=0, select bank0
  2224  13F0  1303               	bcf	3,6	;RP1=0, select bank0
  2225  13F1  0831               	movf	?_hx711_promedio+2,w
  2226  13F2  1683               	bsf	3,5	;RP0=1, select bank1
  2227  13F3  1303               	bcf	3,6	;RP1=0, select bank1
  2228  13F4  00D5               	movwf	(_offset+2)^(0+128)
  2229  13F5  1283               	bcf	3,5	;RP0=0, select bank0
  2230  13F6  1303               	bcf	3,6	;RP1=0, select bank0
  2231  13F7  0830               	movf	?_hx711_promedio+1,w
  2232  13F8  1683               	bsf	3,5	;RP0=1, select bank1
  2233  13F9  1303               	bcf	3,6	;RP1=0, select bank1
  2234  13FA  00D4               	movwf	(_offset+1)^(0+128)
  2235  13FB  1283               	bcf	3,5	;RP0=0, select bank0
  2236  13FC  1303               	bcf	3,6	;RP1=0, select bank0
  2237  13FD  082F               	movf	?_hx711_promedio,w
  2238  13FE  1683               	bsf	3,5	;RP0=1, select bank1
  2239  13FF  1303               	bcf	3,6	;RP1=0, select bank1
  2240  1400  00D3               	movwf	_offset^(0+128)
  2241  1401                     l235:
  2242  1401  0008               	return
  2243  1402                     __end_of_tarar:
  2244                           
  2245                           	psect	text2
  2246  153D                     __ptext2:	
  2247 ;; *************** function _hx711_promedio *****************
  2248 ;; Defined at:
  2249 ;;		line 91 in file "hx711.c"
  2250 ;; Parameters:    Size  Location     Type
  2251 ;;  veces           1    wreg     unsigned char 
  2252 ;;  ganancia        1   15[BANK0 ] unsigned char 
  2253 ;; Auto vars:     Size  Location     Type
  2254 ;;  veces           1   23[BANK0 ] unsigned char 
  2255 ;;  prom            4   24[BANK0 ] long 
  2256 ;;  cont            1   28[BANK0 ] unsigned char 
  2257 ;; Return value:  Size  Location     Type
  2258 ;;                  4   15[BANK0 ] long 
  2259 ;; Registers used:
  2260 ;;		wreg, status,2, status,0, pclath, cstack
  2261 ;; Tracked objects:
  2262 ;;		On entry : 0/0
  2263 ;;		On exit  : 0/0
  2264 ;;		Unchanged: 0/0
  2265 ;; Data sizes:     COMMON   BANK0   BANK1   BANK3   BANK2
  2266 ;;      Params:         0       4       0       0       0
  2267 ;;      Locals:         0       6       0       0       0
  2268 ;;      Temps:          0       4       0       0       0
  2269 ;;      Totals:         0      14       0       0       0
  2270 ;;Total ram usage:       14 bytes
  2271 ;; Hardware stack levels used:    1
  2272 ;; Hardware stack levels required when called:    3
  2273 ;; This function calls:
  2274 ;;		___aldiv
  2275 ;;		_hx711_lectura
  2276 ;; This function is called by:
  2277 ;;		_main
  2278 ;;		_tarar
  2279 ;; This function uses a non-reentrant model
  2280 ;;
  2281                           
  2282                           
  2283                           ;psect for function _hx711_promedio
  2284  153D                     _hx711_promedio:
  2285                           
  2286                           ;incstack = 0
  2287                           ; Regs used in _hx711_promedio: [wreg+status,2+status,0+pclath+cstack]
  2288                           ;hx711_promedio@veces stored from wreg
  2289  153D  1283               	bcf	3,5	;RP0=0, select bank0
  2290  153E  1303               	bcf	3,6	;RP1=0, select bank0
  2291  153F  00B7               	movwf	hx711_promedio@veces
  2292  1540                     l3615:
  2293                           
  2294                           ;hx711.c: 91: signed long hx711_promedio(unsigned char veces,unsigned char ganancia);hx7
      +                          11.c: 92:  {;hx711.c: 93:         signed long prom = 0;
  2295  1540  3000               	movlw	0
  2296  1541  00BB               	movwf	hx711_promedio@prom+3
  2297  1542  3000               	movlw	0
  2298  1543  00BA               	movwf	hx711_promedio@prom+2
  2299  1544  3000               	movlw	0
  2300  1545  00B9               	movwf	hx711_promedio@prom+1
  2301  1546  3000               	movlw	0
  2302  1547  00B8               	movwf	hx711_promedio@prom
  2303  1548                     l3617:
  2304                           
  2305                           ;hx711.c: 94:         unsigned char cont;;hx711.c: 96:         for (cont = 0; cont < vec
      +                          es; cont++)
  2306  1548  01BC               	clrf	hx711_promedio@cont
  2307  1549  2D8A               	goto	l3625
  2308  154A                     l3619:
  2309                           
  2310                           ;hx711.c: 97:         {;hx711.c: 98:           prom =prom+ hx711_lectura(ganancia);
  2311  154A  082F               	movf	hx711_promedio@ganancia,w
  2312  154B  120A  118A  26D5  160A  118A  	fcall	_hx711_lectura
  2313  1550  0874               	movf	?_hx711_lectura,w
  2314  1551  1283               	bcf	3,5	;RP0=0, select bank0
  2315  1552  1303               	bcf	3,6	;RP1=0, select bank0
  2316  1553  0738               	addwf	hx711_promedio@prom,w
  2317  1554  00B3               	movwf	??_hx711_promedio
  2318  1555  3000               	movlw	0
  2319  1556  1803               	skipnc
  2320  1557  3001               	movlw	1
  2321  1558  0775               	addwf	?_hx711_lectura+1,w
  2322  1559  01B5               	clrf	??_hx711_promedio+2
  2323  155A  1803               	skipnc
  2324  155B  0AB5               	incf	??_hx711_promedio+2,f
  2325  155C  0739               	addwf	hx711_promedio@prom+1,w
  2326  155D  00B4               	movwf	??_hx711_promedio+1
  2327  155E  1803               	skipnc
  2328  155F  0AB5               	incf	??_hx711_promedio+2,f
  2329  1560  0876               	movf	?_hx711_lectura+2,w
  2330  1561  0735               	addwf	??_hx711_promedio+2,w
  2331  1562  01B6               	clrf	??_hx711_promedio+3
  2332  1563  1803               	skipnc
  2333  1564  0AB6               	incf	??_hx711_promedio+3,f
  2334  1565  073A               	addwf	hx711_promedio@prom+2,w
  2335  1566  00B5               	movwf	??_hx711_promedio+2
  2336  1567  1803               	skipnc
  2337  1568  0AB6               	incf	??_hx711_promedio+3,f
  2338  1569  0877               	movf	?_hx711_lectura+3,w
  2339  156A  0736               	addwf	??_hx711_promedio+3,w
  2340  156B  073B               	addwf	hx711_promedio@prom+3,w
  2341  156C  00B6               	movwf	??_hx711_promedio+3
  2342  156D  0836               	movf	??_hx711_promedio+3,w
  2343  156E  00BB               	movwf	hx711_promedio@prom+3
  2344  156F  0835               	movf	??_hx711_promedio+2,w
  2345  1570  00BA               	movwf	hx711_promedio@prom+2
  2346  1571  0834               	movf	??_hx711_promedio+1,w
  2347  1572  00B9               	movwf	hx711_promedio@prom+1
  2348  1573  0833               	movf	??_hx711_promedio,w
  2349  1574  00B8               	movwf	hx711_promedio@prom
  2350  1575                     l3621:
  2351                           
  2352                           ;hx711.c: 99:            _delay((unsigned long)((100)*(8000000/4000.0)));
  2353  1575  3002               	movlw	2
  2354  1576  1283               	bcf	3,5	;RP0=0, select bank0
  2355  1577  1303               	bcf	3,6	;RP1=0, select bank0
  2356  1578  00B5               	movwf	??_hx711_promedio+2
  2357  1579  3004               	movlw	4
  2358  157A  00B4               	movwf	??_hx711_promedio+1
  2359  157B  30B9               	movlw	185
  2360  157C  00B3               	movwf	??_hx711_promedio
  2361  157D                     u6407:
  2362  157D  0BB3               	decfsz	??_hx711_promedio,f
  2363  157E  2D7D               	goto	u6407
  2364  157F  0BB4               	decfsz	??_hx711_promedio+1,f
  2365  1580  2D7D               	goto	u6407
  2366  1581  0BB5               	decfsz	??_hx711_promedio+2,f
  2367  1582  2D7D               	goto	u6407
  2368  1583  2D84               	nop2
  2369  1584                     l3623:
  2370                           
  2371                           ;hx711.c: 100:         }
  2372  1584  3001               	movlw	1
  2373  1585  1283               	bcf	3,5	;RP0=0, select bank0
  2374  1586  1303               	bcf	3,6	;RP1=0, select bank0
  2375  1587  00B3               	movwf	??_hx711_promedio
  2376  1588  0833               	movf	??_hx711_promedio,w
  2377  1589  07BC               	addwf	hx711_promedio@cont,f
  2378  158A                     l3625:
  2379  158A  0837               	movf	hx711_promedio@veces,w
  2380  158B  023C               	subwf	hx711_promedio@cont,w
  2381  158C  1C03               	skipc
  2382  158D  2D8F               	goto	u5031
  2383  158E  2D90               	goto	u5030
  2384  158F                     u5031:
  2385  158F  2D4A               	goto	l3619
  2386  1590                     u5030:
  2387  1590                     l3627:
  2388                           
  2389                           ;hx711.c: 101:         return (prom / cont);
  2390  1590  083C               	movf	hx711_promedio@cont,w
  2391  1591  00B3               	movwf	??_hx711_promedio
  2392  1592  01B4               	clrf	??_hx711_promedio+1
  2393  1593  01B5               	clrf	??_hx711_promedio+2
  2394  1594  01B6               	clrf	??_hx711_promedio+3
  2395  1595  0836               	movf	??_hx711_promedio+3,w
  2396  1596  00A3               	movwf	___aldiv@divisor+3
  2397  1597  0835               	movf	??_hx711_promedio+2,w
  2398  1598  00A2               	movwf	___aldiv@divisor+2
  2399  1599  0834               	movf	??_hx711_promedio+1,w
  2400  159A  00A1               	movwf	___aldiv@divisor+1
  2401  159B  0833               	movf	??_hx711_promedio,w
  2402  159C  00A0               	movwf	___aldiv@divisor
  2403  159D  083B               	movf	hx711_promedio@prom+3,w
  2404  159E  00A7               	movwf	___aldiv@dividend+3
  2405  159F  083A               	movf	hx711_promedio@prom+2,w
  2406  15A0  00A6               	movwf	___aldiv@dividend+2
  2407  15A1  0839               	movf	hx711_promedio@prom+1,w
  2408  15A2  00A5               	movwf	___aldiv@dividend+1
  2409  15A3  0838               	movf	hx711_promedio@prom,w
  2410  15A4  00A4               	movwf	___aldiv@dividend
  2411  15A5  160A  118A  26BF  160A  118A  	fcall	___aldiv
  2412  15AA  1283               	bcf	3,5	;RP0=0, select bank0
  2413  15AB  1303               	bcf	3,6	;RP1=0, select bank0
  2414  15AC  0823               	movf	?___aldiv+3,w
  2415  15AD  00B2               	movwf	?_hx711_promedio+3
  2416  15AE  0822               	movf	?___aldiv+2,w
  2417  15AF  00B1               	movwf	?_hx711_promedio+2
  2418  15B0  0821               	movf	?___aldiv+1,w
  2419  15B1  00B0               	movwf	?_hx711_promedio+1
  2420  15B2  0820               	movf	?___aldiv,w
  2421  15B3  00AF               	movwf	?_hx711_promedio
  2422  15B4                     l232:
  2423  15B4  0008               	return
  2424  15B5                     __end_of_hx711_promedio:
  2425                           
  2426                           	psect	text3
  2427  06D5                     __ptext3:	
  2428 ;; *************** function _hx711_lectura *****************
  2429 ;; Defined at:
  2430 ;;		line 45 in file "hx711.c"
  2431 ;; Parameters:    Size  Location     Type
  2432 ;;  ganancia        1    wreg     unsigned char 
  2433 ;; Auto vars:     Size  Location     Type
  2434 ;;  ganancia        1    8[BANK0 ] unsigned char 
  2435 ;;  hx711_dato      4   11[BANK0 ] long 
  2436 ;;  hx711_cont      2    9[BANK0 ] int 
  2437 ;; Return value:  Size  Location     Type
  2438 ;;                  4    4[COMMON] long 
  2439 ;; Registers used:
  2440 ;;		wreg, status,2, status,0, pclath, cstack
  2441 ;; Tracked objects:
  2442 ;;		On entry : 0/0
  2443 ;;		On exit  : 0/0
  2444 ;;		Unchanged: 0/0
  2445 ;; Data sizes:     COMMON   BANK0   BANK1   BANK3   BANK2
  2446 ;;      Params:         4       0       0       0       0
  2447 ;;      Locals:         0       7       0       0       0
  2448 ;;      Temps:          0       8       0       0       0
  2449 ;;      Totals:         4      15       0       0       0
  2450 ;;Total ram usage:       19 bytes
  2451 ;; Hardware stack levels used:    1
  2452 ;; Hardware stack levels required when called:    2
  2453 ;; This function calls:
  2454 ;;		_hx711_pulso
  2455 ;; This function is called by:
  2456 ;;		_hx711_promedio
  2457 ;; This function uses a non-reentrant model
  2458 ;;
  2459                           
  2460                           
  2461                           ;psect for function _hx711_lectura
  2462  06D5                     _hx711_lectura:
  2463                           
  2464                           ;incstack = 0
  2465                           ; Regs used in _hx711_lectura: [wreg+status,2+status,0+pclath+cstack]
  2466                           ;hx711_lectura@ganancia stored from wreg
  2467  06D5  1283               	bcf	3,5	;RP0=0, select bank0
  2468  06D6  1303               	bcf	3,6	;RP1=0, select bank0
  2469  06D7  00A8               	movwf	hx711_lectura@ganancia
  2470  06D8                     l3311:
  2471                           
  2472                           ;hx711.c: 45: signed long hx711_lectura(unsigned char ganancia);hx711.c: 46: {;hx711.c: 
      +                          47: signed int hx711_cont;;hx711.c: 48: signed long hx711_dato=0;
  2473  06D8  3000               	movlw	0
  2474  06D9  00AE               	movwf	hx711_lectura@hx711_dato+3
  2475  06DA  3000               	movlw	0
  2476  06DB  00AD               	movwf	hx711_lectura@hx711_dato+2
  2477  06DC  3000               	movlw	0
  2478  06DD  00AC               	movwf	hx711_lectura@hx711_dato+1
  2479  06DE  3000               	movlw	0
  2480  06DF  00AB               	movwf	hx711_lectura@hx711_dato
  2481  06E0                     l213:	
  2482                           ;hx711.c: 51:          while (PORTDbits.RD6==1);
  2483                           
  2484  06E0  1B08               	btfsc	8,6	;volatile
  2485  06E1  2EE3               	goto	u4351
  2486  06E2  2EE4               	goto	u4350
  2487  06E3                     u4351:
  2488  06E3  2EE0               	goto	l213
  2489  06E4                     u4350:
  2490  06E4                     l3313:
  2491                           
  2492                           ;hx711.c: 54:   for (hx711_cont=23;hx711_cont>=0;hx711_cont--)
  2493  06E4  3017               	movlw	23
  2494  06E5  00A9               	movwf	hx711_lectura@hx711_cont
  2495  06E6  3000               	movlw	0
  2496  06E7  00AA               	movwf	hx711_lectura@hx711_cont+1
  2497  06E8                     l3315:
  2498  06E8  1FAA               	btfss	hx711_lectura@hx711_cont+1,7
  2499  06E9  2EEB               	goto	u4361
  2500  06EA  2EEC               	goto	u4360
  2501  06EB                     u4361:
  2502  06EB  2EED               	goto	l3319
  2503  06EC                     u4360:
  2504  06EC  2F36               	goto	l3327
  2505  06ED                     l3319:
  2506                           
  2507                           ;hx711.c: 55:   {;hx711.c: 56:      if (hx711_pulso()==1)
  2508  06ED  160A  118A  2312  120A  118A  	fcall	_hx711_pulso
  2509  06F2  3A01               	xorlw	1
  2510  06F3  1D03               	skipz
  2511  06F4  2EF6               	goto	u4371
  2512  06F5  2EF7               	goto	u4370
  2513  06F6                     u4371:
  2514  06F6  2F2D               	goto	l3323
  2515  06F7                     u4370:
  2516  06F7                     l3321:
  2517                           
  2518                           ;hx711.c: 57:      {;hx711.c: 58:        hx711_dato=hx711_dato +( 1L<<hx711_cont);
  2519  06F7  1283               	bcf	3,5	;RP0=0, select bank0
  2520  06F8  1303               	bcf	3,6	;RP1=0, select bank0
  2521  06F9  082B               	movf	hx711_lectura@hx711_dato,w
  2522  06FA  00A0               	movwf	??_hx711_lectura
  2523  06FB  082C               	movf	hx711_lectura@hx711_dato+1,w
  2524  06FC  00A1               	movwf	??_hx711_lectura+1
  2525  06FD  082D               	movf	hx711_lectura@hx711_dato+2,w
  2526  06FE  00A2               	movwf	??_hx711_lectura+2
  2527  06FF  082E               	movf	hx711_lectura@hx711_dato+3,w
  2528  0700  00A3               	movwf	??_hx711_lectura+3
  2529  0701  3001               	movlw	1
  2530  0702  00A4               	movwf	??_hx711_lectura+4
  2531  0703  3000               	movlw	0
  2532  0704  00A5               	movwf	??_hx711_lectura+5
  2533  0705  3000               	movlw	0
  2534  0706  00A6               	movwf	??_hx711_lectura+6
  2535  0707  3000               	movlw	0
  2536  0708  00A7               	movwf	??_hx711_lectura+7
  2537  0709  0A29               	incf	hx711_lectura@hx711_cont,w
  2538  070A  2F10               	goto	u4380
  2539  070B                     u4385:
  2540  070B  1003               	clrc
  2541  070C  0DA4               	rlf	??_hx711_lectura+4,f
  2542  070D  0DA5               	rlf	??_hx711_lectura+5,f
  2543  070E  0DA6               	rlf	??_hx711_lectura+6,f
  2544  070F  0DA7               	rlf	??_hx711_lectura+7,f
  2545  0710                     u4380:
  2546  0710  3EFF               	addlw	-1
  2547  0711  1D03               	skipz
  2548  0712  2F0B               	goto	u4385
  2549  0713  0824               	movf	??_hx711_lectura+4,w
  2550  0714  07A0               	addwf	??_hx711_lectura,f
  2551  0715  0825               	movf	??_hx711_lectura+5,w
  2552  0716  1803               	skipnc
  2553  0717  0F25               	incfsz	??_hx711_lectura+5,w
  2554  0718  2F1A               	goto	u4390
  2555  0719  2F1B               	goto	u4391
  2556  071A                     u4390:
  2557  071A  07A1               	addwf	??_hx711_lectura+1,f
  2558  071B                     u4391:
  2559  071B  0826               	movf	??_hx711_lectura+6,w
  2560  071C  1803               	skipnc
  2561  071D  0F26               	incfsz	??_hx711_lectura+6,w
  2562  071E  2F20               	goto	u4392
  2563  071F  2F21               	goto	u4393
  2564  0720                     u4392:
  2565  0720  07A2               	addwf	??_hx711_lectura+2,f
  2566  0721                     u4393:
  2567  0721  0827               	movf	??_hx711_lectura+7,w
  2568  0722  1803               	skipnc
  2569  0723  0A27               	incf	??_hx711_lectura+7,w
  2570  0724  07A3               	addwf	??_hx711_lectura+3,f
  2571  0725  0823               	movf	??_hx711_lectura+3,w
  2572  0726  00AE               	movwf	hx711_lectura@hx711_dato+3
  2573  0727  0822               	movf	??_hx711_lectura+2,w
  2574  0728  00AD               	movwf	hx711_lectura@hx711_dato+2
  2575  0729  0821               	movf	??_hx711_lectura+1,w
  2576  072A  00AC               	movwf	hx711_lectura@hx711_dato+1
  2577  072B  0820               	movf	??_hx711_lectura,w
  2578  072C  00AB               	movwf	hx711_lectura@hx711_dato
  2579  072D                     l3323:
  2580                           
  2581                           ;hx711.c: 60:   }
  2582  072D  30FF               	movlw	255
  2583  072E  1283               	bcf	3,5	;RP0=0, select bank0
  2584  072F  1303               	bcf	3,6	;RP1=0, select bank0
  2585  0730  07A9               	addwf	hx711_lectura@hx711_cont,f
  2586  0731  1803               	skipnc
  2587  0732  0AAA               	incf	hx711_lectura@hx711_cont+1,f
  2588  0733  30FF               	movlw	255
  2589  0734  07AA               	addwf	hx711_lectura@hx711_cont+1,f
  2590  0735  2EE8               	goto	l3315
  2591  0736                     l3327:
  2592                           
  2593                           ;hx711.c: 61:       _delay((unsigned long)((100)*(8000000/4000000.0)));
  2594  0736  3041               	movlw	65
  2595  0737  1283               	bcf	3,5	;RP0=0, select bank0
  2596  0738  1303               	bcf	3,6	;RP1=0, select bank0
  2597  0739  00A0               	movwf	??_hx711_lectura
  2598  073A                     u6417:
  2599  073A  0BA0               	decfsz	??_hx711_lectura,f
  2600  073B  2F3A               	goto	u6417
  2601  073C  2F3D               	nop2
  2602  073D                     l3329:
  2603                           
  2604                           ;hx711.c: 63:      if (ganancia==128) hx711_pulso();
  2605  073D  3080               	movlw	128
  2606  073E  1283               	bcf	3,5	;RP0=0, select bank0
  2607  073F  1303               	bcf	3,6	;RP1=0, select bank0
  2608  0740  0628               	xorwf	hx711_lectura@ganancia,w
  2609  0741  1D03               	btfss	3,2
  2610  0742  2F44               	goto	u4401
  2611  0743  2F45               	goto	u4400
  2612  0744                     u4401:
  2613  0744  2F4B               	goto	l3333
  2614  0745                     u4400:
  2615  0745                     l3331:
  2616  0745  160A  118A  2312  120A  118A  	fcall	_hx711_pulso
  2617  074A  2F7D               	goto	l3351
  2618  074B                     l3333:
  2619  074B  3020               	movlw	32
  2620  074C  0628               	xorwf	hx711_lectura@ganancia,w
  2621  074D  1D03               	btfss	3,2
  2622  074E  2F50               	goto	u4411
  2623  074F  2F51               	goto	u4410
  2624  0750                     u4411:
  2625  0750  2F5E               	goto	l3341
  2626  0751                     u4410:
  2627  0751                     l3335:
  2628                           
  2629                           ;hx711.c: 65:      {;hx711.c: 66:       hx711_pulso();
  2630  0751  160A  118A  2312  120A  118A  	fcall	_hx711_pulso
  2631  0756                     l3337:
  2632                           
  2633                           ;hx711.c: 67:       _delay((unsigned long)((100)*(8000000/4000000.0)));
  2634  0756  3041               	movlw	65
  2635  0757  1283               	bcf	3,5	;RP0=0, select bank0
  2636  0758  1303               	bcf	3,6	;RP1=0, select bank0
  2637  0759  00A0               	movwf	??_hx711_lectura
  2638  075A                     u6427:
  2639  075A  0BA0               	decfsz	??_hx711_lectura,f
  2640  075B  2F5A               	goto	u6427
  2641  075C  2F5D               	nop2
  2642  075D  2F45               	goto	l3331
  2643  075E                     l3341:
  2644  075E  3040               	movlw	64
  2645  075F  0628               	xorwf	hx711_lectura@ganancia,w
  2646  0760  1D03               	btfss	3,2
  2647  0761  2F63               	goto	u4421
  2648  0762  2F64               	goto	u4420
  2649  0763                     u4421:
  2650  0763  2F7D               	goto	l3351
  2651  0764                     u4420:
  2652  0764                     l3343:
  2653                           
  2654                           ;hx711.c: 72:      {;hx711.c: 73:       hx711_pulso();
  2655  0764  160A  118A  2312  120A  118A  	fcall	_hx711_pulso
  2656  0769                     l3345:
  2657                           
  2658                           ;hx711.c: 74:       _delay((unsigned long)((100)*(8000000/4000000.0)));
  2659  0769  3041               	movlw	65
  2660  076A  1283               	bcf	3,5	;RP0=0, select bank0
  2661  076B  1303               	bcf	3,6	;RP1=0, select bank0
  2662  076C  00A0               	movwf	??_hx711_lectura
  2663  076D                     u6437:
  2664  076D  0BA0               	decfsz	??_hx711_lectura,f
  2665  076E  2F6D               	goto	u6437
  2666  076F  2F70               	nop2
  2667  0770                     l3347:
  2668                           
  2669                           ;hx711.c: 75:       hx711_pulso();
  2670  0770  160A  118A  2312  120A  118A  	fcall	_hx711_pulso
  2671                           
  2672                           ;hx711.c: 76:       _delay((unsigned long)((100)*(8000000/4000000.0)));
  2673  0775  3041               	movlw	65
  2674  0776  1283               	bcf	3,5	;RP0=0, select bank0
  2675  0777  1303               	bcf	3,6	;RP1=0, select bank0
  2676  0778  00A0               	movwf	??_hx711_lectura
  2677  0779                     u6447:
  2678  0779  0BA0               	decfsz	??_hx711_lectura,f
  2679  077A  2F79               	goto	u6447
  2680  077B  2F7C               	nop2
  2681  077C  2F45               	goto	l3331
  2682  077D                     l3351:
  2683                           
  2684                           ;hx711.c: 82:     if ((hx711_dato & 0x800000)!=0)
  2685  077D  1283               	bcf	3,5	;RP0=0, select bank0
  2686  077E  1303               	bcf	3,6	;RP1=0, select bank0
  2687  077F  1FAD               	btfss	hx711_lectura@hx711_dato+2,7
  2688  0780  2F82               	goto	u4431
  2689  0781  2F83               	goto	u4430
  2690  0782                     u4431:
  2691  0782  2FA7               	goto	l3361
  2692  0783                     u4430:
  2693  0783                     l3353:
  2694                           
  2695                           ;hx711.c: 83:     {;hx711.c: 84:     hx711_dato=hx711_dato | 0xff000000;
  2696  0783  3000               	movlw	0
  2697  0784  042B               	iorwf	hx711_lectura@hx711_dato,w
  2698  0785  00A0               	movwf	??_hx711_lectura
  2699  0786  3000               	movlw	0
  2700  0787  042C               	iorwf	hx711_lectura@hx711_dato+1,w
  2701  0788  00A1               	movwf	??_hx711_lectura+1
  2702  0789  3000               	movlw	0
  2703  078A  042D               	iorwf	hx711_lectura@hx711_dato+2,w
  2704  078B  00A2               	movwf	??_hx711_lectura+2
  2705  078C  30FF               	movlw	255
  2706  078D  042E               	iorwf	hx711_lectura@hx711_dato+3,w
  2707  078E  00A3               	movwf	??_hx711_lectura+3
  2708  078F  0823               	movf	??_hx711_lectura+3,w
  2709  0790  00AE               	movwf	hx711_lectura@hx711_dato+3
  2710  0791  0822               	movf	??_hx711_lectura+2,w
  2711  0792  00AD               	movwf	hx711_lectura@hx711_dato+2
  2712  0793  0821               	movf	??_hx711_lectura+1,w
  2713  0794  00AC               	movwf	hx711_lectura@hx711_dato+1
  2714  0795  0820               	movf	??_hx711_lectura,w
  2715  0796  00AB               	movwf	hx711_lectura@hx711_dato
  2716  0797                     l3355:
  2717                           
  2718                           ;hx711.c: 85:     return (-hx711_dato);
  2719  0797  092B               	comf	hx711_lectura@hx711_dato,w
  2720  0798  00F4               	movwf	?_hx711_lectura
  2721  0799  092C               	comf	hx711_lectura@hx711_dato+1,w
  2722  079A  00F5               	movwf	?_hx711_lectura+1
  2723  079B  092D               	comf	hx711_lectura@hx711_dato+2,w
  2724  079C  00F6               	movwf	?_hx711_lectura+2
  2725  079D  092E               	comf	hx711_lectura@hx711_dato+3,w
  2726  079E  00F7               	movwf	?_hx711_lectura+3
  2727  079F  0AF4               	incf	?_hx711_lectura,f
  2728  07A0  1903               	skipnz
  2729  07A1  0AF5               	incf	?_hx711_lectura+1,f
  2730  07A2  1903               	skipnz
  2731  07A3  0AF6               	incf	?_hx711_lectura+2,f
  2732  07A4  1903               	skipnz
  2733  07A5  0AF7               	incf	?_hx711_lectura+3,f
  2734  07A6  2FAF               	goto	l225
  2735  07A7                     l3361:
  2736  07A7  082E               	movf	hx711_lectura@hx711_dato+3,w
  2737  07A8  00F7               	movwf	?_hx711_lectura+3
  2738  07A9  082D               	movf	hx711_lectura@hx711_dato+2,w
  2739  07AA  00F6               	movwf	?_hx711_lectura+2
  2740  07AB  082C               	movf	hx711_lectura@hx711_dato+1,w
  2741  07AC  00F5               	movwf	?_hx711_lectura+1
  2742  07AD  082B               	movf	hx711_lectura@hx711_dato,w
  2743  07AE  00F4               	movwf	?_hx711_lectura
  2744  07AF                     l225:
  2745  07AF  0008               	return
  2746  07B0                     __end_of_hx711_lectura:
  2747                           
  2748                           	psect	text4
  2749  1312                     __ptext4:	
  2750 ;; *************** function _hx711_pulso *****************
  2751 ;; Defined at:
  2752 ;;		line 33 in file "hx711.c"
  2753 ;; Parameters:    Size  Location     Type
  2754 ;;		None
  2755 ;; Auto vars:     Size  Location     Type
  2756 ;;  lei             1    3[COMMON] unsigned char 
  2757 ;; Return value:  Size  Location     Type
  2758 ;;                  1    wreg      unsigned char 
  2759 ;; Registers used:
  2760 ;;		wreg, status,2
  2761 ;; Tracked objects:
  2762 ;;		On entry : 0/0
  2763 ;;		On exit  : 0/0
  2764 ;;		Unchanged: 0/0
  2765 ;; Data sizes:     COMMON   BANK0   BANK1   BANK3   BANK2
  2766 ;;      Params:         0       0       0       0       0
  2767 ;;      Locals:         1       0       0       0       0
  2768 ;;      Temps:          0       0       0       0       0
  2769 ;;      Totals:         1       0       0       0       0
  2770 ;;Total ram usage:        1 bytes
  2771 ;; Hardware stack levels used:    1
  2772 ;; Hardware stack levels required when called:    1
  2773 ;; This function calls:
  2774 ;;		Nothing
  2775 ;; This function is called by:
  2776 ;;		_hx711_lectura
  2777 ;; This function uses a non-reentrant model
  2778 ;;
  2779                           
  2780                           
  2781                           ;psect for function _hx711_pulso
  2782  1312                     _hx711_pulso:
  2783  1312                     l3299:	
  2784                           ;incstack = 0
  2785                           ; Regs used in _hx711_pulso: [wreg+status,2]
  2786                           
  2787                           
  2788                           ;hx711.c: 35: char lei;;hx711.c: 37:   PORTDbits.RD7=1;
  2789  1312  1283               	bcf	3,5	;RP0=0, select bank0
  2790  1313  1303               	bcf	3,6	;RP1=0, select bank0
  2791  1314  1788               	bsf	8,7	;volatile
  2792                           
  2793                           ;hx711.c: 38:    _delay((unsigned long)((1)*(8000000/4000000.0)));
  2794  1315  2B16               	nop2	;2 cycle nop
  2795  1316                     l3301:
  2796                           
  2797                           ;hx711.c: 39:   lei=PORTDbits.RD6;
  2798  1316  3000               	movlw	0
  2799  1317  1283               	bcf	3,5	;RP0=0, select bank0
  2800  1318  1303               	bcf	3,6	;RP1=0, select bank0
  2801  1319  1B08               	btfsc	8,6	;volatile
  2802  131A  3001               	movlw	1
  2803  131B  00F3               	movwf	hx711_pulso@lei
  2804  131C                     l3303:
  2805                           
  2806                           ;hx711.c: 40:  PORTDbits.RD7=0;
  2807  131C  1388               	bcf	8,7	;volatile
  2808  131D                     l3305:
  2809                           
  2810                           ;hx711.c: 41:   _delay((unsigned long)((1)*(8000000/4000000.0)));
  2811  131D  2B1E               	nop2	;2 cycle nop
  2812  131E                     l3307:
  2813                           
  2814                           ;hx711.c: 42:   return lei;
  2815  131E  0873               	movf	hx711_pulso@lei,w
  2816  131F                     l210:
  2817  131F  0008               	return
  2818  1320                     __end_of_hx711_pulso:
  2819                           
  2820                           	psect	text5
  2821  16BF                     __ptext5:	
  2822 ;; *************** function ___aldiv *****************
  2823 ;; Defined at:
  2824 ;;		line 5 in file "C:\Program Files\Microchip\xc8\v2.31\pic\sources\c90\common\aldiv.c"
  2825 ;; Parameters:    Size  Location     Type
  2826 ;;  divisor         4    0[BANK0 ] long 
  2827 ;;  dividend        4    4[BANK0 ] long 
  2828 ;; Auto vars:     Size  Location     Type
  2829 ;;  quotient        4   10[BANK0 ] long 
  2830 ;;  sign            1    9[BANK0 ] unsigned char 
  2831 ;;  counter         1    8[BANK0 ] unsigned char 
  2832 ;; Return value:  Size  Location     Type
  2833 ;;                  4    0[BANK0 ] long 
  2834 ;; Registers used:
  2835 ;;		wreg, status,2, status,0
  2836 ;; Tracked objects:
  2837 ;;		On entry : 0/0
  2838 ;;		On exit  : 0/0
  2839 ;;		Unchanged: 0/0
  2840 ;; Data sizes:     COMMON   BANK0   BANK1   BANK3   BANK2
  2841 ;;      Params:         0       8       0       0       0
  2842 ;;      Locals:         0       6       0       0       0
  2843 ;;      Temps:          1       0       0       0       0
  2844 ;;      Totals:         1      14       0       0       0
  2845 ;;Total ram usage:       15 bytes
  2846 ;; Hardware stack levels used:    1
  2847 ;; Hardware stack levels required when called:    1
  2848 ;; This function calls:
  2849 ;;		Nothing
  2850 ;; This function is called by:
  2851 ;;		_hx711_promedio
  2852 ;; This function uses a non-reentrant model
  2853 ;;
  2854                           
  2855                           
  2856                           ;psect for function ___aldiv
  2857  16BF                     ___aldiv:
  2858  16BF                     l3367:	
  2859                           ;incstack = 0
  2860                           ; Regs used in ___aldiv: [wreg+status,2+status,0]
  2861                           
  2862  16BF  1283               	bcf	3,5	;RP0=0, select bank0
  2863  16C0  1303               	bcf	3,6	;RP1=0, select bank0
  2864  16C1  01A9               	clrf	___aldiv@sign
  2865  16C2                     l3369:
  2866  16C2  1FA3               	btfss	___aldiv@divisor+3,7
  2867  16C3  2EC5               	goto	u4441
  2868  16C4  2EC6               	goto	u4440
  2869  16C5                     u4441:
  2870  16C5  2ED3               	goto	l526
  2871  16C6                     u4440:
  2872  16C6                     l3371:
  2873  16C6  09A0               	comf	___aldiv@divisor,f
  2874  16C7  09A1               	comf	___aldiv@divisor+1,f
  2875  16C8  09A2               	comf	___aldiv@divisor+2,f
  2876  16C9  09A3               	comf	___aldiv@divisor+3,f
  2877  16CA  0AA0               	incf	___aldiv@divisor,f
  2878  16CB  1903               	skipnz
  2879  16CC  0AA1               	incf	___aldiv@divisor+1,f
  2880  16CD  1903               	skipnz
  2881  16CE  0AA2               	incf	___aldiv@divisor+2,f
  2882  16CF  1903               	skipnz
  2883  16D0  0AA3               	incf	___aldiv@divisor+3,f
  2884  16D1  01A9               	clrf	___aldiv@sign
  2885  16D2  0AA9               	incf	___aldiv@sign,f
  2886  16D3                     l526:
  2887  16D3  1FA7               	btfss	___aldiv@dividend+3,7
  2888  16D4  2ED6               	goto	u4451
  2889  16D5  2ED7               	goto	u4450
  2890  16D6                     u4451:
  2891  16D6  2EE6               	goto	l3377
  2892  16D7                     u4450:
  2893  16D7                     l3373:
  2894  16D7  09A4               	comf	___aldiv@dividend,f
  2895  16D8  09A5               	comf	___aldiv@dividend+1,f
  2896  16D9  09A6               	comf	___aldiv@dividend+2,f
  2897  16DA  09A7               	comf	___aldiv@dividend+3,f
  2898  16DB  0AA4               	incf	___aldiv@dividend,f
  2899  16DC  1903               	skipnz
  2900  16DD  0AA5               	incf	___aldiv@dividend+1,f
  2901  16DE  1903               	skipnz
  2902  16DF  0AA6               	incf	___aldiv@dividend+2,f
  2903  16E0  1903               	skipnz
  2904  16E1  0AA7               	incf	___aldiv@dividend+3,f
  2905  16E2                     l3375:
  2906  16E2  3001               	movlw	1
  2907  16E3  00F3               	movwf	??___aldiv
  2908  16E4  0873               	movf	??___aldiv,w
  2909  16E5  06A9               	xorwf	___aldiv@sign,f
  2910  16E6                     l3377:
  2911  16E6  3000               	movlw	0
  2912  16E7  00AD               	movwf	___aldiv@quotient+3
  2913  16E8  3000               	movlw	0
  2914  16E9  00AC               	movwf	___aldiv@quotient+2
  2915  16EA  3000               	movlw	0
  2916  16EB  00AB               	movwf	___aldiv@quotient+1
  2917  16EC  3000               	movlw	0
  2918  16ED  00AA               	movwf	___aldiv@quotient
  2919  16EE                     l3379:
  2920  16EE  0823               	movf	___aldiv@divisor+3,w
  2921  16EF  0422               	iorwf	___aldiv@divisor+2,w
  2922  16F0  0421               	iorwf	___aldiv@divisor+1,w
  2923  16F1  0420               	iorwf	___aldiv@divisor,w
  2924  16F2  1903               	skipnz
  2925  16F3  2EF5               	goto	u4461
  2926  16F4  2EF6               	goto	u4460
  2927  16F5                     u4461:
  2928  16F5  2F43               	goto	l3399
  2929  16F6                     u4460:
  2930  16F6                     l3381:
  2931  16F6  01A8               	clrf	___aldiv@counter
  2932  16F7  0AA8               	incf	___aldiv@counter,f
  2933  16F8  2F06               	goto	l3385
  2934  16F9                     l3383:
  2935  16F9  3001               	movlw	1
  2936  16FA  00F3               	movwf	??___aldiv
  2937  16FB                     u4475:
  2938  16FB  1003               	clrc
  2939  16FC  0DA0               	rlf	___aldiv@divisor,f
  2940  16FD  0DA1               	rlf	___aldiv@divisor+1,f
  2941  16FE  0DA2               	rlf	___aldiv@divisor+2,f
  2942  16FF  0DA3               	rlf	___aldiv@divisor+3,f
  2943  1700  0BF3               	decfsz	??___aldiv,f
  2944  1701  2EFB               	goto	u4475
  2945  1702  3001               	movlw	1
  2946  1703  00F3               	movwf	??___aldiv
  2947  1704  0873               	movf	??___aldiv,w
  2948  1705  07A8               	addwf	___aldiv@counter,f
  2949  1706                     l3385:
  2950  1706  1FA3               	btfss	___aldiv@divisor+3,7
  2951  1707  2F09               	goto	u4481
  2952  1708  2F0A               	goto	u4480
  2953  1709                     u4481:
  2954  1709  2EF9               	goto	l3383
  2955  170A                     u4480:
  2956  170A                     l3387:
  2957  170A  3001               	movlw	1
  2958  170B  00F3               	movwf	??___aldiv
  2959  170C                     u4495:
  2960  170C  1003               	clrc
  2961  170D  0DAA               	rlf	___aldiv@quotient,f
  2962  170E  0DAB               	rlf	___aldiv@quotient+1,f
  2963  170F  0DAC               	rlf	___aldiv@quotient+2,f
  2964  1710  0DAD               	rlf	___aldiv@quotient+3,f
  2965  1711  0BF3               	decfsz	??___aldiv,f
  2966  1712  2F0C               	goto	u4495
  2967  1713                     l3389:
  2968  1713  0823               	movf	___aldiv@divisor+3,w
  2969  1714  0227               	subwf	___aldiv@dividend+3,w
  2970  1715  1D03               	skipz
  2971  1716  2F21               	goto	u4505
  2972  1717  0822               	movf	___aldiv@divisor+2,w
  2973  1718  0226               	subwf	___aldiv@dividend+2,w
  2974  1719  1D03               	skipz
  2975  171A  2F21               	goto	u4505
  2976  171B  0821               	movf	___aldiv@divisor+1,w
  2977  171C  0225               	subwf	___aldiv@dividend+1,w
  2978  171D  1D03               	skipz
  2979  171E  2F21               	goto	u4505
  2980  171F  0820               	movf	___aldiv@divisor,w
  2981  1720  0224               	subwf	___aldiv@dividend,w
  2982  1721                     u4505:
  2983  1721  1C03               	skipc
  2984  1722  2F24               	goto	u4501
  2985  1723  2F25               	goto	u4500
  2986  1724                     u4501:
  2987  1724  2F34               	goto	l3395
  2988  1725                     u4500:
  2989  1725                     l3391:
  2990  1725  0820               	movf	___aldiv@divisor,w
  2991  1726  02A4               	subwf	___aldiv@dividend,f
  2992  1727  0821               	movf	___aldiv@divisor+1,w
  2993  1728  1C03               	skipc
  2994  1729  0F21               	incfsz	___aldiv@divisor+1,w
  2995  172A  02A5               	subwf	___aldiv@dividend+1,f
  2996  172B  0822               	movf	___aldiv@divisor+2,w
  2997  172C  1C03               	skipc
  2998  172D  0F22               	incfsz	___aldiv@divisor+2,w
  2999  172E  02A6               	subwf	___aldiv@dividend+2,f
  3000  172F  0823               	movf	___aldiv@divisor+3,w
  3001  1730  1C03               	skipc
  3002  1731  0F23               	incfsz	___aldiv@divisor+3,w
  3003  1732  02A7               	subwf	___aldiv@dividend+3,f
  3004  1733                     l3393:
  3005  1733  142A               	bsf	___aldiv@quotient,0
  3006  1734                     l3395:
  3007  1734  3001               	movlw	1
  3008  1735                     u4515:
  3009  1735  1003               	clrc
  3010  1736  0CA3               	rrf	___aldiv@divisor+3,f
  3011  1737  0CA2               	rrf	___aldiv@divisor+2,f
  3012  1738  0CA1               	rrf	___aldiv@divisor+1,f
  3013  1739  0CA0               	rrf	___aldiv@divisor,f
  3014  173A  3EFF               	addlw	-1
  3015  173B  1D03               	skipz
  3016  173C  2F35               	goto	u4515
  3017  173D                     l3397:
  3018  173D  3001               	movlw	1
  3019  173E  02A8               	subwf	___aldiv@counter,f
  3020  173F  1D03               	btfss	3,2
  3021  1740  2F42               	goto	u4521
  3022  1741  2F43               	goto	u4520
  3023  1742                     u4521:
  3024  1742  2F0A               	goto	l3387
  3025  1743                     u4520:
  3026  1743                     l3399:
  3027  1743  0829               	movf	___aldiv@sign,w
  3028  1744  1903               	btfsc	3,2
  3029  1745  2F47               	goto	u4531
  3030  1746  2F48               	goto	u4530
  3031  1747                     u4531:
  3032  1747  2F53               	goto	l3403
  3033  1748                     u4530:
  3034  1748                     l3401:
  3035  1748  09AA               	comf	___aldiv@quotient,f
  3036  1749  09AB               	comf	___aldiv@quotient+1,f
  3037  174A  09AC               	comf	___aldiv@quotient+2,f
  3038  174B  09AD               	comf	___aldiv@quotient+3,f
  3039  174C  0AAA               	incf	___aldiv@quotient,f
  3040  174D  1903               	skipnz
  3041  174E  0AAB               	incf	___aldiv@quotient+1,f
  3042  174F  1903               	skipnz
  3043  1750  0AAC               	incf	___aldiv@quotient+2,f
  3044  1751  1903               	skipnz
  3045  1752  0AAD               	incf	___aldiv@quotient+3,f
  3046  1753                     l3403:
  3047  1753  082D               	movf	___aldiv@quotient+3,w
  3048  1754  00A3               	movwf	?___aldiv+3
  3049  1755  082C               	movf	___aldiv@quotient+2,w
  3050  1756  00A2               	movwf	?___aldiv+2
  3051  1757  082B               	movf	___aldiv@quotient+1,w
  3052  1758  00A1               	movwf	?___aldiv+1
  3053  1759  082A               	movf	___aldiv@quotient,w
  3054  175A  00A0               	movwf	?___aldiv
  3055  175B                     l536:
  3056  175B  0008               	return
  3057  175C                     __end_of___aldiv:
  3058                           
  3059                           	psect	text6
  3060  14D2                     __ptext6:	
  3061 ;; *************** function _setup *****************
  3062 ;; Defined at:
  3063 ;;		line 248 in file "Slave2.c"
  3064 ;; Parameters:    Size  Location     Type
  3065 ;;		None
  3066 ;; Auto vars:     Size  Location     Type
  3067 ;;		None
  3068 ;; Return value:  Size  Location     Type
  3069 ;;                  1    wreg      void 
  3070 ;; Registers used:
  3071 ;;		wreg, status,2, status,0, pclath, cstack
  3072 ;; Tracked objects:
  3073 ;;		On entry : 0/0
  3074 ;;		On exit  : 0/0
  3075 ;;		Unchanged: 0/0
  3076 ;; Data sizes:     COMMON   BANK0   BANK1   BANK3   BANK2
  3077 ;;      Params:         0       0       0       0       0
  3078 ;;      Locals:         0       0       0       0       0
  3079 ;;      Temps:          1       0       0       0       0
  3080 ;;      Totals:         1       0       0       0       0
  3081 ;;Total ram usage:        1 bytes
  3082 ;; Hardware stack levels used:    1
  3083 ;; Hardware stack levels required when called:    2
  3084 ;; This function calls:
  3085 ;;		_I2C_Slave_Init
  3086 ;; This function is called by:
  3087 ;;		_main
  3088 ;; This function uses a non-reentrant model
  3089 ;;
  3090                           
  3091                           
  3092                           ;psect for function _setup
  3093  14D2                     _setup:
  3094  14D2                     l4151:	
  3095                           ;incstack = 0
  3096                           ; Regs used in _setup: [wreg+status,2+status,0+pclath+cstack]
  3097                           
  3098                           
  3099                           ;Slave2.c: 249:     ANSEL = 0b00000011;
  3100  14D2  3003               	movlw	3
  3101  14D3  1683               	bsf	3,5	;RP0=1, select bank3
  3102  14D4  1703               	bsf	3,6	;RP1=1, select bank3
  3103  14D5  0088               	movwf	8	;volatile
  3104  14D6                     l4153:
  3105                           
  3106                           ;Slave2.c: 250:     ANSELH = 0;
  3107  14D6  0189               	clrf	9	;volatile
  3108  14D7                     l4155:
  3109                           
  3110                           ;Slave2.c: 251:     TRISA = 0X03;
  3111  14D7  3003               	movlw	3
  3112  14D8  1683               	bsf	3,5	;RP0=1, select bank1
  3113  14D9  1303               	bcf	3,6	;RP1=0, select bank1
  3114  14DA  0085               	movwf	5	;volatile
  3115  14DB                     l4157:
  3116                           
  3117                           ;Slave2.c: 252:     TRISDbits.TRISD4 = 1;
  3118  14DB  1608               	bsf	8,4	;volatile
  3119  14DC                     l4159:
  3120                           
  3121                           ;Slave2.c: 253:     TRISDbits.TRISD5 = 1;
  3122  14DC  1688               	bsf	8,5	;volatile
  3123  14DD                     l4161:
  3124                           
  3125                           ;Slave2.c: 254:     TRISDbits.TRISD6 = 1;
  3126  14DD  1708               	bsf	8,6	;volatile
  3127  14DE                     l4163:
  3128                           
  3129                           ;Slave2.c: 255:     TRISDbits.TRISD7 = 1;
  3130  14DE  1788               	bsf	8,7	;volatile
  3131                           
  3132                           ;Slave2.c: 256:     TRISB = 0;
  3133  14DF  0186               	clrf	6	;volatile
  3134                           
  3135                           ;Slave2.c: 257:     TRISE = 0;
  3136  14E0  0189               	clrf	9	;volatile
  3137                           
  3138                           ;Slave2.c: 259:     PORTA = 0;
  3139  14E1  1283               	bcf	3,5	;RP0=0, select bank0
  3140  14E2  1303               	bcf	3,6	;RP1=0, select bank0
  3141  14E3  0185               	clrf	5	;volatile
  3142                           
  3143                           ;Slave2.c: 260:     PORTB = 0;
  3144  14E4  0186               	clrf	6	;volatile
  3145                           
  3146                           ;Slave2.c: 261:     PORTD = 0;
  3147  14E5  0188               	clrf	8	;volatile
  3148                           
  3149                           ;Slave2.c: 262:     PORTE = 0;
  3150  14E6  0189               	clrf	9	;volatile
  3151  14E7                     l4165:
  3152                           
  3153                           ;Slave2.c: 263:     I2C_Slave_Init(0X10);
  3154  14E7  3010               	movlw	16
  3155  14E8  160A  118A  2378  160A  118A  	fcall	_I2C_Slave_Init
  3156  14ED                     l4167:
  3157                           
  3158                           ;Slave2.c: 268:     OSCCONbits.IRCF2 = 1;
  3159  14ED  1683               	bsf	3,5	;RP0=1, select bank1
  3160  14EE  1303               	bcf	3,6	;RP1=0, select bank1
  3161  14EF  170F               	bsf	15,6	;volatile
  3162  14F0                     l4169:
  3163                           
  3164                           ;Slave2.c: 269:     OSCCONbits.IRCF1 = 1;
  3165  14F0  168F               	bsf	15,5	;volatile
  3166  14F1                     l4171:
  3167                           
  3168                           ;Slave2.c: 270:     OSCCONbits.IRCF0 = 1;
  3169  14F1  160F               	bsf	15,4	;volatile
  3170  14F2                     l4173:
  3171                           
  3172                           ;Slave2.c: 271:     OSCCONbits.SCS = 1;
  3173  14F2  140F               	bsf	15,0	;volatile
  3174  14F3                     l4175:
  3175                           
  3176                           ;Slave2.c: 273:   ADCON1bits.ADFM = 0;
  3177  14F3  139F               	bcf	31,7	;volatile
  3178  14F4                     l4177:
  3179                           
  3180                           ;Slave2.c: 274:   ADCON1bits.VCFG0 = 0;
  3181  14F4  121F               	bcf	31,4	;volatile
  3182  14F5                     l4179:
  3183                           
  3184                           ;Slave2.c: 275:   ADCON1bits.VCFG1 = 0;
  3185  14F5  129F               	bcf	31,5	;volatile
  3186  14F6                     l4181:
  3187                           
  3188                           ;Slave2.c: 277:   ADCON0bits.ADCS = 0b10;
  3189  14F6  1283               	bcf	3,5	;RP0=0, select bank0
  3190  14F7  1303               	bcf	3,6	;RP1=0, select bank0
  3191  14F8  081F               	movf	31,w	;volatile
  3192  14F9  393F               	andlw	-193
  3193  14FA  3880               	iorlw	128
  3194  14FB  009F               	movwf	31	;volatile
  3195  14FC                     l4183:
  3196                           
  3197                           ;Slave2.c: 278:   ADCON0bits.CHS = 0;
  3198  14FC  30C3               	movlw	-61
  3199  14FD  059F               	andwf	31,f	;volatile
  3200  14FE                     l4185:
  3201                           
  3202                           ;Slave2.c: 279:   _delay((unsigned long)((200)*(8000000/4000000.0)));
  3203  14FE  3085               	movlw	133
  3204  14FF  00F4               	movwf	??_setup
  3205  1500                     u6457:
  3206  1500  0BF4               	decfsz	??_setup,f
  3207  1501  2D00               	goto	u6457
  3208  1502                     l4187:
  3209                           
  3210                           ;Slave2.c: 280:   ADCON0bits.ADON = 1;
  3211  1502  1283               	bcf	3,5	;RP0=0, select bank0
  3212  1503  1303               	bcf	3,6	;RP1=0, select bank0
  3213  1504  141F               	bsf	31,0	;volatile
  3214  1505                     l4189:
  3215                           
  3216                           ;Slave2.c: 281:   _delay((unsigned long)((200)*(8000000/4000000.0)));
  3217  1505  3085               	movlw	133
  3218  1506  00F4               	movwf	??_setup
  3219  1507                     u6467:
  3220  1507  0BF4               	decfsz	??_setup,f
  3221  1508  2D07               	goto	u6467
  3222  1509                     l4191:
  3223                           
  3224                           ;Slave2.c: 283:   TRISCbits.TRISC2 = 1;
  3225  1509  1683               	bsf	3,5	;RP0=1, select bank1
  3226  150A  1303               	bcf	3,6	;RP1=0, select bank1
  3227  150B  1507               	bsf	7,2	;volatile
  3228  150C                     l4193:
  3229                           
  3230                           ;Slave2.c: 284:   TRISCbits.TRISC1 = 1;
  3231  150C  1487               	bsf	7,1	;volatile
  3232  150D                     l4195:
  3233                           
  3234                           ;Slave2.c: 285:   PR2 = 250;
  3235  150D  30FA               	movlw	250
  3236  150E  0092               	movwf	18	;volatile
  3237  150F                     l4197:
  3238                           
  3239                           ;Slave2.c: 286:   CCP1CONbits.P1M = 0;
  3240  150F  303F               	movlw	-193
  3241  1510  1283               	bcf	3,5	;RP0=0, select bank0
  3242  1511  1303               	bcf	3,6	;RP1=0, select bank0
  3243  1512  0597               	andwf	23,f	;volatile
  3244  1513                     l4199:
  3245                           
  3246                           ;Slave2.c: 287:   CCP2CONbits.CCP2M = 0b1100;
  3247  1513  081D               	movf	29,w	;volatile
  3248  1514  39F0               	andlw	-16
  3249  1515  380C               	iorlw	12
  3250  1516  009D               	movwf	29	;volatile
  3251  1517                     l4201:
  3252                           
  3253                           ;Slave2.c: 288:   CCP1CONbits.CCP1M = 0b1100;
  3254  1517  0817               	movf	23,w	;volatile
  3255  1518  39F0               	andlw	-16
  3256  1519  380C               	iorlw	12
  3257  151A  0097               	movwf	23	;volatile
  3258  151B                     l4203:
  3259                           
  3260                           ;Slave2.c: 290:   CCPR1L = 0X0F;
  3261  151B  300F               	movlw	15
  3262  151C  0095               	movwf	21	;volatile
  3263  151D                     l4205:
  3264                           
  3265                           ;Slave2.c: 291:   CCPR2L = 0X0F;
  3266  151D  300F               	movlw	15
  3267  151E  009B               	movwf	27	;volatile
  3268  151F                     l4207:
  3269                           
  3270                           ;Slave2.c: 292:   CCP1CONbits.DC1B = 0;
  3271  151F  30CF               	movlw	-49
  3272  1520  0597               	andwf	23,f	;volatile
  3273  1521                     l4209:
  3274                           
  3275                           ;Slave2.c: 293:   CCP2CONbits.DC2B0 = 0;
  3276  1521  121D               	bcf	29,4	;volatile
  3277  1522                     l4211:
  3278                           
  3279                           ;Slave2.c: 294:   CCP2CONbits.DC2B1 = 0;
  3280  1522  129D               	bcf	29,5	;volatile
  3281  1523                     l4213:
  3282                           
  3283                           ;Slave2.c: 297:   PIR1bits.TMR2IF = 0;
  3284  1523  108C               	bcf	12,1	;volatile
  3285  1524                     l4215:
  3286                           
  3287                           ;Slave2.c: 298:   T2CONbits.T2CKPS = 0b11;
  3288  1524  3003               	movlw	3
  3289  1525  0492               	iorwf	18,f	;volatile
  3290  1526                     l4217:
  3291                           
  3292                           ;Slave2.c: 299:   T2CONbits.TMR2ON = 1;
  3293  1526  1512               	bsf	18,2	;volatile
  3294  1527                     l4219:
  3295                           
  3296                           ;Slave2.c: 301:   T1CON = 0X10;
  3297  1527  3010               	movlw	16
  3298  1528  0090               	movwf	16	;volatile
  3299  1529                     l4221:
  3300                           
  3301                           ;Slave2.c: 302:   TMR1H = 0;
  3302  1529  018F               	clrf	15	;volatile
  3303  152A                     l4223:
  3304                           
  3305                           ;Slave2.c: 303:   TMR1L = 0;
  3306  152A  018E               	clrf	14	;volatile
  3307  152B                     l193:	
  3308                           ;Slave2.c: 304:   while(PIR1bits.TMR2IF == 0);
  3309                           
  3310  152B  1C8C               	btfss	12,1	;volatile
  3311  152C  2D2E               	goto	u6131
  3312  152D  2D2F               	goto	u6130
  3313  152E                     u6131:
  3314  152E  2D2B               	goto	l193
  3315  152F                     u6130:
  3316  152F                     l195:
  3317                           
  3318                           ;Slave2.c: 305:   PIR1bits.TMR2IF = 0;
  3319  152F  108C               	bcf	12,1	;volatile
  3320                           
  3321                           ;Slave2.c: 306:   TRISCbits.TRISC2 = 0;
  3322  1530  1683               	bsf	3,5	;RP0=1, select bank1
  3323  1531  1303               	bcf	3,6	;RP1=0, select bank1
  3324  1532  1107               	bcf	7,2	;volatile
  3325                           
  3326                           ;Slave2.c: 307:   TRISCbits.TRISC1 = 0;
  3327  1533  1087               	bcf	7,1	;volatile
  3328                           
  3329                           ;Slave2.c: 310:   PIR1bits.ADIF = 0;
  3330  1534  1283               	bcf	3,5	;RP0=0, select bank0
  3331  1535  1303               	bcf	3,6	;RP1=0, select bank0
  3332  1536  130C               	bcf	12,6	;volatile
  3333                           
  3334                           ;Slave2.c: 311:   PIE1bits.ADIE = 1;
  3335  1537  1683               	bsf	3,5	;RP0=1, select bank1
  3336  1538  1303               	bcf	3,6	;RP1=0, select bank1
  3337  1539  170C               	bsf	12,6	;volatile
  3338                           
  3339                           ;Slave2.c: 312:   INTCONbits.PEIE = 1;
  3340  153A  170B               	bsf	11,6	;volatile
  3341                           
  3342                           ;Slave2.c: 313:   INTCONbits.GIE = 1;
  3343  153B  178B               	bsf	11,7	;volatile
  3344  153C                     l196:	
  3345                           ;Slave2.c: 314:   return;
  3346                           
  3347  153C  0008               	return
  3348  153D                     __end_of_setup:
  3349                           
  3350                           	psect	text7
  3351  1378                     __ptext7:	
  3352 ;; *************** function _I2C_Slave_Init *****************
  3353 ;; Defined at:
  3354 ;;		line 90 in file "I2CP1.c"
  3355 ;; Parameters:    Size  Location     Type
  3356 ;;  address         1    wreg     unsigned char 
  3357 ;; Auto vars:     Size  Location     Type
  3358 ;;  address         1    3[COMMON] unsigned char 
  3359 ;; Return value:  Size  Location     Type
  3360 ;;                  1    wreg      void 
  3361 ;; Registers used:
  3362 ;;		wreg
  3363 ;; Tracked objects:
  3364 ;;		On entry : 0/0
  3365 ;;		On exit  : 0/0
  3366 ;;		Unchanged: 0/0
  3367 ;; Data sizes:     COMMON   BANK0   BANK1   BANK3   BANK2
  3368 ;;      Params:         0       0       0       0       0
  3369 ;;      Locals:         1       0       0       0       0
  3370 ;;      Temps:          0       0       0       0       0
  3371 ;;      Totals:         1       0       0       0       0
  3372 ;;Total ram usage:        1 bytes
  3373 ;; Hardware stack levels used:    1
  3374 ;; Hardware stack levels required when called:    1
  3375 ;; This function calls:
  3376 ;;		Nothing
  3377 ;; This function is called by:
  3378 ;;		_setup
  3379 ;; This function uses a non-reentrant model
  3380 ;;
  3381                           
  3382                           
  3383                           ;psect for function _I2C_Slave_Init
  3384  1378                     _I2C_Slave_Init:
  3385                           
  3386                           ;incstack = 0
  3387                           ; Regs used in _I2C_Slave_Init: [wreg]
  3388                           ;I2C_Slave_Init@address stored from wreg
  3389  1378  00F3               	movwf	I2C_Slave_Init@address
  3390  1379                     l3631:
  3391                           
  3392                           ;I2CP1.c: 90: void I2C_Slave_Init(uint8_t address);I2CP1.c: 91: {;I2CP1.c: 92:     SSPAD
      +                          D = address;
  3393  1379  0873               	movf	I2C_Slave_Init@address,w
  3394  137A  1683               	bsf	3,5	;RP0=1, select bank1
  3395  137B  1303               	bcf	3,6	;RP1=0, select bank1
  3396  137C  0093               	movwf	19	;volatile
  3397                           
  3398                           ;I2CP1.c: 93:     SSPCON = 0x36;
  3399  137D  3036               	movlw	54
  3400  137E  1283               	bcf	3,5	;RP0=0, select bank0
  3401  137F  1303               	bcf	3,6	;RP1=0, select bank0
  3402  1380  0094               	movwf	20	;volatile
  3403                           
  3404                           ;I2CP1.c: 94:     SSPSTAT = 0x80;
  3405  1381  3080               	movlw	128
  3406  1382  1683               	bsf	3,5	;RP0=1, select bank1
  3407  1383  1303               	bcf	3,6	;RP1=0, select bank1
  3408  1384  0094               	movwf	20	;volatile
  3409                           
  3410                           ;I2CP1.c: 95:     SSPCON2 = 0x01;
  3411  1385  3001               	movlw	1
  3412  1386  0091               	movwf	17	;volatile
  3413  1387                     l3633:
  3414                           
  3415                           ;I2CP1.c: 96:     TRISC3 = 1;
  3416  1387  1587               	bsf	7,3	;volatile
  3417  1388                     l3635:
  3418                           
  3419                           ;I2CP1.c: 97:     TRISC4 = 1;
  3420  1388  1607               	bsf	7,4	;volatile
  3421  1389                     l3637:
  3422                           
  3423                           ;I2CP1.c: 98:     GIE = 1;
  3424  1389  178B               	bsf	11,7	;volatile
  3425  138A                     l3639:
  3426                           
  3427                           ;I2CP1.c: 99:     PEIE = 1;
  3428  138A  170B               	bsf	11,6	;volatile
  3429  138B                     l3641:
  3430                           
  3431                           ;I2CP1.c: 100:     SSPIF = 0;
  3432  138B  1283               	bcf	3,5	;RP0=0, select bank0
  3433  138C  1303               	bcf	3,6	;RP1=0, select bank0
  3434  138D  118C               	bcf	12,3	;volatile
  3435  138E                     l3643:
  3436                           
  3437                           ;I2CP1.c: 101:     SSPIE = 1;
  3438  138E  1683               	bsf	3,5	;RP0=1, select bank1
  3439  138F  1303               	bcf	3,6	;RP1=0, select bank1
  3440  1390  158C               	bsf	12,3	;volatile
  3441  1391                     l329:
  3442  1391  0008               	return
  3443  1392                     __end_of_I2C_Slave_Init:
  3444                           
  3445                           	psect	text8
  3446  1333                     __ptext8:	
  3447 ;; *************** function _hx711_init *****************
  3448 ;; Defined at:
  3449 ;;		line 26 in file "hx711.c"
  3450 ;; Parameters:    Size  Location     Type
  3451 ;;		None
  3452 ;; Auto vars:     Size  Location     Type
  3453 ;;		None
  3454 ;; Return value:  Size  Location     Type
  3455 ;;                  1    wreg      void 
  3456 ;; Registers used:
  3457 ;;		wreg
  3458 ;; Tracked objects:
  3459 ;;		On entry : 0/0
  3460 ;;		On exit  : 0/0
  3461 ;;		Unchanged: 0/0
  3462 ;; Data sizes:     COMMON   BANK0   BANK1   BANK3   BANK2
  3463 ;;      Params:         0       0       0       0       0
  3464 ;;      Locals:         0       0       0       0       0
  3465 ;;      Temps:          3       0       0       0       0
  3466 ;;      Totals:         3       0       0       0       0
  3467 ;;Total ram usage:        3 bytes
  3468 ;; Hardware stack levels used:    1
  3469 ;; Hardware stack levels required when called:    1
  3470 ;; This function calls:
  3471 ;;		Nothing
  3472 ;; This function is called by:
  3473 ;;		_main
  3474 ;; This function uses a non-reentrant model
  3475 ;;
  3476                           
  3477                           
  3478                           ;psect for function _hx711_init
  3479  1333                     _hx711_init:
  3480  1333                     l4225:	
  3481                           ;incstack = 0
  3482                           ; Regs used in _hx711_init: [wreg]
  3483                           
  3484  1333  1683               	bsf	3,5	;RP0=1, select bank1
  3485  1334  1303               	bcf	3,6	;RP1=0, select bank1
  3486  1335  1388               	bcf	8,7	;volatile
  3487                           
  3488                           ;hx711.c: 28:    TRISDbits.TRISD6=1;
  3489  1336  1708               	bsf	8,6	;volatile
  3490                           
  3491                           ;hx711.c: 29:    PORTDbits.RD7=0;
  3492  1337  1283               	bcf	3,5	;RP0=0, select bank0
  3493  1338  1303               	bcf	3,6	;RP1=0, select bank0
  3494  1339  1388               	bcf	8,7	;volatile
  3495  133A                     l4227:
  3496                           
  3497                           ;hx711.c: 30:    _delay((unsigned long)((500)*(8000000/4000.0)));
  3498  133A  3006               	movlw	6
  3499  133B  00F5               	movwf	??_hx711_init+2
  3500  133C  3013               	movlw	19
  3501  133D  00F4               	movwf	??_hx711_init+1
  3502  133E  30AD               	movlw	173
  3503  133F  00F3               	movwf	??_hx711_init
  3504  1340                     u6477:
  3505  1340  0BF3               	decfsz	??_hx711_init,f
  3506  1341  2B40               	goto	u6477
  3507  1342  0BF4               	decfsz	??_hx711_init+1,f
  3508  1343  2B40               	goto	u6477
  3509  1344  0BF5               	decfsz	??_hx711_init+2,f
  3510  1345  2B40               	goto	u6477
  3511  1346  2B47               	nop2
  3512  1347                     l207:
  3513  1347  0008               	return
  3514  1348                     __end_of_hx711_init:
  3515                           
  3516                           	psect	text9
  3517  0D44                     __ptext9:	
  3518 ;; *************** function _floattostr_ *****************
  3519 ;; Defined at:
  3520 ;;		line 82 in file "Slave2.c"
  3521 ;; Parameters:    Size  Location     Type
  3522 ;;  numero_         4   51[BANK0 ] float 
  3523 ;;  cadena_         2   55[BANK0 ] PTR unsigned char 
  3524 ;;		 -> tarart(25), texto(25), offsett(25), 
  3525 ;;  decimales_      1   57[BANK0 ] unsigned char 
  3526 ;; Auto vars:     Size  Location     Type
  3527 ;;  tempo_float     4   61[BANK0 ] unsigned char 
  3528 ;;  largo_entera    2   69[BANK0 ] int 
  3529 ;;  cont_for        2   67[BANK0 ] int 
  3530 ;;  largo_n         2   65[BANK0 ] int 
  3531 ;;  tempo_int       2   59[BANK0 ] int 
  3532 ;; Return value:  Size  Location     Type
  3533 ;;                  1    wreg      void 
  3534 ;; Registers used:
  3535 ;;		wreg, fsr0l, fsr0h, status,2, status,0, btemp+1, pclath, cstack
  3536 ;; Tracked objects:
  3537 ;;		On entry : 0/0
  3538 ;;		On exit  : 0/0
  3539 ;;		Unchanged: 0/0
  3540 ;; Data sizes:     COMMON   BANK0   BANK1   BANK3   BANK2
  3541 ;;      Params:         0       7       0       0       0
  3542 ;;      Locals:         0      12       0       0       0
  3543 ;;      Temps:          0       1       0       0       0
  3544 ;;      Totals:         0      20       0       0       0
  3545 ;;Total ram usage:       20 bytes
  3546 ;; Hardware stack levels used:    1
  3547 ;; Hardware stack levels required when called:    3
  3548 ;; This function calls:
  3549 ;;		___fladd
  3550 ;;		___fldiv
  3551 ;;		___flge
  3552 ;;		___flmul
  3553 ;;		___flneg
  3554 ;;		___flsub
  3555 ;;		___fltol
  3556 ;;		___xxtofl
  3557 ;; This function is called by:
  3558 ;;		_main
  3559 ;; This function uses a non-reentrant model
  3560 ;;
  3561                           
  3562                           
  3563                           ;psect for function _floattostr_
  3564  0D44                     _floattostr_:
  3565  0D44                     l4061:	
  3566                           ;incstack = 0
  3567                           ; Regs used in _floattostr_: [wreg-fsr0h+status,2+status,0+btemp+1+pclath+cstack]
  3568                           
  3569                           
  3570                           ;Slave2.c: 82:  void floattostr_(float numero_, unsigned char *cadena_,char decimales_);
      +                          Slave2.c: 83: {;Slave2.c: 85: int largo_entera,largo_n,cont_for,tempo_int;;Slave2.c: 86:
      +                           double tempo_float;;Slave2.c: 88: largo_n = decimales_+1;
  3571  0D44  1283               	bcf	3,5	;RP0=0, select bank0
  3572  0D45  1303               	bcf	3,6	;RP1=0, select bank0
  3573  0D46  0859               	movf	floattostr_@decimales_,w
  3574  0D47  3E01               	addlw	1
  3575  0D48  00E1               	movwf	floattostr_@largo_n
  3576  0D49  3000               	movlw	0
  3577  0D4A  1803               	skipnc
  3578  0D4B  3001               	movlw	1
  3579  0D4C  00E2               	movwf	floattostr_@largo_n+1
  3580  0D4D                     l4063:
  3581                           
  3582                           ;Slave2.c: 89: largo_entera = 0;
  3583  0D4D  01E5               	clrf	floattostr_@largo_entera
  3584  0D4E  01E6               	clrf	floattostr_@largo_entera+1
  3585  0D4F                     l4065:
  3586                           
  3587                           ;Slave2.c: 91: if ( numero_ < 0)
  3588  0D4F  0856               	movf	floattostr_@numero_+3,w
  3589  0D50  00A3               	movwf	___flge@ff1+3
  3590  0D51  0855               	movf	floattostr_@numero_+2,w
  3591  0D52  00A2               	movwf	___flge@ff1+2
  3592  0D53  0854               	movf	floattostr_@numero_+1,w
  3593  0D54  00A1               	movwf	___flge@ff1+1
  3594  0D55  0853               	movf	floattostr_@numero_,w
  3595  0D56  00A0               	movwf	___flge@ff1
  3596  0D57  3000               	movlw	0
  3597  0D58  00A7               	movwf	___flge@ff2+3
  3598  0D59  3000               	movlw	0
  3599  0D5A  00A6               	movwf	___flge@ff2+2
  3600  0D5B  3000               	movlw	0
  3601  0D5C  00A5               	movwf	___flge@ff2+1
  3602  0D5D  3000               	movlw	0
  3603  0D5E  00A4               	movwf	___flge@ff2
  3604  0D5F  160A  118A  275C  120A  158A  	fcall	___flge
  3605  0D64  1803               	btfsc	3,0
  3606  0D65  2D67               	goto	u6021
  3607  0D66  2D68               	goto	u6020
  3608  0D67                     u6021:
  3609  0D67  2D90               	goto	l4073
  3610  0D68                     u6020:
  3611  0D68                     l4067:
  3612                           
  3613                           ;Slave2.c: 92:   {;Slave2.c: 93:   *cadena_++ = '-';
  3614  0D68  302D               	movlw	45
  3615  0D69  1283               	bcf	3,5	;RP0=0, select bank0
  3616  0D6A  1303               	bcf	3,6	;RP1=0, select bank0
  3617  0D6B  00DA               	movwf	??_floattostr_
  3618  0D6C  0857               	movf	floattostr_@cadena_,w
  3619  0D6D  0084               	movwf	4
  3620  0D6E  1783               	bsf	3,7
  3621  0D6F  1C58               	btfss	floattostr_@cadena_+1,0
  3622  0D70  1383               	bcf	3,7
  3623  0D71  085A               	movf	??_floattostr_,w
  3624  0D72  0080               	movwf	0
  3625  0D73                     l4069:
  3626  0D73  3001               	movlw	1
  3627  0D74  07D7               	addwf	floattostr_@cadena_,f
  3628  0D75  1803               	skipnc
  3629  0D76  0AD8               	incf	floattostr_@cadena_+1,f
  3630  0D77  3000               	movlw	0
  3631  0D78  07D8               	addwf	floattostr_@cadena_+1,f
  3632  0D79                     l4071:
  3633                           
  3634                           ;Slave2.c: 94:   numero_ = -numero_;
  3635  0D79  0856               	movf	floattostr_@numero_+3,w
  3636  0D7A  00F6               	movwf	___flneg@f1+3
  3637  0D7B  0855               	movf	floattostr_@numero_+2,w
  3638  0D7C  00F5               	movwf	___flneg@f1+2
  3639  0D7D  0854               	movf	floattostr_@numero_+1,w
  3640  0D7E  00F4               	movwf	___flneg@f1+1
  3641  0D7F  0853               	movf	floattostr_@numero_,w
  3642  0D80  00F3               	movwf	___flneg@f1
  3643  0D81  160A  118A  22FA  120A  158A  	fcall	___flneg
  3644  0D86  0876               	movf	?___flneg+3,w
  3645  0D87  1283               	bcf	3,5	;RP0=0, select bank0
  3646  0D88  1303               	bcf	3,6	;RP1=0, select bank0
  3647  0D89  00D6               	movwf	floattostr_@numero_+3
  3648  0D8A  0875               	movf	?___flneg+2,w
  3649  0D8B  00D5               	movwf	floattostr_@numero_+2
  3650  0D8C  0874               	movf	?___flneg+1,w
  3651  0D8D  00D4               	movwf	floattostr_@numero_+1
  3652  0D8E  0873               	movf	?___flneg,w
  3653  0D8F  00D3               	movwf	floattostr_@numero_
  3654  0D90                     l4073:
  3655                           
  3656                           ;Slave2.c: 97: if (numero_ > 0.0) while (numero_ < 1.0)
  3657  0D90  3000               	movlw	0
  3658  0D91  1283               	bcf	3,5	;RP0=0, select bank0
  3659  0D92  1303               	bcf	3,6	;RP1=0, select bank0
  3660  0D93  00A3               	movwf	___flge@ff1+3
  3661  0D94  3000               	movlw	0
  3662  0D95  00A2               	movwf	___flge@ff1+2
  3663  0D96  3000               	movlw	0
  3664  0D97  00A1               	movwf	___flge@ff1+1
  3665  0D98  3000               	movlw	0
  3666  0D99  00A0               	movwf	___flge@ff1
  3667  0D9A  0856               	movf	floattostr_@numero_+3,w
  3668  0D9B  00A7               	movwf	___flge@ff2+3
  3669  0D9C  0855               	movf	floattostr_@numero_+2,w
  3670  0D9D  00A6               	movwf	___flge@ff2+2
  3671  0D9E  0854               	movf	floattostr_@numero_+1,w
  3672  0D9F  00A5               	movwf	___flge@ff2+1
  3673  0DA0  0853               	movf	floattostr_@numero_,w
  3674  0DA1  00A4               	movwf	___flge@ff2
  3675  0DA2  160A  118A  275C  120A  158A  	fcall	___flge
  3676  0DA7  1803               	btfsc	3,0
  3677  0DA8  2DAA               	goto	u6031
  3678  0DA9  2DAB               	goto	u6030
  3679  0DAA                     u6031:
  3680  0DAA  2E16               	goto	l4087
  3681  0DAB                     u6030:
  3682  0DAB  2DD3               	goto	l4081
  3683  0DAC                     l4077:
  3684                           
  3685                           ;Slave2.c: 98:   {;Slave2.c: 99:   numero_ =numero_* 10.0;
  3686  0DAC  3041               	movlw	65
  3687  0DAD  1283               	bcf	3,5	;RP0=0, select bank0
  3688  0DAE  1303               	bcf	3,6	;RP1=0, select bank0
  3689  0DAF  00A8               	movwf	___flmul@b+3
  3690  0DB0  3020               	movlw	32
  3691  0DB1  00A7               	movwf	___flmul@b+2
  3692  0DB2  3000               	movlw	0
  3693  0DB3  00A6               	movwf	___flmul@b+1
  3694  0DB4  3000               	movlw	0
  3695  0DB5  00A5               	movwf	___flmul@b
  3696  0DB6  0856               	movf	floattostr_@numero_+3,w
  3697  0DB7  00AC               	movwf	___flmul@a+3
  3698  0DB8  0855               	movf	floattostr_@numero_+2,w
  3699  0DB9  00AB               	movwf	___flmul@a+2
  3700  0DBA  0854               	movf	floattostr_@numero_+1,w
  3701  0DBB  00AA               	movwf	___flmul@a+1
  3702  0DBC  0853               	movf	floattostr_@numero_,w
  3703  0DBD  00A9               	movwf	___flmul@a
  3704  0DBE  120A  118A  2037  120A  158A  	fcall	___flmul
  3705  0DC3  1283               	bcf	3,5	;RP0=0, select bank0
  3706  0DC4  1303               	bcf	3,6	;RP1=0, select bank0
  3707  0DC5  0828               	movf	?___flmul+3,w
  3708  0DC6  00D6               	movwf	floattostr_@numero_+3
  3709  0DC7  0827               	movf	?___flmul+2,w
  3710  0DC8  00D5               	movwf	floattostr_@numero_+2
  3711  0DC9  0826               	movf	?___flmul+1,w
  3712  0DCA  00D4               	movwf	floattostr_@numero_+1
  3713  0DCB  0825               	movf	?___flmul,w
  3714  0DCC  00D3               	movwf	floattostr_@numero_
  3715  0DCD                     l4079:
  3716                           
  3717                           ;Slave2.c: 100:   largo_entera--;
  3718  0DCD  30FF               	movlw	255
  3719  0DCE  07E5               	addwf	floattostr_@largo_entera,f
  3720  0DCF  1803               	skipnc
  3721  0DD0  0AE6               	incf	floattostr_@largo_entera+1,f
  3722  0DD1  30FF               	movlw	255
  3723  0DD2  07E6               	addwf	floattostr_@largo_entera+1,f
  3724  0DD3                     l4081:
  3725                           
  3726                           ;Slave2.c: 97: if (numero_ > 0.0) while (numero_ < 1.0)
  3727  0DD3  1283               	bcf	3,5	;RP0=0, select bank0
  3728  0DD4  1303               	bcf	3,6	;RP1=0, select bank0
  3729  0DD5  0856               	movf	floattostr_@numero_+3,w
  3730  0DD6  00A3               	movwf	___flge@ff1+3
  3731  0DD7  0855               	movf	floattostr_@numero_+2,w
  3732  0DD8  00A2               	movwf	___flge@ff1+2
  3733  0DD9  0854               	movf	floattostr_@numero_+1,w
  3734  0DDA  00A1               	movwf	___flge@ff1+1
  3735  0DDB  0853               	movf	floattostr_@numero_,w
  3736  0DDC  00A0               	movwf	___flge@ff1
  3737  0DDD  303F               	movlw	63
  3738  0DDE  00A7               	movwf	___flge@ff2+3
  3739  0DDF  3080               	movlw	128
  3740  0DE0  00A6               	movwf	___flge@ff2+2
  3741  0DE1  3000               	movlw	0
  3742  0DE2  00A5               	movwf	___flge@ff2+1
  3743  0DE3  3000               	movlw	0
  3744  0DE4  00A4               	movwf	___flge@ff2
  3745  0DE5  160A  118A  275C  120A  158A  	fcall	___flge
  3746  0DEA  1C03               	btfss	3,0
  3747  0DEB  2DED               	goto	u6041
  3748  0DEC  2DEE               	goto	u6040
  3749  0DED                     u6041:
  3750  0DED  2DAC               	goto	l4077
  3751  0DEE                     u6040:
  3752  0DEE  2E16               	goto	l4087
  3753  0DEF                     l4083:
  3754                           
  3755                           ;Slave2.c: 105:   {;Slave2.c: 106:   numero_ = numero_/10.0;
  3756  0DEF  3041               	movlw	65
  3757  0DF0  1283               	bcf	3,5	;RP0=0, select bank0
  3758  0DF1  1303               	bcf	3,6	;RP1=0, select bank0
  3759  0DF2  00A3               	movwf	___fldiv@a+3
  3760  0DF3  3020               	movlw	32
  3761  0DF4  00A2               	movwf	___fldiv@a+2
  3762  0DF5  3000               	movlw	0
  3763  0DF6  00A1               	movwf	___fldiv@a+1
  3764  0DF7  3000               	movlw	0
  3765  0DF8  00A0               	movwf	___fldiv@a
  3766  0DF9  0856               	movf	floattostr_@numero_+3,w
  3767  0DFA  00A7               	movwf	___fldiv@b+3
  3768  0DFB  0855               	movf	floattostr_@numero_+2,w
  3769  0DFC  00A6               	movwf	___fldiv@b+2
  3770  0DFD  0854               	movf	floattostr_@numero_+1,w
  3771  0DFE  00A5               	movwf	___fldiv@b+1
  3772  0DFF  0853               	movf	floattostr_@numero_,w
  3773  0E00  00A4               	movwf	___fldiv@b
  3774  0E01  120A  158A  20DF  120A  158A  	fcall	___fldiv
  3775  0E06  1283               	bcf	3,5	;RP0=0, select bank0
  3776  0E07  1303               	bcf	3,6	;RP1=0, select bank0
  3777  0E08  0823               	movf	?___fldiv+3,w
  3778  0E09  00D6               	movwf	floattostr_@numero_+3
  3779  0E0A  0822               	movf	?___fldiv+2,w
  3780  0E0B  00D5               	movwf	floattostr_@numero_+2
  3781  0E0C  0821               	movf	?___fldiv+1,w
  3782  0E0D  00D4               	movwf	floattostr_@numero_+1
  3783  0E0E  0820               	movf	?___fldiv,w
  3784  0E0F  00D3               	movwf	floattostr_@numero_
  3785  0E10                     l4085:
  3786                           
  3787                           ;Slave2.c: 107:   largo_entera++;
  3788  0E10  3001               	movlw	1
  3789  0E11  07E5               	addwf	floattostr_@largo_entera,f
  3790  0E12  1803               	skipnc
  3791  0E13  0AE6               	incf	floattostr_@largo_entera+1,f
  3792  0E14  3000               	movlw	0
  3793  0E15  07E6               	addwf	floattostr_@largo_entera+1,f
  3794  0E16                     l4087:
  3795                           
  3796                           ;Slave2.c: 104: while (numero_ >= 10.0)
  3797  0E16  1283               	bcf	3,5	;RP0=0, select bank0
  3798  0E17  1303               	bcf	3,6	;RP1=0, select bank0
  3799  0E18  0856               	movf	floattostr_@numero_+3,w
  3800  0E19  00A3               	movwf	___flge@ff1+3
  3801  0E1A  0855               	movf	floattostr_@numero_+2,w
  3802  0E1B  00A2               	movwf	___flge@ff1+2
  3803  0E1C  0854               	movf	floattostr_@numero_+1,w
  3804  0E1D  00A1               	movwf	___flge@ff1+1
  3805  0E1E  0853               	movf	floattostr_@numero_,w
  3806  0E1F  00A0               	movwf	___flge@ff1
  3807  0E20  3041               	movlw	65
  3808  0E21  00A7               	movwf	___flge@ff2+3
  3809  0E22  3020               	movlw	32
  3810  0E23  00A6               	movwf	___flge@ff2+2
  3811  0E24  3000               	movlw	0
  3812  0E25  00A5               	movwf	___flge@ff2+1
  3813  0E26  3000               	movlw	0
  3814  0E27  00A4               	movwf	___flge@ff2
  3815  0E28  160A  118A  275C  120A  158A  	fcall	___flge
  3816  0E2D  1803               	btfsc	3,0
  3817  0E2E  2E30               	goto	u6051
  3818  0E2F  2E31               	goto	u6050
  3819  0E30                     u6051:
  3820  0E30  2DEF               	goto	l4083
  3821  0E31                     u6050:
  3822  0E31                     l4089:
  3823                           
  3824                           ;Slave2.c: 109:  largo_n = largo_n+largo_entera;
  3825  0E31  1283               	bcf	3,5	;RP0=0, select bank0
  3826  0E32  1303               	bcf	3,6	;RP1=0, select bank0
  3827  0E33  0865               	movf	floattostr_@largo_entera,w
  3828  0E34  0761               	addwf	floattostr_@largo_n,w
  3829  0E35  00E1               	movwf	floattostr_@largo_n
  3830  0E36  0866               	movf	floattostr_@largo_entera+1,w
  3831  0E37  1803               	skipnc
  3832  0E38  0A66               	incf	floattostr_@largo_entera+1,w
  3833  0E39  0762               	addwf	floattostr_@largo_n+1,w
  3834  0E3A  00E2               	movwf	floattostr_@largo_n+1
  3835  0E3B                     l4091:
  3836                           
  3837                           ;Slave2.c: 113: for (tempo_float = cont_for = 1; cont_for < largo_n; cont_for++)
  3838  0E3B  3001               	movlw	1
  3839  0E3C  00E3               	movwf	floattostr_@cont_for
  3840  0E3D  3000               	movlw	0
  3841  0E3E  00E4               	movwf	floattostr_@cont_for+1
  3842  0E3F  0863               	movf	floattostr_@cont_for,w
  3843  0E40  00BD               	movwf	___xxtofl@val
  3844  0E41  0864               	movf	floattostr_@cont_for+1,w
  3845  0E42  00BE               	movwf	___xxtofl@val+1
  3846  0E43  3000               	movlw	0
  3847  0E44  1BBE               	btfsc	___xxtofl@val+1,7
  3848  0E45  30FF               	movlw	255
  3849  0E46  00BF               	movwf	___xxtofl@val+2
  3850  0E47  00C0               	movwf	___xxtofl@val+3
  3851  0E48  3001               	movlw	1
  3852  0E49  120A  158A  2023  120A  158A  	fcall	___xxtofl
  3853  0E4E  1283               	bcf	3,5	;RP0=0, select bank0
  3854  0E4F  1303               	bcf	3,6	;RP1=0, select bank0
  3855  0E50  0840               	movf	?___xxtofl+3,w
  3856  0E51  00E0               	movwf	floattostr_@tempo_float+3
  3857  0E52  083F               	movf	?___xxtofl+2,w
  3858  0E53  00DF               	movwf	floattostr_@tempo_float+2
  3859  0E54  083E               	movf	?___xxtofl+1,w
  3860  0E55  00DE               	movwf	floattostr_@tempo_float+1
  3861  0E56  083D               	movf	?___xxtofl,w
  3862  0E57  00DD               	movwf	floattostr_@tempo_float
  3863  0E58  2E80               	goto	l4097
  3864  0E59                     l4093:
  3865                           
  3866                           ;Slave2.c: 114:   tempo_float = tempo_float/10.0;
  3867  0E59  3041               	movlw	65
  3868  0E5A  1283               	bcf	3,5	;RP0=0, select bank0
  3869  0E5B  1303               	bcf	3,6	;RP1=0, select bank0
  3870  0E5C  00A3               	movwf	___fldiv@a+3
  3871  0E5D  3020               	movlw	32
  3872  0E5E  00A2               	movwf	___fldiv@a+2
  3873  0E5F  3000               	movlw	0
  3874  0E60  00A1               	movwf	___fldiv@a+1
  3875  0E61  3000               	movlw	0
  3876  0E62  00A0               	movwf	___fldiv@a
  3877  0E63  0860               	movf	floattostr_@tempo_float+3,w
  3878  0E64  00A7               	movwf	___fldiv@b+3
  3879  0E65  085F               	movf	floattostr_@tempo_float+2,w
  3880  0E66  00A6               	movwf	___fldiv@b+2
  3881  0E67  085E               	movf	floattostr_@tempo_float+1,w
  3882  0E68  00A5               	movwf	___fldiv@b+1
  3883  0E69  085D               	movf	floattostr_@tempo_float,w
  3884  0E6A  00A4               	movwf	___fldiv@b
  3885  0E6B  120A  158A  20DF  120A  158A  	fcall	___fldiv
  3886  0E70  1283               	bcf	3,5	;RP0=0, select bank0
  3887  0E71  1303               	bcf	3,6	;RP1=0, select bank0
  3888  0E72  0823               	movf	?___fldiv+3,w
  3889  0E73  00E0               	movwf	floattostr_@tempo_float+3
  3890  0E74  0822               	movf	?___fldiv+2,w
  3891  0E75  00DF               	movwf	floattostr_@tempo_float+2
  3892  0E76  0821               	movf	?___fldiv+1,w
  3893  0E77  00DE               	movwf	floattostr_@tempo_float+1
  3894  0E78  0820               	movf	?___fldiv,w
  3895  0E79  00DD               	movwf	floattostr_@tempo_float
  3896  0E7A                     l4095:
  3897  0E7A  3001               	movlw	1
  3898  0E7B  07E3               	addwf	floattostr_@cont_for,f
  3899  0E7C  1803               	skipnc
  3900  0E7D  0AE4               	incf	floattostr_@cont_for+1,f
  3901  0E7E  3000               	movlw	0
  3902  0E7F  07E4               	addwf	floattostr_@cont_for+1,f
  3903  0E80                     l4097:
  3904  0E80  0864               	movf	floattostr_@cont_for+1,w
  3905  0E81  3A80               	xorlw	128
  3906  0E82  00DA               	movwf	??_floattostr_
  3907  0E83  0862               	movf	floattostr_@largo_n+1,w
  3908  0E84  3A80               	xorlw	128
  3909  0E85  025A               	subwf	??_floattostr_,w
  3910  0E86  1D03               	skipz
  3911  0E87  2E8A               	goto	u6065
  3912  0E88  0861               	movf	floattostr_@largo_n,w
  3913  0E89  0263               	subwf	floattostr_@cont_for,w
  3914  0E8A                     u6065:
  3915  0E8A  1C03               	skipc
  3916  0E8B  2E8D               	goto	u6061
  3917  0E8C  2E8E               	goto	u6060
  3918  0E8D                     u6061:
  3919  0E8D  2E59               	goto	l4093
  3920  0E8E                     u6060:
  3921  0E8E                     l4099:
  3922                           
  3923                           ;Slave2.c: 115: numero_ += tempo_float/2.0;
  3924  0E8E  1283               	bcf	3,5	;RP0=0, select bank0
  3925  0E8F  1303               	bcf	3,6	;RP1=0, select bank0
  3926  0E90  0860               	movf	floattostr_@tempo_float+3,w
  3927  0E91  00A7               	movwf	___fldiv@b+3
  3928  0E92  085F               	movf	floattostr_@tempo_float+2,w
  3929  0E93  00A6               	movwf	___fldiv@b+2
  3930  0E94  085E               	movf	floattostr_@tempo_float+1,w
  3931  0E95  00A5               	movwf	___fldiv@b+1
  3932  0E96  085D               	movf	floattostr_@tempo_float,w
  3933  0E97  00A4               	movwf	___fldiv@b
  3934  0E98  3040               	movlw	64
  3935  0E99  00A3               	movwf	___fldiv@a+3
  3936  0E9A  3000               	movlw	0
  3937  0E9B  00A2               	movwf	___fldiv@a+2
  3938  0E9C  3000               	movlw	0
  3939  0E9D  00A1               	movwf	___fldiv@a+1
  3940  0E9E  3000               	movlw	0
  3941  0E9F  00A0               	movwf	___fldiv@a
  3942  0EA0  120A  158A  20DF  120A  158A  	fcall	___fldiv
  3943  0EA5  1283               	bcf	3,5	;RP0=0, select bank0
  3944  0EA6  1303               	bcf	3,6	;RP1=0, select bank0
  3945  0EA7  0823               	movf	?___fldiv+3,w
  3946  0EA8  00B8               	movwf	___fladd@b+3
  3947  0EA9  0822               	movf	?___fldiv+2,w
  3948  0EAA  00B7               	movwf	___fladd@b+2
  3949  0EAB  0821               	movf	?___fldiv+1,w
  3950  0EAC  00B6               	movwf	___fladd@b+1
  3951  0EAD  0820               	movf	?___fldiv,w
  3952  0EAE  00B5               	movwf	___fladd@b
  3953  0EAF  0856               	movf	floattostr_@numero_+3,w
  3954  0EB0  00BC               	movwf	___fladd@a+3
  3955  0EB1  0855               	movf	floattostr_@numero_+2,w
  3956  0EB2  00BB               	movwf	___fladd@a+2
  3957  0EB3  0854               	movf	floattostr_@numero_+1,w
  3958  0EB4  00BA               	movwf	___fladd@a+1
  3959  0EB5  0853               	movf	floattostr_@numero_,w
  3960  0EB6  00B9               	movwf	___fladd@a
  3961  0EB7  120A  158A  22BC  120A  158A  	fcall	___fladd
  3962  0EBC  1283               	bcf	3,5	;RP0=0, select bank0
  3963  0EBD  1303               	bcf	3,6	;RP1=0, select bank0
  3964  0EBE  0838               	movf	?___fladd+3,w
  3965  0EBF  00D6               	movwf	floattostr_@numero_+3
  3966  0EC0  0837               	movf	?___fladd+2,w
  3967  0EC1  00D5               	movwf	floattostr_@numero_+2
  3968  0EC2  0836               	movf	?___fladd+1,w
  3969  0EC3  00D4               	movwf	floattostr_@numero_+1
  3970  0EC4  0835               	movf	?___fladd,w
  3971  0EC5  00D3               	movwf	floattostr_@numero_
  3972  0EC6                     l4101:
  3973                           
  3974                           ;Slave2.c: 116: if (numero_ >= 10.0) {numero_ = 1.0; largo_entera++;}
  3975  0EC6  0856               	movf	floattostr_@numero_+3,w
  3976  0EC7  00A3               	movwf	___flge@ff1+3
  3977  0EC8  0855               	movf	floattostr_@numero_+2,w
  3978  0EC9  00A2               	movwf	___flge@ff1+2
  3979  0ECA  0854               	movf	floattostr_@numero_+1,w
  3980  0ECB  00A1               	movwf	___flge@ff1+1
  3981  0ECC  0853               	movf	floattostr_@numero_,w
  3982  0ECD  00A0               	movwf	___flge@ff1
  3983  0ECE  3041               	movlw	65
  3984  0ECF  00A7               	movwf	___flge@ff2+3
  3985  0ED0  3020               	movlw	32
  3986  0ED1  00A6               	movwf	___flge@ff2+2
  3987  0ED2  3000               	movlw	0
  3988  0ED3  00A5               	movwf	___flge@ff2+1
  3989  0ED4  3000               	movlw	0
  3990  0ED5  00A4               	movwf	___flge@ff2
  3991  0ED6  160A  118A  275C  120A  158A  	fcall	___flge
  3992  0EDB  1C03               	btfss	3,0
  3993  0EDC  2EDE               	goto	u6071
  3994  0EDD  2EDF               	goto	u6070
  3995  0EDE                     u6071:
  3996  0EDE  2EEF               	goto	l4105
  3997  0EDF                     u6070:
  3998  0EDF                     l4103:
  3999  0EDF  303F               	movlw	63
  4000  0EE0  1283               	bcf	3,5	;RP0=0, select bank0
  4001  0EE1  1303               	bcf	3,6	;RP1=0, select bank0
  4002  0EE2  00D6               	movwf	floattostr_@numero_+3
  4003  0EE3  3080               	movlw	128
  4004  0EE4  00D5               	movwf	floattostr_@numero_+2
  4005  0EE5  3000               	movlw	0
  4006  0EE6  00D4               	movwf	floattostr_@numero_+1
  4007  0EE7  3000               	movlw	0
  4008  0EE8  00D3               	movwf	floattostr_@numero_
  4009  0EE9  3001               	movlw	1
  4010  0EEA  07E5               	addwf	floattostr_@largo_entera,f
  4011  0EEB  1803               	skipnc
  4012  0EEC  0AE6               	incf	floattostr_@largo_entera+1,f
  4013  0EED  3000               	movlw	0
  4014  0EEE  07E6               	addwf	floattostr_@largo_entera+1,f
  4015  0EEF                     l4105:
  4016                           
  4017                           ;Slave2.c: 118: if (largo_entera<0)
  4018  0EEF  1283               	bcf	3,5	;RP0=0, select bank0
  4019  0EF0  1303               	bcf	3,6	;RP1=0, select bank0
  4020  0EF1  1FE6               	btfss	floattostr_@largo_entera+1,7
  4021  0EF2  2EF4               	goto	u6081
  4022  0EF3  2EF5               	goto	u6080
  4023  0EF4                     u6081:
  4024  0EF4  2F49               	goto	l4127
  4025  0EF5                     u6080:
  4026  0EF5                     l4107:
  4027                           
  4028                           ;Slave2.c: 119:   {;Slave2.c: 120:    *cadena_++ = '0'; *cadena_++ = '.';
  4029  0EF5  3030               	movlw	48
  4030  0EF6  00DA               	movwf	??_floattostr_
  4031  0EF7  0857               	movf	floattostr_@cadena_,w
  4032  0EF8  0084               	movwf	4
  4033  0EF9  1783               	bsf	3,7
  4034  0EFA  1C58               	btfss	floattostr_@cadena_+1,0
  4035  0EFB  1383               	bcf	3,7
  4036  0EFC  085A               	movf	??_floattostr_,w
  4037  0EFD  0080               	movwf	0
  4038  0EFE                     l4109:
  4039  0EFE  3001               	movlw	1
  4040  0EFF  07D7               	addwf	floattostr_@cadena_,f
  4041  0F00  1803               	skipnc
  4042  0F01  0AD8               	incf	floattostr_@cadena_+1,f
  4043  0F02  3000               	movlw	0
  4044  0F03  07D8               	addwf	floattostr_@cadena_+1,f
  4045  0F04                     l4111:
  4046  0F04  302E               	movlw	46
  4047  0F05  00DA               	movwf	??_floattostr_
  4048  0F06  0857               	movf	floattostr_@cadena_,w
  4049  0F07  0084               	movwf	4
  4050  0F08  1783               	bsf	3,7
  4051  0F09  1C58               	btfss	floattostr_@cadena_+1,0
  4052  0F0A  1383               	bcf	3,7
  4053  0F0B  085A               	movf	??_floattostr_,w
  4054  0F0C  0080               	movwf	0
  4055  0F0D  3001               	movlw	1
  4056  0F0E  07D7               	addwf	floattostr_@cadena_,f
  4057  0F0F  1803               	skipnc
  4058  0F10  0AD8               	incf	floattostr_@cadena_+1,f
  4059  0F11  3000               	movlw	0
  4060  0F12  07D8               	addwf	floattostr_@cadena_+1,f
  4061  0F13                     l4113:
  4062                           
  4063                           ;Slave2.c: 121:    if (largo_n < 0) largo_entera = largo_entera-largo_n;
  4064  0F13  1FE2               	btfss	floattostr_@largo_n+1,7
  4065  0F14  2F16               	goto	u6091
  4066  0F15  2F17               	goto	u6090
  4067  0F16                     u6091:
  4068  0F16  2F1F               	goto	l4117
  4069  0F17                     u6090:
  4070  0F17                     l4115:
  4071  0F17  0861               	movf	floattostr_@largo_n,w
  4072  0F18  0265               	subwf	floattostr_@largo_entera,w
  4073  0F19  00E5               	movwf	floattostr_@largo_entera
  4074  0F1A  0862               	movf	floattostr_@largo_n+1,w
  4075  0F1B  1C03               	skipc
  4076  0F1C  0A62               	incf	floattostr_@largo_n+1,w
  4077  0F1D  0266               	subwf	floattostr_@largo_entera+1,w
  4078  0F1E  00E6               	movwf	floattostr_@largo_entera+1
  4079  0F1F                     l4117:
  4080                           
  4081                           ;Slave2.c: 122:    for (cont_for = -1; cont_for > largo_entera; cont_for--) *cadena_++ =
      +                           '0';
  4082  0F1F  30FF               	movlw	255
  4083  0F20  00E3               	movwf	floattostr_@cont_for
  4084  0F21  30FF               	movlw	255
  4085  0F22  00E4               	movwf	floattostr_@cont_for+1
  4086  0F23  2F3B               	goto	l4125
  4087  0F24                     l4119:
  4088  0F24  3030               	movlw	48
  4089  0F25  1283               	bcf	3,5	;RP0=0, select bank0
  4090  0F26  1303               	bcf	3,6	;RP1=0, select bank0
  4091  0F27  00DA               	movwf	??_floattostr_
  4092  0F28  0857               	movf	floattostr_@cadena_,w
  4093  0F29  0084               	movwf	4
  4094  0F2A  1783               	bsf	3,7
  4095  0F2B  1C58               	btfss	floattostr_@cadena_+1,0
  4096  0F2C  1383               	bcf	3,7
  4097  0F2D  085A               	movf	??_floattostr_,w
  4098  0F2E  0080               	movwf	0
  4099  0F2F                     l4121:
  4100  0F2F  3001               	movlw	1
  4101  0F30  07D7               	addwf	floattostr_@cadena_,f
  4102  0F31  1803               	skipnc
  4103  0F32  0AD8               	incf	floattostr_@cadena_+1,f
  4104  0F33  3000               	movlw	0
  4105  0F34  07D8               	addwf	floattostr_@cadena_+1,f
  4106  0F35                     l4123:
  4107  0F35  30FF               	movlw	255
  4108  0F36  07E3               	addwf	floattostr_@cont_for,f
  4109  0F37  1803               	skipnc
  4110  0F38  0AE4               	incf	floattostr_@cont_for+1,f
  4111  0F39  30FF               	movlw	255
  4112  0F3A  07E4               	addwf	floattostr_@cont_for+1,f
  4113  0F3B                     l4125:
  4114  0F3B  0866               	movf	floattostr_@largo_entera+1,w
  4115  0F3C  3A80               	xorlw	128
  4116  0F3D  00DA               	movwf	??_floattostr_
  4117  0F3E  0864               	movf	floattostr_@cont_for+1,w
  4118  0F3F  3A80               	xorlw	128
  4119  0F40  025A               	subwf	??_floattostr_,w
  4120  0F41  1D03               	skipz
  4121  0F42  2F45               	goto	u6105
  4122  0F43  0863               	movf	floattostr_@cont_for,w
  4123  0F44  0265               	subwf	floattostr_@largo_entera,w
  4124  0F45                     u6105:
  4125  0F45  1C03               	skipc
  4126  0F46  2F48               	goto	u6101
  4127  0F47  2F49               	goto	u6100
  4128  0F48                     u6101:
  4129  0F48  2F24               	goto	l4119
  4130  0F49                     u6100:
  4131  0F49                     l4127:
  4132                           
  4133                           ;Slave2.c: 124: for (cont_for=0; cont_for < largo_n; cont_for++)
  4134  0F49  1283               	bcf	3,5	;RP0=0, select bank0
  4135  0F4A  1303               	bcf	3,6	;RP1=0, select bank0
  4136  0F4B  01E3               	clrf	floattostr_@cont_for
  4137  0F4C  01E4               	clrf	floattostr_@cont_for+1
  4138  0F4D  2FE9               	goto	l4147
  4139  0F4E                     l4129:
  4140                           
  4141                           ;Slave2.c: 125:   {;Slave2.c: 126:   tempo_int = numero_;
  4142  0F4E  1283               	bcf	3,5	;RP0=0, select bank0
  4143  0F4F  1303               	bcf	3,6	;RP1=0, select bank0
  4144  0F50  0856               	movf	floattostr_@numero_+3,w
  4145  0F51  00F6               	movwf	___fltol@f1+3
  4146  0F52  0855               	movf	floattostr_@numero_+2,w
  4147  0F53  00F5               	movwf	___fltol@f1+2
  4148  0F54  0854               	movf	floattostr_@numero_+1,w
  4149  0F55  00F4               	movwf	___fltol@f1+1
  4150  0F56  0853               	movf	floattostr_@numero_,w
  4151  0F57  00F3               	movwf	___fltol@f1
  4152  0F58  160A  118A  25B5  120A  158A  	fcall	___fltol
  4153  0F5D  0874               	movf	?___fltol+1,w
  4154  0F5E  1283               	bcf	3,5	;RP0=0, select bank0
  4155  0F5F  1303               	bcf	3,6	;RP1=0, select bank0
  4156  0F60  00DC               	movwf	floattostr_@tempo_int+1
  4157  0F61  0873               	movf	?___fltol,w
  4158  0F62  00DB               	movwf	floattostr_@tempo_int
  4159  0F63                     l4131:
  4160                           
  4161                           ;Slave2.c: 127:   *cadena_++ = tempo_int + 48;
  4162  0F63  085B               	movf	floattostr_@tempo_int,w
  4163  0F64  3E30               	addlw	48
  4164  0F65  00DA               	movwf	??_floattostr_
  4165  0F66  0857               	movf	floattostr_@cadena_,w
  4166  0F67  0084               	movwf	4
  4167  0F68  1783               	bsf	3,7
  4168  0F69  1C58               	btfss	floattostr_@cadena_+1,0
  4169  0F6A  1383               	bcf	3,7
  4170  0F6B  085A               	movf	??_floattostr_,w
  4171  0F6C  0080               	movwf	0
  4172  0F6D                     l4133:
  4173  0F6D  3001               	movlw	1
  4174  0F6E  07D7               	addwf	floattostr_@cadena_,f
  4175  0F6F  1803               	skipnc
  4176  0F70  0AD8               	incf	floattostr_@cadena_+1,f
  4177  0F71  3000               	movlw	0
  4178  0F72  07D8               	addwf	floattostr_@cadena_+1,f
  4179  0F73                     l4135:
  4180                           
  4181                           ;Slave2.c: 128:   if (cont_for == largo_entera ) *cadena_++ = '.';
  4182  0F73  0866               	movf	floattostr_@largo_entera+1,w
  4183  0F74  0664               	xorwf	floattostr_@cont_for+1,w
  4184  0F75  1D03               	skipz
  4185  0F76  2F79               	goto	u6115
  4186  0F77  0865               	movf	floattostr_@largo_entera,w
  4187  0F78  0663               	xorwf	floattostr_@cont_for,w
  4188  0F79                     u6115:
  4189  0F79  1D03               	skipz
  4190  0F7A  2F7C               	goto	u6111
  4191  0F7B  2F7D               	goto	u6110
  4192  0F7C                     u6111:
  4193  0F7C  2F8C               	goto	l4141
  4194  0F7D                     u6110:
  4195  0F7D                     l4137:
  4196  0F7D  302E               	movlw	46
  4197  0F7E  00DA               	movwf	??_floattostr_
  4198  0F7F  0857               	movf	floattostr_@cadena_,w
  4199  0F80  0084               	movwf	4
  4200  0F81  1783               	bsf	3,7
  4201  0F82  1C58               	btfss	floattostr_@cadena_+1,0
  4202  0F83  1383               	bcf	3,7
  4203  0F84  085A               	movf	??_floattostr_,w
  4204  0F85  0080               	movwf	0
  4205  0F86                     l4139:
  4206  0F86  3001               	movlw	1
  4207  0F87  07D7               	addwf	floattostr_@cadena_,f
  4208  0F88  1803               	skipnc
  4209  0F89  0AD8               	incf	floattostr_@cadena_+1,f
  4210  0F8A  3000               	movlw	0
  4211  0F8B  07D8               	addwf	floattostr_@cadena_+1,f
  4212  0F8C                     l4141:
  4213                           
  4214                           ;Slave2.c: 129:   numero_ -= (tempo_float=tempo_int);
  4215  0F8C  085B               	movf	floattostr_@tempo_int,w
  4216  0F8D  00BD               	movwf	___xxtofl@val
  4217  0F8E  085C               	movf	floattostr_@tempo_int+1,w
  4218  0F8F  00BE               	movwf	___xxtofl@val+1
  4219  0F90  3000               	movlw	0
  4220  0F91  1BBE               	btfsc	___xxtofl@val+1,7
  4221  0F92  30FF               	movlw	255
  4222  0F93  00BF               	movwf	___xxtofl@val+2
  4223  0F94  00C0               	movwf	___xxtofl@val+3
  4224  0F95  3001               	movlw	1
  4225  0F96  120A  158A  2023  120A  158A  	fcall	___xxtofl
  4226  0F9B  1283               	bcf	3,5	;RP0=0, select bank0
  4227  0F9C  1303               	bcf	3,6	;RP1=0, select bank0
  4228  0F9D  0840               	movf	?___xxtofl+3,w
  4229  0F9E  00E0               	movwf	floattostr_@tempo_float+3
  4230  0F9F  083F               	movf	?___xxtofl+2,w
  4231  0FA0  00DF               	movwf	floattostr_@tempo_float+2
  4232  0FA1  083E               	movf	?___xxtofl+1,w
  4233  0FA2  00DE               	movwf	floattostr_@tempo_float+1
  4234  0FA3  083D               	movf	?___xxtofl,w
  4235  0FA4  00DD               	movwf	floattostr_@tempo_float
  4236  0FA5  0860               	movf	floattostr_@tempo_float+3,w
  4237  0FA6  00CE               	movwf	___flsub@a+3
  4238  0FA7  085F               	movf	floattostr_@tempo_float+2,w
  4239  0FA8  00CD               	movwf	___flsub@a+2
  4240  0FA9  085E               	movf	floattostr_@tempo_float+1,w
  4241  0FAA  00CC               	movwf	___flsub@a+1
  4242  0FAB  085D               	movf	floattostr_@tempo_float,w
  4243  0FAC  00CB               	movwf	___flsub@a
  4244  0FAD  0856               	movf	floattostr_@numero_+3,w
  4245  0FAE  00D2               	movwf	___flsub@b+3
  4246  0FAF  0855               	movf	floattostr_@numero_+2,w
  4247  0FB0  00D1               	movwf	___flsub@b+2
  4248  0FB1  0854               	movf	floattostr_@numero_+1,w
  4249  0FB2  00D0               	movwf	___flsub@b+1
  4250  0FB3  0853               	movf	floattostr_@numero_,w
  4251  0FB4  00CF               	movwf	___flsub@b
  4252  0FB5  160A  118A  2392  120A  158A  	fcall	___flsub
  4253  0FBA  1283               	bcf	3,5	;RP0=0, select bank0
  4254  0FBB  1303               	bcf	3,6	;RP1=0, select bank0
  4255  0FBC  084E               	movf	?___flsub+3,w
  4256  0FBD  00D6               	movwf	floattostr_@numero_+3
  4257  0FBE  084D               	movf	?___flsub+2,w
  4258  0FBF  00D5               	movwf	floattostr_@numero_+2
  4259  0FC0  084C               	movf	?___flsub+1,w
  4260  0FC1  00D4               	movwf	floattostr_@numero_+1
  4261  0FC2  084B               	movf	?___flsub,w
  4262  0FC3  00D3               	movwf	floattostr_@numero_
  4263  0FC4                     l4143:
  4264                           
  4265                           ;Slave2.c: 130:   numero_ = numero_*10.0;
  4266  0FC4  3041               	movlw	65
  4267  0FC5  00A8               	movwf	___flmul@b+3
  4268  0FC6  3020               	movlw	32
  4269  0FC7  00A7               	movwf	___flmul@b+2
  4270  0FC8  3000               	movlw	0
  4271  0FC9  00A6               	movwf	___flmul@b+1
  4272  0FCA  3000               	movlw	0
  4273  0FCB  00A5               	movwf	___flmul@b
  4274  0FCC  0856               	movf	floattostr_@numero_+3,w
  4275  0FCD  00AC               	movwf	___flmul@a+3
  4276  0FCE  0855               	movf	floattostr_@numero_+2,w
  4277  0FCF  00AB               	movwf	___flmul@a+2
  4278  0FD0  0854               	movf	floattostr_@numero_+1,w
  4279  0FD1  00AA               	movwf	___flmul@a+1
  4280  0FD2  0853               	movf	floattostr_@numero_,w
  4281  0FD3  00A9               	movwf	___flmul@a
  4282  0FD4  120A  118A  2037  120A  158A  	fcall	___flmul
  4283  0FD9  1283               	bcf	3,5	;RP0=0, select bank0
  4284  0FDA  1303               	bcf	3,6	;RP1=0, select bank0
  4285  0FDB  0828               	movf	?___flmul+3,w
  4286  0FDC  00D6               	movwf	floattostr_@numero_+3
  4287  0FDD  0827               	movf	?___flmul+2,w
  4288  0FDE  00D5               	movwf	floattostr_@numero_+2
  4289  0FDF  0826               	movf	?___flmul+1,w
  4290  0FE0  00D4               	movwf	floattostr_@numero_+1
  4291  0FE1  0825               	movf	?___flmul,w
  4292  0FE2  00D3               	movwf	floattostr_@numero_
  4293  0FE3                     l4145:
  4294                           
  4295                           ;Slave2.c: 131:   }
  4296  0FE3  3001               	movlw	1
  4297  0FE4  07E3               	addwf	floattostr_@cont_for,f
  4298  0FE5  1803               	skipnc
  4299  0FE6  0AE4               	incf	floattostr_@cont_for+1,f
  4300  0FE7  3000               	movlw	0
  4301  0FE8  07E4               	addwf	floattostr_@cont_for+1,f
  4302  0FE9                     l4147:
  4303  0FE9  0864               	movf	floattostr_@cont_for+1,w
  4304  0FEA  3A80               	xorlw	128
  4305  0FEB  00DA               	movwf	??_floattostr_
  4306  0FEC  0862               	movf	floattostr_@largo_n+1,w
  4307  0FED  3A80               	xorlw	128
  4308  0FEE  025A               	subwf	??_floattostr_,w
  4309  0FEF  1D03               	skipz
  4310  0FF0  2FF3               	goto	u6125
  4311  0FF1  0861               	movf	floattostr_@largo_n,w
  4312  0FF2  0263               	subwf	floattostr_@cont_for,w
  4313  0FF3                     u6125:
  4314  0FF3  1C03               	skipc
  4315  0FF4  2FF6               	goto	u6121
  4316  0FF5  2FF7               	goto	u6120
  4317  0FF6                     u6121:
  4318  0FF6  2F4E               	goto	l4129
  4319  0FF7                     u6120:
  4320  0FF7                     l4149:
  4321                           
  4322                           ;Slave2.c: 132: *cadena_ =0;
  4323  0FF7  1283               	bcf	3,5	;RP0=0, select bank0
  4324  0FF8  1303               	bcf	3,6	;RP1=0, select bank0
  4325  0FF9  0857               	movf	floattostr_@cadena_,w
  4326  0FFA  0084               	movwf	4
  4327  0FFB  1783               	bsf	3,7
  4328  0FFC  1C58               	btfss	floattostr_@cadena_+1,0
  4329  0FFD  1383               	bcf	3,7
  4330  0FFE  0180               	clrf	0
  4331  0FFF                     l154:
  4332  0FFF  0008               	return
  4333  1000                     __end_of_floattostr_:
  4334                           
  4335                           	psect	text10
  4336  0823                     __ptext10:	
  4337 ;; *************** function ___xxtofl *****************
  4338 ;; Defined at:
  4339 ;;		line 10 in file "C:\Program Files\Microchip\xc8\v2.31\pic\sources\c90\common\xxtofl.c"
  4340 ;; Parameters:    Size  Location     Type
  4341 ;;  sign            1    wreg     unsigned char 
  4342 ;;  val             4   29[BANK0 ] long 
  4343 ;; Auto vars:     Size  Location     Type
  4344 ;;  sign            1   37[BANK0 ] unsigned char 
  4345 ;;  arg             4   39[BANK0 ] unsigned long 
  4346 ;;  exp             1   38[BANK0 ] unsigned char 
  4347 ;; Return value:  Size  Location     Type
  4348 ;;                  4   29[BANK0 ] unsigned char 
  4349 ;; Registers used:
  4350 ;;		wreg, status,2, status,0
  4351 ;; Tracked objects:
  4352 ;;		On entry : 0/0
  4353 ;;		On exit  : 0/0
  4354 ;;		Unchanged: 0/0
  4355 ;; Data sizes:     COMMON   BANK0   BANK1   BANK3   BANK2
  4356 ;;      Params:         0       4       0       0       0
  4357 ;;      Locals:         0       6       0       0       0
  4358 ;;      Temps:          0       4       0       0       0
  4359 ;;      Totals:         0      14       0       0       0
  4360 ;;Total ram usage:       14 bytes
  4361 ;; Hardware stack levels used:    1
  4362 ;; Hardware stack levels required when called:    1
  4363 ;; This function calls:
  4364 ;;		Nothing
  4365 ;; This function is called by:
  4366 ;;		_floattostr_
  4367 ;;		_main
  4368 ;; This function uses a non-reentrant model
  4369 ;;
  4370                           
  4371                           
  4372                           ;psect for function ___xxtofl
  4373  0823                     ___xxtofl:
  4374                           
  4375                           ;incstack = 0
  4376                           ; Regs used in ___xxtofl: [wreg+status,2+status,0]
  4377                           ;___xxtofl@sign stored from wreg
  4378  0823  1283               	bcf	3,5	;RP0=0, select bank0
  4379  0824  1303               	bcf	3,6	;RP1=0, select bank0
  4380  0825  00C5               	movwf	___xxtofl@sign
  4381  0826                     l4017:
  4382  0826  0845               	movf	___xxtofl@sign,w
  4383  0827  1903               	btfsc	3,2
  4384  0828  282A               	goto	u5881
  4385  0829  282B               	goto	u5880
  4386  082A                     u5881:
  4387  082A  283F               	goto	l4023
  4388  082B                     u5880:
  4389  082B                     l4019:
  4390  082B  1FC0               	btfss	___xxtofl@val+3,7
  4391  082C  282E               	goto	u5891
  4392  082D  282F               	goto	u5890
  4393  082E                     u5891:
  4394  082E  283F               	goto	l4023
  4395  082F                     u5890:
  4396  082F                     l4021:
  4397  082F  093D               	comf	___xxtofl@val,w
  4398  0830  00C7               	movwf	___xxtofl@arg
  4399  0831  093E               	comf	___xxtofl@val+1,w
  4400  0832  00C8               	movwf	___xxtofl@arg+1
  4401  0833  093F               	comf	___xxtofl@val+2,w
  4402  0834  00C9               	movwf	___xxtofl@arg+2
  4403  0835  0940               	comf	___xxtofl@val+3,w
  4404  0836  00CA               	movwf	___xxtofl@arg+3
  4405  0837  0AC7               	incf	___xxtofl@arg,f
  4406  0838  1903               	skipnz
  4407  0839  0AC8               	incf	___xxtofl@arg+1,f
  4408  083A  1903               	skipnz
  4409  083B  0AC9               	incf	___xxtofl@arg+2,f
  4410  083C  1903               	skipnz
  4411  083D  0ACA               	incf	___xxtofl@arg+3,f
  4412  083E  2847               	goto	l894
  4413  083F                     l4023:
  4414  083F  0840               	movf	___xxtofl@val+3,w
  4415  0840  00CA               	movwf	___xxtofl@arg+3
  4416  0841  083F               	movf	___xxtofl@val+2,w
  4417  0842  00C9               	movwf	___xxtofl@arg+2
  4418  0843  083E               	movf	___xxtofl@val+1,w
  4419  0844  00C8               	movwf	___xxtofl@arg+1
  4420  0845  083D               	movf	___xxtofl@val,w
  4421  0846  00C7               	movwf	___xxtofl@arg
  4422  0847                     l894:
  4423  0847  0840               	movf	___xxtofl@val+3,w
  4424  0848  043F               	iorwf	___xxtofl@val+2,w
  4425  0849  043E               	iorwf	___xxtofl@val+1,w
  4426  084A  043D               	iorwf	___xxtofl@val,w
  4427  084B  1D03               	skipz
  4428  084C  284E               	goto	u5901
  4429  084D  284F               	goto	u5900
  4430  084E                     u5901:
  4431  084E  2858               	goto	l4029
  4432  084F                     u5900:
  4433  084F                     l4025:
  4434  084F  3000               	movlw	0
  4435  0850  00C0               	movwf	?___xxtofl+3
  4436  0851  3000               	movlw	0
  4437  0852  00BF               	movwf	?___xxtofl+2
  4438  0853  3000               	movlw	0
  4439  0854  00BE               	movwf	?___xxtofl+1
  4440  0855  3000               	movlw	0
  4441  0856  00BD               	movwf	?___xxtofl
  4442  0857  28DE               	goto	l896
  4443  0858                     l4029:
  4444  0858  3096               	movlw	150
  4445  0859  00C1               	movwf	??___xxtofl
  4446  085A  0841               	movf	??___xxtofl,w
  4447  085B  00C6               	movwf	___xxtofl@exp
  4448  085C  286A               	goto	l4033
  4449  085D                     l4031:
  4450  085D  3001               	movlw	1
  4451  085E  00C1               	movwf	??___xxtofl
  4452  085F  0841               	movf	??___xxtofl,w
  4453  0860  07C6               	addwf	___xxtofl@exp,f
  4454  0861  3001               	movlw	1
  4455  0862                     u5915:
  4456  0862  1003               	clrc
  4457  0863  0CCA               	rrf	___xxtofl@arg+3,f
  4458  0864  0CC9               	rrf	___xxtofl@arg+2,f
  4459  0865  0CC8               	rrf	___xxtofl@arg+1,f
  4460  0866  0CC7               	rrf	___xxtofl@arg,f
  4461  0867  3EFF               	addlw	-1
  4462  0868  1D03               	skipz
  4463  0869  2862               	goto	u5915
  4464  086A                     l4033:
  4465  086A  30FE               	movlw	254
  4466  086B  054A               	andwf	___xxtofl@arg+3,w
  4467  086C  1D03               	btfss	3,2
  4468  086D  286F               	goto	u5921
  4469  086E  2870               	goto	u5920
  4470  086F                     u5921:
  4471  086F  285D               	goto	l4031
  4472  0870                     u5920:
  4473  0870  288C               	goto	l900
  4474  0871                     l4035:
  4475  0871  3001               	movlw	1
  4476  0872  00C1               	movwf	??___xxtofl
  4477  0873  0841               	movf	??___xxtofl,w
  4478  0874  07C6               	addwf	___xxtofl@exp,f
  4479  0875                     l4037:
  4480  0875  3001               	movlw	1
  4481  0876  07C7               	addwf	___xxtofl@arg,f
  4482  0877  3000               	movlw	0
  4483  0878  1803               	skipnc
  4484  0879  3001               	movlw	1
  4485  087A  07C8               	addwf	___xxtofl@arg+1,f
  4486  087B  3000               	movlw	0
  4487  087C  1803               	skipnc
  4488  087D  3001               	movlw	1
  4489  087E  07C9               	addwf	___xxtofl@arg+2,f
  4490  087F  3000               	movlw	0
  4491  0880  1803               	skipnc
  4492  0881  3001               	movlw	1
  4493  0882  07CA               	addwf	___xxtofl@arg+3,f
  4494  0883                     l4039:
  4495  0883  3001               	movlw	1
  4496  0884                     u5935:
  4497  0884  1003               	clrc
  4498  0885  0CCA               	rrf	___xxtofl@arg+3,f
  4499  0886  0CC9               	rrf	___xxtofl@arg+2,f
  4500  0887  0CC8               	rrf	___xxtofl@arg+1,f
  4501  0888  0CC7               	rrf	___xxtofl@arg,f
  4502  0889  3EFF               	addlw	-1
  4503  088A  1D03               	skipz
  4504  088B  2884               	goto	u5935
  4505  088C                     l900:
  4506  088C  30FF               	movlw	255
  4507  088D  054A               	andwf	___xxtofl@arg+3,w
  4508  088E  1D03               	btfss	3,2
  4509  088F  2891               	goto	u5941
  4510  0890  2892               	goto	u5940
  4511  0891                     u5941:
  4512  0891  2871               	goto	l4035
  4513  0892                     u5940:
  4514  0892  289E               	goto	l4043
  4515  0893                     l4041:
  4516  0893  3001               	movlw	1
  4517  0894  02C6               	subwf	___xxtofl@exp,f
  4518  0895  3001               	movlw	1
  4519  0896  00C1               	movwf	??___xxtofl
  4520  0897                     u5955:
  4521  0897  1003               	clrc
  4522  0898  0DC7               	rlf	___xxtofl@arg,f
  4523  0899  0DC8               	rlf	___xxtofl@arg+1,f
  4524  089A  0DC9               	rlf	___xxtofl@arg+2,f
  4525  089B  0DCA               	rlf	___xxtofl@arg+3,f
  4526  089C  0BC1               	decfsz	??___xxtofl,f
  4527  089D  2897               	goto	u5955
  4528  089E                     l4043:
  4529  089E  1BC9               	btfsc	___xxtofl@arg+2,7
  4530  089F  28A1               	goto	u5961
  4531  08A0  28A2               	goto	u5960
  4532  08A1                     u5961:
  4533  08A1  28A8               	goto	l907
  4534  08A2                     u5960:
  4535  08A2                     l4045:
  4536  08A2  3002               	movlw	2
  4537  08A3  0246               	subwf	___xxtofl@exp,w
  4538  08A4  1803               	skipnc
  4539  08A5  28A7               	goto	u5971
  4540  08A6  28A8               	goto	u5970
  4541  08A7                     u5971:
  4542  08A7  2893               	goto	l4041
  4543  08A8                     u5970:
  4544  08A8                     l907:
  4545  08A8  1846               	btfsc	___xxtofl@exp,0
  4546  08A9  28AB               	goto	u5981
  4547  08AA  28AC               	goto	u5980
  4548  08AB                     u5981:
  4549  08AB  28B4               	goto	l908
  4550  08AC                     u5980:
  4551  08AC                     l4047:
  4552  08AC  30FF               	movlw	255
  4553  08AD  05C7               	andwf	___xxtofl@arg,f
  4554  08AE  30FF               	movlw	255
  4555  08AF  05C8               	andwf	___xxtofl@arg+1,f
  4556  08B0  307F               	movlw	127
  4557  08B1  05C9               	andwf	___xxtofl@arg+2,f
  4558  08B2  30FF               	movlw	255
  4559  08B3  05CA               	andwf	___xxtofl@arg+3,f
  4560  08B4                     l908:
  4561  08B4  1003               	clrc
  4562  08B5  0CC6               	rrf	___xxtofl@exp,f
  4563  08B6                     l4049:
  4564  08B6  0846               	movf	___xxtofl@exp,w
  4565  08B7  00C1               	movwf	??___xxtofl
  4566  08B8  01C2               	clrf	??___xxtofl+1
  4567  08B9  01C3               	clrf	??___xxtofl+2
  4568  08BA  01C4               	clrf	??___xxtofl+3
  4569  08BB  3018               	movlw	24
  4570  08BC                     u5995:
  4571  08BC  1003               	clrc
  4572  08BD  0DC1               	rlf	??___xxtofl,f
  4573  08BE  0DC2               	rlf	??___xxtofl+1,f
  4574  08BF  0DC3               	rlf	??___xxtofl+2,f
  4575  08C0  0DC4               	rlf	??___xxtofl+3,f
  4576  08C1                     u5990:
  4577  08C1  3EFF               	addlw	-1
  4578  08C2  1D03               	skipz
  4579  08C3  28BC               	goto	u5995
  4580  08C4  0841               	movf	??___xxtofl,w
  4581  08C5  04C7               	iorwf	___xxtofl@arg,f
  4582  08C6  0842               	movf	??___xxtofl+1,w
  4583  08C7  04C8               	iorwf	___xxtofl@arg+1,f
  4584  08C8  0843               	movf	??___xxtofl+2,w
  4585  08C9  04C9               	iorwf	___xxtofl@arg+2,f
  4586  08CA  0844               	movf	??___xxtofl+3,w
  4587  08CB  04CA               	iorwf	___xxtofl@arg+3,f
  4588  08CC                     l4051:
  4589  08CC  0845               	movf	___xxtofl@sign,w
  4590  08CD  1903               	btfsc	3,2
  4591  08CE  28D0               	goto	u6001
  4592  08CF  28D1               	goto	u6000
  4593  08D0                     u6001:
  4594  08D0  28D6               	goto	l4057
  4595  08D1                     u6000:
  4596  08D1                     l4053:
  4597  08D1  1FC0               	btfss	___xxtofl@val+3,7
  4598  08D2  28D4               	goto	u6011
  4599  08D3  28D5               	goto	u6010
  4600  08D4                     u6011:
  4601  08D4  28D6               	goto	l4057
  4602  08D5                     u6010:
  4603  08D5                     l4055:
  4604  08D5  17CA               	bsf	___xxtofl@arg+3,7
  4605  08D6                     l4057:
  4606  08D6  084A               	movf	___xxtofl@arg+3,w
  4607  08D7  00C0               	movwf	?___xxtofl+3
  4608  08D8  0849               	movf	___xxtofl@arg+2,w
  4609  08D9  00BF               	movwf	?___xxtofl+2
  4610  08DA  0848               	movf	___xxtofl@arg+1,w
  4611  08DB  00BE               	movwf	?___xxtofl+1
  4612  08DC  0847               	movf	___xxtofl@arg,w
  4613  08DD  00BD               	movwf	?___xxtofl
  4614  08DE                     l896:
  4615  08DE  0008               	return
  4616  08DF                     __end_of___xxtofl:
  4617                           
  4618                           	psect	text11
  4619  15B5                     __ptext11:	
  4620 ;; *************** function ___fltol *****************
  4621 ;; Defined at:
  4622 ;;		line 43 in file "C:\Program Files\Microchip\xc8\v2.31\pic\sources\c90\common\fltol.c"
  4623 ;; Parameters:    Size  Location     Type
  4624 ;;  f1              4    3[COMMON] unsigned char 
  4625 ;; Auto vars:     Size  Location     Type
  4626 ;;  exp1            1    6[BANK0 ] unsigned char 
  4627 ;;  sign1           1    5[BANK0 ] unsigned char 
  4628 ;; Return value:  Size  Location     Type
  4629 ;;                  4    3[COMMON] long 
  4630 ;; Registers used:
  4631 ;;		wreg, status,2, status,0
  4632 ;; Tracked objects:
  4633 ;;		On entry : 0/0
  4634 ;;		On exit  : 0/0
  4635 ;;		Unchanged: 0/0
  4636 ;; Data sizes:     COMMON   BANK0   BANK1   BANK3   BANK2
  4637 ;;      Params:         4       0       0       0       0
  4638 ;;      Locals:         0       2       0       0       0
  4639 ;;      Temps:          0       5       0       0       0
  4640 ;;      Totals:         4       7       0       0       0
  4641 ;;Total ram usage:       11 bytes
  4642 ;; Hardware stack levels used:    1
  4643 ;; Hardware stack levels required when called:    1
  4644 ;; This function calls:
  4645 ;;		Nothing
  4646 ;; This function is called by:
  4647 ;;		_floattostr_
  4648 ;; This function uses a non-reentrant model
  4649 ;;
  4650                           
  4651                           
  4652                           ;psect for function ___fltol
  4653  15B5                     ___fltol:
  4654  15B5                     l3693:	
  4655                           ;incstack = 0
  4656                           ; Regs used in ___fltol: [wreg+status,2+status,0]
  4657                           
  4658  15B5  1003               	clrc
  4659  15B6  0D75               	rlf	___fltol@f1+2,w
  4660  15B7  0D76               	rlf	___fltol@f1+3,w
  4661  15B8  1283               	bcf	3,5	;RP0=0, select bank0
  4662  15B9  1303               	bcf	3,6	;RP1=0, select bank0
  4663  15BA  00A0               	movwf	??___fltol
  4664  15BB  0820               	movf	??___fltol,w
  4665  15BC  00A6               	movwf	___fltol@exp1
  4666  15BD  0826               	movf	___fltol@exp1,w
  4667  15BE  1D03               	btfss	3,2
  4668  15BF  2DC1               	goto	u5121
  4669  15C0  2DC2               	goto	u5120
  4670  15C1                     u5121:
  4671  15C1  2DCB               	goto	l3699
  4672  15C2                     u5120:
  4673  15C2                     l3695:
  4674  15C2  3000               	movlw	0
  4675  15C3  00F6               	movwf	?___fltol+3
  4676  15C4  3000               	movlw	0
  4677  15C5  00F5               	movwf	?___fltol+2
  4678  15C6  3000               	movlw	0
  4679  15C7  00F4               	movwf	?___fltol+1
  4680  15C8  3000               	movlw	0
  4681  15C9  00F3               	movwf	?___fltol
  4682  15CA  2E30               	goto	l647
  4683  15CB                     l3699:
  4684  15CB  0873               	movf	___fltol@f1,w
  4685  15CC  00A0               	movwf	??___fltol
  4686  15CD  0874               	movf	___fltol@f1+1,w
  4687  15CE  00A1               	movwf	??___fltol+1
  4688  15CF  0875               	movf	___fltol@f1+2,w
  4689  15D0  00A2               	movwf	??___fltol+2
  4690  15D1  0876               	movf	___fltol@f1+3,w
  4691  15D2  00A3               	movwf	??___fltol+3
  4692  15D3  301F               	movlw	31
  4693  15D4                     u5135:
  4694  15D4  1003               	clrc
  4695  15D5  0CA3               	rrf	??___fltol+3,f
  4696  15D6  0CA2               	rrf	??___fltol+2,f
  4697  15D7  0CA1               	rrf	??___fltol+1,f
  4698  15D8  0CA0               	rrf	??___fltol,f
  4699  15D9                     u5130:
  4700  15D9  3EFF               	addlw	-1
  4701  15DA  1D03               	skipz
  4702  15DB  2DD4               	goto	u5135
  4703  15DC  0820               	movf	??___fltol,w
  4704  15DD  00A4               	movwf	??___fltol+4
  4705  15DE  0824               	movf	??___fltol+4,w
  4706  15DF  00A5               	movwf	___fltol@sign1
  4707  15E0                     l3701:
  4708  15E0  17F5               	bsf	___fltol@f1+2,7
  4709  15E1                     l3703:
  4710  15E1  30FF               	movlw	255
  4711  15E2  05F3               	andwf	___fltol@f1,f
  4712  15E3  30FF               	movlw	255
  4713  15E4  05F4               	andwf	___fltol@f1+1,f
  4714  15E5  30FF               	movlw	255
  4715  15E6  05F5               	andwf	___fltol@f1+2,f
  4716  15E7  3000               	movlw	0
  4717  15E8  05F6               	andwf	___fltol@f1+3,f
  4718  15E9                     l3705:
  4719  15E9  3096               	movlw	150
  4720  15EA  02A6               	subwf	___fltol@exp1,f
  4721  15EB                     l3707:
  4722  15EB  1FA6               	btfss	___fltol@exp1,7
  4723  15EC  2DEE               	goto	u5141
  4724  15ED  2DEF               	goto	u5140
  4725  15EE                     u5141:
  4726  15EE  2E09               	goto	l3717
  4727  15EF                     u5140:
  4728  15EF                     l3709:
  4729  15EF  0826               	movf	___fltol@exp1,w
  4730  15F0  3A80               	xorlw	128
  4731  15F1  3E97               	addlw	151
  4732  15F2  1803               	skipnc
  4733  15F3  2DF5               	goto	u5151
  4734  15F4  2DF6               	goto	u5150
  4735  15F5                     u5151:
  4736  15F5  2DF7               	goto	l3715
  4737  15F6                     u5150:
  4738  15F6  2DC2               	goto	l3695
  4739  15F7                     l3715:
  4740  15F7  3001               	movlw	1
  4741  15F8                     u5165:
  4742  15F8  1003               	clrc
  4743  15F9  0CF6               	rrf	___fltol@f1+3,f
  4744  15FA  0CF5               	rrf	___fltol@f1+2,f
  4745  15FB  0CF4               	rrf	___fltol@f1+1,f
  4746  15FC  0CF3               	rrf	___fltol@f1,f
  4747  15FD  3EFF               	addlw	-1
  4748  15FE  1D03               	skipz
  4749  15FF  2DF8               	goto	u5165
  4750  1600  3001               	movlw	1
  4751  1601  00A0               	movwf	??___fltol
  4752  1602  0820               	movf	??___fltol,w
  4753  1603  07A6               	addwf	___fltol@exp1,f
  4754  1604  1D03               	btfss	3,2
  4755  1605  2E07               	goto	u5171
  4756  1606  2E08               	goto	u5170
  4757  1607                     u5171:
  4758  1607  2DF7               	goto	l3715
  4759  1608                     u5170:
  4760  1608  2E20               	goto	l3725
  4761  1609                     l3717:
  4762  1609  3020               	movlw	32
  4763  160A  0226               	subwf	___fltol@exp1,w
  4764  160B  1C03               	skipc
  4765  160C  2E0E               	goto	u5181
  4766  160D  2E0F               	goto	u5180
  4767  160E                     u5181:
  4768  160E  2E1B               	goto	l654
  4769  160F                     u5180:
  4770  160F  2DC2               	goto	l3695
  4771  1610                     l3723:
  4772  1610  3001               	movlw	1
  4773  1611  00A0               	movwf	??___fltol
  4774  1612                     u5195:
  4775  1612  1003               	clrc
  4776  1613  0DF3               	rlf	___fltol@f1,f
  4777  1614  0DF4               	rlf	___fltol@f1+1,f
  4778  1615  0DF5               	rlf	___fltol@f1+2,f
  4779  1616  0DF6               	rlf	___fltol@f1+3,f
  4780  1617  0BA0               	decfsz	??___fltol,f
  4781  1618  2E12               	goto	u5195
  4782  1619  3001               	movlw	1
  4783  161A  02A6               	subwf	___fltol@exp1,f
  4784  161B                     l654:
  4785  161B  0826               	movf	___fltol@exp1,w
  4786  161C  1D03               	btfss	3,2
  4787  161D  2E1F               	goto	u5201
  4788  161E  2E20               	goto	u5200
  4789  161F                     u5201:
  4790  161F  2E10               	goto	l3723
  4791  1620                     u5200:
  4792  1620                     l3725:
  4793  1620  0825               	movf	___fltol@sign1,w
  4794  1621  1903               	btfsc	3,2
  4795  1622  2E24               	goto	u5211
  4796  1623  2E25               	goto	u5210
  4797  1624                     u5211:
  4798  1624  2E30               	goto	l657
  4799  1625                     u5210:
  4800  1625                     l3727:
  4801  1625  09F3               	comf	___fltol@f1,f
  4802  1626  09F4               	comf	___fltol@f1+1,f
  4803  1627  09F5               	comf	___fltol@f1+2,f
  4804  1628  09F6               	comf	___fltol@f1+3,f
  4805  1629  0AF3               	incf	___fltol@f1,f
  4806  162A  1903               	skipnz
  4807  162B  0AF4               	incf	___fltol@f1+1,f
  4808  162C  1903               	skipnz
  4809  162D  0AF5               	incf	___fltol@f1+2,f
  4810  162E  1903               	skipnz
  4811  162F  0AF6               	incf	___fltol@f1+3,f
  4812  1630                     l657:
  4813  1630                     l647:
  4814  1630  0008               	return
  4815  1631                     __end_of___fltol:
  4816                           
  4817                           	psect	text12
  4818  1392                     __ptext12:	
  4819 ;; *************** function ___flsub *****************
  4820 ;; Defined at:
  4821 ;;		line 242 in file "C:\Program Files\Microchip\xc8\v2.31\pic\sources\c90\common\sprcadd.c"
  4822 ;; Parameters:    Size  Location     Type
  4823 ;;  a               4   43[BANK0 ] long 
  4824 ;;  b               4   47[BANK0 ] long 
  4825 ;; Auto vars:     Size  Location     Type
  4826 ;;		None
  4827 ;; Return value:  Size  Location     Type
  4828 ;;                  4   43[BANK0 ] long 
  4829 ;; Registers used:
  4830 ;;		wreg, status,2, status,0, btemp+1, pclath, cstack
  4831 ;; Tracked objects:
  4832 ;;		On entry : 0/0
  4833 ;;		On exit  : 0/0
  4834 ;;		Unchanged: 0/0
  4835 ;; Data sizes:     COMMON   BANK0   BANK1   BANK3   BANK2
  4836 ;;      Params:         0       8       0       0       0
  4837 ;;      Locals:         0       0       0       0       0
  4838 ;;      Temps:          0       0       0       0       0
  4839 ;;      Totals:         0       8       0       0       0
  4840 ;;Total ram usage:        8 bytes
  4841 ;; Hardware stack levels used:    1
  4842 ;; Hardware stack levels required when called:    2
  4843 ;; This function calls:
  4844 ;;		___fladd
  4845 ;; This function is called by:
  4846 ;;		_floattostr_
  4847 ;; This function uses a non-reentrant model
  4848 ;;
  4849                           
  4850                           
  4851                           ;psect for function ___flsub
  4852  1392                     ___flsub:
  4853  1392                     l3729:	
  4854                           ;incstack = 0
  4855                           ; Regs used in ___flsub: [wreg+status,2+status,0+btemp+1+pclath+cstack]
  4856                           
  4857  1392  3080               	movlw	128
  4858  1393  1283               	bcf	3,5	;RP0=0, select bank0
  4859  1394  1303               	bcf	3,6	;RP1=0, select bank0
  4860  1395  06CE               	xorwf	___flsub@a+3,f
  4861  1396                     l3731:
  4862  1396  0852               	movf	___flsub@b+3,w
  4863  1397  00B8               	movwf	___fladd@b+3
  4864  1398  0851               	movf	___flsub@b+2,w
  4865  1399  00B7               	movwf	___fladd@b+2
  4866  139A  0850               	movf	___flsub@b+1,w
  4867  139B  00B6               	movwf	___fladd@b+1
  4868  139C  084F               	movf	___flsub@b,w
  4869  139D  00B5               	movwf	___fladd@b
  4870  139E  084E               	movf	___flsub@a+3,w
  4871  139F  00BC               	movwf	___fladd@a+3
  4872  13A0  084D               	movf	___flsub@a+2,w
  4873  13A1  00BB               	movwf	___fladd@a+2
  4874  13A2  084C               	movf	___flsub@a+1,w
  4875  13A3  00BA               	movwf	___fladd@a+1
  4876  13A4  084B               	movf	___flsub@a,w
  4877  13A5  00B9               	movwf	___fladd@a
  4878  13A6  120A  158A  22BC  160A  118A  	fcall	___fladd
  4879  13AB  1283               	bcf	3,5	;RP0=0, select bank0
  4880  13AC  1303               	bcf	3,6	;RP1=0, select bank0
  4881  13AD  0838               	movf	?___fladd+3,w
  4882  13AE  00CE               	movwf	?___flsub+3
  4883  13AF  0837               	movf	?___fladd+2,w
  4884  13B0  00CD               	movwf	?___flsub+2
  4885  13B1  0836               	movf	?___fladd+1,w
  4886  13B2  00CC               	movwf	?___flsub+1
  4887  13B3  0835               	movf	?___fladd,w
  4888  13B4  00CB               	movwf	?___flsub
  4889  13B5                     l800:
  4890  13B5  0008               	return
  4891  13B6                     __end_of___flsub:
  4892                           
  4893                           	psect	text13
  4894  0ABC                     __ptext13:	
  4895 ;; *************** function ___fladd *****************
  4896 ;; Defined at:
  4897 ;;		line 10 in file "C:\Program Files\Microchip\xc8\v2.31\pic\sources\c90\common\sprcadd.c"
  4898 ;; Parameters:    Size  Location     Type
  4899 ;;  b               4   21[BANK0 ] long 
  4900 ;;  a               4   25[BANK0 ] long 
  4901 ;; Auto vars:     Size  Location     Type
  4902 ;;  grs             1   40[BANK0 ] unsigned char 
  4903 ;;  bexp            1   39[BANK0 ] unsigned char 
  4904 ;;  aexp            1   38[BANK0 ] unsigned char 
  4905 ;;  signs           1   37[BANK0 ] unsigned char 
  4906 ;; Return value:  Size  Location     Type
  4907 ;;                  4   21[BANK0 ] unsigned char 
  4908 ;; Registers used:
  4909 ;;		wreg, status,2, status,0, btemp+1
  4910 ;; Tracked objects:
  4911 ;;		On entry : 0/0
  4912 ;;		On exit  : 0/0
  4913 ;;		Unchanged: 0/0
  4914 ;; Data sizes:     COMMON   BANK0   BANK1   BANK3   BANK2
  4915 ;;      Params:         0       8       0       0       0
  4916 ;;      Locals:         0       4       0       0       0
  4917 ;;      Temps:          0       8       0       0       0
  4918 ;;      Totals:         0      20       0       0       0
  4919 ;;Total ram usage:       20 bytes
  4920 ;; Hardware stack levels used:    1
  4921 ;; Hardware stack levels required when called:    1
  4922 ;; This function calls:
  4923 ;;		Nothing
  4924 ;; This function is called by:
  4925 ;;		_floattostr_
  4926 ;;		___flsub
  4927 ;; This function uses a non-reentrant model
  4928 ;;
  4929                           
  4930                           
  4931                           ;psect for function ___fladd
  4932  0ABC                     ___fladd:
  4933  0ABC                     l3407:	
  4934                           ;incstack = 0
  4935                           ; Regs used in ___fladd: [wreg+status,2+status,0+btemp+1]
  4936                           
  4937  0ABC  1283               	bcf	3,5	;RP0=0, select bank0
  4938  0ABD  1303               	bcf	3,6	;RP1=0, select bank0
  4939  0ABE  0838               	movf	___fladd@b+3,w
  4940  0ABF  3980               	andlw	128
  4941  0AC0  00BD               	movwf	??___fladd
  4942  0AC1  083D               	movf	??___fladd,w
  4943  0AC2  00C5               	movwf	___fladd@signs
  4944  0AC3                     l3409:
  4945  0AC3  0838               	movf	___fladd@b+3,w
  4946  0AC4  00BD               	movwf	??___fladd
  4947  0AC5  073D               	addwf	??___fladd,w
  4948  0AC6  00BE               	movwf	??___fladd+1
  4949  0AC7  083E               	movf	??___fladd+1,w
  4950  0AC8  00C7               	movwf	___fladd@bexp
  4951  0AC9                     l3411:
  4952  0AC9  1FB7               	btfss	___fladd@b+2,7
  4953  0ACA  2ACC               	goto	u4541
  4954  0ACB  2ACD               	goto	u4540
  4955  0ACC                     u4541:
  4956  0ACC  2ACE               	goto	l3415
  4957  0ACD                     u4540:
  4958  0ACD                     l3413:
  4959  0ACD  1447               	bsf	___fladd@bexp,0
  4960  0ACE                     l3415:
  4961  0ACE  0847               	movf	___fladd@bexp,w
  4962  0ACF  1903               	btfsc	3,2
  4963  0AD0  2AD2               	goto	u4551
  4964  0AD1  2AD3               	goto	u4550
  4965  0AD2                     u4551:
  4966  0AD2  2AE3               	goto	l3425
  4967  0AD3                     u4550:
  4968  0AD3                     l3417:
  4969  0AD3  0A47               	incf	___fladd@bexp,w
  4970  0AD4  1D03               	btfss	3,2
  4971  0AD5  2AD7               	goto	u4561
  4972  0AD6  2AD8               	goto	u4560
  4973  0AD7                     u4561:
  4974  0AD7  2AE0               	goto	l3421
  4975  0AD8                     u4560:
  4976  0AD8                     l3419:
  4977  0AD8  3000               	movlw	0
  4978  0AD9  00B8               	movwf	___fladd@b+3
  4979  0ADA  3000               	movlw	0
  4980  0ADB  00B7               	movwf	___fladd@b+2
  4981  0ADC  3000               	movlw	0
  4982  0ADD  00B6               	movwf	___fladd@b+1
  4983  0ADE  3000               	movlw	0
  4984  0ADF  00B5               	movwf	___fladd@b
  4985  0AE0                     l3421:
  4986  0AE0  17B7               	bsf	___fladd@b+2,7
  4987  0AE1                     l3423:
  4988  0AE1  01B8               	clrf	___fladd@b+3
  4989  0AE2  2AEB               	goto	l3427
  4990  0AE3                     l3425:
  4991  0AE3  3000               	movlw	0
  4992  0AE4  00B8               	movwf	___fladd@b+3
  4993  0AE5  3000               	movlw	0
  4994  0AE6  00B7               	movwf	___fladd@b+2
  4995  0AE7  3000               	movlw	0
  4996  0AE8  00B6               	movwf	___fladd@b+1
  4997  0AE9  3000               	movlw	0
  4998  0AEA  00B5               	movwf	___fladd@b
  4999  0AEB                     l3427:
  5000  0AEB  083C               	movf	___fladd@a+3,w
  5001  0AEC  3980               	andlw	128
  5002  0AED  00BD               	movwf	??___fladd
  5003  0AEE  083D               	movf	??___fladd,w
  5004  0AEF  00C6               	movwf	___fladd@aexp
  5005  0AF0                     l3429:
  5006  0AF0  0846               	movf	___fladd@aexp,w
  5007  0AF1  0645               	xorwf	___fladd@signs,w
  5008  0AF2  1903               	skipnz
  5009  0AF3  2AF5               	goto	u4571
  5010  0AF4  2AF6               	goto	u4570
  5011  0AF5                     u4571:
  5012  0AF5  2AF7               	goto	l3433
  5013  0AF6                     u4570:
  5014  0AF6                     l3431:
  5015  0AF6  1745               	bsf	___fladd@signs,6
  5016  0AF7                     l3433:
  5017  0AF7  083C               	movf	___fladd@a+3,w
  5018  0AF8  00BD               	movwf	??___fladd
  5019  0AF9  073D               	addwf	??___fladd,w
  5020  0AFA  00BE               	movwf	??___fladd+1
  5021  0AFB  083E               	movf	??___fladd+1,w
  5022  0AFC  00C6               	movwf	___fladd@aexp
  5023  0AFD                     l3435:
  5024  0AFD  1FBB               	btfss	___fladd@a+2,7
  5025  0AFE  2B00               	goto	u4581
  5026  0AFF  2B01               	goto	u4580
  5027  0B00                     u4581:
  5028  0B00  2B02               	goto	l3439
  5029  0B01                     u4580:
  5030  0B01                     l3437:
  5031  0B01  1446               	bsf	___fladd@aexp,0
  5032  0B02                     l3439:
  5033  0B02  0846               	movf	___fladd@aexp,w
  5034  0B03  1903               	btfsc	3,2
  5035  0B04  2B06               	goto	u4591
  5036  0B05  2B07               	goto	u4590
  5037  0B06                     u4591:
  5038  0B06  2B17               	goto	l3449
  5039  0B07                     u4590:
  5040  0B07                     l3441:
  5041  0B07  0A46               	incf	___fladd@aexp,w
  5042  0B08  1D03               	btfss	3,2
  5043  0B09  2B0B               	goto	u4601
  5044  0B0A  2B0C               	goto	u4600
  5045  0B0B                     u4601:
  5046  0B0B  2B14               	goto	l3445
  5047  0B0C                     u4600:
  5048  0B0C                     l3443:
  5049  0B0C  3000               	movlw	0
  5050  0B0D  00BC               	movwf	___fladd@a+3
  5051  0B0E  3000               	movlw	0
  5052  0B0F  00BB               	movwf	___fladd@a+2
  5053  0B10  3000               	movlw	0
  5054  0B11  00BA               	movwf	___fladd@a+1
  5055  0B12  3000               	movlw	0
  5056  0B13  00B9               	movwf	___fladd@a
  5057  0B14                     l3445:
  5058  0B14  17BB               	bsf	___fladd@a+2,7
  5059  0B15                     l3447:
  5060  0B15  01BC               	clrf	___fladd@a+3
  5061  0B16  2B1F               	goto	l754
  5062  0B17                     l3449:
  5063  0B17  3000               	movlw	0
  5064  0B18  00BC               	movwf	___fladd@a+3
  5065  0B19  3000               	movlw	0
  5066  0B1A  00BB               	movwf	___fladd@a+2
  5067  0B1B  3000               	movlw	0
  5068  0B1C  00BA               	movwf	___fladd@a+1
  5069  0B1D  3000               	movlw	0
  5070  0B1E  00B9               	movwf	___fladd@a
  5071  0B1F                     l754:
  5072  0B1F  0847               	movf	___fladd@bexp,w
  5073  0B20  0246               	subwf	___fladd@aexp,w
  5074  0B21  1803               	skipnc
  5075  0B22  2B24               	goto	u4611
  5076  0B23  2B25               	goto	u4610
  5077  0B24                     u4611:
  5078  0B24  2B69               	goto	l3485
  5079  0B25                     u4610:
  5080  0B25                     l3451:
  5081  0B25  1F45               	btfss	___fladd@signs,6
  5082  0B26  2B28               	goto	u4621
  5083  0B27  2B29               	goto	u4620
  5084  0B28                     u4621:
  5085  0B28  2B2D               	goto	l3455
  5086  0B29                     u4620:
  5087  0B29                     l3453:
  5088  0B29  3080               	movlw	128
  5089  0B2A  00BD               	movwf	??___fladd
  5090  0B2B  083D               	movf	??___fladd,w
  5091  0B2C  06C5               	xorwf	___fladd@signs,f
  5092  0B2D                     l3455:
  5093  0B2D  0847               	movf	___fladd@bexp,w
  5094  0B2E  00BD               	movwf	??___fladd
  5095  0B2F  083D               	movf	??___fladd,w
  5096  0B30  00C8               	movwf	___fladd@grs
  5097  0B31                     l3457:
  5098  0B31  0846               	movf	___fladd@aexp,w
  5099  0B32  00BD               	movwf	??___fladd
  5100  0B33  083D               	movf	??___fladd,w
  5101  0B34  00C7               	movwf	___fladd@bexp
  5102  0B35                     l3459:
  5103  0B35  0848               	movf	___fladd@grs,w
  5104  0B36  00BD               	movwf	??___fladd
  5105  0B37  083D               	movf	??___fladd,w
  5106  0B38  00C6               	movwf	___fladd@aexp
  5107  0B39                     l3461:
  5108  0B39  0835               	movf	___fladd@b,w
  5109  0B3A  00BD               	movwf	??___fladd
  5110  0B3B  083D               	movf	??___fladd,w
  5111  0B3C  00C8               	movwf	___fladd@grs
  5112  0B3D                     l3463:
  5113  0B3D  0839               	movf	___fladd@a,w
  5114  0B3E  00BD               	movwf	??___fladd
  5115  0B3F  083D               	movf	??___fladd,w
  5116  0B40  00B5               	movwf	___fladd@b
  5117  0B41                     l3465:
  5118  0B41  0848               	movf	___fladd@grs,w
  5119  0B42  00BD               	movwf	??___fladd
  5120  0B43  083D               	movf	??___fladd,w
  5121  0B44  00B9               	movwf	___fladd@a
  5122  0B45                     l3467:
  5123  0B45  0836               	movf	___fladd@b+1,w
  5124  0B46  00BD               	movwf	??___fladd
  5125  0B47  083D               	movf	??___fladd,w
  5126  0B48  00C8               	movwf	___fladd@grs
  5127  0B49                     l3469:
  5128  0B49  083A               	movf	___fladd@a+1,w
  5129  0B4A  00BD               	movwf	??___fladd
  5130  0B4B  083D               	movf	??___fladd,w
  5131  0B4C  00B6               	movwf	___fladd@b+1
  5132  0B4D                     l3471:
  5133  0B4D  0848               	movf	___fladd@grs,w
  5134  0B4E  00BD               	movwf	??___fladd
  5135  0B4F  083D               	movf	??___fladd,w
  5136  0B50  00BA               	movwf	___fladd@a+1
  5137  0B51                     l3473:
  5138  0B51  0837               	movf	___fladd@b+2,w
  5139  0B52  00BD               	movwf	??___fladd
  5140  0B53  083D               	movf	??___fladd,w
  5141  0B54  00C8               	movwf	___fladd@grs
  5142  0B55                     l3475:
  5143  0B55  083B               	movf	___fladd@a+2,w
  5144  0B56  00BD               	movwf	??___fladd
  5145  0B57  083D               	movf	??___fladd,w
  5146  0B58  00B7               	movwf	___fladd@b+2
  5147  0B59                     l3477:
  5148  0B59  0848               	movf	___fladd@grs,w
  5149  0B5A  00BD               	movwf	??___fladd
  5150  0B5B  083D               	movf	??___fladd,w
  5151  0B5C  00BB               	movwf	___fladd@a+2
  5152  0B5D                     l3479:
  5153  0B5D  0838               	movf	___fladd@b+3,w
  5154  0B5E  00BD               	movwf	??___fladd
  5155  0B5F  083D               	movf	??___fladd,w
  5156  0B60  00C8               	movwf	___fladd@grs
  5157  0B61                     l3481:
  5158  0B61  083C               	movf	___fladd@a+3,w
  5159  0B62  00BD               	movwf	??___fladd
  5160  0B63  083D               	movf	??___fladd,w
  5161  0B64  00B8               	movwf	___fladd@b+3
  5162  0B65                     l3483:
  5163  0B65  0848               	movf	___fladd@grs,w
  5164  0B66  00BD               	movwf	??___fladd
  5165  0B67  083D               	movf	??___fladd,w
  5166  0B68  00BC               	movwf	___fladd@a+3
  5167  0B69                     l3485:
  5168  0B69  01C8               	clrf	___fladd@grs
  5169  0B6A                     l3487:
  5170  0B6A  0846               	movf	___fladd@aexp,w
  5171  0B6B  00BD               	movwf	??___fladd
  5172  0B6C  01BE               	clrf	??___fladd+1
  5173  0B6D  083E               	movf	??___fladd+1,w
  5174  0B6E  00C0               	movwf	??___fladd+3
  5175  0B6F  0847               	movf	___fladd@bexp,w
  5176  0B70  023D               	subwf	??___fladd,w
  5177  0B71  00BF               	movwf	??___fladd+2
  5178  0B72  1C03               	skipc
  5179  0B73  03C0               	decf	??___fladd+3,f
  5180  0B74  0840               	movf	??___fladd+3,w
  5181  0B75  3A80               	xorlw	128
  5182  0B76  00FF               	movwf	btemp+1
  5183  0B77  3080               	movlw	128
  5184  0B78  027F               	subwf	btemp+1,w
  5185  0B79  1D03               	skipz
  5186  0B7A  2B7D               	goto	u4635
  5187  0B7B  301A               	movlw	26
  5188  0B7C  023F               	subwf	??___fladd+2,w
  5189  0B7D                     u4635:
  5190  0B7D  1C03               	skipc
  5191  0B7E  2B80               	goto	u4631
  5192  0B7F  2B81               	goto	u4630
  5193  0B80                     u4631:
  5194  0B80  2BBE               	goto	l3503
  5195  0B81                     u4630:
  5196  0B81                     l3489:
  5197  0B81  1283               	bcf	3,5	;RP0=0, select bank0
  5198  0B82  1303               	bcf	3,6	;RP1=0, select bank0
  5199  0B83  0838               	movf	___fladd@b+3,w
  5200  0B84  0437               	iorwf	___fladd@b+2,w
  5201  0B85  0436               	iorwf	___fladd@b+1,w
  5202  0B86  0435               	iorwf	___fladd@b,w
  5203  0B87  1D03               	skipz
  5204  0B88  2B8A               	goto	u4641
  5205  0B89  2B8C               	goto	u4640
  5206  0B8A                     u4641:
  5207  0B8A  3001               	movlw	1
  5208  0B8B  2B8D               	goto	u4650
  5209  0B8C                     u4640:
  5210  0B8C  3000               	movlw	0
  5211  0B8D                     u4650:
  5212  0B8D  00BD               	movwf	??___fladd
  5213  0B8E  083D               	movf	??___fladd,w
  5214  0B8F  00C8               	movwf	___fladd@grs
  5215  0B90  3000               	movlw	0
  5216  0B91  00B8               	movwf	___fladd@b+3
  5217  0B92  3000               	movlw	0
  5218  0B93  00B7               	movwf	___fladd@b+2
  5219  0B94  3000               	movlw	0
  5220  0B95  00B6               	movwf	___fladd@b+1
  5221  0B96  3000               	movlw	0
  5222  0B97  00B5               	movwf	___fladd@b
  5223  0B98  0846               	movf	___fladd@aexp,w
  5224  0B99  00BD               	movwf	??___fladd
  5225  0B9A  083D               	movf	??___fladd,w
  5226  0B9B  00C7               	movwf	___fladd@bexp
  5227  0B9C  2BC6               	goto	l758
  5228  0B9D                     l760:
  5229  0B9D  1C48               	btfss	___fladd@grs,0
  5230  0B9E  2BA0               	goto	u4661
  5231  0B9F  2BA1               	goto	u4660
  5232  0BA0                     u4661:
  5233  0BA0  2BAA               	goto	l3493
  5234  0BA1                     u4660:
  5235  0BA1                     l3491:
  5236  0BA1  0848               	movf	___fladd@grs,w
  5237  0BA2  00BD               	movwf	??___fladd
  5238  0BA3  1003               	clrc
  5239  0BA4  0C3D               	rrf	??___fladd,w
  5240  0BA5  3801               	iorlw	1
  5241  0BA6  00BE               	movwf	??___fladd+1
  5242  0BA7  083E               	movf	??___fladd+1,w
  5243  0BA8  00C8               	movwf	___fladd@grs
  5244  0BA9  2BAC               	goto	l3495
  5245  0BAA                     l3493:
  5246  0BAA  1003               	clrc
  5247  0BAB  0CC8               	rrf	___fladd@grs,f
  5248  0BAC                     l3495:
  5249  0BAC  1C35               	btfss	___fladd@b,0
  5250  0BAD  2BAF               	goto	u4671
  5251  0BAE  2BB0               	goto	u4670
  5252  0BAF                     u4671:
  5253  0BAF  2BB1               	goto	l3499
  5254  0BB0                     u4670:
  5255  0BB0                     l3497:
  5256  0BB0  17C8               	bsf	___fladd@grs,7
  5257  0BB1                     l3499:
  5258  0BB1  3001               	movlw	1
  5259  0BB2  00BD               	movwf	??___fladd
  5260  0BB3                     u4685:
  5261  0BB3  0D38               	rlf	___fladd@b+3,w
  5262  0BB4  0CB8               	rrf	___fladd@b+3,f
  5263  0BB5  0CB7               	rrf	___fladd@b+2,f
  5264  0BB6  0CB6               	rrf	___fladd@b+1,f
  5265  0BB7  0CB5               	rrf	___fladd@b,f
  5266  0BB8  0BBD               	decfsz	??___fladd& (0+127),f
  5267  0BB9  2BB3               	goto	u4685
  5268  0BBA                     l3501:
  5269  0BBA  3001               	movlw	1
  5270  0BBB  00BD               	movwf	??___fladd
  5271  0BBC  083D               	movf	??___fladd,w
  5272  0BBD  07C7               	addwf	___fladd@bexp,f
  5273  0BBE                     l3503:
  5274  0BBE  1283               	bcf	3,5	;RP0=0, select bank0
  5275  0BBF  1303               	bcf	3,6	;RP1=0, select bank0
  5276  0BC0  0846               	movf	___fladd@aexp,w
  5277  0BC1  0247               	subwf	___fladd@bexp,w
  5278  0BC2  1C03               	skipc
  5279  0BC3  2BC5               	goto	u4691
  5280  0BC4  2BC6               	goto	u4690
  5281  0BC5                     u4691:
  5282  0BC5  2B9D               	goto	l760
  5283  0BC6                     u4690:
  5284  0BC6                     l758:
  5285  0BC6  1B45               	btfsc	___fladd@signs,6
  5286  0BC7  2BC9               	goto	u4701
  5287  0BC8  2BCA               	goto	u4700
  5288  0BC9                     u4701:
  5289  0BC9  2C15               	goto	l3529
  5290  0BCA                     u4700:
  5291  0BCA                     l3505:
  5292  0BCA  0847               	movf	___fladd@bexp,w
  5293  0BCB  1D03               	btfss	3,2
  5294  0BCC  2BCE               	goto	u4711
  5295  0BCD  2BCF               	goto	u4710
  5296  0BCE                     u4711:
  5297  0BCE  2BD8               	goto	l3511
  5298  0BCF                     u4710:
  5299  0BCF                     l3507:
  5300  0BCF  3000               	movlw	0
  5301  0BD0  00B8               	movwf	?___fladd+3
  5302  0BD1  3000               	movlw	0
  5303  0BD2  00B7               	movwf	?___fladd+2
  5304  0BD3  3000               	movlw	0
  5305  0BD4  00B6               	movwf	?___fladd+1
  5306  0BD5  3000               	movlw	0
  5307  0BD6  00B5               	movwf	?___fladd
  5308  0BD7  2D43               	goto	l767
  5309  0BD8                     l3511:
  5310  0BD8  0839               	movf	___fladd@a,w
  5311  0BD9  07B5               	addwf	___fladd@b,f
  5312  0BDA  083A               	movf	___fladd@a+1,w
  5313  0BDB  1103               	clrz
  5314  0BDC  1803               	skipnc
  5315  0BDD  3E01               	addlw	1
  5316  0BDE  1903               	skipnz
  5317  0BDF  2BE1               	goto	u4721
  5318  0BE0  07B6               	addwf	___fladd@b+1,f
  5319  0BE1                     u4721:
  5320  0BE1  083B               	movf	___fladd@a+2,w
  5321  0BE2  1103               	clrz
  5322  0BE3  1803               	skipnc
  5323  0BE4  3E01               	addlw	1
  5324  0BE5  1903               	skipnz
  5325  0BE6  2BE8               	goto	u4722
  5326  0BE7  07B7               	addwf	___fladd@b+2,f
  5327  0BE8                     u4722:
  5328  0BE8  083C               	movf	___fladd@a+3,w
  5329  0BE9  1103               	clrz
  5330  0BEA  1803               	skipnc
  5331  0BEB  3E01               	addlw	1
  5332  0BEC  1903               	skipnz
  5333  0BED  2BEF               	goto	u4723
  5334  0BEE  07B8               	addwf	___fladd@b+3,f
  5335  0BEF                     u4723:
  5336  0BEF                     l3513:
  5337  0BEF  1C38               	btfss	___fladd@b+3,0
  5338  0BF0  2BF2               	goto	u4731
  5339  0BF1  2BF3               	goto	u4730
  5340  0BF2                     u4731:
  5341  0BF2  2CC9               	goto	l3563
  5342  0BF3                     u4730:
  5343  0BF3                     l3515:
  5344  0BF3  1C48               	btfss	___fladd@grs,0
  5345  0BF4  2BF6               	goto	u4741
  5346  0BF5  2BF7               	goto	u4740
  5347  0BF6                     u4741:
  5348  0BF6  2C00               	goto	l3519
  5349  0BF7                     u4740:
  5350  0BF7                     l3517:
  5351  0BF7  0848               	movf	___fladd@grs,w
  5352  0BF8  00BD               	movwf	??___fladd
  5353  0BF9  1003               	clrc
  5354  0BFA  0C3D               	rrf	??___fladd,w
  5355  0BFB  3801               	iorlw	1
  5356  0BFC  00BE               	movwf	??___fladd+1
  5357  0BFD  083E               	movf	??___fladd+1,w
  5358  0BFE  00C8               	movwf	___fladd@grs
  5359  0BFF  2C02               	goto	l3521
  5360  0C00                     l3519:
  5361  0C00  1003               	clrc
  5362  0C01  0CC8               	rrf	___fladd@grs,f
  5363  0C02                     l3521:
  5364  0C02  1C35               	btfss	___fladd@b,0
  5365  0C03  2C05               	goto	u4751
  5366  0C04  2C06               	goto	u4750
  5367  0C05                     u4751:
  5368  0C05  2C07               	goto	l3525
  5369  0C06                     u4750:
  5370  0C06                     l3523:
  5371  0C06  17C8               	bsf	___fladd@grs,7
  5372  0C07                     l3525:
  5373  0C07  3001               	movlw	1
  5374  0C08  00BD               	movwf	??___fladd
  5375  0C09                     u4765:
  5376  0C09  0D38               	rlf	___fladd@b+3,w
  5377  0C0A  0CB8               	rrf	___fladd@b+3,f
  5378  0C0B  0CB7               	rrf	___fladd@b+2,f
  5379  0C0C  0CB6               	rrf	___fladd@b+1,f
  5380  0C0D  0CB5               	rrf	___fladd@b,f
  5381  0C0E  0BBD               	decfsz	??___fladd& (0+127),f
  5382  0C0F  2C09               	goto	u4765
  5383  0C10                     l3527:
  5384  0C10  3001               	movlw	1
  5385  0C11  00BD               	movwf	??___fladd
  5386  0C12  083D               	movf	??___fladd,w
  5387  0C13  07C7               	addwf	___fladd@bexp,f
  5388  0C14  2CC9               	goto	l3563
  5389  0C15                     l3529:
  5390  0C15  0838               	movf	___fladd@b+3,w
  5391  0C16  3A80               	xorlw	128
  5392  0C17  00FF               	movwf	btemp+1
  5393  0C18  083C               	movf	___fladd@a+3,w
  5394  0C19  3A80               	xorlw	128
  5395  0C1A  027F               	subwf	btemp+1,w
  5396  0C1B  1D03               	skipz
  5397  0C1C  2C27               	goto	u4773
  5398  0C1D  083B               	movf	___fladd@a+2,w
  5399  0C1E  0237               	subwf	___fladd@b+2,w
  5400  0C1F  1D03               	skipz
  5401  0C20  2C27               	goto	u4773
  5402  0C21  083A               	movf	___fladd@a+1,w
  5403  0C22  0236               	subwf	___fladd@b+1,w
  5404  0C23  1D03               	skipz
  5405  0C24  2C27               	goto	u4773
  5406  0C25  0839               	movf	___fladd@a,w
  5407  0C26  0235               	subwf	___fladd@b,w
  5408  0C27                     u4773:
  5409  0C27  1803               	skipnc
  5410  0C28  2C2A               	goto	u4771
  5411  0C29  2C2B               	goto	u4770
  5412  0C2A                     u4771:
  5413  0C2A  2C83               	goto	l3539
  5414  0C2B                     u4770:
  5415  0C2B                     l3531:
  5416  0C2B  30FF               	movlw	255
  5417  0C2C  00BD               	movwf	??___fladd
  5418  0C2D  30FF               	movlw	255
  5419  0C2E  00BE               	movwf	??___fladd+1
  5420  0C2F  30FF               	movlw	255
  5421  0C30  00BF               	movwf	??___fladd+2
  5422  0C31  30FF               	movlw	255
  5423  0C32  00C0               	movwf	??___fladd+3
  5424  0C33  0839               	movf	___fladd@a,w
  5425  0C34  00C1               	movwf	??___fladd+4
  5426  0C35  083A               	movf	___fladd@a+1,w
  5427  0C36  00C2               	movwf	??___fladd+5
  5428  0C37  083B               	movf	___fladd@a+2,w
  5429  0C38  00C3               	movwf	??___fladd+6
  5430  0C39  083C               	movf	___fladd@a+3,w
  5431  0C3A  00C4               	movwf	??___fladd+7
  5432  0C3B  0835               	movf	___fladd@b,w
  5433  0C3C  02C1               	subwf	??___fladd+4,f
  5434  0C3D  0836               	movf	___fladd@b+1,w
  5435  0C3E  1C03               	skipc
  5436  0C3F  0F36               	incfsz	___fladd@b+1,w
  5437  0C40  2C42               	goto	u4781
  5438  0C41  2C43               	goto	u4782
  5439  0C42                     u4781:
  5440  0C42  02C2               	subwf	??___fladd+5,f
  5441  0C43                     u4782:
  5442  0C43  0837               	movf	___fladd@b+2,w
  5443  0C44  1C03               	skipc
  5444  0C45  0F37               	incfsz	___fladd@b+2,w
  5445  0C46  2C48               	goto	u4783
  5446  0C47  2C49               	goto	u4784
  5447  0C48                     u4783:
  5448  0C48  02C3               	subwf	??___fladd+6,f
  5449  0C49                     u4784:
  5450  0C49  0838               	movf	___fladd@b+3,w
  5451  0C4A  1C03               	skipc
  5452  0C4B  0F38               	incfsz	___fladd@b+3,w
  5453  0C4C  2C4E               	goto	u4785
  5454  0C4D  2C4F               	goto	u4786
  5455  0C4E                     u4785:
  5456  0C4E  02C4               	subwf	??___fladd+7,f
  5457  0C4F                     u4786:
  5458  0C4F  0841               	movf	??___fladd+4,w
  5459  0C50  07BD               	addwf	??___fladd,f
  5460  0C51  0842               	movf	??___fladd+5,w
  5461  0C52  1803               	skipnc
  5462  0C53  0F42               	incfsz	??___fladd+5,w
  5463  0C54  2C56               	goto	u4790
  5464  0C55  2C57               	goto	u4791
  5465  0C56                     u4790:
  5466  0C56  07BE               	addwf	??___fladd+1,f
  5467  0C57                     u4791:
  5468  0C57  0843               	movf	??___fladd+6,w
  5469  0C58  1803               	skipnc
  5470  0C59  0F43               	incfsz	??___fladd+6,w
  5471  0C5A  2C5C               	goto	u4792
  5472  0C5B  2C5D               	goto	u4793
  5473  0C5C                     u4792:
  5474  0C5C  07BF               	addwf	??___fladd+2,f
  5475  0C5D                     u4793:
  5476  0C5D  0844               	movf	??___fladd+7,w
  5477  0C5E  1803               	skipnc
  5478  0C5F  0A44               	incf	??___fladd+7,w
  5479  0C60  07C0               	addwf	??___fladd+3,f
  5480  0C61  0840               	movf	??___fladd+3,w
  5481  0C62  00B8               	movwf	___fladd@b+3
  5482  0C63  083F               	movf	??___fladd+2,w
  5483  0C64  00B7               	movwf	___fladd@b+2
  5484  0C65  083E               	movf	??___fladd+1,w
  5485  0C66  00B6               	movwf	___fladd@b+1
  5486  0C67  083D               	movf	??___fladd,w
  5487  0C68  00B5               	movwf	___fladd@b
  5488  0C69                     l3533:
  5489  0C69  3080               	movlw	128
  5490  0C6A  00BD               	movwf	??___fladd
  5491  0C6B  083D               	movf	??___fladd,w
  5492  0C6C  06C5               	xorwf	___fladd@signs,f
  5493  0C6D  09C8               	comf	___fladd@grs,f
  5494  0C6E  0AC8               	incf	___fladd@grs,f
  5495  0C6F                     l3535:
  5496  0C6F  0848               	movf	___fladd@grs,w
  5497  0C70  1D03               	btfss	3,2
  5498  0C71  2C73               	goto	u4801
  5499  0C72  2C74               	goto	u4800
  5500  0C73                     u4801:
  5501  0C73  2C91               	goto	l775
  5502  0C74                     u4800:
  5503  0C74                     l3537:
  5504  0C74  3001               	movlw	1
  5505  0C75  07B5               	addwf	___fladd@b,f
  5506  0C76  3000               	movlw	0
  5507  0C77  1803               	skipnc
  5508  0C78  3001               	movlw	1
  5509  0C79  07B6               	addwf	___fladd@b+1,f
  5510  0C7A  3000               	movlw	0
  5511  0C7B  1803               	skipnc
  5512  0C7C  3001               	movlw	1
  5513  0C7D  07B7               	addwf	___fladd@b+2,f
  5514  0C7E  3000               	movlw	0
  5515  0C7F  1803               	skipnc
  5516  0C80  3001               	movlw	1
  5517  0C81  07B8               	addwf	___fladd@b+3,f
  5518  0C82  2C91               	goto	l775
  5519  0C83                     l3539:
  5520  0C83  0839               	movf	___fladd@a,w
  5521  0C84  02B5               	subwf	___fladd@b,f
  5522  0C85  083A               	movf	___fladd@a+1,w
  5523  0C86  1C03               	skipc
  5524  0C87  0F3A               	incfsz	___fladd@a+1,w
  5525  0C88  02B6               	subwf	___fladd@b+1,f
  5526  0C89  083B               	movf	___fladd@a+2,w
  5527  0C8A  1C03               	skipc
  5528  0C8B  0F3B               	incfsz	___fladd@a+2,w
  5529  0C8C  02B7               	subwf	___fladd@b+2,f
  5530  0C8D  083C               	movf	___fladd@a+3,w
  5531  0C8E  1C03               	skipc
  5532  0C8F  0F3C               	incfsz	___fladd@a+3,w
  5533  0C90  02B8               	subwf	___fladd@b+3,f
  5534  0C91                     l775:
  5535  0C91  0838               	movf	___fladd@b+3,w
  5536  0C92  0437               	iorwf	___fladd@b+2,w
  5537  0C93  0436               	iorwf	___fladd@b+1,w
  5538  0C94  0435               	iorwf	___fladd@b,w
  5539  0C95  1D03               	skipz
  5540  0C96  2C98               	goto	u4811
  5541  0C97  2C99               	goto	u4810
  5542  0C98                     u4811:
  5543  0C98  2CC5               	goto	l3561
  5544  0C99                     u4810:
  5545  0C99                     l3541:
  5546  0C99  0848               	movf	___fladd@grs,w
  5547  0C9A  1D03               	btfss	3,2
  5548  0C9B  2C9D               	goto	u4821
  5549  0C9C  2C9E               	goto	u4820
  5550  0C9D                     u4821:
  5551  0C9D  2CC5               	goto	l3561
  5552  0C9E                     u4820:
  5553  0C9E                     l3543:
  5554  0C9E  3000               	movlw	0
  5555  0C9F  00B8               	movwf	?___fladd+3
  5556  0CA0  3000               	movlw	0
  5557  0CA1  00B7               	movwf	?___fladd+2
  5558  0CA2  3000               	movlw	0
  5559  0CA3  00B6               	movwf	?___fladd+1
  5560  0CA4  3000               	movlw	0
  5561  0CA5  00B5               	movwf	?___fladd
  5562  0CA6  2D43               	goto	l767
  5563  0CA7                     l3547:
  5564  0CA7  3001               	movlw	1
  5565  0CA8  00BD               	movwf	??___fladd
  5566  0CA9                     u4835:
  5567  0CA9  1003               	clrc
  5568  0CAA  0DB5               	rlf	___fladd@b,f
  5569  0CAB  0DB6               	rlf	___fladd@b+1,f
  5570  0CAC  0DB7               	rlf	___fladd@b+2,f
  5571  0CAD  0DB8               	rlf	___fladd@b+3,f
  5572  0CAE  0BBD               	decfsz	??___fladd,f
  5573  0CAF  2CA9               	goto	u4835
  5574  0CB0                     l3549:
  5575  0CB0  1FC8               	btfss	___fladd@grs,7
  5576  0CB1  2CB3               	goto	u4841
  5577  0CB2  2CB4               	goto	u4840
  5578  0CB3                     u4841:
  5579  0CB3  2CB5               	goto	l779
  5580  0CB4                     u4840:
  5581  0CB4                     l3551:
  5582  0CB4  1435               	bsf	___fladd@b,0
  5583  0CB5                     l779:
  5584  0CB5  1C48               	btfss	___fladd@grs,0
  5585  0CB6  2CB8               	goto	u4851
  5586  0CB7  2CB9               	goto	u4850
  5587  0CB8                     u4851:
  5588  0CB8  2CBC               	goto	l3555
  5589  0CB9                     u4850:
  5590  0CB9                     l3553:
  5591  0CB9  1403               	setc
  5592  0CBA  0DC8               	rlf	___fladd@grs,f
  5593  0CBB  2CBE               	goto	l3557
  5594  0CBC                     l3555:
  5595  0CBC  1003               	clrc
  5596  0CBD  0DC8               	rlf	___fladd@grs,f
  5597  0CBE                     l3557:
  5598  0CBE  0847               	movf	___fladd@bexp,w
  5599  0CBF  1903               	btfsc	3,2
  5600  0CC0  2CC2               	goto	u4861
  5601  0CC1  2CC3               	goto	u4860
  5602  0CC2                     u4861:
  5603  0CC2  2CC5               	goto	l3561
  5604  0CC3                     u4860:
  5605  0CC3                     l3559:
  5606  0CC3  3001               	movlw	1
  5607  0CC4  02C7               	subwf	___fladd@bexp,f
  5608  0CC5                     l3561:
  5609  0CC5  1FB7               	btfss	___fladd@b+2,7
  5610  0CC6  2CC8               	goto	u4871
  5611  0CC7  2CC9               	goto	u4870
  5612  0CC8                     u4871:
  5613  0CC8  2CA7               	goto	l3547
  5614  0CC9                     u4870:
  5615  0CC9                     l3563:
  5616  0CC9  01C6               	clrf	___fladd@aexp
  5617  0CCA                     l3565:
  5618  0CCA  1FC8               	btfss	___fladd@grs,7
  5619  0CCB  2CCD               	goto	u4881
  5620  0CCC  2CCE               	goto	u4880
  5621  0CCD                     u4881:
  5622  0CCD  2CDC               	goto	l3573
  5623  0CCE                     u4880:
  5624  0CCE                     l3567:
  5625  0CCE  0848               	movf	___fladd@grs,w
  5626  0CCF  397F               	andlw	127
  5627  0CD0  1903               	btfsc	3,2
  5628  0CD1  2CD3               	goto	u4891
  5629  0CD2  2CD4               	goto	u4890
  5630  0CD3                     u4891:
  5631  0CD3  2CD7               	goto	l785
  5632  0CD4                     u4890:
  5633  0CD4                     l3569:
  5634  0CD4  01C6               	clrf	___fladd@aexp
  5635  0CD5  0AC6               	incf	___fladd@aexp,f
  5636  0CD6  2CDC               	goto	l3573
  5637  0CD7                     l785:
  5638  0CD7  1C35               	btfss	___fladd@b,0
  5639  0CD8  2CDA               	goto	u4901
  5640  0CD9  2CDB               	goto	u4900
  5641  0CDA                     u4901:
  5642  0CDA  2CDC               	goto	l3573
  5643  0CDB                     u4900:
  5644  0CDB  2CD4               	goto	l3569
  5645  0CDC                     l3573:
  5646  0CDC  0846               	movf	___fladd@aexp,w
  5647  0CDD  1903               	btfsc	3,2
  5648  0CDE  2CE0               	goto	u4911
  5649  0CDF  2CE1               	goto	u4910
  5650  0CE0                     u4911:
  5651  0CE0  2D15               	goto	l788
  5652  0CE1                     u4910:
  5653  0CE1                     l3575:
  5654  0CE1  3001               	movlw	1
  5655  0CE2  07B5               	addwf	___fladd@b,f
  5656  0CE3  3000               	movlw	0
  5657  0CE4  1803               	skipnc
  5658  0CE5  3001               	movlw	1
  5659  0CE6  07B6               	addwf	___fladd@b+1,f
  5660  0CE7  3000               	movlw	0
  5661  0CE8  1803               	skipnc
  5662  0CE9  3001               	movlw	1
  5663  0CEA  07B7               	addwf	___fladd@b+2,f
  5664  0CEB  3000               	movlw	0
  5665  0CEC  1803               	skipnc
  5666  0CED  3001               	movlw	1
  5667  0CEE  07B8               	addwf	___fladd@b+3,f
  5668  0CEF                     l3577:
  5669  0CEF  1C38               	btfss	___fladd@b+3,0
  5670  0CF0  2CF2               	goto	u4921
  5671  0CF1  2CF3               	goto	u4920
  5672  0CF2                     u4921:
  5673  0CF2  2D15               	goto	l788
  5674  0CF3                     u4920:
  5675  0CF3                     l3579:
  5676  0CF3  0835               	movf	___fladd@b,w
  5677  0CF4  00BD               	movwf	??___fladd
  5678  0CF5  0836               	movf	___fladd@b+1,w
  5679  0CF6  00BE               	movwf	??___fladd+1
  5680  0CF7  0837               	movf	___fladd@b+2,w
  5681  0CF8  00BF               	movwf	??___fladd+2
  5682  0CF9  0838               	movf	___fladd@b+3,w
  5683  0CFA  00C0               	movwf	??___fladd+3
  5684  0CFB  3001               	movlw	1
  5685  0CFC  00C1               	movwf	??___fladd+4
  5686  0CFD                     u4935:
  5687  0CFD  0D40               	rlf	??___fladd+3,w
  5688  0CFE  0CC0               	rrf	??___fladd+3,f
  5689  0CFF  0CBF               	rrf	??___fladd+2,f
  5690  0D00  0CBE               	rrf	??___fladd+1,f
  5691  0D01  0CBD               	rrf	??___fladd,f
  5692  0D02                     u4930:
  5693  0D02  0BC1               	decfsz	??___fladd+4,f
  5694  0D03  2CFD               	goto	u4935
  5695  0D04  0840               	movf	??___fladd+3,w
  5696  0D05  00B8               	movwf	___fladd@b+3
  5697  0D06  083F               	movf	??___fladd+2,w
  5698  0D07  00B7               	movwf	___fladd@b+2
  5699  0D08  083E               	movf	??___fladd+1,w
  5700  0D09  00B6               	movwf	___fladd@b+1
  5701  0D0A  083D               	movf	??___fladd,w
  5702  0D0B  00B5               	movwf	___fladd@b
  5703  0D0C  0A47               	incf	___fladd@bexp,w
  5704  0D0D  1903               	btfsc	3,2
  5705  0D0E  2D10               	goto	u4941
  5706  0D0F  2D11               	goto	u4940
  5707  0D10                     u4941:
  5708  0D10  2D15               	goto	l788
  5709  0D11                     u4940:
  5710  0D11                     l3581:
  5711  0D11  3001               	movlw	1
  5712  0D12  00BD               	movwf	??___fladd
  5713  0D13  083D               	movf	??___fladd,w
  5714  0D14  07C7               	addwf	___fladd@bexp,f
  5715  0D15                     l788:
  5716  0D15  0A47               	incf	___fladd@bexp,w
  5717  0D16  1903               	btfsc	3,2
  5718  0D17  2D19               	goto	u4951
  5719  0D18  2D1A               	goto	u4950
  5720  0D19                     u4951:
  5721  0D19  2D1F               	goto	l3585
  5722  0D1A                     u4950:
  5723  0D1A                     l3583:
  5724  0D1A  0847               	movf	___fladd@bexp,w
  5725  0D1B  1D03               	btfss	3,2
  5726  0D1C  2D1E               	goto	u4961
  5727  0D1D  2D1F               	goto	u4960
  5728  0D1E                     u4961:
  5729  0D1E  2D2D               	goto	l3591
  5730  0D1F                     u4960:
  5731  0D1F                     l3585:
  5732  0D1F  3000               	movlw	0
  5733  0D20  00B8               	movwf	___fladd@b+3
  5734  0D21  3000               	movlw	0
  5735  0D22  00B7               	movwf	___fladd@b+2
  5736  0D23  3000               	movlw	0
  5737  0D24  00B6               	movwf	___fladd@b+1
  5738  0D25  3000               	movlw	0
  5739  0D26  00B5               	movwf	___fladd@b
  5740  0D27                     l3587:
  5741  0D27  0847               	movf	___fladd@bexp,w
  5742  0D28  1D03               	btfss	3,2
  5743  0D29  2D2B               	goto	u4971
  5744  0D2A  2D2C               	goto	u4970
  5745  0D2B                     u4971:
  5746  0D2B  2D2D               	goto	l3591
  5747  0D2C                     u4970:
  5748  0D2C                     l3589:
  5749  0D2C  01C5               	clrf	___fladd@signs
  5750  0D2D                     l3591:
  5751  0D2D  1C47               	btfss	___fladd@bexp,0
  5752  0D2E  2D30               	goto	u4981
  5753  0D2F  2D31               	goto	u4980
  5754  0D30                     u4981:
  5755  0D30  2D33               	goto	l3595
  5756  0D31                     u4980:
  5757  0D31                     l3593:
  5758  0D31  17B7               	bsf	___fladd@b+2,7
  5759  0D32  2D37               	goto	l796
  5760  0D33                     l3595:
  5761  0D33  307F               	movlw	127
  5762  0D34  00BD               	movwf	??___fladd
  5763  0D35  083D               	movf	??___fladd,w
  5764  0D36  05B7               	andwf	___fladd@b+2,f
  5765  0D37                     l796:
  5766  0D37  0847               	movf	___fladd@bexp,w
  5767  0D38  00BD               	movwf	??___fladd
  5768  0D39  1003               	clrc
  5769  0D3A  0C3D               	rrf	??___fladd,w
  5770  0D3B  00BE               	movwf	??___fladd+1
  5771  0D3C  083E               	movf	??___fladd+1,w
  5772  0D3D  00B8               	movwf	___fladd@b+3
  5773  0D3E                     l3597:
  5774  0D3E  1FC5               	btfss	___fladd@signs,7
  5775  0D3F  2D41               	goto	u4991
  5776  0D40  2D42               	goto	u4990
  5777  0D41                     u4991:
  5778  0D41  2D43               	goto	l797
  5779  0D42                     u4990:
  5780  0D42                     l3599:
  5781  0D42  17B8               	bsf	___fladd@b+3,7
  5782  0D43                     l797:
  5783  0D43                     l767:
  5784  0D43  0008               	return
  5785  0D44                     __end_of___fladd:
  5786                           
  5787                           	psect	text14
  5788  12FA                     __ptext14:	
  5789 ;; *************** function ___flneg *****************
  5790 ;; Defined at:
  5791 ;;		line 15 in file "C:\Program Files\Microchip\xc8\v2.31\pic\sources\c90\common\flneg.c"
  5792 ;; Parameters:    Size  Location     Type
  5793 ;;  f1              4    3[COMMON] unsigned char 
  5794 ;; Auto vars:     Size  Location     Type
  5795 ;;		None
  5796 ;; Return value:  Size  Location     Type
  5797 ;;                  4    3[COMMON] unsigned char 
  5798 ;; Registers used:
  5799 ;;		wreg
  5800 ;; Tracked objects:
  5801 ;;		On entry : 0/0
  5802 ;;		On exit  : 0/0
  5803 ;;		Unchanged: 0/0
  5804 ;; Data sizes:     COMMON   BANK0   BANK1   BANK3   BANK2
  5805 ;;      Params:         4       0       0       0       0
  5806 ;;      Locals:         0       0       0       0       0
  5807 ;;      Temps:          0       0       0       0       0
  5808 ;;      Totals:         4       0       0       0       0
  5809 ;;Total ram usage:        4 bytes
  5810 ;; Hardware stack levels used:    1
  5811 ;; Hardware stack levels required when called:    1
  5812 ;; This function calls:
  5813 ;;		Nothing
  5814 ;; This function is called by:
  5815 ;;		_floattostr_
  5816 ;; This function uses a non-reentrant model
  5817 ;;
  5818                           
  5819                           
  5820                           ;psect for function ___flneg
  5821  12FA                     ___flneg:
  5822  12FA                     l3685:	
  5823                           ;incstack = 0
  5824                           ; Regs used in ___flneg: [wreg]
  5825                           
  5826  12FA  0876               	movf	___flneg@f1+3,w
  5827  12FB  0475               	iorwf	___flneg@f1+2,w
  5828  12FC  0474               	iorwf	___flneg@f1+1,w
  5829  12FD  0473               	iorwf	___flneg@f1,w
  5830  12FE  1903               	skipnz
  5831  12FF  2B01               	goto	u5111
  5832  1300  2B02               	goto	u5110
  5833  1301                     u5111:
  5834  1301  2B04               	goto	l3689
  5835  1302                     u5110:
  5836  1302                     l3687:
  5837  1302  3080               	movlw	128
  5838  1303  06F6               	xorwf	___flneg@f1+3,f
  5839  1304                     l3689:
  5840  1304                     l643:
  5841  1304  0008               	return
  5842  1305                     __end_of___flneg:
  5843                           
  5844                           	psect	text15
  5845  0037                     __ptext15:	
  5846 ;; *************** function ___flmul *****************
  5847 ;; Defined at:
  5848 ;;		line 8 in file "C:\Program Files\Microchip\xc8\v2.31\pic\sources\c90\common\sprcmul.c"
  5849 ;; Parameters:    Size  Location     Type
  5850 ;;  b               4    5[BANK0 ] unsigned char 
  5851 ;;  a               4    9[BANK0 ] unsigned char 
  5852 ;; Auto vars:     Size  Location     Type
  5853 ;;  prod            4   25[BANK0 ] struct .
  5854 ;;  grs             4   20[BANK0 ] unsigned long 
  5855 ;;  temp            2   29[BANK0 ] struct .
  5856 ;;  bexp            1   24[BANK0 ] unsigned char 
  5857 ;;  aexp            1   19[BANK0 ] unsigned char 
  5858 ;;  sign            1   18[BANK0 ] unsigned char 
  5859 ;; Return value:  Size  Location     Type
  5860 ;;                  4    5[BANK0 ] unsigned char 
  5861 ;; Registers used:
  5862 ;;		wreg, status,2, status,0, btemp+1, pclath, cstack
  5863 ;; Tracked objects:
  5864 ;;		On entry : 0/0
  5865 ;;		On exit  : 0/0
  5866 ;;		Unchanged: 0/0
  5867 ;; Data sizes:     COMMON   BANK0   BANK1   BANK3   BANK2
  5868 ;;      Params:         0       8       0       0       0
  5869 ;;      Locals:         0      13       0       0       0
  5870 ;;      Temps:          0       5       0       0       0
  5871 ;;      Totals:         0      26       0       0       0
  5872 ;;Total ram usage:       26 bytes
  5873 ;; Hardware stack levels used:    1
  5874 ;; Hardware stack levels required when called:    2
  5875 ;; This function calls:
  5876 ;;		__Umul8_16
  5877 ;; This function is called by:
  5878 ;;		_floattostr_
  5879 ;;		_main
  5880 ;; This function uses a non-reentrant model
  5881 ;;
  5882                           
  5883                           
  5884                           ;psect for function ___flmul
  5885  0037                     ___flmul:
  5886  0037                     l3877:	
  5887                           ;incstack = 0
  5888                           ; Regs used in ___flmul: [wreg+status,2+status,0+btemp+1+pclath+cstack]
  5889                           
  5890  0037  1283               	bcf	3,5	;RP0=0, select bank0
  5891  0038  1303               	bcf	3,6	;RP1=0, select bank0
  5892  0039  0828               	movf	___flmul@b+3,w
  5893  003A  3980               	andlw	128
  5894  003B  00AD               	movwf	??___flmul
  5895  003C  082D               	movf	??___flmul,w
  5896  003D  00B2               	movwf	___flmul@sign
  5897  003E                     l3879:
  5898  003E  0828               	movf	___flmul@b+3,w
  5899  003F  00AD               	movwf	??___flmul
  5900  0040  072D               	addwf	??___flmul,w
  5901  0041  00AE               	movwf	??___flmul+1
  5902  0042  082E               	movf	??___flmul+1,w
  5903  0043  00B8               	movwf	___flmul@bexp
  5904  0044                     l3881:
  5905  0044  1FA7               	btfss	___flmul@b+2,7
  5906  0045  2847               	goto	u5511
  5907  0046  2848               	goto	u5510
  5908  0047                     u5511:
  5909  0047  2849               	goto	l3885
  5910  0048                     u5510:
  5911  0048                     l3883:
  5912  0048  1438               	bsf	___flmul@bexp,0
  5913  0049                     l3885:
  5914  0049  0838               	movf	___flmul@bexp,w
  5915  004A  1903               	btfsc	3,2
  5916  004B  284D               	goto	u5521
  5917  004C  284E               	goto	u5520
  5918  004D                     u5521:
  5919  004D  285D               	goto	l3893
  5920  004E                     u5520:
  5921  004E                     l3887:
  5922  004E  0A38               	incf	___flmul@bexp,w
  5923  004F  1D03               	btfss	3,2
  5924  0050  2852               	goto	u5531
  5925  0051  2853               	goto	u5530
  5926  0052                     u5531:
  5927  0052  285B               	goto	l3891
  5928  0053                     u5530:
  5929  0053                     l3889:
  5930  0053  3000               	movlw	0
  5931  0054  00A8               	movwf	___flmul@b+3
  5932  0055  3000               	movlw	0
  5933  0056  00A7               	movwf	___flmul@b+2
  5934  0057  3000               	movlw	0
  5935  0058  00A6               	movwf	___flmul@b+1
  5936  0059  3000               	movlw	0
  5937  005A  00A5               	movwf	___flmul@b
  5938  005B                     l3891:
  5939  005B  17A7               	bsf	___flmul@b+2,7
  5940  005C  2865               	goto	l3895
  5941  005D                     l3893:
  5942  005D  3000               	movlw	0
  5943  005E  00A8               	movwf	___flmul@b+3
  5944  005F  3000               	movlw	0
  5945  0060  00A7               	movwf	___flmul@b+2
  5946  0061  3000               	movlw	0
  5947  0062  00A6               	movwf	___flmul@b+1
  5948  0063  3000               	movlw	0
  5949  0064  00A5               	movwf	___flmul@b
  5950  0065                     l3895:
  5951  0065  082C               	movf	___flmul@a+3,w
  5952  0066  3980               	andlw	128
  5953  0067  00AD               	movwf	??___flmul
  5954  0068  082D               	movf	??___flmul,w
  5955  0069  06B2               	xorwf	___flmul@sign,f
  5956  006A                     l3897:
  5957  006A  082C               	movf	___flmul@a+3,w
  5958  006B  00AD               	movwf	??___flmul
  5959  006C  072D               	addwf	??___flmul,w
  5960  006D  00AE               	movwf	??___flmul+1
  5961  006E  082E               	movf	??___flmul+1,w
  5962  006F  00B3               	movwf	___flmul@aexp
  5963  0070                     l3899:
  5964  0070  1FAB               	btfss	___flmul@a+2,7
  5965  0071  2873               	goto	u5541
  5966  0072  2874               	goto	u5540
  5967  0073                     u5541:
  5968  0073  2875               	goto	l3903
  5969  0074                     u5540:
  5970  0074                     l3901:
  5971  0074  1433               	bsf	___flmul@aexp,0
  5972  0075                     l3903:
  5973  0075  0833               	movf	___flmul@aexp,w
  5974  0076  1903               	btfsc	3,2
  5975  0077  2879               	goto	u5551
  5976  0078  287A               	goto	u5550
  5977  0079                     u5551:
  5978  0079  2889               	goto	l3911
  5979  007A                     u5550:
  5980  007A                     l3905:
  5981  007A  0A33               	incf	___flmul@aexp,w
  5982  007B  1D03               	btfss	3,2
  5983  007C  287E               	goto	u5561
  5984  007D  287F               	goto	u5560
  5985  007E                     u5561:
  5986  007E  2887               	goto	l3909
  5987  007F                     u5560:
  5988  007F                     l3907:
  5989  007F  3000               	movlw	0
  5990  0080  00AC               	movwf	___flmul@a+3
  5991  0081  3000               	movlw	0
  5992  0082  00AB               	movwf	___flmul@a+2
  5993  0083  3000               	movlw	0
  5994  0084  00AA               	movwf	___flmul@a+1
  5995  0085  3000               	movlw	0
  5996  0086  00A9               	movwf	___flmul@a
  5997  0087                     l3909:
  5998  0087  17AB               	bsf	___flmul@a+2,7
  5999  0088  2891               	goto	l3913
  6000  0089                     l3911:
  6001  0089  3000               	movlw	0
  6002  008A  00AC               	movwf	___flmul@a+3
  6003  008B  3000               	movlw	0
  6004  008C  00AB               	movwf	___flmul@a+2
  6005  008D  3000               	movlw	0
  6006  008E  00AA               	movwf	___flmul@a+1
  6007  008F  3000               	movlw	0
  6008  0090  00A9               	movwf	___flmul@a
  6009  0091                     l3913:
  6010  0091  0833               	movf	___flmul@aexp,w
  6011  0092  1903               	btfsc	3,2
  6012  0093  2895               	goto	u5571
  6013  0094  2896               	goto	u5570
  6014  0095                     u5571:
  6015  0095  289B               	goto	l3917
  6016  0096                     u5570:
  6017  0096                     l3915:
  6018  0096  0838               	movf	___flmul@bexp,w
  6019  0097  1D03               	btfss	3,2
  6020  0098  289A               	goto	u5581
  6021  0099  289B               	goto	u5580
  6022  009A                     u5581:
  6023  009A  28A4               	goto	l3921
  6024  009B                     u5580:
  6025  009B                     l3917:
  6026  009B  3000               	movlw	0
  6027  009C  00A8               	movwf	?___flmul+3
  6028  009D  3000               	movlw	0
  6029  009E  00A7               	movwf	?___flmul+2
  6030  009F  3000               	movlw	0
  6031  00A0  00A6               	movwf	?___flmul+1
  6032  00A1  3000               	movlw	0
  6033  00A2  00A5               	movwf	?___flmul
  6034  00A3  2B97               	goto	l850
  6035  00A4                     l3921:
  6036  00A4  0825               	movf	___flmul@b,w
  6037  00A5  00AD               	movwf	??___flmul
  6038  00A6  082D               	movf	??___flmul,w
  6039  00A7  00F3               	movwf	__Umul8_16@multiplicand
  6040  00A8  082B               	movf	___flmul@a+2,w
  6041  00A9  160A  118A  2402  120A  118A  	fcall	__Umul8_16
  6042  00AE  0874               	movf	?__Umul8_16+1,w
  6043  00AF  1283               	bcf	3,5	;RP0=0, select bank0
  6044  00B0  1303               	bcf	3,6	;RP1=0, select bank0
  6045  00B1  00BE               	movwf	___flmul@temp+1
  6046  00B2  0873               	movf	?__Umul8_16,w
  6047  00B3  00BD               	movwf	___flmul@temp
  6048  00B4                     l3923:
  6049  00B4  083D               	movf	___flmul@temp,w
  6050  00B5  00AD               	movwf	??___flmul
  6051  00B6  01AE               	clrf	??___flmul+1
  6052  00B7  01AF               	clrf	??___flmul+2
  6053  00B8  01B0               	clrf	??___flmul+3
  6054  00B9  0830               	movf	??___flmul+3,w
  6055  00BA  00B7               	movwf	___flmul@grs+3
  6056  00BB  082F               	movf	??___flmul+2,w
  6057  00BC  00B6               	movwf	___flmul@grs+2
  6058  00BD  082E               	movf	??___flmul+1,w
  6059  00BE  00B5               	movwf	___flmul@grs+1
  6060  00BF  082D               	movf	??___flmul,w
  6061  00C0  00B4               	movwf	___flmul@grs
  6062  00C1                     l3925:
  6063  00C1  083E               	movf	___flmul@temp+1,w
  6064  00C2  00AD               	movwf	??___flmul
  6065  00C3  01AE               	clrf	??___flmul+1
  6066  00C4  01AF               	clrf	??___flmul+2
  6067  00C5  01B0               	clrf	??___flmul+3
  6068  00C6  0830               	movf	??___flmul+3,w
  6069  00C7  00BC               	movwf	___flmul@prod+3
  6070  00C8  082F               	movf	??___flmul+2,w
  6071  00C9  00BB               	movwf	___flmul@prod+2
  6072  00CA  082E               	movf	??___flmul+1,w
  6073  00CB  00BA               	movwf	___flmul@prod+1
  6074  00CC  082D               	movf	??___flmul,w
  6075  00CD  00B9               	movwf	___flmul@prod
  6076  00CE  0826               	movf	___flmul@b+1,w
  6077  00CF  00AD               	movwf	??___flmul
  6078  00D0  082D               	movf	??___flmul,w
  6079  00D1  00F3               	movwf	__Umul8_16@multiplicand
  6080  00D2  082A               	movf	___flmul@a+1,w
  6081  00D3  160A  118A  2402  120A  118A  	fcall	__Umul8_16
  6082  00D8  0874               	movf	?__Umul8_16+1,w
  6083  00D9  1283               	bcf	3,5	;RP0=0, select bank0
  6084  00DA  1303               	bcf	3,6	;RP1=0, select bank0
  6085  00DB  00BE               	movwf	___flmul@temp+1
  6086  00DC  0873               	movf	?__Umul8_16,w
  6087  00DD  00BD               	movwf	___flmul@temp
  6088  00DE                     l3927:
  6089  00DE  083D               	movf	___flmul@temp,w
  6090  00DF  00AD               	movwf	??___flmul
  6091  00E0  01AE               	clrf	??___flmul+1
  6092  00E1  01AF               	clrf	??___flmul+2
  6093  00E2  01B0               	clrf	??___flmul+3
  6094  00E3  082D               	movf	??___flmul,w
  6095  00E4  07B4               	addwf	___flmul@grs,f
  6096  00E5  082E               	movf	??___flmul+1,w
  6097  00E6  1103               	clrz
  6098  00E7  1803               	skipnc
  6099  00E8  3E01               	addlw	1
  6100  00E9  1903               	skipnz
  6101  00EA  28EC               	goto	u5591
  6102  00EB  07B5               	addwf	___flmul@grs+1,f
  6103  00EC                     u5591:
  6104  00EC  082F               	movf	??___flmul+2,w
  6105  00ED  1103               	clrz
  6106  00EE  1803               	skipnc
  6107  00EF  3E01               	addlw	1
  6108  00F0  1903               	skipnz
  6109  00F1  28F3               	goto	u5592
  6110  00F2  07B6               	addwf	___flmul@grs+2,f
  6111  00F3                     u5592:
  6112  00F3  0830               	movf	??___flmul+3,w
  6113  00F4  1103               	clrz
  6114  00F5  1803               	skipnc
  6115  00F6  3E01               	addlw	1
  6116  00F7  1903               	skipnz
  6117  00F8  28FA               	goto	u5593
  6118  00F9  07B7               	addwf	___flmul@grs+3,f
  6119  00FA                     u5593:
  6120  00FA                     l3929:
  6121  00FA  083E               	movf	___flmul@temp+1,w
  6122  00FB  00AD               	movwf	??___flmul
  6123  00FC  01AE               	clrf	??___flmul+1
  6124  00FD  01AF               	clrf	??___flmul+2
  6125  00FE  01B0               	clrf	??___flmul+3
  6126  00FF  082D               	movf	??___flmul,w
  6127  0100  07B9               	addwf	___flmul@prod,f
  6128  0101  082E               	movf	??___flmul+1,w
  6129  0102  1103               	clrz
  6130  0103  1803               	skipnc
  6131  0104  3E01               	addlw	1
  6132  0105  1903               	skipnz
  6133  0106  2908               	goto	u5601
  6134  0107  07BA               	addwf	___flmul@prod+1,f
  6135  0108                     u5601:
  6136  0108  082F               	movf	??___flmul+2,w
  6137  0109  1103               	clrz
  6138  010A  1803               	skipnc
  6139  010B  3E01               	addlw	1
  6140  010C  1903               	skipnz
  6141  010D  290F               	goto	u5602
  6142  010E  07BB               	addwf	___flmul@prod+2,f
  6143  010F                     u5602:
  6144  010F  0830               	movf	??___flmul+3,w
  6145  0110  1103               	clrz
  6146  0111  1803               	skipnc
  6147  0112  3E01               	addlw	1
  6148  0113  1903               	skipnz
  6149  0114  2916               	goto	u5603
  6150  0115  07BC               	addwf	___flmul@prod+3,f
  6151  0116                     u5603:
  6152  0116  0827               	movf	___flmul@b+2,w
  6153  0117  00AD               	movwf	??___flmul
  6154  0118  082D               	movf	??___flmul,w
  6155  0119  00F3               	movwf	__Umul8_16@multiplicand
  6156  011A  0829               	movf	___flmul@a,w
  6157  011B  160A  118A  2402  120A  118A  	fcall	__Umul8_16
  6158  0120  0874               	movf	?__Umul8_16+1,w
  6159  0121  1283               	bcf	3,5	;RP0=0, select bank0
  6160  0122  1303               	bcf	3,6	;RP1=0, select bank0
  6161  0123  00BE               	movwf	___flmul@temp+1
  6162  0124  0873               	movf	?__Umul8_16,w
  6163  0125  00BD               	movwf	___flmul@temp
  6164  0126                     l3931:
  6165  0126  083D               	movf	___flmul@temp,w
  6166  0127  00AD               	movwf	??___flmul
  6167  0128  01AE               	clrf	??___flmul+1
  6168  0129  01AF               	clrf	??___flmul+2
  6169  012A  01B0               	clrf	??___flmul+3
  6170  012B  082D               	movf	??___flmul,w
  6171  012C  07B4               	addwf	___flmul@grs,f
  6172  012D  082E               	movf	??___flmul+1,w
  6173  012E  1103               	clrz
  6174  012F  1803               	skipnc
  6175  0130  3E01               	addlw	1
  6176  0131  1903               	skipnz
  6177  0132  2934               	goto	u5611
  6178  0133  07B5               	addwf	___flmul@grs+1,f
  6179  0134                     u5611:
  6180  0134  082F               	movf	??___flmul+2,w
  6181  0135  1103               	clrz
  6182  0136  1803               	skipnc
  6183  0137  3E01               	addlw	1
  6184  0138  1903               	skipnz
  6185  0139  293B               	goto	u5612
  6186  013A  07B6               	addwf	___flmul@grs+2,f
  6187  013B                     u5612:
  6188  013B  0830               	movf	??___flmul+3,w
  6189  013C  1103               	clrz
  6190  013D  1803               	skipnc
  6191  013E  3E01               	addlw	1
  6192  013F  1903               	skipnz
  6193  0140  2942               	goto	u5613
  6194  0141  07B7               	addwf	___flmul@grs+3,f
  6195  0142                     u5613:
  6196  0142                     l3933:
  6197  0142  083E               	movf	___flmul@temp+1,w
  6198  0143  00AD               	movwf	??___flmul
  6199  0144  01AE               	clrf	??___flmul+1
  6200  0145  01AF               	clrf	??___flmul+2
  6201  0146  01B0               	clrf	??___flmul+3
  6202  0147  082D               	movf	??___flmul,w
  6203  0148  07B9               	addwf	___flmul@prod,f
  6204  0149  082E               	movf	??___flmul+1,w
  6205  014A  1103               	clrz
  6206  014B  1803               	skipnc
  6207  014C  3E01               	addlw	1
  6208  014D  1903               	skipnz
  6209  014E  2950               	goto	u5621
  6210  014F  07BA               	addwf	___flmul@prod+1,f
  6211  0150                     u5621:
  6212  0150  082F               	movf	??___flmul+2,w
  6213  0151  1103               	clrz
  6214  0152  1803               	skipnc
  6215  0153  3E01               	addlw	1
  6216  0154  1903               	skipnz
  6217  0155  2957               	goto	u5622
  6218  0156  07BB               	addwf	___flmul@prod+2,f
  6219  0157                     u5622:
  6220  0157  0830               	movf	??___flmul+3,w
  6221  0158  1103               	clrz
  6222  0159  1803               	skipnc
  6223  015A  3E01               	addlw	1
  6224  015B  1903               	skipnz
  6225  015C  295E               	goto	u5623
  6226  015D  07BC               	addwf	___flmul@prod+3,f
  6227  015E                     u5623:
  6228  015E                     l3935:
  6229  015E  3008               	movlw	8
  6230  015F  00AD               	movwf	??___flmul
  6231  0160                     u5635:
  6232  0160  1003               	clrc
  6233  0161  0DB4               	rlf	___flmul@grs,f
  6234  0162  0DB5               	rlf	___flmul@grs+1,f
  6235  0163  0DB6               	rlf	___flmul@grs+2,f
  6236  0164  0DB7               	rlf	___flmul@grs+3,f
  6237  0165  0BAD               	decfsz	??___flmul,f
  6238  0166  2960               	goto	u5635
  6239  0167                     l3937:
  6240  0167  0826               	movf	___flmul@b+1,w
  6241  0168  00AD               	movwf	??___flmul
  6242  0169  082D               	movf	??___flmul,w
  6243  016A  00F3               	movwf	__Umul8_16@multiplicand
  6244  016B  0829               	movf	___flmul@a,w
  6245  016C  160A  118A  2402  120A  118A  	fcall	__Umul8_16
  6246  0171  0874               	movf	?__Umul8_16+1,w
  6247  0172  1283               	bcf	3,5	;RP0=0, select bank0
  6248  0173  1303               	bcf	3,6	;RP1=0, select bank0
  6249  0174  00BE               	movwf	___flmul@temp+1
  6250  0175  0873               	movf	?__Umul8_16,w
  6251  0176  00BD               	movwf	___flmul@temp
  6252  0177                     l3939:
  6253  0177  083D               	movf	___flmul@temp,w
  6254  0178  00AD               	movwf	??___flmul
  6255  0179  083E               	movf	___flmul@temp+1,w
  6256  017A  00AE               	movwf	??___flmul+1
  6257  017B  01AF               	clrf	??___flmul+2
  6258  017C  01B0               	clrf	??___flmul+3
  6259  017D  082D               	movf	??___flmul,w
  6260  017E  07B4               	addwf	___flmul@grs,f
  6261  017F  082E               	movf	??___flmul+1,w
  6262  0180  1103               	clrz
  6263  0181  1803               	skipnc
  6264  0182  3E01               	addlw	1
  6265  0183  1903               	skipnz
  6266  0184  2986               	goto	u5641
  6267  0185  07B5               	addwf	___flmul@grs+1,f
  6268  0186                     u5641:
  6269  0186  082F               	movf	??___flmul+2,w
  6270  0187  1103               	clrz
  6271  0188  1803               	skipnc
  6272  0189  3E01               	addlw	1
  6273  018A  1903               	skipnz
  6274  018B  298D               	goto	u5642
  6275  018C  07B6               	addwf	___flmul@grs+2,f
  6276  018D                     u5642:
  6277  018D  0830               	movf	??___flmul+3,w
  6278  018E  1103               	clrz
  6279  018F  1803               	skipnc
  6280  0190  3E01               	addlw	1
  6281  0191  1903               	skipnz
  6282  0192  2994               	goto	u5643
  6283  0193  07B7               	addwf	___flmul@grs+3,f
  6284  0194                     u5643:
  6285  0194                     l3941:
  6286  0194  0825               	movf	___flmul@b,w
  6287  0195  00AD               	movwf	??___flmul
  6288  0196  082D               	movf	??___flmul,w
  6289  0197  00F3               	movwf	__Umul8_16@multiplicand
  6290  0198  082A               	movf	___flmul@a+1,w
  6291  0199  160A  118A  2402  120A  118A  	fcall	__Umul8_16
  6292  019E  0874               	movf	?__Umul8_16+1,w
  6293  019F  1283               	bcf	3,5	;RP0=0, select bank0
  6294  01A0  1303               	bcf	3,6	;RP1=0, select bank0
  6295  01A1  00BE               	movwf	___flmul@temp+1
  6296  01A2  0873               	movf	?__Umul8_16,w
  6297  01A3  00BD               	movwf	___flmul@temp
  6298  01A4                     l3943:
  6299  01A4  083D               	movf	___flmul@temp,w
  6300  01A5  00AD               	movwf	??___flmul
  6301  01A6  083E               	movf	___flmul@temp+1,w
  6302  01A7  00AE               	movwf	??___flmul+1
  6303  01A8  01AF               	clrf	??___flmul+2
  6304  01A9  01B0               	clrf	??___flmul+3
  6305  01AA  082D               	movf	??___flmul,w
  6306  01AB  07B4               	addwf	___flmul@grs,f
  6307  01AC  082E               	movf	??___flmul+1,w
  6308  01AD  1103               	clrz
  6309  01AE  1803               	skipnc
  6310  01AF  3E01               	addlw	1
  6311  01B0  1903               	skipnz
  6312  01B1  29B3               	goto	u5651
  6313  01B2  07B5               	addwf	___flmul@grs+1,f
  6314  01B3                     u5651:
  6315  01B3  082F               	movf	??___flmul+2,w
  6316  01B4  1103               	clrz
  6317  01B5  1803               	skipnc
  6318  01B6  3E01               	addlw	1
  6319  01B7  1903               	skipnz
  6320  01B8  29BA               	goto	u5652
  6321  01B9  07B6               	addwf	___flmul@grs+2,f
  6322  01BA                     u5652:
  6323  01BA  0830               	movf	??___flmul+3,w
  6324  01BB  1103               	clrz
  6325  01BC  1803               	skipnc
  6326  01BD  3E01               	addlw	1
  6327  01BE  1903               	skipnz
  6328  01BF  29C1               	goto	u5653
  6329  01C0  07B7               	addwf	___flmul@grs+3,f
  6330  01C1                     u5653:
  6331  01C1                     l3945:
  6332  01C1  3008               	movlw	8
  6333  01C2  00AD               	movwf	??___flmul
  6334  01C3                     u5665:
  6335  01C3  1003               	clrc
  6336  01C4  0DB4               	rlf	___flmul@grs,f
  6337  01C5  0DB5               	rlf	___flmul@grs+1,f
  6338  01C6  0DB6               	rlf	___flmul@grs+2,f
  6339  01C7  0DB7               	rlf	___flmul@grs+3,f
  6340  01C8  0BAD               	decfsz	??___flmul,f
  6341  01C9  29C3               	goto	u5665
  6342  01CA  0825               	movf	___flmul@b,w
  6343  01CB  00AD               	movwf	??___flmul
  6344  01CC  082D               	movf	??___flmul,w
  6345  01CD  00F3               	movwf	__Umul8_16@multiplicand
  6346  01CE  0829               	movf	___flmul@a,w
  6347  01CF  160A  118A  2402  120A  118A  	fcall	__Umul8_16
  6348  01D4  0874               	movf	?__Umul8_16+1,w
  6349  01D5  1283               	bcf	3,5	;RP0=0, select bank0
  6350  01D6  1303               	bcf	3,6	;RP1=0, select bank0
  6351  01D7  00BE               	movwf	___flmul@temp+1
  6352  01D8  0873               	movf	?__Umul8_16,w
  6353  01D9  00BD               	movwf	___flmul@temp
  6354  01DA                     l3947:
  6355  01DA  083D               	movf	___flmul@temp,w
  6356  01DB  00AD               	movwf	??___flmul
  6357  01DC  083E               	movf	___flmul@temp+1,w
  6358  01DD  00AE               	movwf	??___flmul+1
  6359  01DE  01AF               	clrf	??___flmul+2
  6360  01DF  01B0               	clrf	??___flmul+3
  6361  01E0  082D               	movf	??___flmul,w
  6362  01E1  07B4               	addwf	___flmul@grs,f
  6363  01E2  082E               	movf	??___flmul+1,w
  6364  01E3  1103               	clrz
  6365  01E4  1803               	skipnc
  6366  01E5  3E01               	addlw	1
  6367  01E6  1903               	skipnz
  6368  01E7  29E9               	goto	u5671
  6369  01E8  07B5               	addwf	___flmul@grs+1,f
  6370  01E9                     u5671:
  6371  01E9  082F               	movf	??___flmul+2,w
  6372  01EA  1103               	clrz
  6373  01EB  1803               	skipnc
  6374  01EC  3E01               	addlw	1
  6375  01ED  1903               	skipnz
  6376  01EE  29F0               	goto	u5672
  6377  01EF  07B6               	addwf	___flmul@grs+2,f
  6378  01F0                     u5672:
  6379  01F0  0830               	movf	??___flmul+3,w
  6380  01F1  1103               	clrz
  6381  01F2  1803               	skipnc
  6382  01F3  3E01               	addlw	1
  6383  01F4  1903               	skipnz
  6384  01F5  29F7               	goto	u5673
  6385  01F6  07B7               	addwf	___flmul@grs+3,f
  6386  01F7                     u5673:
  6387  01F7                     l3949:
  6388  01F7  0826               	movf	___flmul@b+1,w
  6389  01F8  00AD               	movwf	??___flmul
  6390  01F9  082D               	movf	??___flmul,w
  6391  01FA  00F3               	movwf	__Umul8_16@multiplicand
  6392  01FB  082B               	movf	___flmul@a+2,w
  6393  01FC  160A  118A  2402  120A  118A  	fcall	__Umul8_16
  6394  0201  0874               	movf	?__Umul8_16+1,w
  6395  0202  1283               	bcf	3,5	;RP0=0, select bank0
  6396  0203  1303               	bcf	3,6	;RP1=0, select bank0
  6397  0204  00BE               	movwf	___flmul@temp+1
  6398  0205  0873               	movf	?__Umul8_16,w
  6399  0206  00BD               	movwf	___flmul@temp
  6400  0207  083D               	movf	___flmul@temp,w
  6401  0208  00AD               	movwf	??___flmul
  6402  0209  083E               	movf	___flmul@temp+1,w
  6403  020A  00AE               	movwf	??___flmul+1
  6404  020B  01AF               	clrf	??___flmul+2
  6405  020C  01B0               	clrf	??___flmul+3
  6406  020D  082D               	movf	??___flmul,w
  6407  020E  07B9               	addwf	___flmul@prod,f
  6408  020F  082E               	movf	??___flmul+1,w
  6409  0210  1103               	clrz
  6410  0211  1803               	skipnc
  6411  0212  3E01               	addlw	1
  6412  0213  1903               	skipnz
  6413  0214  2A16               	goto	u5681
  6414  0215  07BA               	addwf	___flmul@prod+1,f
  6415  0216                     u5681:
  6416  0216  082F               	movf	??___flmul+2,w
  6417  0217  1103               	clrz
  6418  0218  1803               	skipnc
  6419  0219  3E01               	addlw	1
  6420  021A  1903               	skipnz
  6421  021B  2A1D               	goto	u5682
  6422  021C  07BB               	addwf	___flmul@prod+2,f
  6423  021D                     u5682:
  6424  021D  0830               	movf	??___flmul+3,w
  6425  021E  1103               	clrz
  6426  021F  1803               	skipnc
  6427  0220  3E01               	addlw	1
  6428  0221  1903               	skipnz
  6429  0222  2A24               	goto	u5683
  6430  0223  07BC               	addwf	___flmul@prod+3,f
  6431  0224                     u5683:
  6432  0224                     l3951:
  6433  0224  0827               	movf	___flmul@b+2,w
  6434  0225  00AD               	movwf	??___flmul
  6435  0226  082D               	movf	??___flmul,w
  6436  0227  00F3               	movwf	__Umul8_16@multiplicand
  6437  0228  082A               	movf	___flmul@a+1,w
  6438  0229  160A  118A  2402  120A  118A  	fcall	__Umul8_16
  6439  022E  0874               	movf	?__Umul8_16+1,w
  6440  022F  1283               	bcf	3,5	;RP0=0, select bank0
  6441  0230  1303               	bcf	3,6	;RP1=0, select bank0
  6442  0231  00BE               	movwf	___flmul@temp+1
  6443  0232  0873               	movf	?__Umul8_16,w
  6444  0233  00BD               	movwf	___flmul@temp
  6445  0234                     l3953:
  6446  0234  083D               	movf	___flmul@temp,w
  6447  0235  00AD               	movwf	??___flmul
  6448  0236  083E               	movf	___flmul@temp+1,w
  6449  0237  00AE               	movwf	??___flmul+1
  6450  0238  01AF               	clrf	??___flmul+2
  6451  0239  01B0               	clrf	??___flmul+3
  6452  023A  082D               	movf	??___flmul,w
  6453  023B  07B9               	addwf	___flmul@prod,f
  6454  023C  082E               	movf	??___flmul+1,w
  6455  023D  1103               	clrz
  6456  023E  1803               	skipnc
  6457  023F  3E01               	addlw	1
  6458  0240  1903               	skipnz
  6459  0241  2A43               	goto	u5691
  6460  0242  07BA               	addwf	___flmul@prod+1,f
  6461  0243                     u5691:
  6462  0243  082F               	movf	??___flmul+2,w
  6463  0244  1103               	clrz
  6464  0245  1803               	skipnc
  6465  0246  3E01               	addlw	1
  6466  0247  1903               	skipnz
  6467  0248  2A4A               	goto	u5692
  6468  0249  07BB               	addwf	___flmul@prod+2,f
  6469  024A                     u5692:
  6470  024A  0830               	movf	??___flmul+3,w
  6471  024B  1103               	clrz
  6472  024C  1803               	skipnc
  6473  024D  3E01               	addlw	1
  6474  024E  1903               	skipnz
  6475  024F  2A51               	goto	u5693
  6476  0250  07BC               	addwf	___flmul@prod+3,f
  6477  0251                     u5693:
  6478  0251  0827               	movf	___flmul@b+2,w
  6479  0252  00AD               	movwf	??___flmul
  6480  0253  082D               	movf	??___flmul,w
  6481  0254  00F3               	movwf	__Umul8_16@multiplicand
  6482  0255  082B               	movf	___flmul@a+2,w
  6483  0256  160A  118A  2402  120A  118A  	fcall	__Umul8_16
  6484  025B  0874               	movf	?__Umul8_16+1,w
  6485  025C  1283               	bcf	3,5	;RP0=0, select bank0
  6486  025D  1303               	bcf	3,6	;RP1=0, select bank0
  6487  025E  00BE               	movwf	___flmul@temp+1
  6488  025F  0873               	movf	?__Umul8_16,w
  6489  0260  00BD               	movwf	___flmul@temp
  6490  0261                     l3955:
  6491  0261  083D               	movf	___flmul@temp,w
  6492  0262  00AD               	movwf	??___flmul
  6493  0263  083E               	movf	___flmul@temp+1,w
  6494  0264  00AE               	movwf	??___flmul+1
  6495  0265  01AF               	clrf	??___flmul+2
  6496  0266  01B0               	clrf	??___flmul+3
  6497  0267  3008               	movlw	8
  6498  0268                     u5705:
  6499  0268  1003               	clrc
  6500  0269  0DAD               	rlf	??___flmul,f
  6501  026A  0DAE               	rlf	??___flmul+1,f
  6502  026B  0DAF               	rlf	??___flmul+2,f
  6503  026C  0DB0               	rlf	??___flmul+3,f
  6504  026D                     u5700:
  6505  026D  3EFF               	addlw	-1
  6506  026E  1D03               	skipz
  6507  026F  2A68               	goto	u5705
  6508  0270  082D               	movf	??___flmul,w
  6509  0271  07B9               	addwf	___flmul@prod,f
  6510  0272  082E               	movf	??___flmul+1,w
  6511  0273  1103               	clrz
  6512  0274  1803               	skipnc
  6513  0275  3E01               	addlw	1
  6514  0276  1903               	skipnz
  6515  0277  2A79               	goto	u5711
  6516  0278  07BA               	addwf	___flmul@prod+1,f
  6517  0279                     u5711:
  6518  0279  082F               	movf	??___flmul+2,w
  6519  027A  1103               	clrz
  6520  027B  1803               	skipnc
  6521  027C  3E01               	addlw	1
  6522  027D  1903               	skipnz
  6523  027E  2A80               	goto	u5712
  6524  027F  07BB               	addwf	___flmul@prod+2,f
  6525  0280                     u5712:
  6526  0280  0830               	movf	??___flmul+3,w
  6527  0281  1103               	clrz
  6528  0282  1803               	skipnc
  6529  0283  3E01               	addlw	1
  6530  0284  1903               	skipnz
  6531  0285  2A87               	goto	u5713
  6532  0286  07BC               	addwf	___flmul@prod+3,f
  6533  0287                     u5713:
  6534  0287                     l3957:
  6535  0287  0834               	movf	___flmul@grs,w
  6536  0288  00AD               	movwf	??___flmul
  6537  0289  0835               	movf	___flmul@grs+1,w
  6538  028A  00AE               	movwf	??___flmul+1
  6539  028B  0836               	movf	___flmul@grs+2,w
  6540  028C  00AF               	movwf	??___flmul+2
  6541  028D  0837               	movf	___flmul@grs+3,w
  6542  028E  00B0               	movwf	??___flmul+3
  6543  028F  3018               	movlw	24
  6544  0290                     u5725:
  6545  0290  1003               	clrc
  6546  0291  0CB0               	rrf	??___flmul+3,f
  6547  0292  0CAF               	rrf	??___flmul+2,f
  6548  0293  0CAE               	rrf	??___flmul+1,f
  6549  0294  0CAD               	rrf	??___flmul,f
  6550  0295                     u5720:
  6551  0295  3EFF               	addlw	-1
  6552  0296  1D03               	skipz
  6553  0297  2A90               	goto	u5725
  6554  0298  082D               	movf	??___flmul,w
  6555  0299  07B9               	addwf	___flmul@prod,f
  6556  029A  082E               	movf	??___flmul+1,w
  6557  029B  1103               	clrz
  6558  029C  1803               	skipnc
  6559  029D  3E01               	addlw	1
  6560  029E  1903               	skipnz
  6561  029F  2AA1               	goto	u5731
  6562  02A0  07BA               	addwf	___flmul@prod+1,f
  6563  02A1                     u5731:
  6564  02A1  082F               	movf	??___flmul+2,w
  6565  02A2  1103               	clrz
  6566  02A3  1803               	skipnc
  6567  02A4  3E01               	addlw	1
  6568  02A5  1903               	skipnz
  6569  02A6  2AA8               	goto	u5732
  6570  02A7  07BB               	addwf	___flmul@prod+2,f
  6571  02A8                     u5732:
  6572  02A8  0830               	movf	??___flmul+3,w
  6573  02A9  1103               	clrz
  6574  02AA  1803               	skipnc
  6575  02AB  3E01               	addlw	1
  6576  02AC  1903               	skipnz
  6577  02AD  2AAF               	goto	u5733
  6578  02AE  07BC               	addwf	___flmul@prod+3,f
  6579  02AF                     u5733:
  6580  02AF                     l3959:
  6581  02AF  3008               	movlw	8
  6582  02B0  00AD               	movwf	??___flmul
  6583  02B1                     u5745:
  6584  02B1  1003               	clrc
  6585  02B2  0DB4               	rlf	___flmul@grs,f
  6586  02B3  0DB5               	rlf	___flmul@grs+1,f
  6587  02B4  0DB6               	rlf	___flmul@grs+2,f
  6588  02B5  0DB7               	rlf	___flmul@grs+3,f
  6589  02B6  0BAD               	decfsz	??___flmul,f
  6590  02B7  2AB1               	goto	u5745
  6591  02B8                     l3961:
  6592  02B8  0838               	movf	___flmul@bexp,w
  6593  02B9  0733               	addwf	___flmul@aexp,w
  6594  02BA  00AD               	movwf	??___flmul
  6595  02BB  01AE               	clrf	??___flmul+1
  6596  02BC  0DAE               	rlf	??___flmul+1,f
  6597  02BD  082D               	movf	??___flmul,w
  6598  02BE  3E82               	addlw	130
  6599  02BF  00BD               	movwf	___flmul@temp
  6600  02C0  082E               	movf	??___flmul+1,w
  6601  02C1  1803               	skipnc
  6602  02C2  3E01               	addlw	1
  6603  02C3  3EFF               	addlw	255
  6604  02C4  00BE               	movwf	___flmul@temp+1
  6605  02C5  2AE3               	goto	l3973
  6606  02C6                     l3963:
  6607  02C6  3001               	movlw	1
  6608  02C7  00AD               	movwf	??___flmul
  6609  02C8                     u5755:
  6610  02C8  1003               	clrc
  6611  02C9  0DB9               	rlf	___flmul@prod,f
  6612  02CA  0DBA               	rlf	___flmul@prod+1,f
  6613  02CB  0DBB               	rlf	___flmul@prod+2,f
  6614  02CC  0DBC               	rlf	___flmul@prod+3,f
  6615  02CD  0BAD               	decfsz	??___flmul,f
  6616  02CE  2AC8               	goto	u5755
  6617  02CF                     l3965:
  6618  02CF  1FB7               	btfss	___flmul@grs+3,7
  6619  02D0  2AD2               	goto	u5761
  6620  02D1  2AD3               	goto	u5760
  6621  02D2                     u5761:
  6622  02D2  2AD4               	goto	l3969
  6623  02D3                     u5760:
  6624  02D3                     l3967:
  6625  02D3  1439               	bsf	___flmul@prod,0
  6626  02D4                     l3969:
  6627  02D4  3001               	movlw	1
  6628  02D5  00AD               	movwf	??___flmul
  6629  02D6                     u5775:
  6630  02D6  1003               	clrc
  6631  02D7  0DB4               	rlf	___flmul@grs,f
  6632  02D8  0DB5               	rlf	___flmul@grs+1,f
  6633  02D9  0DB6               	rlf	___flmul@grs+2,f
  6634  02DA  0DB7               	rlf	___flmul@grs+3,f
  6635  02DB  0BAD               	decfsz	??___flmul,f
  6636  02DC  2AD6               	goto	u5775
  6637  02DD                     l3971:
  6638  02DD  30FF               	movlw	255
  6639  02DE  07BD               	addwf	___flmul@temp,f
  6640  02DF  1803               	skipnc
  6641  02E0  0ABE               	incf	___flmul@temp+1,f
  6642  02E1  30FF               	movlw	255
  6643  02E2  07BE               	addwf	___flmul@temp+1,f
  6644  02E3                     l3973:
  6645  02E3  1FBB               	btfss	___flmul@prod+2,7
  6646  02E4  2AE6               	goto	u5781
  6647  02E5  2AE7               	goto	u5780
  6648  02E6                     u5781:
  6649  02E6  2AC6               	goto	l3963
  6650  02E7                     u5780:
  6651  02E7                     l3975:
  6652  02E7  01B3               	clrf	___flmul@aexp
  6653  02E8                     l3977:
  6654  02E8  1FB7               	btfss	___flmul@grs+3,7
  6655  02E9  2AEB               	goto	u5791
  6656  02EA  2AEC               	goto	u5790
  6657  02EB                     u5791:
  6658  02EB  2B08               	goto	l3985
  6659  02EC                     u5790:
  6660  02EC                     l3979:
  6661  02EC  30FF               	movlw	255
  6662  02ED  0534               	andwf	___flmul@grs,w
  6663  02EE  00AD               	movwf	??___flmul
  6664  02EF  30FF               	movlw	255
  6665  02F0  0535               	andwf	___flmul@grs+1,w
  6666  02F1  00AE               	movwf	??___flmul+1
  6667  02F2  30FF               	movlw	255
  6668  02F3  0536               	andwf	___flmul@grs+2,w
  6669  02F4  00AF               	movwf	??___flmul+2
  6670  02F5  307F               	movlw	127
  6671  02F6  0537               	andwf	___flmul@grs+3,w
  6672  02F7  00B0               	movwf	??___flmul+3
  6673  02F8  0830               	movf	??___flmul+3,w
  6674  02F9  042F               	iorwf	??___flmul+2,w
  6675  02FA  042E               	iorwf	??___flmul+1,w
  6676  02FB  042D               	iorwf	??___flmul,w
  6677  02FC  1903               	skipnz
  6678  02FD  2AFF               	goto	u5801
  6679  02FE  2B00               	goto	u5800
  6680  02FF                     u5801:
  6681  02FF  2B03               	goto	l856
  6682  0300                     u5800:
  6683  0300                     l3981:
  6684  0300  01B3               	clrf	___flmul@aexp
  6685  0301  0AB3               	incf	___flmul@aexp,f
  6686  0302  2B08               	goto	l3985
  6687  0303                     l856:
  6688  0303  1C39               	btfss	___flmul@prod,0
  6689  0304  2B06               	goto	u5811
  6690  0305  2B07               	goto	u5810
  6691  0306                     u5811:
  6692  0306  2B08               	goto	l3985
  6693  0307                     u5810:
  6694  0307  2B00               	goto	l3981
  6695  0308                     l3985:
  6696  0308  0833               	movf	___flmul@aexp,w
  6697  0309  1903               	btfsc	3,2
  6698  030A  2B0C               	goto	u5821
  6699  030B  2B0D               	goto	u5820
  6700  030C                     u5821:
  6701  030C  2B3E               	goto	l3995
  6702  030D                     u5820:
  6703  030D                     l3987:
  6704  030D  3001               	movlw	1
  6705  030E  07B9               	addwf	___flmul@prod,f
  6706  030F  3000               	movlw	0
  6707  0310  1803               	skipnc
  6708  0311  3001               	movlw	1
  6709  0312  07BA               	addwf	___flmul@prod+1,f
  6710  0313  3000               	movlw	0
  6711  0314  1803               	skipnc
  6712  0315  3001               	movlw	1
  6713  0316  07BB               	addwf	___flmul@prod+2,f
  6714  0317  3000               	movlw	0
  6715  0318  1803               	skipnc
  6716  0319  3001               	movlw	1
  6717  031A  07BC               	addwf	___flmul@prod+3,f
  6718  031B                     l3989:
  6719  031B  1C3C               	btfss	___flmul@prod+3,0
  6720  031C  2B1E               	goto	u5831
  6721  031D  2B1F               	goto	u5830
  6722  031E                     u5831:
  6723  031E  2B3E               	goto	l3995
  6724  031F                     u5830:
  6725  031F                     l3991:
  6726  031F  0839               	movf	___flmul@prod,w
  6727  0320  00AD               	movwf	??___flmul
  6728  0321  083A               	movf	___flmul@prod+1,w
  6729  0322  00AE               	movwf	??___flmul+1
  6730  0323  083B               	movf	___flmul@prod+2,w
  6731  0324  00AF               	movwf	??___flmul+2
  6732  0325  083C               	movf	___flmul@prod+3,w
  6733  0326  00B0               	movwf	??___flmul+3
  6734  0327  3001               	movlw	1
  6735  0328  00B1               	movwf	??___flmul+4
  6736  0329                     u5845:
  6737  0329  0D30               	rlf	??___flmul+3,w
  6738  032A  0CB0               	rrf	??___flmul+3,f
  6739  032B  0CAF               	rrf	??___flmul+2,f
  6740  032C  0CAE               	rrf	??___flmul+1,f
  6741  032D  0CAD               	rrf	??___flmul,f
  6742  032E                     u5840:
  6743  032E  0BB1               	decfsz	??___flmul+4,f
  6744  032F  2B29               	goto	u5845
  6745  0330  0830               	movf	??___flmul+3,w
  6746  0331  00BC               	movwf	___flmul@prod+3
  6747  0332  082F               	movf	??___flmul+2,w
  6748  0333  00BB               	movwf	___flmul@prod+2
  6749  0334  082E               	movf	??___flmul+1,w
  6750  0335  00BA               	movwf	___flmul@prod+1
  6751  0336  082D               	movf	??___flmul,w
  6752  0337  00B9               	movwf	___flmul@prod
  6753  0338                     l3993:
  6754  0338  3001               	movlw	1
  6755  0339  07BD               	addwf	___flmul@temp,f
  6756  033A  1803               	skipnc
  6757  033B  0ABE               	incf	___flmul@temp+1,f
  6758  033C  3000               	movlw	0
  6759  033D  07BE               	addwf	___flmul@temp+1,f
  6760  033E                     l3995:
  6761  033E  083E               	movf	___flmul@temp+1,w
  6762  033F  3A80               	xorlw	128
  6763  0340  00FF               	movwf	btemp+1
  6764  0341  3080               	movlw	128
  6765  0342  027F               	subwf	btemp+1,w
  6766  0343  1D03               	skipz
  6767  0344  2B47               	goto	u5855
  6768  0345  30FF               	movlw	255
  6769  0346  023D               	subwf	___flmul@temp,w
  6770  0347                     u5855:
  6771  0347  1C03               	skipc
  6772  0348  2B4A               	goto	u5851
  6773  0349  2B4B               	goto	u5850
  6774  034A                     u5851:
  6775  034A  2B56               	goto	l3999
  6776  034B                     u5850:
  6777  034B                     l3997:
  6778  034B  307F               	movlw	127
  6779  034C  1283               	bcf	3,5	;RP0=0, select bank0
  6780  034D  1303               	bcf	3,6	;RP1=0, select bank0
  6781  034E  00BC               	movwf	___flmul@prod+3
  6782  034F  3080               	movlw	128
  6783  0350  00BB               	movwf	___flmul@prod+2
  6784  0351  3000               	movlw	0
  6785  0352  00BA               	movwf	___flmul@prod+1
  6786  0353  3000               	movlw	0
  6787  0354  00B9               	movwf	___flmul@prod
  6788  0355  2B8B               	goto	l862
  6789  0356                     l3999:
  6790  0356  1283               	bcf	3,5	;RP0=0, select bank0
  6791  0357  1303               	bcf	3,6	;RP1=0, select bank0
  6792  0358  083E               	movf	___flmul@temp+1,w
  6793  0359  3A80               	xorlw	128
  6794  035A  00FF               	movwf	btemp+1
  6795  035B  3080               	movlw	128
  6796  035C  027F               	subwf	btemp+1,w
  6797  035D  1D03               	skipz
  6798  035E  2B61               	goto	u5865
  6799  035F  3001               	movlw	1
  6800  0360  023D               	subwf	___flmul@temp,w
  6801  0361                     u5865:
  6802  0361  1803               	skipnc
  6803  0362  2B64               	goto	u5861
  6804  0363  2B65               	goto	u5860
  6805  0364                     u5861:
  6806  0364  2B71               	goto	l4005
  6807  0365                     u5860:
  6808  0365                     l4001:
  6809  0365  3000               	movlw	0
  6810  0366  1283               	bcf	3,5	;RP0=0, select bank0
  6811  0367  1303               	bcf	3,6	;RP1=0, select bank0
  6812  0368  00BC               	movwf	___flmul@prod+3
  6813  0369  3000               	movlw	0
  6814  036A  00BB               	movwf	___flmul@prod+2
  6815  036B  3000               	movlw	0
  6816  036C  00BA               	movwf	___flmul@prod+1
  6817  036D  3000               	movlw	0
  6818  036E  00B9               	movwf	___flmul@prod
  6819  036F                     l4003:
  6820  036F  01B2               	clrf	___flmul@sign
  6821  0370  2B8B               	goto	l862
  6822  0371                     l4005:
  6823  0371  1283               	bcf	3,5	;RP0=0, select bank0
  6824  0372  1303               	bcf	3,6	;RP1=0, select bank0
  6825  0373  083D               	movf	___flmul@temp,w
  6826  0374  00AD               	movwf	??___flmul
  6827  0375  082D               	movf	??___flmul,w
  6828  0376  00B8               	movwf	___flmul@bexp
  6829  0377  30FF               	movlw	255
  6830  0378  05B9               	andwf	___flmul@prod,f
  6831  0379  30FF               	movlw	255
  6832  037A  05BA               	andwf	___flmul@prod+1,f
  6833  037B  307F               	movlw	127
  6834  037C  05BB               	andwf	___flmul@prod+2,f
  6835  037D  3000               	movlw	0
  6836  037E  05BC               	andwf	___flmul@prod+3,f
  6837  037F                     l4007:
  6838  037F  1C38               	btfss	___flmul@bexp,0
  6839  0380  2B82               	goto	u5871
  6840  0381  2B83               	goto	u5870
  6841  0382                     u5871:
  6842  0382  2B84               	goto	l4011
  6843  0383                     u5870:
  6844  0383                     l4009:
  6845  0383  17BB               	bsf	___flmul@prod+2,7
  6846  0384                     l4011:
  6847  0384  0838               	movf	___flmul@bexp,w
  6848  0385  00AD               	movwf	??___flmul
  6849  0386  1003               	clrc
  6850  0387  0C2D               	rrf	??___flmul,w
  6851  0388  00AE               	movwf	??___flmul+1
  6852  0389  082E               	movf	??___flmul+1,w
  6853  038A  00BC               	movwf	___flmul@prod+3
  6854  038B                     l862:
  6855  038B  0832               	movf	___flmul@sign,w
  6856  038C  00AD               	movwf	??___flmul
  6857  038D  082D               	movf	??___flmul,w
  6858  038E  04BC               	iorwf	___flmul@prod+3,f
  6859  038F                     l4013:
  6860  038F  083C               	movf	___flmul@prod+3,w
  6861  0390  00A8               	movwf	?___flmul+3
  6862  0391  083B               	movf	___flmul@prod+2,w
  6863  0392  00A7               	movwf	?___flmul+2
  6864  0393  083A               	movf	___flmul@prod+1,w
  6865  0394  00A6               	movwf	?___flmul+1
  6866  0395  0839               	movf	___flmul@prod,w
  6867  0396  00A5               	movwf	?___flmul
  6868  0397                     l850:
  6869  0397  0008               	return
  6870  0398                     __end_of___flmul:
  6871                           
  6872                           	psect	text16
  6873  1402                     __ptext16:	
  6874 ;; *************** function __Umul8_16 *****************
  6875 ;; Defined at:
  6876 ;;		line 4 in file "C:\Program Files\Microchip\xc8\v2.31\pic\sources\c90\common\Umul8_16.c"
  6877 ;; Parameters:    Size  Location     Type
  6878 ;;  multiplier      1    wreg     unsigned char 
  6879 ;;  multiplicand    1    3[COMMON] unsigned char 
  6880 ;; Auto vars:     Size  Location     Type
  6881 ;;  multiplier      1    4[BANK0 ] unsigned char 
  6882 ;;  word_mpld       2    2[BANK0 ] unsigned int 
  6883 ;;  product         2    0[BANK0 ] unsigned int 
  6884 ;; Return value:  Size  Location     Type
  6885 ;;                  2    3[COMMON] unsigned int 
  6886 ;; Registers used:
  6887 ;;		wreg, status,2, status,0
  6888 ;; Tracked objects:
  6889 ;;		On entry : 0/0
  6890 ;;		On exit  : 0/0
  6891 ;;		Unchanged: 0/0
  6892 ;; Data sizes:     COMMON   BANK0   BANK1   BANK3   BANK2
  6893 ;;      Params:         2       0       0       0       0
  6894 ;;      Locals:         0       5       0       0       0
  6895 ;;      Temps:          2       0       0       0       0
  6896 ;;      Totals:         4       5       0       0       0
  6897 ;;Total ram usage:        9 bytes
  6898 ;; Hardware stack levels used:    1
  6899 ;; Hardware stack levels required when called:    1
  6900 ;; This function calls:
  6901 ;;		Nothing
  6902 ;; This function is called by:
  6903 ;;		___flmul
  6904 ;; This function uses a non-reentrant model
  6905 ;;
  6906                           
  6907                           
  6908                           ;psect for function __Umul8_16
  6909  1402                     __Umul8_16:
  6910                           
  6911                           ;incstack = 0
  6912                           ; Regs used in __Umul8_16: [wreg+status,2+status,0]
  6913                           ;__Umul8_16@multiplier stored from wreg
  6914  1402  1283               	bcf	3,5	;RP0=0, select bank0
  6915  1403  1303               	bcf	3,6	;RP1=0, select bank0
  6916  1404  00A4               	movwf	__Umul8_16@multiplier
  6917  1405                     l3601:
  6918  1405  01A0               	clrf	__Umul8_16@product
  6919  1406  01A1               	clrf	__Umul8_16@product+1
  6920  1407                     l3603:
  6921  1407  0873               	movf	__Umul8_16@multiplicand,w
  6922  1408  00F5               	movwf	??__Umul8_16
  6923  1409  01F6               	clrf	??__Umul8_16+1
  6924  140A  0875               	movf	??__Umul8_16,w
  6925  140B  00A2               	movwf	__Umul8_16@word_mpld
  6926  140C  0876               	movf	??__Umul8_16+1,w
  6927  140D  00A3               	movwf	__Umul8_16@word_mpld+1
  6928  140E                     l3605:
  6929  140E  1C24               	btfss	__Umul8_16@multiplier,0
  6930  140F  2C11               	goto	u5001
  6931  1410  2C12               	goto	u5000
  6932  1411                     u5001:
  6933  1411  2C18               	goto	l869
  6934  1412                     u5000:
  6935  1412                     l3607:
  6936  1412  0822               	movf	__Umul8_16@word_mpld,w
  6937  1413  07A0               	addwf	__Umul8_16@product,f
  6938  1414  1803               	skipnc
  6939  1415  0AA1               	incf	__Umul8_16@product+1,f
  6940  1416  0823               	movf	__Umul8_16@word_mpld+1,w
  6941  1417  07A1               	addwf	__Umul8_16@product+1,f
  6942  1418                     l869:
  6943  1418  3001               	movlw	1
  6944  1419                     u5015:
  6945  1419  1003               	clrc
  6946  141A  0DA2               	rlf	__Umul8_16@word_mpld,f
  6947  141B  0DA3               	rlf	__Umul8_16@word_mpld+1,f
  6948  141C  3EFF               	addlw	-1
  6949  141D  1D03               	skipz
  6950  141E  2C19               	goto	u5015
  6951  141F  1003               	clrc
  6952  1420  0CA4               	rrf	__Umul8_16@multiplier,f
  6953  1421                     l3609:
  6954  1421  0824               	movf	__Umul8_16@multiplier,w
  6955  1422  1D03               	btfss	3,2
  6956  1423  2C25               	goto	u5021
  6957  1424  2C26               	goto	u5020
  6958  1425                     u5021:
  6959  1425  2C0E               	goto	l3605
  6960  1426                     u5020:
  6961  1426                     l3611:
  6962  1426  0821               	movf	__Umul8_16@product+1,w
  6963  1427  00F4               	movwf	?__Umul8_16+1
  6964  1428  0820               	movf	__Umul8_16@product,w
  6965  1429  00F3               	movwf	?__Umul8_16
  6966  142A                     l871:
  6967  142A  0008               	return
  6968  142B                     __end_of__Umul8_16:
  6969                           
  6970                           	psect	text17
  6971  175C                     __ptext17:	
  6972 ;; *************** function ___flge *****************
  6973 ;; Defined at:
  6974 ;;		line 4 in file "C:\Program Files\Microchip\xc8\v2.31\pic\sources\c90\common\flge.c"
  6975 ;; Parameters:    Size  Location     Type
  6976 ;;  ff1             4    0[BANK0 ] unsigned int 
  6977 ;;  ff2             4    4[BANK0 ] unsigned int 
  6978 ;; Auto vars:     Size  Location     Type
  6979 ;;		None
  6980 ;; Return value:  Size  Location     Type
  6981 ;;		None               void
  6982 ;; Registers used:
  6983 ;;		wreg, status,2, status,0
  6984 ;; Tracked objects:
  6985 ;;		On entry : 0/0
  6986 ;;		On exit  : 0/0
  6987 ;;		Unchanged: 0/0
  6988 ;; Data sizes:     COMMON   BANK0   BANK1   BANK3   BANK2
  6989 ;;      Params:         0       8       0       0       0
  6990 ;;      Locals:         0       0       0       0       0
  6991 ;;      Temps:          4       0       0       0       0
  6992 ;;      Totals:         4       8       0       0       0
  6993 ;;Total ram usage:       12 bytes
  6994 ;; Hardware stack levels used:    1
  6995 ;; Hardware stack levels required when called:    1
  6996 ;; This function calls:
  6997 ;;		Nothing
  6998 ;; This function is called by:
  6999 ;;		_floattostr_
  7000 ;;		_main
  7001 ;; This function uses a non-reentrant model
  7002 ;;
  7003                           
  7004                           
  7005                           ;psect for function ___flge
  7006  175C                     ___flge:
  7007  175C                     l3665:	
  7008                           ;incstack = 0
  7009                           ; Regs used in ___flge: [wreg+status,2+status,0]
  7010                           
  7011  175C  3000               	movlw	0
  7012  175D  1283               	bcf	3,5	;RP0=0, select bank0
  7013  175E  1303               	bcf	3,6	;RP1=0, select bank0
  7014  175F  0520               	andwf	___flge@ff1,w
  7015  1760  00F3               	movwf	??___flge
  7016  1761  3000               	movlw	0
  7017  1762  0521               	andwf	___flge@ff1+1,w
  7018  1763  00F4               	movwf	??___flge+1
  7019  1764  3080               	movlw	128
  7020  1765  0522               	andwf	___flge@ff1+2,w
  7021  1766  00F5               	movwf	??___flge+2
  7022  1767  307F               	movlw	127
  7023  1768  0523               	andwf	___flge@ff1+3,w
  7024  1769  00F6               	movwf	??___flge+3
  7025  176A  0876               	movf	??___flge+3,w
  7026  176B  0475               	iorwf	??___flge+2,w
  7027  176C  0474               	iorwf	??___flge+1,w
  7028  176D  0473               	iorwf	??___flge,w
  7029  176E  1D03               	skipz
  7030  176F  2F71               	goto	u5041
  7031  1770  2F72               	goto	u5040
  7032  1771                     u5041:
  7033  1771  2F7A               	goto	l635
  7034  1772                     u5040:
  7035  1772                     l3667:
  7036  1772  3000               	movlw	0
  7037  1773  00A3               	movwf	___flge@ff1+3
  7038  1774  3000               	movlw	0
  7039  1775  00A2               	movwf	___flge@ff1+2
  7040  1776  3000               	movlw	0
  7041  1777  00A1               	movwf	___flge@ff1+1
  7042  1778  3000               	movlw	0
  7043  1779  00A0               	movwf	___flge@ff1
  7044  177A                     l635:
  7045  177A  3000               	movlw	0
  7046  177B  0524               	andwf	___flge@ff2,w
  7047  177C  00F3               	movwf	??___flge
  7048  177D  3000               	movlw	0
  7049  177E  0525               	andwf	___flge@ff2+1,w
  7050  177F  00F4               	movwf	??___flge+1
  7051  1780  3080               	movlw	128
  7052  1781  0526               	andwf	___flge@ff2+2,w
  7053  1782  00F5               	movwf	??___flge+2
  7054  1783  307F               	movlw	127
  7055  1784  0527               	andwf	___flge@ff2+3,w
  7056  1785  00F6               	movwf	??___flge+3
  7057  1786  0876               	movf	??___flge+3,w
  7058  1787  0475               	iorwf	??___flge+2,w
  7059  1788  0474               	iorwf	??___flge+1,w
  7060  1789  0473               	iorwf	??___flge,w
  7061  178A  1D03               	skipz
  7062  178B  2F8D               	goto	u5051
  7063  178C  2F8E               	goto	u5050
  7064  178D                     u5051:
  7065  178D  2F96               	goto	l3671
  7066  178E                     u5050:
  7067  178E                     l3669:
  7068  178E  3000               	movlw	0
  7069  178F  00A7               	movwf	___flge@ff2+3
  7070  1790  3000               	movlw	0
  7071  1791  00A6               	movwf	___flge@ff2+2
  7072  1792  3000               	movlw	0
  7073  1793  00A5               	movwf	___flge@ff2+1
  7074  1794  3000               	movlw	0
  7075  1795  00A4               	movwf	___flge@ff2
  7076  1796                     l3671:
  7077  1796  1FA3               	btfss	___flge@ff1+3,7
  7078  1797  2F99               	goto	u5061
  7079  1798  2F9A               	goto	u5060
  7080  1799                     u5061:
  7081  1799  2FBE               	goto	l3675
  7082  179A                     u5060:
  7083  179A                     l3673:
  7084  179A  3000               	movlw	0
  7085  179B  00F3               	movwf	??___flge
  7086  179C  3000               	movlw	0
  7087  179D  00F4               	movwf	??___flge+1
  7088  179E  3000               	movlw	0
  7089  179F  00F5               	movwf	??___flge+2
  7090  17A0  3080               	movlw	128
  7091  17A1  00F6               	movwf	??___flge+3
  7092  17A2  0820               	movf	___flge@ff1,w
  7093  17A3  02F3               	subwf	??___flge,f
  7094  17A4  0821               	movf	___flge@ff1+1,w
  7095  17A5  1C03               	skipc
  7096  17A6  0F21               	incfsz	___flge@ff1+1,w
  7097  17A7  2FA9               	goto	u5071
  7098  17A8  2FAA               	goto	u5072
  7099  17A9                     u5071:
  7100  17A9  02F4               	subwf	??___flge+1,f
  7101  17AA                     u5072:
  7102  17AA  0822               	movf	___flge@ff1+2,w
  7103  17AB  1C03               	skipc
  7104  17AC  0F22               	incfsz	___flge@ff1+2,w
  7105  17AD  2FAF               	goto	u5073
  7106  17AE  2FB0               	goto	u5074
  7107  17AF                     u5073:
  7108  17AF  02F5               	subwf	??___flge+2,f
  7109  17B0                     u5074:
  7110  17B0  0823               	movf	___flge@ff1+3,w
  7111  17B1  1C03               	skipc
  7112  17B2  0F23               	incfsz	___flge@ff1+3,w
  7113  17B3  2FB5               	goto	u5075
  7114  17B4  2FB6               	goto	u5076
  7115  17B5                     u5075:
  7116  17B5  02F6               	subwf	??___flge+3,f
  7117  17B6                     u5076:
  7118  17B6  0876               	movf	??___flge+3,w
  7119  17B7  00A3               	movwf	___flge@ff1+3
  7120  17B8  0875               	movf	??___flge+2,w
  7121  17B9  00A2               	movwf	___flge@ff1+2
  7122  17BA  0874               	movf	??___flge+1,w
  7123  17BB  00A1               	movwf	___flge@ff1+1
  7124  17BC  0873               	movf	??___flge,w
  7125  17BD  00A0               	movwf	___flge@ff1
  7126  17BE                     l3675:
  7127  17BE  1FA7               	btfss	___flge@ff2+3,7
  7128  17BF  2FC1               	goto	u5081
  7129  17C0  2FC2               	goto	u5080
  7130  17C1                     u5081:
  7131  17C1  2FE6               	goto	l638
  7132  17C2                     u5080:
  7133  17C2                     l3677:
  7134  17C2  3000               	movlw	0
  7135  17C3  00F3               	movwf	??___flge
  7136  17C4  3000               	movlw	0
  7137  17C5  00F4               	movwf	??___flge+1
  7138  17C6  3000               	movlw	0
  7139  17C7  00F5               	movwf	??___flge+2
  7140  17C8  3080               	movlw	128
  7141  17C9  00F6               	movwf	??___flge+3
  7142  17CA  0824               	movf	___flge@ff2,w
  7143  17CB  02F3               	subwf	??___flge,f
  7144  17CC  0825               	movf	___flge@ff2+1,w
  7145  17CD  1C03               	skipc
  7146  17CE  0F25               	incfsz	___flge@ff2+1,w
  7147  17CF  2FD1               	goto	u5091
  7148  17D0  2FD2               	goto	u5092
  7149  17D1                     u5091:
  7150  17D1  02F4               	subwf	??___flge+1,f
  7151  17D2                     u5092:
  7152  17D2  0826               	movf	___flge@ff2+2,w
  7153  17D3  1C03               	skipc
  7154  17D4  0F26               	incfsz	___flge@ff2+2,w
  7155  17D5  2FD7               	goto	u5093
  7156  17D6  2FD8               	goto	u5094
  7157  17D7                     u5093:
  7158  17D7  02F5               	subwf	??___flge+2,f
  7159  17D8                     u5094:
  7160  17D8  0827               	movf	___flge@ff2+3,w
  7161  17D9  1C03               	skipc
  7162  17DA  0F27               	incfsz	___flge@ff2+3,w
  7163  17DB  2FDD               	goto	u5095
  7164  17DC  2FDE               	goto	u5096
  7165  17DD                     u5095:
  7166  17DD  02F6               	subwf	??___flge+3,f
  7167  17DE                     u5096:
  7168  17DE  0876               	movf	??___flge+3,w
  7169  17DF  00A7               	movwf	___flge@ff2+3
  7170  17E0  0875               	movf	??___flge+2,w
  7171  17E1  00A6               	movwf	___flge@ff2+2
  7172  17E2  0874               	movf	??___flge+1,w
  7173  17E3  00A5               	movwf	___flge@ff2+1
  7174  17E4  0873               	movf	??___flge,w
  7175  17E5  00A4               	movwf	___flge@ff2
  7176  17E6                     l638:
  7177  17E6  3080               	movlw	128
  7178  17E7  06A3               	xorwf	___flge@ff1+3,f
  7179  17E8  3080               	movlw	128
  7180  17E9  06A7               	xorwf	___flge@ff2+3,f
  7181  17EA  0827               	movf	___flge@ff2+3,w
  7182  17EB  0223               	subwf	___flge@ff1+3,w
  7183  17EC  1D03               	skipz
  7184  17ED  2FF8               	goto	u5105
  7185  17EE  0826               	movf	___flge@ff2+2,w
  7186  17EF  0222               	subwf	___flge@ff1+2,w
  7187  17F0  1D03               	skipz
  7188  17F1  2FF8               	goto	u5105
  7189  17F2  0825               	movf	___flge@ff2+1,w
  7190  17F3  0221               	subwf	___flge@ff1+1,w
  7191  17F4  1D03               	skipz
  7192  17F5  2FF8               	goto	u5105
  7193  17F6  0824               	movf	___flge@ff2,w
  7194  17F7  0220               	subwf	___flge@ff1,w
  7195  17F8                     u5105:
  7196  17F8  1803               	skipnc
  7197  17F9  2FFB               	goto	u5101
  7198  17FA  2FFC               	goto	u5100
  7199  17FB                     u5101:
  7200  17FB  2FFE               	goto	l3681
  7201  17FC                     u5100:
  7202  17FC                     l3679:
  7203  17FC  1003               	clrc
  7204  17FD  2FFF               	goto	l639
  7205  17FE                     l3681:
  7206  17FE  1403               	setc
  7207  17FF                     l639:
  7208  17FF  0008               	return
  7209  1800                     __end_of___flge:
  7210                           
  7211                           	psect	text18
  7212  08DF                     __ptext18:	
  7213 ;; *************** function ___fldiv *****************
  7214 ;; Defined at:
  7215 ;;		line 8 in file "C:\Program Files\Microchip\xc8\v2.31\pic\sources\c90\common\sprcdiv.c"
  7216 ;; Parameters:    Size  Location     Type
  7217 ;;  a               4    0[BANK0 ] unsigned int 
  7218 ;;  b               4    4[BANK0 ] unsigned int 
  7219 ;; Auto vars:     Size  Location     Type
  7220 ;;  grs             4   15[BANK0 ] unsigned long 
  7221 ;;  rem             4    8[BANK0 ] unsigned long 
  7222 ;;  new_exp         2   13[BANK0 ] int 
  7223 ;;  aexp            1   20[BANK0 ] unsigned char 
  7224 ;;  bexp            1   19[BANK0 ] unsigned char 
  7225 ;;  sign            1   12[BANK0 ] unsigned char 
  7226 ;; Return value:  Size  Location     Type
  7227 ;;                  4    0[BANK0 ] unsigned char 
  7228 ;; Registers used:
  7229 ;;		wreg, status,2, status,0, btemp+1
  7230 ;; Tracked objects:
  7231 ;;		On entry : 0/0
  7232 ;;		On exit  : 0/0
  7233 ;;		Unchanged: 0/0
  7234 ;; Data sizes:     COMMON   BANK0   BANK1   BANK3   BANK2
  7235 ;;      Params:         0       8       0       0       0
  7236 ;;      Locals:         0      13       0       0       0
  7237 ;;      Temps:          5       0       0       0       0
  7238 ;;      Totals:         5      21       0       0       0
  7239 ;;Total ram usage:       26 bytes
  7240 ;; Hardware stack levels used:    1
  7241 ;; Hardware stack levels required when called:    1
  7242 ;; This function calls:
  7243 ;;		Nothing
  7244 ;; This function is called by:
  7245 ;;		_floattostr_
  7246 ;;		_main
  7247 ;; This function uses a non-reentrant model
  7248 ;;
  7249                           
  7250                           
  7251                           ;psect for function ___fldiv
  7252  08DF                     ___fldiv:
  7253  08DF                     l3735:	
  7254                           ;incstack = 0
  7255                           ; Regs used in ___fldiv: [wreg+status,2+status,0+btemp+1]
  7256                           
  7257  08DF  1283               	bcf	3,5	;RP0=0, select bank0
  7258  08E0  1303               	bcf	3,6	;RP1=0, select bank0
  7259  08E1  0827               	movf	___fldiv@b+3,w
  7260  08E2  3980               	andlw	128
  7261  08E3  00F3               	movwf	??___fldiv
  7262  08E4  0873               	movf	??___fldiv,w
  7263  08E5  00AC               	movwf	___fldiv@sign
  7264  08E6                     l3737:
  7265  08E6  0827               	movf	___fldiv@b+3,w
  7266  08E7  00F3               	movwf	??___fldiv
  7267  08E8  0773               	addwf	??___fldiv,w
  7268  08E9  00F4               	movwf	??___fldiv+1
  7269  08EA  0874               	movf	??___fldiv+1,w
  7270  08EB  00B3               	movwf	___fldiv@bexp
  7271  08EC                     l3739:
  7272  08EC  1FA6               	btfss	___fldiv@b+2,7
  7273  08ED  28EF               	goto	u5221
  7274  08EE  28F0               	goto	u5220
  7275  08EF                     u5221:
  7276  08EF  28F1               	goto	l3743
  7277  08F0                     u5220:
  7278  08F0                     l3741:
  7279  08F0  1433               	bsf	___fldiv@bexp,0
  7280  08F1                     l3743:
  7281  08F1  0833               	movf	___fldiv@bexp,w
  7282  08F2  1903               	btfsc	3,2
  7283  08F3  28F5               	goto	u5231
  7284  08F4  28F6               	goto	u5230
  7285  08F5                     u5231:
  7286  08F5  2906               	goto	l3753
  7287  08F6                     u5230:
  7288  08F6                     l3745:
  7289  08F6  0A33               	incf	___fldiv@bexp,w
  7290  08F7  1D03               	btfss	3,2
  7291  08F8  28FA               	goto	u5241
  7292  08F9  28FB               	goto	u5240
  7293  08FA                     u5241:
  7294  08FA  2903               	goto	l3749
  7295  08FB                     u5240:
  7296  08FB                     l3747:
  7297  08FB  3000               	movlw	0
  7298  08FC  00A7               	movwf	___fldiv@b+3
  7299  08FD  3000               	movlw	0
  7300  08FE  00A6               	movwf	___fldiv@b+2
  7301  08FF  3000               	movlw	0
  7302  0900  00A5               	movwf	___fldiv@b+1
  7303  0901  3000               	movlw	0
  7304  0902  00A4               	movwf	___fldiv@b
  7305  0903                     l3749:
  7306  0903  17A6               	bsf	___fldiv@b+2,7
  7307  0904                     l3751:
  7308  0904  01A7               	clrf	___fldiv@b+3
  7309  0905  290E               	goto	l3755
  7310  0906                     l3753:
  7311  0906  3000               	movlw	0
  7312  0907  00A7               	movwf	___fldiv@b+3
  7313  0908  3000               	movlw	0
  7314  0909  00A6               	movwf	___fldiv@b+2
  7315  090A  3000               	movlw	0
  7316  090B  00A5               	movwf	___fldiv@b+1
  7317  090C  3000               	movlw	0
  7318  090D  00A4               	movwf	___fldiv@b
  7319  090E                     l3755:
  7320  090E  0823               	movf	___fldiv@a+3,w
  7321  090F  3980               	andlw	128
  7322  0910  00F3               	movwf	??___fldiv
  7323  0911  0873               	movf	??___fldiv,w
  7324  0912  06AC               	xorwf	___fldiv@sign,f
  7325  0913                     l3757:
  7326  0913  0823               	movf	___fldiv@a+3,w
  7327  0914  00F3               	movwf	??___fldiv
  7328  0915  0773               	addwf	??___fldiv,w
  7329  0916  00F4               	movwf	??___fldiv+1
  7330  0917  0874               	movf	??___fldiv+1,w
  7331  0918  00B4               	movwf	___fldiv@aexp
  7332  0919                     l3759:
  7333  0919  1FA2               	btfss	___fldiv@a+2,7
  7334  091A  291C               	goto	u5251
  7335  091B  291D               	goto	u5250
  7336  091C                     u5251:
  7337  091C  291E               	goto	l3763
  7338  091D                     u5250:
  7339  091D                     l3761:
  7340  091D  1434               	bsf	___fldiv@aexp,0
  7341  091E                     l3763:
  7342  091E  0834               	movf	___fldiv@aexp,w
  7343  091F  1903               	btfsc	3,2
  7344  0920  2922               	goto	u5261
  7345  0921  2923               	goto	u5260
  7346  0922                     u5261:
  7347  0922  2933               	goto	l3773
  7348  0923                     u5260:
  7349  0923                     l3765:
  7350  0923  0A34               	incf	___fldiv@aexp,w
  7351  0924  1D03               	btfss	3,2
  7352  0925  2927               	goto	u5271
  7353  0926  2928               	goto	u5270
  7354  0927                     u5271:
  7355  0927  2930               	goto	l3769
  7356  0928                     u5270:
  7357  0928                     l3767:
  7358  0928  3000               	movlw	0
  7359  0929  00A3               	movwf	___fldiv@a+3
  7360  092A  3000               	movlw	0
  7361  092B  00A2               	movwf	___fldiv@a+2
  7362  092C  3000               	movlw	0
  7363  092D  00A1               	movwf	___fldiv@a+1
  7364  092E  3000               	movlw	0
  7365  092F  00A0               	movwf	___fldiv@a
  7366  0930                     l3769:
  7367  0930  17A2               	bsf	___fldiv@a+2,7
  7368  0931                     l3771:
  7369  0931  01A3               	clrf	___fldiv@a+3
  7370  0932  293B               	goto	l810
  7371  0933                     l3773:
  7372  0933  3000               	movlw	0
  7373  0934  00A3               	movwf	___fldiv@a+3
  7374  0935  3000               	movlw	0
  7375  0936  00A2               	movwf	___fldiv@a+2
  7376  0937  3000               	movlw	0
  7377  0938  00A1               	movwf	___fldiv@a+1
  7378  0939  3000               	movlw	0
  7379  093A  00A0               	movwf	___fldiv@a
  7380  093B                     l810:
  7381  093B  0823               	movf	___fldiv@a+3,w
  7382  093C  0422               	iorwf	___fldiv@a+2,w
  7383  093D  0421               	iorwf	___fldiv@a+1,w
  7384  093E  0420               	iorwf	___fldiv@a,w
  7385  093F  1D03               	skipz
  7386  0940  2942               	goto	u5281
  7387  0941  2943               	goto	u5280
  7388  0942                     u5281:
  7389  0942  295C               	goto	l3783
  7390  0943                     u5280:
  7391  0943                     l3775:
  7392  0943  3000               	movlw	0
  7393  0944  00A7               	movwf	___fldiv@b+3
  7394  0945  3000               	movlw	0
  7395  0946  00A6               	movwf	___fldiv@b+2
  7396  0947  3000               	movlw	0
  7397  0948  00A5               	movwf	___fldiv@b+1
  7398  0949  3000               	movlw	0
  7399  094A  00A4               	movwf	___fldiv@b
  7400  094B  3080               	movlw	128
  7401  094C  04A6               	iorwf	___fldiv@b+2,f
  7402  094D  307F               	movlw	127
  7403  094E  04A7               	iorwf	___fldiv@b+3,f
  7404  094F                     l3777:
  7405  094F  082C               	movf	___fldiv@sign,w
  7406  0950  00F3               	movwf	??___fldiv
  7407  0951  0873               	movf	??___fldiv,w
  7408  0952  04A7               	iorwf	___fldiv@b+3,f
  7409  0953                     l3779:
  7410  0953  0827               	movf	___fldiv@b+3,w
  7411  0954  00A3               	movwf	?___fldiv+3
  7412  0955  0826               	movf	___fldiv@b+2,w
  7413  0956  00A2               	movwf	?___fldiv+2
  7414  0957  0825               	movf	___fldiv@b+1,w
  7415  0958  00A1               	movwf	?___fldiv+1
  7416  0959  0824               	movf	___fldiv@b,w
  7417  095A  00A0               	movwf	?___fldiv
  7418  095B  2ABB               	goto	l812
  7419  095C                     l3783:
  7420  095C  0833               	movf	___fldiv@bexp,w
  7421  095D  1D03               	btfss	3,2
  7422  095E  2960               	goto	u5291
  7423  095F  2961               	goto	u5290
  7424  0960                     u5291:
  7425  0960  296A               	goto	l3789
  7426  0961                     u5290:
  7427  0961                     l3785:
  7428  0961  3000               	movlw	0
  7429  0962  00A3               	movwf	?___fldiv+3
  7430  0963  3000               	movlw	0
  7431  0964  00A2               	movwf	?___fldiv+2
  7432  0965  3000               	movlw	0
  7433  0966  00A1               	movwf	?___fldiv+1
  7434  0967  3000               	movlw	0
  7435  0968  00A0               	movwf	?___fldiv
  7436  0969  2ABB               	goto	l812
  7437  096A                     l3789:
  7438  096A  0833               	movf	___fldiv@bexp,w
  7439  096B  00F3               	movwf	??___fldiv
  7440  096C  01F4               	clrf	??___fldiv+1
  7441  096D  0874               	movf	??___fldiv+1,w
  7442  096E  00F6               	movwf	??___fldiv+3
  7443  096F  0834               	movf	___fldiv@aexp,w
  7444  0970  0273               	subwf	??___fldiv,w
  7445  0971  00F5               	movwf	??___fldiv+2
  7446  0972  1C03               	skipc
  7447  0973  03F6               	decf	??___fldiv+3,f
  7448  0974  0875               	movf	??___fldiv+2,w
  7449  0975  3E7F               	addlw	127
  7450  0976  00AD               	movwf	___fldiv@new_exp
  7451  0977  0876               	movf	??___fldiv+3,w
  7452  0978  1803               	skipnc
  7453  0979  3E01               	addlw	1
  7454  097A  3E00               	addlw	0
  7455  097B  00AE               	movwf	___fldiv@new_exp+1
  7456  097C                     l3791:
  7457  097C  0827               	movf	___fldiv@b+3,w
  7458  097D  00AB               	movwf	___fldiv@rem+3
  7459  097E  0826               	movf	___fldiv@b+2,w
  7460  097F  00AA               	movwf	___fldiv@rem+2
  7461  0980  0825               	movf	___fldiv@b+1,w
  7462  0981  00A9               	movwf	___fldiv@rem+1
  7463  0982  0824               	movf	___fldiv@b,w
  7464  0983  00A8               	movwf	___fldiv@rem
  7465  0984                     l3793:
  7466  0984  3000               	movlw	0
  7467  0985  00A7               	movwf	___fldiv@b+3
  7468  0986  3000               	movlw	0
  7469  0987  00A6               	movwf	___fldiv@b+2
  7470  0988  3000               	movlw	0
  7471  0989  00A5               	movwf	___fldiv@b+1
  7472  098A  3000               	movlw	0
  7473  098B  00A4               	movwf	___fldiv@b
  7474  098C                     l3795:
  7475  098C  3000               	movlw	0
  7476  098D  00B2               	movwf	___fldiv@grs+3
  7477  098E  3000               	movlw	0
  7478  098F  00B1               	movwf	___fldiv@grs+2
  7479  0990  3000               	movlw	0
  7480  0991  00B0               	movwf	___fldiv@grs+1
  7481  0992  3000               	movlw	0
  7482  0993  00AF               	movwf	___fldiv@grs
  7483  0994                     l3797:
  7484  0994  01B4               	clrf	___fldiv@aexp
  7485  0995  29E0               	goto	l3817
  7486  0996                     l3799:
  7487  0996  0834               	movf	___fldiv@aexp,w
  7488  0997  1903               	btfsc	3,2
  7489  0998  299A               	goto	u5301
  7490  0999  299B               	goto	u5300
  7491  099A                     u5301:
  7492  099A  29BB               	goto	l3809
  7493  099B                     u5300:
  7494  099B                     l3801:
  7495  099B  3001               	movlw	1
  7496  099C  00F3               	movwf	??___fldiv
  7497  099D                     u5315:
  7498  099D  1003               	clrc
  7499  099E  0DA8               	rlf	___fldiv@rem,f
  7500  099F  0DA9               	rlf	___fldiv@rem+1,f
  7501  09A0  0DAA               	rlf	___fldiv@rem+2,f
  7502  09A1  0DAB               	rlf	___fldiv@rem+3,f
  7503  09A2  0BF3               	decfsz	??___fldiv,f
  7504  09A3  299D               	goto	u5315
  7505  09A4  3001               	movlw	1
  7506  09A5  00F3               	movwf	??___fldiv
  7507  09A6                     u5325:
  7508  09A6  1003               	clrc
  7509  09A7  0DA4               	rlf	___fldiv@b,f
  7510  09A8  0DA5               	rlf	___fldiv@b+1,f
  7511  09A9  0DA6               	rlf	___fldiv@b+2,f
  7512  09AA  0DA7               	rlf	___fldiv@b+3,f
  7513  09AB  0BF3               	decfsz	??___fldiv,f
  7514  09AC  29A6               	goto	u5325
  7515  09AD                     l3803:
  7516  09AD  1FB2               	btfss	___fldiv@grs+3,7
  7517  09AE  29B0               	goto	u5331
  7518  09AF  29B1               	goto	u5330
  7519  09B0                     u5331:
  7520  09B0  29B2               	goto	l3807
  7521  09B1                     u5330:
  7522  09B1                     l3805:
  7523  09B1  1424               	bsf	___fldiv@b,0
  7524  09B2                     l3807:
  7525  09B2  3001               	movlw	1
  7526  09B3  00F3               	movwf	??___fldiv
  7527  09B4                     u5345:
  7528  09B4  1003               	clrc
  7529  09B5  0DAF               	rlf	___fldiv@grs,f
  7530  09B6  0DB0               	rlf	___fldiv@grs+1,f
  7531  09B7  0DB1               	rlf	___fldiv@grs+2,f
  7532  09B8  0DB2               	rlf	___fldiv@grs+3,f
  7533  09B9  0BF3               	decfsz	??___fldiv,f
  7534  09BA  29B4               	goto	u5345
  7535  09BB                     l3809:
  7536  09BB  0823               	movf	___fldiv@a+3,w
  7537  09BC  022B               	subwf	___fldiv@rem+3,w
  7538  09BD  1D03               	skipz
  7539  09BE  29C9               	goto	u5355
  7540  09BF  0822               	movf	___fldiv@a+2,w
  7541  09C0  022A               	subwf	___fldiv@rem+2,w
  7542  09C1  1D03               	skipz
  7543  09C2  29C9               	goto	u5355
  7544  09C3  0821               	movf	___fldiv@a+1,w
  7545  09C4  0229               	subwf	___fldiv@rem+1,w
  7546  09C5  1D03               	skipz
  7547  09C6  29C9               	goto	u5355
  7548  09C7  0820               	movf	___fldiv@a,w
  7549  09C8  0228               	subwf	___fldiv@rem,w
  7550  09C9                     u5355:
  7551  09C9  1C03               	skipc
  7552  09CA  29CC               	goto	u5351
  7553  09CB  29CD               	goto	u5350
  7554  09CC                     u5351:
  7555  09CC  29DC               	goto	l3815
  7556  09CD                     u5350:
  7557  09CD                     l3811:
  7558  09CD  1732               	bsf	___fldiv@grs+3,6
  7559  09CE                     l3813:
  7560  09CE  0820               	movf	___fldiv@a,w
  7561  09CF  02A8               	subwf	___fldiv@rem,f
  7562  09D0  0821               	movf	___fldiv@a+1,w
  7563  09D1  1C03               	skipc
  7564  09D2  0F21               	incfsz	___fldiv@a+1,w
  7565  09D3  02A9               	subwf	___fldiv@rem+1,f
  7566  09D4  0822               	movf	___fldiv@a+2,w
  7567  09D5  1C03               	skipc
  7568  09D6  0F22               	incfsz	___fldiv@a+2,w
  7569  09D7  02AA               	subwf	___fldiv@rem+2,f
  7570  09D8  0823               	movf	___fldiv@a+3,w
  7571  09D9  1C03               	skipc
  7572  09DA  0F23               	incfsz	___fldiv@a+3,w
  7573  09DB  02AB               	subwf	___fldiv@rem+3,f
  7574  09DC                     l3815:
  7575  09DC  3001               	movlw	1
  7576  09DD  00F3               	movwf	??___fldiv
  7577  09DE  0873               	movf	??___fldiv,w
  7578  09DF  07B4               	addwf	___fldiv@aexp,f
  7579  09E0                     l3817:
  7580  09E0  301A               	movlw	26
  7581  09E1  0234               	subwf	___fldiv@aexp,w
  7582  09E2  1C03               	skipc
  7583  09E3  29E5               	goto	u5361
  7584  09E4  29E6               	goto	u5360
  7585  09E5                     u5361:
  7586  09E5  2996               	goto	l3799
  7587  09E6                     u5360:
  7588  09E6                     l3819:
  7589  09E6  082B               	movf	___fldiv@rem+3,w
  7590  09E7  042A               	iorwf	___fldiv@rem+2,w
  7591  09E8  0429               	iorwf	___fldiv@rem+1,w
  7592  09E9  0428               	iorwf	___fldiv@rem,w
  7593  09EA  1903               	skipnz
  7594  09EB  29ED               	goto	u5371
  7595  09EC  29EE               	goto	u5370
  7596  09ED                     u5371:
  7597  09ED  2A0D               	goto	l3833
  7598  09EE                     u5370:
  7599  09EE                     l3821:
  7600  09EE  142F               	bsf	___fldiv@grs,0
  7601  09EF  2A0D               	goto	l3833
  7602  09F0                     l3823:
  7603  09F0  3001               	movlw	1
  7604  09F1  00F3               	movwf	??___fldiv
  7605  09F2                     u5385:
  7606  09F2  1003               	clrc
  7607  09F3  0DA4               	rlf	___fldiv@b,f
  7608  09F4  0DA5               	rlf	___fldiv@b+1,f
  7609  09F5  0DA6               	rlf	___fldiv@b+2,f
  7610  09F6  0DA7               	rlf	___fldiv@b+3,f
  7611  09F7  0BF3               	decfsz	??___fldiv,f
  7612  09F8  29F2               	goto	u5385
  7613  09F9                     l3825:
  7614  09F9  1FB2               	btfss	___fldiv@grs+3,7
  7615  09FA  29FC               	goto	u5391
  7616  09FB  29FD               	goto	u5390
  7617  09FC                     u5391:
  7618  09FC  29FE               	goto	l3829
  7619  09FD                     u5390:
  7620  09FD                     l3827:
  7621  09FD  1424               	bsf	___fldiv@b,0
  7622  09FE                     l3829:
  7623  09FE  3001               	movlw	1
  7624  09FF  00F3               	movwf	??___fldiv
  7625  0A00                     u5405:
  7626  0A00  1003               	clrc
  7627  0A01  0DAF               	rlf	___fldiv@grs,f
  7628  0A02  0DB0               	rlf	___fldiv@grs+1,f
  7629  0A03  0DB1               	rlf	___fldiv@grs+2,f
  7630  0A04  0DB2               	rlf	___fldiv@grs+3,f
  7631  0A05  0BF3               	decfsz	??___fldiv,f
  7632  0A06  2A00               	goto	u5405
  7633  0A07                     l3831:
  7634  0A07  30FF               	movlw	255
  7635  0A08  07AD               	addwf	___fldiv@new_exp,f
  7636  0A09  1803               	skipnc
  7637  0A0A  0AAE               	incf	___fldiv@new_exp+1,f
  7638  0A0B  30FF               	movlw	255
  7639  0A0C  07AE               	addwf	___fldiv@new_exp+1,f
  7640  0A0D                     l3833:
  7641  0A0D  1FA6               	btfss	___fldiv@b+2,7
  7642  0A0E  2A10               	goto	u5411
  7643  0A0F  2A11               	goto	u5410
  7644  0A10                     u5411:
  7645  0A10  29F0               	goto	l3823
  7646  0A11                     u5410:
  7647  0A11                     l3835:
  7648  0A11  01B4               	clrf	___fldiv@aexp
  7649  0A12                     l3837:
  7650  0A12  1FB2               	btfss	___fldiv@grs+3,7
  7651  0A13  2A15               	goto	u5421
  7652  0A14  2A16               	goto	u5420
  7653  0A15                     u5421:
  7654  0A15  2A32               	goto	l3845
  7655  0A16                     u5420:
  7656  0A16                     l3839:
  7657  0A16  30FF               	movlw	255
  7658  0A17  052F               	andwf	___fldiv@grs,w
  7659  0A18  00F3               	movwf	??___fldiv
  7660  0A19  30FF               	movlw	255
  7661  0A1A  0530               	andwf	___fldiv@grs+1,w
  7662  0A1B  00F4               	movwf	??___fldiv+1
  7663  0A1C  30FF               	movlw	255
  7664  0A1D  0531               	andwf	___fldiv@grs+2,w
  7665  0A1E  00F5               	movwf	??___fldiv+2
  7666  0A1F  307F               	movlw	127
  7667  0A20  0532               	andwf	___fldiv@grs+3,w
  7668  0A21  00F6               	movwf	??___fldiv+3
  7669  0A22  0876               	movf	??___fldiv+3,w
  7670  0A23  0475               	iorwf	??___fldiv+2,w
  7671  0A24  0474               	iorwf	??___fldiv+1,w
  7672  0A25  0473               	iorwf	??___fldiv,w
  7673  0A26  1903               	skipnz
  7674  0A27  2A29               	goto	u5431
  7675  0A28  2A2A               	goto	u5430
  7676  0A29                     u5431:
  7677  0A29  2A2D               	goto	l826
  7678  0A2A                     u5430:
  7679  0A2A                     l3841:
  7680  0A2A  01B4               	clrf	___fldiv@aexp
  7681  0A2B  0AB4               	incf	___fldiv@aexp,f
  7682  0A2C  2A32               	goto	l3845
  7683  0A2D                     l826:
  7684  0A2D  1C24               	btfss	___fldiv@b,0
  7685  0A2E  2A30               	goto	u5441
  7686  0A2F  2A31               	goto	u5440
  7687  0A30                     u5441:
  7688  0A30  2A32               	goto	l3845
  7689  0A31                     u5440:
  7690  0A31  2A2A               	goto	l3841
  7691  0A32                     l3845:
  7692  0A32  0834               	movf	___fldiv@aexp,w
  7693  0A33  1903               	btfsc	3,2
  7694  0A34  2A36               	goto	u5451
  7695  0A35  2A37               	goto	u5450
  7696  0A36                     u5451:
  7697  0A36  2A68               	goto	l3855
  7698  0A37                     u5450:
  7699  0A37                     l3847:
  7700  0A37  3001               	movlw	1
  7701  0A38  07A4               	addwf	___fldiv@b,f
  7702  0A39  3000               	movlw	0
  7703  0A3A  1803               	skipnc
  7704  0A3B  3001               	movlw	1
  7705  0A3C  07A5               	addwf	___fldiv@b+1,f
  7706  0A3D  3000               	movlw	0
  7707  0A3E  1803               	skipnc
  7708  0A3F  3001               	movlw	1
  7709  0A40  07A6               	addwf	___fldiv@b+2,f
  7710  0A41  3000               	movlw	0
  7711  0A42  1803               	skipnc
  7712  0A43  3001               	movlw	1
  7713  0A44  07A7               	addwf	___fldiv@b+3,f
  7714  0A45                     l3849:
  7715  0A45  1C27               	btfss	___fldiv@b+3,0
  7716  0A46  2A48               	goto	u5461
  7717  0A47  2A49               	goto	u5460
  7718  0A48                     u5461:
  7719  0A48  2A68               	goto	l3855
  7720  0A49                     u5460:
  7721  0A49                     l3851:
  7722  0A49  0824               	movf	___fldiv@b,w
  7723  0A4A  00F3               	movwf	??___fldiv
  7724  0A4B  0825               	movf	___fldiv@b+1,w
  7725  0A4C  00F4               	movwf	??___fldiv+1
  7726  0A4D  0826               	movf	___fldiv@b+2,w
  7727  0A4E  00F5               	movwf	??___fldiv+2
  7728  0A4F  0827               	movf	___fldiv@b+3,w
  7729  0A50  00F6               	movwf	??___fldiv+3
  7730  0A51  3001               	movlw	1
  7731  0A52  00F7               	movwf	??___fldiv+4
  7732  0A53                     u5475:
  7733  0A53  0D76               	rlf	??___fldiv+3,w
  7734  0A54  0CF6               	rrf	??___fldiv+3,f
  7735  0A55  0CF5               	rrf	??___fldiv+2,f
  7736  0A56  0CF4               	rrf	??___fldiv+1,f
  7737  0A57  0CF3               	rrf	??___fldiv,f
  7738  0A58                     u5470:
  7739  0A58  0BF7               	decfsz	??___fldiv+4,f
  7740  0A59  2A53               	goto	u5475
  7741  0A5A  0876               	movf	??___fldiv+3,w
  7742  0A5B  00A7               	movwf	___fldiv@b+3
  7743  0A5C  0875               	movf	??___fldiv+2,w
  7744  0A5D  00A6               	movwf	___fldiv@b+2
  7745  0A5E  0874               	movf	??___fldiv+1,w
  7746  0A5F  00A5               	movwf	___fldiv@b+1
  7747  0A60  0873               	movf	??___fldiv,w
  7748  0A61  00A4               	movwf	___fldiv@b
  7749  0A62                     l3853:
  7750  0A62  3001               	movlw	1
  7751  0A63  07AD               	addwf	___fldiv@new_exp,f
  7752  0A64  1803               	skipnc
  7753  0A65  0AAE               	incf	___fldiv@new_exp+1,f
  7754  0A66  3000               	movlw	0
  7755  0A67  07AE               	addwf	___fldiv@new_exp+1,f
  7756  0A68                     l3855:
  7757  0A68  082E               	movf	___fldiv@new_exp+1,w
  7758  0A69  3A80               	xorlw	128
  7759  0A6A  00FF               	movwf	btemp+1
  7760  0A6B  3080               	movlw	128
  7761  0A6C  027F               	subwf	btemp+1,w
  7762  0A6D  1D03               	skipz
  7763  0A6E  2A71               	goto	u5485
  7764  0A6F  30FF               	movlw	255
  7765  0A70  022D               	subwf	___fldiv@new_exp,w
  7766  0A71                     u5485:
  7767  0A71  1C03               	skipc
  7768  0A72  2A74               	goto	u5481
  7769  0A73  2A75               	goto	u5480
  7770  0A74                     u5481:
  7771  0A74  2A83               	goto	l3859
  7772  0A75                     u5480:
  7773  0A75                     l3857:
  7774  0A75  30FF               	movlw	255
  7775  0A76  1283               	bcf	3,5	;RP0=0, select bank0
  7776  0A77  1303               	bcf	3,6	;RP1=0, select bank0
  7777  0A78  00AD               	movwf	___fldiv@new_exp
  7778  0A79  3000               	movlw	0
  7779  0A7A  00AE               	movwf	___fldiv@new_exp+1
  7780  0A7B  3000               	movlw	0
  7781  0A7C  00A7               	movwf	___fldiv@b+3
  7782  0A7D  3000               	movlw	0
  7783  0A7E  00A6               	movwf	___fldiv@b+2
  7784  0A7F  3000               	movlw	0
  7785  0A80  00A5               	movwf	___fldiv@b+1
  7786  0A81  3000               	movlw	0
  7787  0A82  00A4               	movwf	___fldiv@b
  7788  0A83                     l3859:
  7789  0A83  1283               	bcf	3,5	;RP0=0, select bank0
  7790  0A84  1303               	bcf	3,6	;RP1=0, select bank0
  7791  0A85  082E               	movf	___fldiv@new_exp+1,w
  7792  0A86  3A80               	xorlw	128
  7793  0A87  00FF               	movwf	btemp+1
  7794  0A88  3080               	movlw	128
  7795  0A89  027F               	subwf	btemp+1,w
  7796  0A8A  1D03               	skipz
  7797  0A8B  2A8E               	goto	u5495
  7798  0A8C  3001               	movlw	1
  7799  0A8D  022D               	subwf	___fldiv@new_exp,w
  7800  0A8E                     u5495:
  7801  0A8E  1803               	skipnc
  7802  0A8F  2A91               	goto	u5491
  7803  0A90  2A92               	goto	u5490
  7804  0A91                     u5491:
  7805  0A91  2A9F               	goto	l832
  7806  0A92                     u5490:
  7807  0A92                     l3861:
  7808  0A92  1283               	bcf	3,5	;RP0=0, select bank0
  7809  0A93  1303               	bcf	3,6	;RP1=0, select bank0
  7810  0A94  01AD               	clrf	___fldiv@new_exp
  7811  0A95  01AE               	clrf	___fldiv@new_exp+1
  7812  0A96                     l3863:
  7813  0A96  3000               	movlw	0
  7814  0A97  00A7               	movwf	___fldiv@b+3
  7815  0A98  3000               	movlw	0
  7816  0A99  00A6               	movwf	___fldiv@b+2
  7817  0A9A  3000               	movlw	0
  7818  0A9B  00A5               	movwf	___fldiv@b+1
  7819  0A9C  3000               	movlw	0
  7820  0A9D  00A4               	movwf	___fldiv@b
  7821  0A9E                     l3865:
  7822  0A9E  01AC               	clrf	___fldiv@sign
  7823  0A9F                     l832:
  7824  0A9F  1283               	bcf	3,5	;RP0=0, select bank0
  7825  0AA0  1303               	bcf	3,6	;RP1=0, select bank0
  7826  0AA1  082D               	movf	___fldiv@new_exp,w
  7827  0AA2  00F3               	movwf	??___fldiv
  7828  0AA3  0873               	movf	??___fldiv,w
  7829  0AA4  00B3               	movwf	___fldiv@bexp
  7830  0AA5                     l3867:
  7831  0AA5  1C33               	btfss	___fldiv@bexp,0
  7832  0AA6  2AA8               	goto	u5501
  7833  0AA7  2AA9               	goto	u5500
  7834  0AA8                     u5501:
  7835  0AA8  2AAB               	goto	l3871
  7836  0AA9                     u5500:
  7837  0AA9                     l3869:
  7838  0AA9  17A6               	bsf	___fldiv@b+2,7
  7839  0AAA  2AAF               	goto	l834
  7840  0AAB                     l3871:
  7841  0AAB  307F               	movlw	127
  7842  0AAC  00F3               	movwf	??___fldiv
  7843  0AAD  0873               	movf	??___fldiv,w
  7844  0AAE  05A6               	andwf	___fldiv@b+2,f
  7845  0AAF                     l834:
  7846  0AAF  0833               	movf	___fldiv@bexp,w
  7847  0AB0  00F3               	movwf	??___fldiv
  7848  0AB1  1003               	clrc
  7849  0AB2  0C73               	rrf	??___fldiv,w
  7850  0AB3  00F4               	movwf	??___fldiv+1
  7851  0AB4  0874               	movf	??___fldiv+1,w
  7852  0AB5  00A7               	movwf	___fldiv@b+3
  7853  0AB6  082C               	movf	___fldiv@sign,w
  7854  0AB7  00F3               	movwf	??___fldiv
  7855  0AB8  0873               	movf	??___fldiv,w
  7856  0AB9  04A7               	iorwf	___fldiv@b+3,f
  7857  0ABA  2953               	goto	l3779
  7858  0ABB                     l812:
  7859  0ABB  0008               	return
  7860  0ABC                     __end_of___fldiv:
  7861                           
  7862                           	psect	text19
  7863  148C                     __ptext19:	
  7864 ;; *************** function _Lcd_Write_String *****************
  7865 ;; Defined at:
  7866 ;;		line 66 in file "LCDP1.c"
  7867 ;; Parameters:    Size  Location     Type
  7868 ;;  a               2    6[COMMON] PTR unsigned char 
  7869 ;;		 -> tarart(25), STR_2(6), texto(25), STR_1(5), 
  7870 ;;		 -> offsett(25), 
  7871 ;; Auto vars:     Size  Location     Type
  7872 ;;  i               2    3[BANK0 ] int 
  7873 ;; Return value:  Size  Location     Type
  7874 ;;                  1    wreg      void 
  7875 ;; Registers used:
  7876 ;;		wreg, fsr0l, fsr0h, status,2, status,0, btemp+1, pclath, cstack
  7877 ;; Tracked objects:
  7878 ;;		On entry : 0/0
  7879 ;;		On exit  : 0/0
  7880 ;;		Unchanged: 0/0
  7881 ;; Data sizes:     COMMON   BANK0   BANK1   BANK3   BANK2
  7882 ;;      Params:         2       0       0       0       0
  7883 ;;      Locals:         0       2       0       0       0
  7884 ;;      Temps:          0       3       0       0       0
  7885 ;;      Totals:         2       5       0       0       0
  7886 ;;Total ram usage:        7 bytes
  7887 ;; Hardware stack levels used:    1
  7888 ;; Hardware stack levels required when called:    3
  7889 ;; This function calls:
  7890 ;;		_Lcd_Write_Char
  7891 ;; This function is called by:
  7892 ;;		_main
  7893 ;; This function uses a non-reentrant model
  7894 ;;
  7895                           
  7896                           
  7897                           ;psect for function _Lcd_Write_String
  7898  148C                     _Lcd_Write_String:
  7899  148C                     l4253:	
  7900                           ;incstack = 0
  7901                           ; Regs used in _Lcd_Write_String: [wreg-fsr0h+status,2+status,0+btemp+1+pclath+cstack]
  7902                           
  7903                           
  7904                           ;LCDP1.c: 67:     int i;;LCDP1.c: 68:     for (i = 0; a[i] != '\0'; i++)
  7905  148C  1283               	bcf	3,5	;RP0=0, select bank0
  7906  148D  1303               	bcf	3,6	;RP1=0, select bank0
  7907  148E  01A3               	clrf	Lcd_Write_String@i
  7908  148F  01A4               	clrf	Lcd_Write_String@i+1
  7909  1490  2CB5               	goto	l4259
  7910  1491                     l4255:
  7911                           
  7912                           ;LCDP1.c: 69:         Lcd_Write_Char(a[i]);
  7913  1491  0823               	movf	Lcd_Write_String@i,w
  7914  1492  0776               	addwf	Lcd_Write_String@a,w
  7915  1493  00A1               	movwf	??_Lcd_Write_String+1
  7916  1494  0877               	movf	Lcd_Write_String@a+1,w
  7917  1495  00A0               	movwf	??_Lcd_Write_String
  7918  1496  1803               	skipnc
  7919  1497  0AA0               	incf	??_Lcd_Write_String,f
  7920  1498  1FA3               	btfss	Lcd_Write_String@i,7
  7921  1499  2C9B               	goto	u6160
  7922  149A  03A0               	decf	??_Lcd_Write_String,f
  7923  149B                     u6160:
  7924  149B  1283               	bcf	3,5	;RP0=0, select bank0
  7925  149C  1303               	bcf	3,6	;RP1=0, select bank0
  7926  149D  0820               	movf	??_Lcd_Write_String,w
  7927  149E  00A2               	movwf	??_Lcd_Write_String+2
  7928  149F  0822               	movf	??_Lcd_Write_String+2,w
  7929  14A0  00FF               	movwf	btemp+1
  7930  14A1  0821               	movf	??_Lcd_Write_String+1,w
  7931  14A2  0084               	movwf	4
  7932  14A3  160A  118A  2000  160A  118A  	fcall	stringtab
  7933  14A8  160A  118A  2348  160A  118A  	fcall	_Lcd_Write_Char
  7934  14AD                     l4257:
  7935  14AD  3001               	movlw	1
  7936  14AE  1283               	bcf	3,5	;RP0=0, select bank0
  7937  14AF  1303               	bcf	3,6	;RP1=0, select bank0
  7938  14B0  07A3               	addwf	Lcd_Write_String@i,f
  7939  14B1  1803               	skipnc
  7940  14B2  0AA4               	incf	Lcd_Write_String@i+1,f
  7941  14B3  3000               	movlw	0
  7942  14B4  07A4               	addwf	Lcd_Write_String@i+1,f
  7943  14B5                     l4259:
  7944  14B5  0823               	movf	Lcd_Write_String@i,w
  7945  14B6  0776               	addwf	Lcd_Write_String@a,w
  7946  14B7  00A1               	movwf	??_Lcd_Write_String+1
  7947  14B8  0877               	movf	Lcd_Write_String@a+1,w
  7948  14B9  00A0               	movwf	??_Lcd_Write_String
  7949  14BA  1803               	skipnc
  7950  14BB  0AA0               	incf	??_Lcd_Write_String,f
  7951  14BC  1FA3               	btfss	Lcd_Write_String@i,7
  7952  14BD  2CBF               	goto	u6170
  7953  14BE  03A0               	decf	??_Lcd_Write_String,f
  7954  14BF                     u6170:
  7955  14BF  1283               	bcf	3,5	;RP0=0, select bank0
  7956  14C0  1303               	bcf	3,6	;RP1=0, select bank0
  7957  14C1  0820               	movf	??_Lcd_Write_String,w
  7958  14C2  00A2               	movwf	??_Lcd_Write_String+2
  7959  14C3  0822               	movf	??_Lcd_Write_String+2,w
  7960  14C4  00FF               	movwf	btemp+1
  7961  14C5  0821               	movf	??_Lcd_Write_String+1,w
  7962  14C6  0084               	movwf	4
  7963  14C7  160A  118A  2000  160A  118A  	fcall	stringtab
  7964  14CC  3A00               	xorlw	0
  7965  14CD  1D03               	skipz
  7966  14CE  2CD0               	goto	u6181
  7967  14CF  2CD1               	goto	u6180
  7968  14D0                     u6181:
  7969  14D0  2C91               	goto	l4255
  7970  14D1                     u6180:
  7971  14D1                     l268:
  7972  14D1  0008               	return
  7973  14D2                     __end_of_Lcd_Write_String:
  7974                           
  7975                           	psect	text20
  7976  1348                     __ptext20:	
  7977 ;; *************** function _Lcd_Write_Char *****************
  7978 ;; Defined at:
  7979 ;;		line 58 in file "LCDP1.c"
  7980 ;; Parameters:    Size  Location     Type
  7981 ;;  a               1    wreg     unsigned char 
  7982 ;; Auto vars:     Size  Location     Type
  7983 ;;  a               1    5[COMMON] unsigned char 
  7984 ;; Return value:  Size  Location     Type
  7985 ;;                  1    wreg      void 
  7986 ;; Registers used:
  7987 ;;		wreg, status,2, status,0, pclath, cstack
  7988 ;; Tracked objects:
  7989 ;;		On entry : 0/0
  7990 ;;		On exit  : 0/0
  7991 ;;		Unchanged: 0/0
  7992 ;; Data sizes:     COMMON   BANK0   BANK1   BANK3   BANK2
  7993 ;;      Params:         0       0       0       0       0
  7994 ;;      Locals:         1       0       0       0       0
  7995 ;;      Temps:          1       0       0       0       0
  7996 ;;      Totals:         2       0       0       0       0
  7997 ;;Total ram usage:        2 bytes
  7998 ;; Hardware stack levels used:    1
  7999 ;; Hardware stack levels required when called:    2
  8000 ;; This function calls:
  8001 ;;		_Lcd_Port
  8002 ;; This function is called by:
  8003 ;;		_Lcd_Write_String
  8004 ;; This function uses a non-reentrant model
  8005 ;;
  8006                           
  8007                           
  8008                           ;psect for function _Lcd_Write_Char
  8009  1348                     _Lcd_Write_Char:
  8010                           
  8011                           ;incstack = 0
  8012                           ; Regs used in _Lcd_Write_Char: [wreg+status,2+status,0+pclath+cstack]
  8013                           ;Lcd_Write_Char@a stored from wreg
  8014  1348  00F5               	movwf	Lcd_Write_Char@a
  8015  1349                     l3655:
  8016                           
  8017                           ;LCDP1.c: 59:     PORTEbits.RE0 = 1;
  8018  1349  1283               	bcf	3,5	;RP0=0, select bank0
  8019  134A  1303               	bcf	3,6	;RP1=0, select bank0
  8020  134B  1409               	bsf	9,0	;volatile
  8021  134C                     l3657:
  8022                           
  8023                           ;LCDP1.c: 60:     Lcd_Port(a);
  8024  134C  0875               	movf	Lcd_Write_Char@a,w
  8025  134D  120A  118A  27FA  160A  118A  	fcall	_Lcd_Port
  8026  1352                     l3659:
  8027                           
  8028                           ;LCDP1.c: 61:     PORTEbits.RE2 = 1;
  8029  1352  1283               	bcf	3,5	;RP0=0, select bank0
  8030  1353  1303               	bcf	3,6	;RP1=0, select bank0
  8031  1354  1509               	bsf	9,2	;volatile
  8032  1355                     l3661:
  8033                           
  8034                           ;LCDP1.c: 62:     _delay((unsigned long)((10)*(8000000/4000000.0)));
  8035  1355  3006               	movlw	6
  8036  1356  00F4               	movwf	??_Lcd_Write_Char
  8037  1357                     u6487:
  8038  1357  0BF4               	decfsz	??_Lcd_Write_Char,f
  8039  1358  2B57               	goto	u6487
  8040  1359  0000               	nop
  8041  135A                     l3663:
  8042                           
  8043                           ;LCDP1.c: 63:     PORTEbits.RE2 = 0;
  8044  135A  1283               	bcf	3,5	;RP0=0, select bank0
  8045  135B  1303               	bcf	3,6	;RP1=0, select bank0
  8046  135C  1109               	bcf	9,2	;volatile
  8047  135D                     l262:
  8048  135D  0008               	return
  8049  135E                     __end_of_Lcd_Write_Char:
  8050                           
  8051                           	psect	text21
  8052  13B6                     __ptext21:	
  8053 ;; *************** function _Lcd_Set_Cursor *****************
  8054 ;; Defined at:
  8055 ;;		line 33 in file "LCDP1.c"
  8056 ;; Parameters:    Size  Location     Type
  8057 ;;  a               1    wreg     unsigned char 
  8058 ;;  b               1    7[COMMON] unsigned char 
  8059 ;; Auto vars:     Size  Location     Type
  8060 ;;  a               1    1[BANK0 ] unsigned char 
  8061 ;;  temp            1    2[BANK0 ] unsigned char 
  8062 ;; Return value:  Size  Location     Type
  8063 ;;                  1    wreg      void 
  8064 ;; Registers used:
  8065 ;;		wreg, status,2, status,0, pclath, cstack
  8066 ;; Tracked objects:
  8067 ;;		On entry : 0/0
  8068 ;;		On exit  : 0/0
  8069 ;;		Unchanged: 0/0
  8070 ;; Data sizes:     COMMON   BANK0   BANK1   BANK3   BANK2
  8071 ;;      Params:         1       0       0       0       0
  8072 ;;      Locals:         0       2       0       0       0
  8073 ;;      Temps:          0       1       0       0       0
  8074 ;;      Totals:         1       3       0       0       0
  8075 ;;Total ram usage:        4 bytes
  8076 ;; Hardware stack levels used:    1
  8077 ;; Hardware stack levels required when called:    3
  8078 ;; This function calls:
  8079 ;;		_Lcd_Cmd
  8080 ;; This function is called by:
  8081 ;;		_main
  8082 ;; This function uses a non-reentrant model
  8083 ;;
  8084                           
  8085                           
  8086                           ;psect for function _Lcd_Set_Cursor
  8087  13B6                     _Lcd_Set_Cursor:
  8088                           
  8089                           ;incstack = 0
  8090                           ; Regs used in _Lcd_Set_Cursor: [wreg+status,2+status,0+pclath+cstack]
  8091                           ;Lcd_Set_Cursor@a stored from wreg
  8092  13B6  1283               	bcf	3,5	;RP0=0, select bank0
  8093  13B7  1303               	bcf	3,6	;RP1=0, select bank0
  8094  13B8  00A1               	movwf	Lcd_Set_Cursor@a
  8095  13B9                     l4241:
  8096                           
  8097                           ;LCDP1.c: 34:    char temp;;LCDP1.c: 35:     if (a == 1) {
  8098  13B9  0321               	decf	Lcd_Set_Cursor@a,w
  8099  13BA  1D03               	btfss	3,2
  8100  13BB  2BBD               	goto	u6141
  8101  13BC  2BBE               	goto	u6140
  8102  13BD                     u6141:
  8103  13BD  2BCA               	goto	l4247
  8104  13BE                     u6140:
  8105  13BE                     l4243:
  8106                           
  8107                           ;LCDP1.c: 36:         temp = 0x80 + b - 1;
  8108  13BE  0877               	movf	Lcd_Set_Cursor@b,w
  8109  13BF  3E7F               	addlw	127
  8110  13C0  00A0               	movwf	??_Lcd_Set_Cursor
  8111  13C1  0820               	movf	??_Lcd_Set_Cursor,w
  8112  13C2  00A2               	movwf	Lcd_Set_Cursor@temp
  8113  13C3                     l4245:
  8114                           
  8115                           ;LCDP1.c: 37:         Lcd_Cmd(temp);
  8116  13C3  0822               	movf	Lcd_Set_Cursor@temp,w
  8117  13C4  160A  118A  235E  160A  118A  	fcall	_Lcd_Cmd
  8118                           
  8119                           ;LCDP1.c: 38:     } else if (a == 2) {
  8120  13C9  2BDB               	goto	l256
  8121  13CA                     l4247:
  8122  13CA  3002               	movlw	2
  8123  13CB  0621               	xorwf	Lcd_Set_Cursor@a,w
  8124  13CC  1D03               	btfss	3,2
  8125  13CD  2BCF               	goto	u6151
  8126  13CE  2BD0               	goto	u6150
  8127  13CF                     u6151:
  8128  13CF  2BDB               	goto	l256
  8129  13D0                     u6150:
  8130  13D0                     l4249:
  8131                           
  8132                           ;LCDP1.c: 39:         temp = 0xC0 + b - 1;
  8133  13D0  0877               	movf	Lcd_Set_Cursor@b,w
  8134  13D1  3EBF               	addlw	191
  8135  13D2  00A0               	movwf	??_Lcd_Set_Cursor
  8136  13D3  0820               	movf	??_Lcd_Set_Cursor,w
  8137  13D4  00A2               	movwf	Lcd_Set_Cursor@temp
  8138  13D5                     l4251:
  8139                           
  8140                           ;LCDP1.c: 40:         Lcd_Cmd(temp);
  8141  13D5  0822               	movf	Lcd_Set_Cursor@temp,w
  8142  13D6  160A  118A  235E  160A  118A  	fcall	_Lcd_Cmd
  8143  13DB                     l256:
  8144  13DB  0008               	return
  8145  13DC                     __end_of_Lcd_Set_Cursor:
  8146                           
  8147                           	psect	text22
  8148  07B0                     __ptext22:	
  8149 ;; *************** function _Lcd_Init *****************
  8150 ;; Defined at:
  8151 ;;		line 44 in file "LCDP1.c"
  8152 ;; Parameters:    Size  Location     Type
  8153 ;;		None
  8154 ;; Auto vars:     Size  Location     Type
  8155 ;;		None
  8156 ;; Return value:  Size  Location     Type
  8157 ;;                  1    wreg      void 
  8158 ;; Registers used:
  8159 ;;		wreg, status,2, status,0, pclath, cstack
  8160 ;; Tracked objects:
  8161 ;;		On entry : 0/0
  8162 ;;		On exit  : 0/0
  8163 ;;		Unchanged: 0/0
  8164 ;; Data sizes:     COMMON   BANK0   BANK1   BANK3   BANK2
  8165 ;;      Params:         0       0       0       0       0
  8166 ;;      Locals:         0       0       0       0       0
  8167 ;;      Temps:          0       2       0       0       0
  8168 ;;      Totals:         0       2       0       0       0
  8169 ;;Total ram usage:        2 bytes
  8170 ;; Hardware stack levels used:    1
  8171 ;; Hardware stack levels required when called:    3
  8172 ;; This function calls:
  8173 ;;		_Lcd_Cmd
  8174 ;;		_Lcd_Port
  8175 ;; This function is called by:
  8176 ;;		_main
  8177 ;; This function uses a non-reentrant model
  8178 ;;
  8179                           
  8180                           
  8181                           ;psect for function _Lcd_Init
  8182  07B0                     _Lcd_Init:
  8183  07B0                     l4229:	
  8184                           ;incstack = 0
  8185                           ; Regs used in _Lcd_Init: [wreg+status,2+status,0+pclath+cstack]
  8186                           
  8187                           
  8188                           ;LCDP1.c: 45:     Lcd_Port(0x00);
  8189  07B0  3000               	movlw	0
  8190  07B1  120A  118A  27FA  120A  118A  	fcall	_Lcd_Port
  8191  07B6                     l4231:
  8192                           
  8193                           ;LCDP1.c: 46:     _delay((unsigned long)((20)*(8000000/4000.0)));
  8194  07B6  3034               	movlw	52
  8195  07B7  1283               	bcf	3,5	;RP0=0, select bank0
  8196  07B8  1303               	bcf	3,6	;RP1=0, select bank0
  8197  07B9  00A1               	movwf	??_Lcd_Init+1
  8198  07BA  30F1               	movlw	241
  8199  07BB  00A0               	movwf	??_Lcd_Init
  8200  07BC                     u6497:
  8201  07BC  0BA0               	decfsz	??_Lcd_Init,f
  8202  07BD  2FBC               	goto	u6497
  8203  07BE  0BA1               	decfsz	??_Lcd_Init+1,f
  8204  07BF  2FBC               	goto	u6497
  8205  07C0                     l4233:
  8206                           
  8207                           ;LCDP1.c: 47:     Lcd_Cmd(0x30);
  8208  07C0  3030               	movlw	48
  8209  07C1  160A  118A  235E  120A  118A  	fcall	_Lcd_Cmd
  8210                           
  8211                           ;LCDP1.c: 48:     _delay((unsigned long)((5)*(8000000/4000.0)));
  8212  07C6  300D               	movlw	13
  8213  07C7  1283               	bcf	3,5	;RP0=0, select bank0
  8214  07C8  1303               	bcf	3,6	;RP1=0, select bank0
  8215  07C9  00A1               	movwf	??_Lcd_Init+1
  8216  07CA  30FB               	movlw	251
  8217  07CB  00A0               	movwf	??_Lcd_Init
  8218  07CC                     u6507:
  8219  07CC  0BA0               	decfsz	??_Lcd_Init,f
  8220  07CD  2FCC               	goto	u6507
  8221  07CE  0BA1               	decfsz	??_Lcd_Init+1,f
  8222  07CF  2FCC               	goto	u6507
  8223  07D0                     l4235:
  8224                           
  8225                           ;LCDP1.c: 49:     Lcd_Cmd(0x30);
  8226  07D0  3030               	movlw	48
  8227  07D1  160A  118A  235E  120A  118A  	fcall	_Lcd_Cmd
  8228  07D6                     l4237:
  8229                           
  8230                           ;LCDP1.c: 50:     _delay((unsigned long)((11)*(8000000/4000.0)));
  8231  07D6  301D               	movlw	29
  8232  07D7  1283               	bcf	3,5	;RP0=0, select bank0
  8233  07D8  1303               	bcf	3,6	;RP1=0, select bank0
  8234  07D9  00A1               	movwf	??_Lcd_Init+1
  8235  07DA  3090               	movlw	144
  8236  07DB  00A0               	movwf	??_Lcd_Init
  8237  07DC                     u6517:
  8238  07DC  0BA0               	decfsz	??_Lcd_Init,f
  8239  07DD  2FDC               	goto	u6517
  8240  07DE  0BA1               	decfsz	??_Lcd_Init+1,f
  8241  07DF  2FDC               	goto	u6517
  8242  07E0  0000               	nop
  8243                           
  8244                           ;LCDP1.c: 51:     Lcd_Cmd(0x30);
  8245  07E1  3030               	movlw	48
  8246  07E2  160A  118A  235E  120A  118A  	fcall	_Lcd_Cmd
  8247                           
  8248                           ;LCDP1.c: 53:     Lcd_Cmd(0x38);
  8249  07E7  3038               	movlw	56
  8250  07E8  160A  118A  235E  120A  118A  	fcall	_Lcd_Cmd
  8251                           
  8252                           ;LCDP1.c: 54:     Lcd_Cmd(0x0C);
  8253  07ED  300C               	movlw	12
  8254  07EE  160A  118A  235E  120A  118A  	fcall	_Lcd_Cmd
  8255                           
  8256                           ;LCDP1.c: 55:     Lcd_Cmd(0x6);
  8257  07F3  3006               	movlw	6
  8258  07F4  160A  118A  235E  120A  118A  	fcall	_Lcd_Cmd
  8259  07F9                     l259:
  8260  07F9  0008               	return
  8261  07FA                     __end_of_Lcd_Init:
  8262                           
  8263                           	psect	text23
  8264  1305                     __ptext23:	
  8265 ;; *************** function _Lcd_Clear *****************
  8266 ;; Defined at:
  8267 ;;		line 28 in file "LCDP1.c"
  8268 ;; Parameters:    Size  Location     Type
  8269 ;;		None
  8270 ;; Auto vars:     Size  Location     Type
  8271 ;;		None
  8272 ;; Return value:  Size  Location     Type
  8273 ;;                  1    wreg      void 
  8274 ;; Registers used:
  8275 ;;		wreg, status,2, status,0, pclath, cstack
  8276 ;; Tracked objects:
  8277 ;;		On entry : 0/0
  8278 ;;		On exit  : 0/0
  8279 ;;		Unchanged: 0/0
  8280 ;; Data sizes:     COMMON   BANK0   BANK1   BANK3   BANK2
  8281 ;;      Params:         0       0       0       0       0
  8282 ;;      Locals:         0       0       0       0       0
  8283 ;;      Temps:          0       0       0       0       0
  8284 ;;      Totals:         0       0       0       0       0
  8285 ;;Total ram usage:        0 bytes
  8286 ;; Hardware stack levels used:    1
  8287 ;; Hardware stack levels required when called:    3
  8288 ;; This function calls:
  8289 ;;		_Lcd_Cmd
  8290 ;; This function is called by:
  8291 ;;		_main
  8292 ;; This function uses a non-reentrant model
  8293 ;;
  8294                           
  8295                           
  8296                           ;psect for function _Lcd_Clear
  8297  1305                     _Lcd_Clear:
  8298  1305                     l4239:	
  8299                           ;incstack = 0
  8300                           ; Regs used in _Lcd_Clear: [wreg+status,2+status,0+pclath+cstack]
  8301                           
  8302                           
  8303                           ;LCDP1.c: 29:     Lcd_Cmd(0);
  8304  1305  3000               	movlw	0
  8305  1306  160A  118A  235E  160A  118A  	fcall	_Lcd_Cmd
  8306                           
  8307                           ;LCDP1.c: 30:     Lcd_Cmd(1);
  8308  130B  3001               	movlw	1
  8309  130C  160A  118A  235E  160A  118A  	fcall	_Lcd_Cmd
  8310  1311                     l250:
  8311  1311  0008               	return
  8312  1312                     __end_of_Lcd_Clear:
  8313                           
  8314                           	psect	text24
  8315  135E                     __ptext24:	
  8316 ;; *************** function _Lcd_Cmd *****************
  8317 ;; Defined at:
  8318 ;;		line 20 in file "LCDP1.c"
  8319 ;; Parameters:    Size  Location     Type
  8320 ;;  a               1    wreg     unsigned char 
  8321 ;; Auto vars:     Size  Location     Type
  8322 ;;  a               1    6[COMMON] unsigned char 
  8323 ;; Return value:  Size  Location     Type
  8324 ;;                  1    wreg      void 
  8325 ;; Registers used:
  8326 ;;		wreg, status,2, status,0, pclath, cstack
  8327 ;; Tracked objects:
  8328 ;;		On entry : 0/0
  8329 ;;		On exit  : 0/0
  8330 ;;		Unchanged: 0/0
  8331 ;; Data sizes:     COMMON   BANK0   BANK1   BANK3   BANK2
  8332 ;;      Params:         0       0       0       0       0
  8333 ;;      Locals:         1       0       0       0       0
  8334 ;;      Temps:          2       0       0       0       0
  8335 ;;      Totals:         3       0       0       0       0
  8336 ;;Total ram usage:        3 bytes
  8337 ;; Hardware stack levels used:    1
  8338 ;; Hardware stack levels required when called:    2
  8339 ;; This function calls:
  8340 ;;		_Lcd_Port
  8341 ;; This function is called by:
  8342 ;;		_Lcd_Clear
  8343 ;;		_Lcd_Set_Cursor
  8344 ;;		_Lcd_Init
  8345 ;;		_Lcd_Shift_Right
  8346 ;;		_Lcd_Shift_Left
  8347 ;; This function uses a non-reentrant model
  8348 ;;
  8349                           
  8350                           
  8351                           ;psect for function _Lcd_Cmd
  8352  135E                     _Lcd_Cmd:
  8353                           
  8354                           ;incstack = 0
  8355                           ; Regs used in _Lcd_Cmd: [wreg+status,2+status,0+pclath+cstack]
  8356                           ;Lcd_Cmd@a stored from wreg
  8357  135E  00F6               	movwf	Lcd_Cmd@a
  8358  135F                     l3645:
  8359                           
  8360                           ;LCDP1.c: 21:     PORTEbits.RE0 = 0;
  8361  135F  1283               	bcf	3,5	;RP0=0, select bank0
  8362  1360  1303               	bcf	3,6	;RP1=0, select bank0
  8363  1361  1009               	bcf	9,0	;volatile
  8364  1362                     l3647:
  8365                           
  8366                           ;LCDP1.c: 22:     Lcd_Port(a);
  8367  1362  0876               	movf	Lcd_Cmd@a,w
  8368  1363  120A  118A  27FA  160A  118A  	fcall	_Lcd_Port
  8369  1368                     l3649:
  8370                           
  8371                           ;LCDP1.c: 23:     PORTEbits.RE2 = 1;
  8372  1368  1283               	bcf	3,5	;RP0=0, select bank0
  8373  1369  1303               	bcf	3,6	;RP1=0, select bank0
  8374  136A  1509               	bsf	9,2	;volatile
  8375  136B                     l3651:
  8376                           
  8377                           ;LCDP1.c: 24:     _delay((unsigned long)((4)*(8000000/4000.0)));
  8378  136B  300B               	movlw	11
  8379  136C  00F5               	movwf	??_Lcd_Cmd+1
  8380  136D  3062               	movlw	98
  8381  136E  00F4               	movwf	??_Lcd_Cmd
  8382  136F                     u6527:
  8383  136F  0BF4               	decfsz	??_Lcd_Cmd,f
  8384  1370  2B6F               	goto	u6527
  8385  1371  0BF5               	decfsz	??_Lcd_Cmd+1,f
  8386  1372  2B6F               	goto	u6527
  8387  1373  0000               	nop
  8388  1374                     l3653:
  8389                           
  8390                           ;LCDP1.c: 25:     PORTEbits.RE2 = 0;
  8391  1374  1283               	bcf	3,5	;RP0=0, select bank0
  8392  1375  1303               	bcf	3,6	;RP1=0, select bank0
  8393  1376  1109               	bcf	9,2	;volatile
  8394  1377                     l247:
  8395  1377  0008               	return
  8396  1378                     __end_of_Lcd_Cmd:
  8397                           
  8398                           	psect	text25
  8399  07FA                     __ptext25:	
  8400 ;; *************** function _Lcd_Port *****************
  8401 ;; Defined at:
  8402 ;;		line 16 in file "LCDP1.c"
  8403 ;; Parameters:    Size  Location     Type
  8404 ;;  a               1    wreg     unsigned char 
  8405 ;; Auto vars:     Size  Location     Type
  8406 ;;  a               1    3[COMMON] unsigned char 
  8407 ;; Return value:  Size  Location     Type
  8408 ;;                  1    wreg      void 
  8409 ;; Registers used:
  8410 ;;		wreg
  8411 ;; Tracked objects:
  8412 ;;		On entry : 0/0
  8413 ;;		On exit  : 0/0
  8414 ;;		Unchanged: 0/0
  8415 ;; Data sizes:     COMMON   BANK0   BANK1   BANK3   BANK2
  8416 ;;      Params:         0       0       0       0       0
  8417 ;;      Locals:         1       0       0       0       0
  8418 ;;      Temps:          0       0       0       0       0
  8419 ;;      Totals:         1       0       0       0       0
  8420 ;;Total ram usage:        1 bytes
  8421 ;; Hardware stack levels used:    1
  8422 ;; Hardware stack levels required when called:    1
  8423 ;; This function calls:
  8424 ;;		Nothing
  8425 ;; This function is called by:
  8426 ;;		_Lcd_Cmd
  8427 ;;		_Lcd_Init
  8428 ;;		_Lcd_Write_Char
  8429 ;; This function uses a non-reentrant model
  8430 ;;
  8431                           
  8432                           
  8433                           ;psect for function _Lcd_Port
  8434  07FA                     _Lcd_Port:
  8435                           
  8436                           ;incstack = 0
  8437                           ; Regs used in _Lcd_Port: [wreg]
  8438                           ;Lcd_Port@a stored from wreg
  8439  07FA  00F3               	movwf	Lcd_Port@a
  8440  07FB                     l3365:
  8441                           
  8442                           ;LCDP1.c: 17:         PORTB = a;
  8443  07FB  0873               	movf	Lcd_Port@a,w
  8444  07FC  1283               	bcf	3,5	;RP0=0, select bank0
  8445  07FD  1303               	bcf	3,6	;RP1=0, select bank0
  8446  07FE  0086               	movwf	6	;volatile
  8447  07FF                     l244:
  8448  07FF  0008               	return
  8449  0800                     __end_of_Lcd_Port:
  8450                           
  8451                           	psect	text26
  8452  0808                     __ptext26:	
  8453 ;; *************** function _DHT11_start *****************
  8454 ;; Defined at:
  8455 ;;		line 25 in file "DHT11.c"
  8456 ;; Parameters:    Size  Location     Type
  8457 ;;		None
  8458 ;; Auto vars:     Size  Location     Type
  8459 ;;		None
  8460 ;; Return value:  Size  Location     Type
  8461 ;;                  1    wreg      void 
  8462 ;; Registers used:
  8463 ;;		wreg
  8464 ;; Tracked objects:
  8465 ;;		On entry : 0/0
  8466 ;;		On exit  : 0/0
  8467 ;;		Unchanged: 0/0
  8468 ;; Data sizes:     COMMON   BANK0   BANK1   BANK3   BANK2
  8469 ;;      Params:         0       0       0       0       0
  8470 ;;      Locals:         0       0       0       0       0
  8471 ;;      Temps:          2       0       0       0       0
  8472 ;;      Totals:         2       0       0       0       0
  8473 ;;Total ram usage:        2 bytes
  8474 ;; Hardware stack levels used:    1
  8475 ;; Hardware stack levels required when called:    1
  8476 ;; This function calls:
  8477 ;;		Nothing
  8478 ;; This function is called by:
  8479 ;;		_main
  8480 ;; This function uses a non-reentrant model
  8481 ;;
  8482                           
  8483                           
  8484                           ;psect for function _DHT11_start
  8485  0808                     _DHT11_start:
  8486  0808                     l4261:	
  8487                           ;incstack = 0
  8488                           ; Regs used in _DHT11_start: [wreg]
  8489                           
  8490                           
  8491                           ;DHT11.c: 27:    TRISAbits.TRISA1 = 0;
  8492  0808  1683               	bsf	3,5	;RP0=1, select bank1
  8493  0809  1303               	bcf	3,6	;RP1=0, select bank1
  8494  080A  1085               	bcf	5,1	;volatile
  8495                           
  8496                           ;DHT11.c: 28:    RA1 = 0;
  8497  080B  1283               	bcf	3,5	;RP0=0, select bank0
  8498  080C  1303               	bcf	3,6	;RP1=0, select bank0
  8499  080D  1085               	bcf	5,1	;volatile
  8500  080E                     l4263:
  8501                           
  8502                           ;DHT11.c: 29:    _delay((unsigned long)((25)*(8000000/4000.0)));
  8503  080E  3041               	movlw	65
  8504  080F  00F4               	movwf	??_DHT11_start+1
  8505  0810  30EE               	movlw	238
  8506  0811  00F3               	movwf	??_DHT11_start
  8507  0812                     u6537:
  8508  0812  0BF3               	decfsz	??_DHT11_start,f
  8509  0813  2812               	goto	u6537
  8510  0814  0BF4               	decfsz	??_DHT11_start+1,f
  8511  0815  2812               	goto	u6537
  8512  0816  0000               	nop
  8513  0817                     l4265:
  8514                           
  8515                           ;DHT11.c: 30:    RA1 = 1;
  8516  0817  1283               	bcf	3,5	;RP0=0, select bank0
  8517  0818  1303               	bcf	3,6	;RP1=0, select bank0
  8518  0819  1485               	bsf	5,1	;volatile
  8519                           
  8520                           ;DHT11.c: 31:    _delay((unsigned long)((25)*(8000000/4000000.0)));
  8521  081A  3010               	movlw	16
  8522  081B  00F3               	movwf	??_DHT11_start
  8523  081C                     u6547:
  8524  081C  0BF3               	decfsz	??_DHT11_start,f
  8525  081D  281C               	goto	u6547
  8526  081E  0000               	nop
  8527  081F                     l4267:
  8528                           
  8529                           ;DHT11.c: 32:    TRISAbits.TRISA1 = 1;
  8530  081F  1683               	bsf	3,5	;RP0=1, select bank1
  8531  0820  1303               	bcf	3,6	;RP1=0, select bank1
  8532  0821  1485               	bsf	5,1	;volatile
  8533  0822                     l346:
  8534  0822  0008               	return
  8535  0823                     __end_of_DHT11_start:
  8536                           
  8537                           	psect	text27
  8538  142B                     __ptext27:	
  8539 ;; *************** function _DHT11_response *****************
  8540 ;; Defined at:
  8541 ;;		line 35 in file "DHT11.c"
  8542 ;; Parameters:    Size  Location     Type
  8543 ;;		None
  8544 ;; Auto vars:     Size  Location     Type
  8545 ;;		None
  8546 ;; Return value:  Size  Location     Type
  8547 ;;                  1    wreg      unsigned char 
  8548 ;; Registers used:
  8549 ;;		wreg, status,2
  8550 ;; Tracked objects:
  8551 ;;		On entry : 0/0
  8552 ;;		On exit  : 0/0
  8553 ;;		Unchanged: 0/0
  8554 ;; Data sizes:     COMMON   BANK0   BANK1   BANK3   BANK2
  8555 ;;      Params:         0       0       0       0       0
  8556 ;;      Locals:         0       0       0       0       0
  8557 ;;      Temps:          0       0       0       0       0
  8558 ;;      Totals:         0       0       0       0       0
  8559 ;;Total ram usage:        0 bytes
  8560 ;; Hardware stack levels used:    1
  8561 ;; Hardware stack levels required when called:    1
  8562 ;; This function calls:
  8563 ;;		Nothing
  8564 ;; This function is called by:
  8565 ;;		_main
  8566 ;; This function uses a non-reentrant model
  8567 ;;
  8568                           
  8569                           
  8570                           ;psect for function _DHT11_response
  8571  142B                     _DHT11_response:
  8572  142B                     l4269:	
  8573                           ;incstack = 0
  8574                           ; Regs used in _DHT11_response: [wreg+status,2]
  8575                           
  8576                           
  8577                           ;DHT11.c: 37:     TMR1H = 0;
  8578  142B  1283               	bcf	3,5	;RP0=0, select bank0
  8579  142C  1303               	bcf	3,6	;RP1=0, select bank0
  8580  142D  018F               	clrf	15	;volatile
  8581                           
  8582                           ;DHT11.c: 38:     TMR1L = 0;
  8583  142E  018E               	clrf	14	;volatile
  8584  142F                     l4271:
  8585                           
  8586                           ;DHT11.c: 39:     T1CONbits.TMR1ON = 1;
  8587  142F  1410               	bsf	16,0	;volatile
  8588  1430                     l349:	
  8589                           ;DHT11.c: 41:     while(!RA1 && TMR1L < 100);
  8590                           
  8591  1430  1885               	btfsc	5,1	;volatile
  8592  1431  2C33               	goto	u6191
  8593  1432  2C34               	goto	u6190
  8594  1433                     u6191:
  8595  1433  2C3A               	goto	l4275
  8596  1434                     u6190:
  8597  1434                     l4273:
  8598  1434  3064               	movlw	100
  8599  1435  020E               	subwf	14,w	;volatile
  8600  1436  1C03               	skipc
  8601  1437  2C39               	goto	u6201
  8602  1438  2C3A               	goto	u6200
  8603  1439                     u6201:
  8604  1439  2C30               	goto	l349
  8605  143A                     u6200:
  8606  143A                     l4275:
  8607                           
  8608                           ;DHT11.c: 43:     if(TMR1L > 99)return 0;
  8609  143A  3064               	movlw	100
  8610  143B  020E               	subwf	14,w	;volatile
  8611  143C  1C03               	skipc
  8612  143D  2C3F               	goto	u6211
  8613  143E  2C40               	goto	u6210
  8614  143F                     u6211:
  8615  143F  2C42               	goto	l4283
  8616  1440                     u6210:
  8617  1440                     l4277:
  8618  1440  3000               	movlw	0
  8619  1441  2C56               	goto	l355
  8620  1442                     l4283:
  8621                           
  8622                           ;DHT11.c: 46:     {;DHT11.c: 47:         TMR1H = 0;
  8623  1442  018F               	clrf	15	;volatile
  8624                           
  8625                           ;DHT11.c: 48:         TMR1L = 0;
  8626  1443  018E               	clrf	14	;volatile
  8627  1444                     l357:	
  8628                           ;DHT11.c: 50:     while(RA1 && TMR1L < 100);
  8629                           
  8630  1444  1C85               	btfss	5,1	;volatile
  8631  1445  2C47               	goto	u6221
  8632  1446  2C48               	goto	u6220
  8633  1447                     u6221:
  8634  1447  2C4E               	goto	l4287
  8635  1448                     u6220:
  8636  1448                     l4285:
  8637  1448  3064               	movlw	100
  8638  1449  020E               	subwf	14,w	;volatile
  8639  144A  1C03               	skipc
  8640  144B  2C4D               	goto	u6231
  8641  144C  2C4E               	goto	u6230
  8642  144D                     u6231:
  8643  144D  2C44               	goto	l357
  8644  144E                     u6230:
  8645  144E                     l4287:
  8646                           
  8647                           ;DHT11.c: 52:     if(TMR1L > 99)return 0;
  8648  144E  3064               	movlw	100
  8649  144F  020E               	subwf	14,w	;volatile
  8650  1450  1C03               	skipc
  8651  1451  2C53               	goto	u6241
  8652  1452  2C54               	goto	u6240
  8653  1453                     u6241:
  8654  1453  2C55               	goto	l4295
  8655  1454                     u6240:
  8656  1454  2C40               	goto	l4277
  8657  1455                     l4295:
  8658  1455  3001               	movlw	1
  8659  1456                     l355:
  8660  1456  0008               	return
  8661  1457                     __end_of_DHT11_response:
  8662                           
  8663                           	psect	text28
  8664  1457                     __ptext28:	
  8665 ;; *************** function _DHT11_ReadData *****************
  8666 ;; Defined at:
  8667 ;;		line 59 in file "DHT11.c"
  8668 ;; Parameters:    Size  Location     Type
  8669 ;;  datos           1    wreg     PTR unsigned char 
  8670 ;;		 -> CHECKSUM(1), dummyT1(1), Temp1(1), dummyHum1(1), 
  8671 ;;		 -> Hum1(1), 
  8672 ;; Auto vars:     Size  Location     Type
  8673 ;;  datos           1    5[COMMON] PTR unsigned char 
  8674 ;;		 -> CHECKSUM(1), dummyT1(1), Temp1(1), dummyHum1(1), 
  8675 ;;		 -> Hum1(1), 
  8676 ;;  i               1    6[COMMON] unsigned char 
  8677 ;; Return value:  Size  Location     Type
  8678 ;;                  1    wreg      void 
  8679 ;; Registers used:
  8680 ;;		wreg, fsr0l, fsr0h, status,2, status,0
  8681 ;; Tracked objects:
  8682 ;;		On entry : 0/0
  8683 ;;		On exit  : 0/0
  8684 ;;		Unchanged: 0/0
  8685 ;; Data sizes:     COMMON   BANK0   BANK1   BANK3   BANK2
  8686 ;;      Params:         0       0       0       0       0
  8687 ;;      Locals:         2       0       0       0       0
  8688 ;;      Temps:          2       0       0       0       0
  8689 ;;      Totals:         4       0       0       0       0
  8690 ;;Total ram usage:        4 bytes
  8691 ;; Hardware stack levels used:    1
  8692 ;; Hardware stack levels required when called:    1
  8693 ;; This function calls:
  8694 ;;		Nothing
  8695 ;; This function is called by:
  8696 ;;		_main
  8697 ;; This function uses a non-reentrant model
  8698 ;;
  8699                           
  8700                           
  8701                           ;psect for function _DHT11_ReadData
  8702  1457                     _DHT11_ReadData:
  8703                           
  8704                           ;incstack = 0
  8705                           ; Regs used in _DHT11_ReadData: [wreg-fsr0h+status,2+status,0]
  8706                           ;DHT11_ReadData@datos stored from wreg
  8707  1457  00F5               	movwf	DHT11_ReadData@datos
  8708  1458                     l4299:
  8709                           
  8710                           ;DHT11.c: 60:     uint8_t i;;DHT11.c: 61:     *datos = 0;
  8711  1458  0875               	movf	DHT11_ReadData@datos,w
  8712  1459  0084               	movwf	4
  8713  145A  1383               	bcf	3,7	;select IRP bank0
  8714  145B  0180               	clrf	0
  8715  145C                     l4301:
  8716                           
  8717                           ;DHT11.c: 62:     for(i=0; i<8; i++){
  8718  145C  01F6               	clrf	DHT11_ReadData@i
  8719  145D                     l368:
  8720  145D  1283               	bcf	3,5	;RP0=0, select bank0
  8721  145E  1303               	bcf	3,6	;RP1=0, select bank0
  8722  145F  1C85               	btfss	5,1	;volatile
  8723  1460  2C62               	goto	u6251
  8724  1461  2C63               	goto	u6250
  8725  1462                     u6251:
  8726  1462  2C5D               	goto	l368
  8727  1463                     u6250:
  8728  1463                     l4307:
  8729                           
  8730                           ;DHT11.c: 64:         TMR1H = 0;
  8731  1463  018F               	clrf	15	;volatile
  8732                           
  8733                           ;DHT11.c: 65:         TMR1L = 0;
  8734  1464  018E               	clrf	14	;volatile
  8735  1465                     l371:	
  8736                           ;DHT11.c: 66:         while(RA1);
  8737                           
  8738  1465  1885               	btfsc	5,1	;volatile
  8739  1466  2C68               	goto	u6261
  8740  1467  2C69               	goto	u6260
  8741  1468                     u6261:
  8742  1468  2C65               	goto	l371
  8743  1469                     u6260:
  8744  1469                     l4309:
  8745                           
  8746                           ;DHT11.c: 67:         if(TMR1L > 50)*datos |= (1 << (7-i));
  8747  1469  3033               	movlw	51
  8748  146A  020E               	subwf	14,w	;volatile
  8749  146B  1C03               	skipc
  8750  146C  2C6E               	goto	u6271
  8751  146D  2C6F               	goto	u6270
  8752  146E                     u6271:
  8753  146E  2C81               	goto	l4313
  8754  146F                     u6270:
  8755  146F                     l4311:
  8756  146F  3001               	movlw	1
  8757  1470  00F3               	movwf	??_DHT11_ReadData
  8758  1471  0876               	movf	DHT11_ReadData@i,w
  8759  1472  3C07               	sublw	7
  8760  1473  3E01               	addlw	1
  8761  1474  2C77               	goto	u6284
  8762  1475                     u6285:
  8763  1475  1003               	clrc
  8764  1476  0DF3               	rlf	??_DHT11_ReadData,f
  8765  1477                     u6284:
  8766  1477  3EFF               	addlw	-1
  8767  1478  1D03               	skipz
  8768  1479  2C75               	goto	u6285
  8769  147A  0873               	movf	??_DHT11_ReadData,w
  8770  147B  00F4               	movwf	??_DHT11_ReadData+1
  8771  147C  0875               	movf	DHT11_ReadData@datos,w
  8772  147D  0084               	movwf	4
  8773  147E  0874               	movf	??_DHT11_ReadData+1,w
  8774  147F  1383               	bcf	3,7	;select IRP bank0
  8775  1480  0480               	iorwf	0,f
  8776  1481                     l4313:
  8777                           
  8778                           ;DHT11.c: 70:     }
  8779  1481  3001               	movlw	1
  8780  1482  00F3               	movwf	??_DHT11_ReadData
  8781  1483  0873               	movf	??_DHT11_ReadData,w
  8782  1484  07F6               	addwf	DHT11_ReadData@i,f
  8783  1485                     l4315:
  8784  1485  3008               	movlw	8
  8785  1486  0276               	subwf	DHT11_ReadData@i,w
  8786  1487  1C03               	skipc
  8787  1488  2C8A               	goto	u6291
  8788  1489  2C8B               	goto	u6290
  8789  148A                     u6291:
  8790  148A  2C5D               	goto	l368
  8791  148B                     u6290:
  8792  148B                     l375:
  8793  148B  0008               	return
  8794  148C                     __end_of_DHT11_ReadData:
  8795                           
  8796                           	psect	text29
  8797  1631                     __ptext29:	
  8798 ;; *************** function _ISR *****************
  8799 ;; Defined at:
  8800 ;;		line 134 in file "Slave2.c"
  8801 ;; Parameters:    Size  Location     Type
  8802 ;;		None
  8803 ;; Auto vars:     Size  Location     Type
  8804 ;;		None
  8805 ;; Return value:  Size  Location     Type
  8806 ;;                  1    wreg      void 
  8807 ;; Registers used:
  8808 ;;		wreg, status,2, status,0
  8809 ;; Tracked objects:
  8810 ;;		On entry : 0/0
  8811 ;;		On exit  : 0/0
  8812 ;;		Unchanged: 0/0
  8813 ;; Data sizes:     COMMON   BANK0   BANK1   BANK3   BANK2
  8814 ;;      Params:         0       0       0       0       0
  8815 ;;      Locals:         0       0       0       0       0
  8816 ;;      Temps:          3       0       0       0       0
  8817 ;;      Totals:         3       0       0       0       0
  8818 ;;Total ram usage:        3 bytes
  8819 ;; Hardware stack levels used:    1
  8820 ;; This function calls:
  8821 ;;		Nothing
  8822 ;; This function is called by:
  8823 ;;		Interrupt level 1
  8824 ;; This function uses a non-reentrant model
  8825 ;;
  8826                           
  8827                           
  8828                           ;psect for function _ISR
  8829  1631                     _ISR:
  8830  1631                     i1l3181:
  8831                           
  8832                           ;Slave2.c: 135:     if (PIR1bits.ADIF){
  8833  1631  1283               	bcf	3,5	;RP0=0, select bank0
  8834  1632  1303               	bcf	3,6	;RP1=0, select bank0
  8835  1633  1F0C               	btfss	12,6	;volatile
  8836  1634  2E36               	goto	u416_21
  8837  1635  2E37               	goto	u416_20
  8838  1636                     u416_21:
  8839  1636  2E52               	goto	i1l3191
  8840  1637                     u416_20:
  8841  1637                     i1l3183:
  8842                           
  8843                           ;Slave2.c: 136:             if(ADCON0bits.CHS == 0){
  8844  1637  0C1F               	rrf	31,w	;volatile
  8845  1638  00F0               	movwf	??_ISR
  8846  1639  0C70               	rrf	??_ISR,w
  8847  163A  390F               	andlw	15
  8848  163B  3A00               	xorlw	0
  8849  163C  1D03               	skipz
  8850  163D  2E3F               	goto	u417_21
  8851  163E  2E40               	goto	u417_20
  8852  163F                     u417_21:
  8853  163F  2E4B               	goto	i1l3187
  8854  1640                     u417_20:
  8855  1640                     i1l3185:
  8856                           
  8857                           ;Slave2.c: 137:             CCPR1L = (ADRESH>>1)+125;
  8858  1640  081E               	movf	30,w	;volatile
  8859  1641  00F0               	movwf	??_ISR
  8860  1642  1003               	clrc
  8861  1643  0C70               	rrf	??_ISR,w
  8862  1644  3E7D               	addlw	125
  8863  1645  0095               	movwf	21	;volatile
  8864                           
  8865                           ;Slave2.c: 138:             PORTC++;
  8866  1646  3001               	movlw	1
  8867  1647  00F0               	movwf	??_ISR
  8868  1648  0870               	movf	??_ISR,w
  8869  1649  0787               	addwf	7,f	;volatile
  8870                           
  8871                           ;Slave2.c: 139:         }
  8872  164A  2E51               	goto	i1l3189
  8873  164B                     i1l3187:
  8874                           
  8875                           ;Slave2.c: 141:             CCPR2L = (ADRESH>>1)+125;
  8876  164B  081E               	movf	30,w	;volatile
  8877  164C  00F0               	movwf	??_ISR
  8878  164D  1003               	clrc
  8879  164E  0C70               	rrf	??_ISR,w
  8880  164F  3E7D               	addlw	125
  8881  1650  009B               	movwf	27	;volatile
  8882  1651                     i1l3189:
  8883                           
  8884                           ;Slave2.c: 143:         PIR1bits.ADIF = 0;
  8885  1651  130C               	bcf	12,6	;volatile
  8886  1652                     i1l3191:
  8887                           
  8888                           ;Slave2.c: 146:    if(PIR1bits.SSPIF == 1){
  8889  1652  1D8C               	btfss	12,3	;volatile
  8890  1653  2E55               	goto	u418_21
  8891  1654  2E56               	goto	u418_20
  8892  1655                     u418_21:
  8893  1655  2EB8               	goto	i1l175
  8894  1656                     u418_20:
  8895  1656                     i1l3193:
  8896                           
  8897                           ;Slave2.c: 148:         SSPCONbits.CKP = 0;
  8898  1656  1214               	bcf	20,4	;volatile
  8899                           
  8900                           ;Slave2.c: 150:         if ((SSPCONbits.SSPOV) || (SSPCONbits.WCOL)){
  8901  1657  1B14               	btfsc	20,6	;volatile
  8902  1658  2E5A               	goto	u419_21
  8903  1659  2E5B               	goto	u419_20
  8904  165A                     u419_21:
  8905  165A  2E5F               	goto	i1l3197
  8906  165B                     u419_20:
  8907  165B                     i1l3195:
  8908  165B  1F94               	btfss	20,7	;volatile
  8909  165C  2E5E               	goto	u420_21
  8910  165D  2E5F               	goto	u420_20
  8911  165E                     u420_21:
  8912  165E  2E6A               	goto	i1l3205
  8913  165F                     u420_20:
  8914  165F                     i1l3197:
  8915                           
  8916                           ;Slave2.c: 151:             z = SSPBUF;
  8917  165F  0813               	movf	19,w	;volatile
  8918  1660  00F0               	movwf	??_ISR
  8919  1661  0870               	movf	??_ISR,w
  8920  1662  1683               	bsf	3,5	;RP0=1, select bank1
  8921  1663  1303               	bcf	3,6	;RP1=0, select bank1
  8922  1664  00B3               	movwf	_z^(0+128)
  8923  1665                     i1l3199:
  8924                           
  8925                           ;Slave2.c: 152:             SSPCONbits.SSPOV = 0;
  8926  1665  1283               	bcf	3,5	;RP0=0, select bank0
  8927  1666  1303               	bcf	3,6	;RP1=0, select bank0
  8928  1667  1314               	bcf	20,6	;volatile
  8929  1668                     i1l3201:
  8930                           
  8931                           ;Slave2.c: 153:             SSPCONbits.WCOL = 0;
  8932  1668  1394               	bcf	20,7	;volatile
  8933  1669                     i1l3203:
  8934                           
  8935                           ;Slave2.c: 154:             SSPCONbits.CKP = 1;
  8936  1669  1614               	bsf	20,4	;volatile
  8937  166A                     i1l3205:
  8938                           
  8939                           ;Slave2.c: 158:         if(!SSPSTATbits.D_nA && !SSPSTATbits.R_nW) {
  8940  166A  1683               	bsf	3,5	;RP0=1, select bank1
  8941  166B  1303               	bcf	3,6	;RP1=0, select bank1
  8942  166C  1A94               	btfsc	20,5	;volatile
  8943  166D  2E6F               	goto	u421_21
  8944  166E  2E70               	goto	u421_20
  8945  166F                     u421_21:
  8946  166F  2E94               	goto	i1l166
  8947  1670                     u421_20:
  8948  1670                     i1l3207:
  8949  1670  1914               	btfsc	20,2	;volatile
  8950  1671  2E73               	goto	u422_21
  8951  1672  2E74               	goto	u422_20
  8952  1673                     u422_21:
  8953  1673  2E94               	goto	i1l166
  8954  1674                     u422_20:
  8955  1674                     i1l3209:
  8956                           
  8957                           ;Slave2.c: 160:             z = SSPBUF;
  8958  1674  1283               	bcf	3,5	;RP0=0, select bank0
  8959  1675  1303               	bcf	3,6	;RP1=0, select bank0
  8960  1676  0813               	movf	19,w	;volatile
  8961  1677  00F0               	movwf	??_ISR
  8962  1678  0870               	movf	??_ISR,w
  8963  1679  1683               	bsf	3,5	;RP0=1, select bank1
  8964  167A  1303               	bcf	3,6	;RP1=0, select bank1
  8965  167B  00B3               	movwf	_z^(0+128)
  8966  167C                     i1l3211:
  8967                           
  8968                           ;Slave2.c: 162:             PIR1bits.SSPIF = 0;
  8969  167C  1283               	bcf	3,5	;RP0=0, select bank0
  8970  167D  1303               	bcf	3,6	;RP1=0, select bank0
  8971  167E  118C               	bcf	12,3	;volatile
  8972  167F                     i1l3213:
  8973                           
  8974                           ;Slave2.c: 163:             SSPCONbits.CKP = 1;
  8975  167F  1614               	bsf	20,4	;volatile
  8976  1680                     i1l167:	
  8977                           ;Slave2.c: 164:             while(!SSPSTATbits.BF);
  8978                           
  8979  1680  1683               	bsf	3,5	;RP0=1, select bank1
  8980  1681  1303               	bcf	3,6	;RP1=0, select bank1
  8981  1682  1C14               	btfss	20,0	;volatile
  8982  1683  2E85               	goto	u423_21
  8983  1684  2E86               	goto	u423_20
  8984  1685                     u423_21:
  8985  1685  2E80               	goto	i1l167
  8986  1686                     u423_20:
  8987  1686                     i1l3215:
  8988                           
  8989                           ;Slave2.c: 165:             lectura = SSPBUF;
  8990  1686  1283               	bcf	3,5	;RP0=0, select bank0
  8991  1687  1303               	bcf	3,6	;RP1=0, select bank0
  8992  1688  0813               	movf	19,w	;volatile
  8993  1689  00F0               	movwf	??_ISR
  8994  168A  0870               	movf	??_ISR,w
  8995  168B  1683               	bsf	3,5	;RP0=1, select bank1
  8996  168C  1303               	bcf	3,6	;RP1=0, select bank1
  8997  168D  00B2               	movwf	_lectura^(0+128)
  8998                           
  8999                           ;Slave2.c: 166:             _delay((unsigned long)((250)*(8000000/4000000.0)));
  9000  168E  30A6               	movlw	166
  9001  168F  00F0               	movwf	??_ISR
  9002  1690                     u655_27:
  9003  1690  0BF0               	decfsz	??_ISR,f
  9004  1691  2E90               	goto	u655_27
  9005  1692  0000               	nop
  9006                           
  9007                           ;Slave2.c: 168:         }else if(!SSPSTATbits.D_nA && SSPSTATbits.R_nW){
  9008  1693  2EB5               	goto	i1l170
  9009  1694                     i1l166:
  9010  1694  1A94               	btfsc	20,5	;volatile
  9011  1695  2E97               	goto	u424_21
  9012  1696  2E98               	goto	u424_20
  9013  1697                     u424_21:
  9014  1697  2EB5               	goto	i1l170
  9015  1698                     u424_20:
  9016  1698                     i1l3217:
  9017  1698  1D14               	btfss	20,2	;volatile
  9018  1699  2E9B               	goto	u425_21
  9019  169A  2E9C               	goto	u425_20
  9020  169B                     u425_21:
  9021  169B  2EB5               	goto	i1l170
  9022  169C                     u425_20:
  9023  169C                     i1l3219:
  9024                           
  9025                           ;Slave2.c: 169:             z = SSPBUF;
  9026  169C  1283               	bcf	3,5	;RP0=0, select bank0
  9027  169D  1303               	bcf	3,6	;RP1=0, select bank0
  9028  169E  0813               	movf	19,w	;volatile
  9029  169F  00F0               	movwf	??_ISR
  9030  16A0  0870               	movf	??_ISR,w
  9031  16A1  1683               	bsf	3,5	;RP0=1, select bank1
  9032  16A2  1303               	bcf	3,6	;RP1=0, select bank1
  9033  16A3  00B3               	movwf	_z^(0+128)
  9034  16A4                     i1l3221:
  9035                           
  9036                           ;Slave2.c: 170:             BF = 0;
  9037  16A4  1014               	bcf	20,0	;volatile
  9038                           
  9039                           ;Slave2.c: 171:             SSPBUF = Hum1;
  9040  16A5  1283               	bcf	3,5	;RP0=0, select bank0
  9041  16A6  1303               	bcf	3,6	;RP1=0, select bank0
  9042  16A7  086C               	movf	_Hum1,w
  9043  16A8  0093               	movwf	19	;volatile
  9044  16A9                     i1l3223:
  9045                           
  9046                           ;Slave2.c: 172:             SSPCONbits.CKP = 1;
  9047  16A9  1614               	bsf	20,4	;volatile
  9048                           
  9049                           ;Slave2.c: 173:             _delay((unsigned long)((250)*(8000000/4000000.0)));
  9050  16AA  30A6               	movlw	166
  9051  16AB  00F0               	movwf	??_ISR
  9052  16AC                     u656_27:
  9053  16AC  0BF0               	decfsz	??_ISR,f
  9054  16AD  2EAC               	goto	u656_27
  9055  16AE  0000               	nop
  9056  16AF                     i1l172:	
  9057                           ;Slave2.c: 174:             while(SSPSTATbits.BF);
  9058                           
  9059  16AF  1683               	bsf	3,5	;RP0=1, select bank1
  9060  16B0  1303               	bcf	3,6	;RP1=0, select bank1
  9061  16B1  1814               	btfsc	20,0	;volatile
  9062  16B2  2EB4               	goto	u426_21
  9063  16B3  2EB5               	goto	u426_20
  9064  16B4                     u426_21:
  9065  16B4  2EAF               	goto	i1l172
  9066  16B5                     u426_20:
  9067  16B5                     i1l170:
  9068                           
  9069                           ;Slave2.c: 177:         PIR1bits.SSPIF = 0;
  9070  16B5  1283               	bcf	3,5	;RP0=0, select bank0
  9071  16B6  1303               	bcf	3,6	;RP1=0, select bank0
  9072  16B7  118C               	bcf	12,3	;volatile
  9073  16B8                     i1l175:
  9074  16B8  0872               	movf	??_ISR+2,w
  9075  16B9  008A               	movwf	10
  9076  16BA  0E71               	swapf	??_ISR+1,w
  9077  16BB  0083               	movwf	3
  9078  16BC  0EFE               	swapf	btemp,f
  9079  16BD  0E7E               	swapf	btemp,w
  9080  16BE  0009               	retfie
  9081  16BF                     __end_of_ISR:
  9082  007E                     btemp	set	126	;btemp
  9083  007E                     wtemp0	set	126
  9084                           
  9085                           	psect	intentry
  9086  0004                     __pintentry:	
  9087                           ;incstack = 0
  9088                           ; Regs used in _ISR: [wreg+status,2+status,0]
  9089                           
  9090  0004                     interrupt_function:
  9091  007E                     saved_w	set	btemp
  9092  0004  00FE               	movwf	btemp
  9093  0005  0E03               	swapf	3,w
  9094  0006  00F1               	movwf	??_ISR+1
  9095  0007  080A               	movf	10,w
  9096  0008  00F2               	movwf	??_ISR+2
  9097  0009  160A  118A  2E31   	ljmp	_ISR
  9098                           
  9099                           	psect	config
  9100                           
  9101                           ;Config register CONFIG1 @ 0x2007
  9102                           ;	Oscillator Selection bits
  9103                           ;	FOSC = INTRC_NOCLKOUT, INTOSCIO oscillator: I/O function on RA6/OSC2/CLKOUT pin, I/O f
      +                          unction on RA7/OSC1/CLKIN
  9104                           ;	Watchdog Timer Enable bit
  9105                           ;	WDTE = OFF, WDT disabled and can be enabled by SWDTEN bit of the WDTCON register
  9106                           ;	Power-up Timer Enable bit
  9107                           ;	PWRTE = ON, PWRT enabled
  9108                           ;	RE3/MCLR pin function select bit
  9109                           ;	MCLRE = OFF, RE3/MCLR pin function is digital input, MCLR internally tied to VDD
  9110                           ;	Code Protection bit
  9111                           ;	CP = OFF, Program memory code protection is disabled
  9112                           ;	Data Code Protection bit
  9113                           ;	CPD = OFF, Data memory code protection is disabled
  9114                           ;	Brown Out Reset Selection bits
  9115                           ;	BOREN = OFF, BOR disabled
  9116                           ;	Internal External Switchover bit
  9117                           ;	IESO = OFF, Internal/External Switchover mode is disabled
  9118                           ;	Fail-Safe Clock Monitor Enabled bit
  9119                           ;	FCMEN = OFF, Fail-Safe Clock Monitor is disabled
  9120                           ;	Low Voltage Programming Enable bit
  9121                           ;	LVP = OFF, RB3 pin has digital I/O, HV on MCLR must be used for programming
  9122                           ;	In-Circuit Debugger Mode bit
  9123                           ;	DEBUG = 0x1, unprogrammed default
  9124  2007                     	org	8199
  9125  2007  20C4               	dw	8388
  9126                           
  9127                           ;Config register CONFIG2 @ 0x2008
  9128                           ;	Brown-out Reset Selection bit
  9129                           ;	BOR4V = BOR40V, Brown-out Reset set to 4.0V
  9130                           ;	Flash Program Memory Self Write Enable bits
  9131                           ;	WRT = OFF, Write protection off
  9132  2008                     	org	8200
  9133  2008  3FFF               	dw	16383

Data Sizes:
    Strings     11
    Constant    12
    Data        8
    BSS         105
    Persistent  0
    Stack       0

Auto Spaces:
    Space          Size  Autos    Used
    COMMON           14      8      11
    BANK0            80     76      77
    BANK1            80      4      63
    BANK3            96      0      50
    BANK2            96      0       0

Pointer List with Targets:

    DHT11_ReadData@datos	PTR unsigned char  size(1) Largest target is 1
		 -> CHECKSUM(BANK1[1]), dummyT1(COMMON[1]), Temp1(COMMON[1]), dummyHum1(COMMON[1]), 
		 -> Hum1(BANK0[1]), 

    Lcd_Write_String@a	PTR unsigned char  size(2) Largest target is 25
		 -> tarart(BANK3[25]), STR_2(CODE[6]), texto(BANK1[25]), STR_1(CODE[5]), 
		 -> offsett(BANK3[25]), 

    floattostr_@cadena_	PTR unsigned char  size(2) Largest target is 25
		 -> tarart(BANK3[25]), texto(BANK1[25]), offsett(BANK3[25]), 


Critical Paths under _main in COMMON

    _main->_Lcd_Set_Cursor
    _main->_Lcd_Write_String
    _main->___fldiv
    _hx711_promedio->_hx711_lectura
    _hx711_lectura->_hx711_pulso
    _setup->_I2C_Slave_Init
    _floattostr_->___fldiv
    ___fladd->___fldiv
    ___flmul->__Umul8_16
    _Lcd_Write_String->_Lcd_Write_Char
    _Lcd_Write_Char->_Lcd_Port
    _Lcd_Set_Cursor->_Lcd_Cmd
    _Lcd_Init->_Lcd_Cmd
    _Lcd_Clear->_Lcd_Cmd
    _Lcd_Cmd->_Lcd_Port

Critical Paths under _ISR in COMMON

    None.

Critical Paths under _main in BANK0

    _main->_floattostr_
    _tarar->_hx711_promedio
    _hx711_promedio->_hx711_lectura
    _floattostr_->___flsub
    ___xxtofl->_hx711_promedio
    ___flsub->___xxtofl
    ___fladd->___fldiv
    ___flmul->__Umul8_16

Critical Paths under _ISR in BANK0

    None.

Critical Paths under _main in BANK1

    None.

Critical Paths under _ISR in BANK1

    None.

Critical Paths under _main in BANK3

    None.

Critical Paths under _ISR in BANK3

    None.

Critical Paths under _main in BANK2

    None.

Critical Paths under _ISR in BANK2

    None.

Call Graph Tables:

 ---------------------------------------------------------------------------------
 (Depth) Function   	        Calls       Base Space   Used Autos Params    Refs
 ---------------------------------------------------------------------------------
 (0) _main                                                 9     9      0   31524
                                             71 BANK0      5     5      0
                                              0 BANK1      4     4      0
                     _DHT11_ReadData
                     _DHT11_response
                        _DHT11_start
                          _Lcd_Clear
                           _Lcd_Init
                     _Lcd_Set_Cursor
                   _Lcd_Write_String
                            ___fldiv
                             ___flge
                            ___flmul
                           ___xxtofl
                        _floattostr_
                         _hx711_init
                     _hx711_promedio
                              _setup
                              _tarar
 ---------------------------------------------------------------------------------
 (1) _tarar                                                3     2      1    1635
                                             29 BANK0      3     2      1
                     _hx711_promedio
 ---------------------------------------------------------------------------------
 (2) _hx711_promedio                                      14    10      4    1483
                                             15 BANK0     14    10      4
                            ___aldiv
                      _hx711_lectura
 ---------------------------------------------------------------------------------
 (3) _hx711_lectura                                       19    15      4     390
                                              4 COMMON     4     0      4
                                              0 BANK0     15    15      0
                        _hx711_pulso
 ---------------------------------------------------------------------------------
 (4) _hx711_pulso                                          1     1      0      34
                                              3 COMMON     1     1      0
 ---------------------------------------------------------------------------------
 (3) ___aldiv                                             15     7      8     625
                                              3 COMMON     1     1      0
                                              0 BANK0     14     6      8
 ---------------------------------------------------------------------------------
 (1) _setup                                                1     1      0      31
                                              4 COMMON     1     1      0
                     _I2C_Slave_Init
 ---------------------------------------------------------------------------------
 (2) _I2C_Slave_Init                                       1     1      0      31
                                              3 COMMON     1     1      0
 ---------------------------------------------------------------------------------
 (1) _hx711_init                                           3     3      0       0
                                              3 COMMON     3     3      0
 ---------------------------------------------------------------------------------
 (1) _floattostr_                                         20    13      7   17987
                                             51 BANK0     20    13      7
                            ___fladd
                            ___fldiv
                             ___flge
                            ___flmul
                            ___flneg
                            ___flsub
                            ___fltol
                           ___xxtofl
 ---------------------------------------------------------------------------------
 (2) ___xxtofl                                            14    10      4    1016
                                             29 BANK0     14    10      4
                     _hx711_promedio (ARG)
 ---------------------------------------------------------------------------------
 (2) ___fltol                                             11     7      4     427
                                              3 COMMON     4     0      4
                                              0 BANK0      7     7      0
 ---------------------------------------------------------------------------------
 (2) ___flsub                                              8     0      8    3547
                                             43 BANK0      8     0      8
                            ___fladd
                           ___xxtofl (ARG)
 ---------------------------------------------------------------------------------
 (3) ___fladd                                             20    12      8    3302
                                             21 BANK0     20    12      8
                            ___fldiv (ARG)
 ---------------------------------------------------------------------------------
 (2) ___flneg                                              4     0      4     155
                                              3 COMMON     4     0      4
 ---------------------------------------------------------------------------------
 (2) ___flmul                                             26    18      8    3713
                                              5 BANK0     26    18      8
                          __Umul8_16
 ---------------------------------------------------------------------------------
 (3) __Umul8_16                                            9     7      2     980
                                              3 COMMON     4     2      2
                                              0 BANK0      5     5      0
 ---------------------------------------------------------------------------------
 (2) ___flge                                              12     4      8    1346
                                              3 COMMON     4     4      0
                                              0 BANK0      8     0      8
 ---------------------------------------------------------------------------------
 (2) ___fldiv                                             26    18      8    2403
                                              3 COMMON     5     5      0
                                              0 BANK0     21    13      8
 ---------------------------------------------------------------------------------
 (1) _Lcd_Write_String                                     7     5      2     642
                                              6 COMMON     2     0      2
                                              0 BANK0      5     5      0
                     _Lcd_Write_Char
 ---------------------------------------------------------------------------------
 (2) _Lcd_Write_Char                                       2     2      0      62
                                              4 COMMON     2     2      0
                           _Lcd_Port
 ---------------------------------------------------------------------------------
 (1) _Lcd_Set_Cursor                                       4     3      1     704
                                              7 COMMON     1     0      1
                                              0 BANK0      3     3      0
                            _Lcd_Cmd
 ---------------------------------------------------------------------------------
 (1) _Lcd_Init                                             2     2      0      93
                                              0 BANK0      2     2      0
                            _Lcd_Cmd
                           _Lcd_Port
 ---------------------------------------------------------------------------------
 (1) _Lcd_Clear                                            0     0      0      62
                            _Lcd_Cmd
 ---------------------------------------------------------------------------------
 (2) _Lcd_Cmd                                              3     3      0      62
                                              4 COMMON     3     3      0
                           _Lcd_Port
 ---------------------------------------------------------------------------------
 (3) _Lcd_Port                                             1     1      0      31
                                              3 COMMON     1     1      0
 ---------------------------------------------------------------------------------
 (1) _DHT11_start                                          2     2      0       0
                                              3 COMMON     2     2      0
 ---------------------------------------------------------------------------------
 (1) _DHT11_response                                       0     0      0       0
 ---------------------------------------------------------------------------------
 (1) _DHT11_ReadData                                       4     4      0     341
                                              3 COMMON     4     4      0
 ---------------------------------------------------------------------------------
 Estimated maximum stack depth 4
 ---------------------------------------------------------------------------------
 (Depth) Function   	        Calls       Base Space   Used Autos Params    Refs
 ---------------------------------------------------------------------------------
 (5) _ISR                                                  3     3      0       0
                                              0 COMMON     3     3      0
 ---------------------------------------------------------------------------------
 Estimated maximum stack depth 5
 ---------------------------------------------------------------------------------

 Call Graph Graphs:

 _main (ROOT)
   _DHT11_ReadData
   _DHT11_response
   _DHT11_start
   _Lcd_Clear
     _Lcd_Cmd
       _Lcd_Port
   _Lcd_Init
     _Lcd_Cmd
       _Lcd_Port
     _Lcd_Port
   _Lcd_Set_Cursor
     _Lcd_Cmd
       _Lcd_Port
   _Lcd_Write_String
     _Lcd_Write_Char
       _Lcd_Port
   ___fldiv
   ___flge
   ___flmul
     __Umul8_16
   ___xxtofl
     _hx711_promedio (ARG)
       ___aldiv
       _hx711_lectura
         _hx711_pulso
   _floattostr_
     ___fladd
       ___fldiv (ARG)
     ___fldiv
     ___flge
     ___flmul
       __Umul8_16
     ___flneg
     ___flsub
       ___fladd
         ___fldiv (ARG)
       ___xxtofl (ARG)
         _hx711_promedio (ARG)
           ___aldiv
           _hx711_lectura
             _hx711_pulso
     ___fltol
     ___xxtofl
       _hx711_promedio (ARG)
         ___aldiv
         _hx711_lectura
           _hx711_pulso
   _hx711_init
   _hx711_promedio
     ___aldiv
     _hx711_lectura
       _hx711_pulso
   _setup
     _I2C_Slave_Init
   _tarar
     _hx711_promedio
       ___aldiv
       _hx711_lectura
         _hx711_pulso

 _ISR (ROOT)

 Address spaces:
Name               Size   Autos  Total    Cost      Usage
BANK3               60      0      32       9       52.1%
BITBANK3            60      0       0       8        0.0%
SFR3                 0      0       0       4        0.0%
BITSFR3              0      0       0       4        0.0%
BANK2               60      0       0      11        0.0%
BITBANK2            60      0       0      10        0.0%
SFR2                 0      0       0       5        0.0%
BITSFR2              0      0       0       5        0.0%
BANK1               50      4      3F       7       78.8%
BITBANK1            50      0       0       6        0.0%
SFR1                 0      0       0       2        0.0%
BITSFR1              0      0       0       2        0.0%
BANK0               50     4C      4D       5       96.2%
BITBANK0            50      0       0       4        0.0%
SFR0                 0      0       0       1        0.0%
BITSFR0              0      0       0       1        0.0%
COMMON               E      8       B       1       78.6%
BITCOMMON            E      0       0       0        0.0%
CODE                 0      0       0       0        0.0%
DATA                 0      0      C9      12        0.0%
ABS                  0      0      C9       3        0.0%
NULL                 0      0       0       0        0.0%
STACK                0      0       0       2        0.0%
EEDATA             100      0       0       0        0.0%


Microchip Technology PIC Macro Assembler V2.31 build 20201012212115 
Symbol Table                                                                                   Sun Sep 05 23:55:52 2021

             ___fldiv@aexp 0034               ___fldiv@bexp 0033                          _z 00B3  
                        pc 0002               ___fldiv@sign 002C             ?_hx711_lectura 0074  
              _SSPSTATbits 0094                         _BF 04A0                         fsr 0004  
      __Umul8_16@word_mpld 0022                        l210 131F                        l213 06E0  
                      l207 1347                        l232 15B4                        l225 07AF  
                      l250 1311                        l154 0FFF                        l235 1401  
                      l244 07FF                        l180 0430                        l262 135D  
                      l247 1377                        l256 13DB                        l329 1391  
                      l193 152B                        l346 0822                        l371 1465  
                      l355 1456                        l259 07F9                        l195 152F  
                      l268 14D1                        l196 153C                        l357 1444  
                      l349 1430                        l526 16D3                        l375 148B  
                      l368 145D                        l800 13B5                        l536 175B  
                      l810 093B                        l635 177A                        l643 1304  
                      l812 0ABB                        l900 088C                        l638 17E6  
                      l654 161B                        l639 17FF                        l647 1630  
                      l832 0A9F                        l760 0B9D                        l657 1630  
                      l834 0AAF                        l826 0A2D                        l850 0397  
                      l754 0B1F                        l907 08A8                        l908 08B4  
                      l862 038B                        l758 0BC6                        l871 142A  
                      l775 0C91                        l767 0D43                        l856 0303  
                      l785 0CD7                        l779 0CB5                        l796 0D37  
                      l788 0D15                        l869 1418                        l797 0D43  
                      l894 0847                        l896 08DE                        _GIE 005F  
                      _RA1 0029                        _PR2 0092                        _ISR 1631  
                      _cal 00CE                        fsr0 0004         floattostr_@cadena_ 0057  
                      indf 0000               ___flmul@aexp 0033               ___flmul@bexp 0038  
             ___flmul@sign 0032               ___flmul@temp 003D               ___flmul@prod 0039  
                     ?_ISR 0070               ?_floattostr_ 0053         floattostr_@largo_n 0061  
             ___fltol@exp1 0026                       l4001 0365                       l4011 0384  
                     l4003 036F                       l4013 038F                       l4005 0371  
                     l4021 082F                       l4101 0EC6                       l3301 1316  
                     l4007 037F                       l4031 085D                       l4023 083F  
                     l4111 0F04                       l4103 0EDF                       l3303 131C  
                     l3311 06D8                       l4009 0383                       l4041 0893  
                     l4033 086A                       l4025 084F                       l4017 0826  
                     l4121 0F2F                       l4113 0F13                       l4105 0EEF  
                     l4201 1517                       l3401 1748                       l3305 131D  
                     l3321 06F7                       l3313 06E4                       l3411 0AC9  
                     l4051 08CC                       l4043 089E                       l4035 0871  
                     l4019 082B                       l4131 0F63                       l4123 0F35  
                     l4115 0F17                       l4107 0EF5                       l4211 1522  
                     l4203 151B                       l3403 1753                       l3307 131E  
                     l3331 0745                       l3323 072D                       l3315 06E8  
                     l4301 145C                       l3501 0BBA                       l3421 0AE0  
                     l3413 0ACD                       l4053 08D1                       l4045 08A2  
                     l4037 0875                       l4029 0858                       l4141 0F8C  
                     l4133 0F6D                       l4125 0F3B                       l4117 0F1F  
                     l4109 0EFE                       l4061 0D44                       l4221 1529  
                     l4213 1523                       l4205 151D                       l3341 075E  
                     l3333 074B                       l4311 146F                       l4231 07B6  
                     l3511 0BD8                       l3503 0BBE                       l3431 0AF6  
                     l3423 0AE1                       l3415 0ACE                       l3407 0ABC  
                     l4055 08D5                       l4047 08AC                       l4039 0883  
                     l4143 0FC4                       l4135 0F73                       l4119 0F24  
                     l4127 0F49                       l4071 0D79                       l4063 0D4D  
                     l4223 152A                       l4215 1524                       l4207 151F  
                     l4151 14D2                       l3343 0764                       l3335 0751  
                     l3351 077D                       l3327 0736                       l3319 06ED  
                     l4313 1481                       l4233 07C0                       l4241 13B9  
                     l3601 1405                       l3521 0C02                       l3513 0BEF  
                     l3505 0BCA                       l3441 0B07                       l3433 0AF7  
                     l3417 0AD3                       l3425 0AE3                       l3409 0AC3  
                     l4057 08D6                       l4049 08B6                       l4145 0FE3  
                     l4137 0F7D                       l4129 0F4E                       l4081 0DD3  
                     l4073 0D90                       l4065 0D4F                       l4225 1333  
                     l4217 1526                       l4209 1521                       l4161 14DD  
                     l4153 14D6                       l3353 0783                       l3361 07A7  
                     l3345 0769                       l3337 0756                       l3329 073D  
                     l4321 03D8                       l4315 1485                       l4307 1463  
                     l4235 07D0                       l4251 13D5                       l4243 13BE  
                     l3611 1426                       l3603 1407                       l3531 0C2B  
                     l3523 0C06                       l3515 0BF3                       l3507 0BCF  
                     l3451 0B25                       l3443 0B0C                       l3435 0AFD  
                     l3427 0AEB                       l3419 0AD8                       l4139 0F86  
                     l4147 0FE9                       l4091 0E3B                       l4083 0DEF  
                     l4067 0D68                       l4227 133A                       l4219 1527  
                     l4171 14F1                       l4163 14DE                       l4155 14D7  
                     l3371 16C6                       l3355 0797                       l3347 0770  
                     l4331 0424                       l4323 03F9                       l4309 1469  
                     l4261 0808                       l3365 07FB                       l4237 07D6  
                     l4229 07B0                       l4245 13C3                       l4253 148C  
                     l3605 140E                       l3541 0C99                       l3533 0C69  
                     l3525 0C07                       l3517 0BF7                       l3461 0B39  
                     l3453 0B29                       l3445 0B14                       l3437 0B01  
                     l3429 0AF0                       l3701 15E0                       l4149 0FF7  
                     l4093 0E59                       l4085 0E10                       l4077 0DAC  
                     l4069 0D73                       l4181 14F6                       l4173 14F2  
                     l4165 14E7                       l4157 14DB                       l3381 16F6  
                     l3373 16D7                       l3621 1575                       l4317 13DF  
                     l4341 046B                       l4333 042D                       l4325 03FE  
                     l4271 142F                       l4263 080E                       l4239 1305  
                     l4247 13CA                       l4255 1491                       l3607 1412  
                     l3551 0CB4                       l3543 0C9E                       l3535 0C6F  
                     l3527 0C10                       l3519 0C00                       l3471 0B4D  
                     l3463 0B3D                       l3455 0B2D                       l3447 0B15  
                     l3439 0B02                       l3703 15E1                       l4095 0E7A  
                     l4079 0DCD                       l4087 0E16                       l3631 1379  
                     l4191 1509                       l4183 14FC                       l4175 14F3  
                     l4167 14ED                       l4159 14DC                       l3391 1725  
                     l3383 16F9                       l3375 16E2                       l3367 16BF  
                     l3623 1584                       l3615 1540                       l4351 0488  
                     l4343 0471                       l4335 0435                       l4327 0403  
                     l4319 0398                       l4273 1434                       l4265 0817  
                     l4249 13D0                       l4257 14AD                       l3801 099B  
                     l3609 1421                       l3553 0CB9                       l3561 0CC5  
                     l3537 0C74                       l3529 0C15                       l3481 0B61  
                     l3473 0B51                       l3465 0B41                       l3457 0B31  
                     l3449 0B17                       l3705 15E9                       l4097 0E80  
                     l4089 0E31                       l3641 138B                       l3633 1387  
                     l4193 150C                       l4185 14FE                       l4177 14F4  
                     l4169 14F0                       l3393 1733                       l3385 1706  
                     l3377 16E6                       l3369 16C2                       l3625 158A  
                     l3617 1548                       l4361 056D                       l4345 047A  
                     l4353 048B                       l4337 043F                       l4329 0418  
                     l4283 1442                       l4275 143A                       l4267 081F  
                     l3651 136B                       l4259 14B5                       l3811 09CD  
                     l3803 09AD                       l3555 0CBC                       l3547 0CA7  
                     l3539 0C83                       l3563 0CC9                       l3491 0BA1  
                     l3483 0B65                       l3475 0B55                       l3467 0B45  
                     l3459 0B35                       l3731 1396                       l3723 1610  
                     l3715 15F7                       l3707 15EB                       l4099 0E8E  
                     l3643 138E                       l3635 1388                       l4195 150D  
                     l4187 1502                       l4179 14F5                       l3395 1734  
                     l3387 170A                       l3379 16EE                       l3299 1312  
                     l3627 1590                       l3619 154A                       l4371 05B2  
                     l4363 0590                       l4355 04ED                       l4347 047F  
                     l4339 045D                       l4285 1448                       l4277 1440  
                     l4269 142B                       l3653 1374                       l3645 135F  
                     l3661 1355                       l3821 09EE                       l3813 09CE  
                     l3805 09B1                       l3741 08F0                       l3901 0074  
                     l3581 0D11                       l3573 0CDC                       l3565 0CCA  
                     l3557 0CBE                       l3549 0CB0                       l3493 0BAA  
                     l3477 0B59                       l3469 0B49                       l3485 0B69  
                     l3725 1620                       l3709 15EF                       l3717 1609  
                     l3637 1389                       l4197 150F                       l4189 1505  
                     l3397 173D                       l3389 1713                       l4381 0634  
                     l4373 05B8                       l4365 0598                       l4357 0538  
                     l4349 0481                       l4295 1455                       l4287 144E  
                     l3647 1362                       l3663 135A                       l3655 1349  
                     l3831 0A07                       l3823 09F0                       l3815 09DC  
                     l3807 09B2                       l3751 0904                       l3743 08F1  
                     l3735 08DF                       l3671 1796                       l3911 0089  
                     l3903 0075                       l3591 0D2D                       l3583 0D1A  
                     l3575 0CE1                       l3567 0CCE                       l3559 0CC3  
                     l3495 0BAC                       l3487 0B6A                       l3479 0B5D  
                     l3727 1625                       l3639 138A                       l4199 1513  
                     l3399 1743                       l4383 0696                       l4375 05F8  
                     l4367 05A1                       l4359 0563                       l3649 1368  
                     l3657 134C                       l3841 0A2A                       l3825 09F9  
                     l3833 0A0D                       l3809 09BB                       l3817 09E0  
                     l3761 091D                       l3745 08F6                       l3753 0906  
                     l3737 08E6                       l3681 17FE                       l3673 179A  
                     l3665 175C                       l3921 00A4                       l3913 0091  
                     l3905 007A                       l3593 0D31                       l3585 0D1F  
                     l3577 0CEF                       l3569 0CD4                       l3497 0BB0  
                     l3489 0B81                       l3729 1392                       l4377 0619  
                     l4369 05A9                       l4299 1458                       l3659 1352  
                     l3851 0A49                       l3835 0A11                       l3827 09FD  
                     l3819 09E6                       l3771 0931                       l3763 091E  
                     l3755 090E                       l3747 08FB                       l3739 08EC  
                     l3675 17BE                       l3667 1772                       l3931 0126  
                     l3923 00B4                       l3915 0096                       l3907 007F  
                     l3595 0D33                       l3587 0D27                       l3579 0CF3  
                     l3499 0BB1                       l4379 062E                       l3861 0A92  
                     l3853 0A62                       l3845 0A32                       l3837 0A12  
                     l3829 09FE                       l3765 0923                       l3773 0933  
                     l3757 0913                       l3749 0903                       l3677 17C2  
                     l3669 178E                       l3941 0194                       l3933 0142  
                     l3925 00C1                       l3917 009B                       l3909 0087  
                     l3685 12FA                       l3597 0D3E                       l3589 0D2C  
                     l3693 15B5                       l3871 0AAB                       l3863 0A96  
                     l3847 0A37                       l3855 0A68                       l3839 0A16  
                     l3791 097C                       l3775 0943                       l3783 095C  
                     l3767 0928                       l3759 0919                       l3679 17FC  
                     l3951 0224                       l3943 01A4                       l3935 015E  
                     l3927 00DE                       l3687 1302                       l3599 0D42  
                     l3695 15C2                       l3865 0A9E                       l3857 0A75  
                     l3849 0A45                       l3793 0984                       l3785 0961  
                     l3777 094F                       l3769 0930                       l3961 02B8  
                     l3953 0234                       l3945 01C1                       l3937 0167  
                     l3929 00FA                       l3881 0044                       l3689 1304  
                     l3867 0AA5                       l3859 0A83                       l3795 098C  
                     l3779 0953                       l3971 02DD                       l3963 02C6  
                     l3955 0261                       l3947 01DA                       l3939 0177  
                     l3891 005B                       l3883 0048                       l3699 15CB  
                     l3869 0AA9                       l3797 0994                       l3789 096A  
                     l3981 0300                       l3965 02CF                       l3973 02E3  
                     l3957 0287                       l3949 01F7                       l3893 005D  
                     l3885 0049                       l3877 0037                       l3799 0996  
                     l3991 031F                       l3975 02E7                       l3967 02D3  
                     l3959 02AF                       l3895 0065                       l3887 004E  
                     l3879 003E                       l3993 0338                       l3985 0308  
                     l3977 02E8                       l3969 02D4                       l3897 006A  
                     l3889 0053                       l3987 030D                       l3995 033E  
                     l3979 02EC                       l3899 0070                       l3997 034B  
                     l3989 031B                       l3999 0356                       STR_1 1022  
                     STR_2 101C                       u5000 1412                       u5001 1411  
          ?_hx711_promedio 002F                       u5100 17FC                       u5020 1426  
                     u5101 17FB                       u5021 1425                       u5110 1302  
                     u5030 1590                       u5015 1419                       u5111 1301  
                     u5031 158F                       u5040 1772                       u5200 1620  
                     u5120 15C2                       u6000 08D1                       u4400 0745  
                     u5105 17F8                       u5041 1771                       u5201 161F  
                     u5121 15C1                       u6001 08D0                       u4401 0744  
                     u5050 178E                       u5210 1625                       u5130 15D9  
                     u6010 08D5                       u4410 0751                       u5051 178D  
                     u5211 1624                       u6011 08D4                       u4411 0750  
                     u5300 099B                       u5220 08F0                       u5060 179A  
                     u5140 15EF                       u6100 0F49                       u6020 0D68  
                     u4500 1725                       u4420 0764                       u5301 099A  
                     u5221 08EF                       u5061 1799                       u5141 15EE  
                     u6101 0F48                       u6021 0D67                       u4501 1724  
                     u4421 0763                       u5230 08F6                       u5150 15F6  
                     u6110 0F7D                       u6030 0DAB                       u4430 0783  
                     u4350 06E4                       u5231 08F5                       u5071 17A9  
                     u5151 15F5                       u5135 15D4                       u6111 0F7C  
                     u6031 0DAA                       u4431 0782                       u4351 06E3  
                     u6200 143A                       u5240 08FB                       u5080 17C2  
                     u5072 17AA                       u4600 0B0C                       u6120 0FF7  
                     u6040 0DEE                       u4520 1743                       u4440 16C6  
                     u4360 06EC                       u6201 1439                       u5241 08FA  
                     u5081 17C1                       u5073 17AF                       u4601 0B0B  
                     u6121 0FF6                       u6105 0F45                       u6041 0DED  
                     u4521 1742                       u4505 1721                       u4441 16C5  
                     u4361 06EB                       u6210 1440                       u5410 0A11  
                     u5330 09B1                       u5250 091D                       u5074 17B0  
                     u4610 0B25                       u5170 1608                       u6050 0E31  
                     u6130 152F                       u4530 1748                       u4450 16D7  
                     u4370 06F7                       u6211 143F                       u5411 0A10  
                     u5331 09B0                       u5315 099D                       u5251 091C  
                     u5091 17D1                       u5075 17B5                       u4611 0B24  
                     u5171 1607                       u6115 0F79                       u6051 0E30  
                     u6131 152E                       u4531 1747                       u4515 1735  
                     u4451 16D6                       u4371 06F6                       _PEIE 005E  
                     u6220 1448                       u6140 13BE                       u5500 0AA9  
                     u5420 0A16                       u5260 0923                       u5092 17D2  
                     u5076 17B6                       u4700 0BCA                       u4620 0B29  
                     u4540 0ACD                       u5180 160F                       u6060 0E8E  
                     u4460 16F6                       u4380 0710                       u6300 043F  
                     u6221 1447                       u6141 13BD                       u5501 0AA8  
                     u5421 0A15                       u5405 0A00                       u5325 09A6  
                     u5261 0922                       u5093 17D7                       u4701 0BC9  
                     u4621 0B28                       u4541 0ACC                       u5181 160E  
                     u5165 15F8                       u6125 0FF3                       u6061 0E8D  
                     u4461 16F5                       u6301 043E                       u6230 144E  
                     u6150 13D0                       u5430 0A2A                       u5350 09CD  
                     u5270 0928                       u5094 17D8                       u5510 0048  
                     u4710 0BCF                       u4630 0B81                       u4550 0AD3  
                     u6070 0EDF                       u4390 071A                       u6310 0471  
                     u6231 144D                       u6151 13CF                       u5431 0A29  
                     u5351 09CC                       u5271 0927                       u5095 17DD  
                     u5511 0047                       u4711 0BCE                       u4631 0B80  
                     u4551 0AD2                       u6071 0EDE                       u4391 071B  
                     u6311 0470                       u6240 1454                       u6160 149B  
                     u5440 0A31                       u5360 09E6                       u5280 0943  
                     u5096 17DE                       u5520 004E                       u4800 0C74  
                     u4640 0B8C                       u4560 0AD8                       u6080 0EF5  
                     u4480 170A                       u4392 0720                       u6320 047A  
                     u6241 1453                       u5441 0A30                       u5361 09E5  
                     u5345 09B4                       u5281 0942                       u5601 0108  
                     u5521 004D                       u4801 0C73                       u4721 0BE1  
                     u4641 0B8A                       u4561 0AD7                       u6081 0EF4  
                     u6065 0E8A                       u4481 1709                       u4393 0721  
                     u4385 070B                       u6321 0479                       u6250 1463  
                     u6170 14BF                       u5450 0A37                       u5370 09EE  
                     u5290 0961                       u5602 010F                       u5530 0053  
                     u4810 0C99                       u4730 0BF3                       u4722 0BE8  
                     u4650 0B8D                       u4570 0AF6                       u6090 0F17  
                     u6251 1462                       u5451 0A36                       u5371 09ED  
                     u5355 09C9                       u5291 0960                       u5611 0134  
                     u5603 0116                       u5531 0052                       u4811 0C98  
                     u4731 0BF2                       u4723 0BEF                       u4635 0B7D  
                     u4571 0AF5                       u5195 1612                       u6091 0F16  
                     u4475 16FB                       u6331 04AC                       u6260 1469  
                     u6180 14D1                       u5460 0A49                       u5700 026D  
                     u5612 013B                       u5540 0074                       u4900 0CDB  
                     u4820 0C9E                       u4740 0BF7                       u4660 0BA1  
                     u4580 0B01                       u6340 0563                       u6332 04AF  
                     u6261 1468                       u6181 14D0                       u5461 0A48  
                     u5621 0150                       u5613 0142                       u5541 0073  
                     u4901 0CDA                       u4821 0C9D                       u4741 0BF6  
                     u4661 0BA0                       u4581 0B00                       u6341 0562  
                     u6333 04B6                       u6270 146F                       u6190 1434  
                     u5470 0A58                       u5390 09FD                       u5622 0157  
                     u5550 007A                       u4910 0CE1                       u4750 0C06  
                     u4670 0BB0                       u4590 0B07                       u6350 05B8  
                     u6334 04B9                       u6271 146E                       u6191 1433  
                     u5391 09FC                       u5711 0279                       u5623 015E  
                     u5551 0079                       u4911 0CE0                       u4751 0C05  
                     u4671 0BAF                       u4591 0B06                       u4495 170C  
                     u6407 157D                       u6351 05B7                       u6335 04C0  
                     u5480 0A75                       u5800 0300                       u5720 0295  
                     u5712 0280                       u5560 007F                       u4920 0CF3  
                     u4840 0CB4                       u6360 0634                       u6336 04C3  
                     u5481 0A74                       u5385 09F2                       u5801 02FF  
                     u5713 0287                       u5705 0268                       u5641 0186  
                     u5561 007E                       u4921 0CF2                       u4841 0CB3  
                     u6417 073A                       u6361 0633                       u6290 148B  
                     u5490 0A92                       u5810 0307                       u5642 018D  
                     u5570 0096                       u4930 0D02                       u4850 0CB9  
                     u4770 0C2B                       u4690 0BC6                       u6291 148A  
                     u6507 07CC                       u5491 0A91                       u5475 0A53  
                     u5811 0306                       u5731 02A1                       u5651 01B3  
                     u5643 0194                       u5635 0160                       u5571 0095  
                     u4851 0CB8                       u4835 0CA9                       u4771 0C2A  
                     u4691 0BC5                       u6427 075A                       u6371 0655  
                     u6284 1477                       u5820 030D                       u5732 02A8  
                     u5652 01BA                       u5580 009B                       u4940 0D11  
                     u4860 0CC3                       u5900 084F                       u6372 0658  
                     u6285 1475                       u6517 07DC                       u5485 0A71  
                     u5821 030C                       u5733 02AF                       u5725 0290  
                     u5653 01C1                       u5581 009A                       u4941 0D10  
                     u4861 0CC2                       u4781 0C42                       u4773 0C27  
                     u4765 0C09                       u4685 0BB3                       u5901 084E  
                     u6437 076D                       u6373 065F                       u5830 031F  
                     u4950 0D1A                       u4870 0CC9                       u4790 0C56  
                     u4782 0C43                       u6374 0662                       u6527 136F  
                     u5495 0A8E                       u5831 031E                       u5671 01E9  
                     u5591 00EC                       u4951 0D19                       u4935 0CFD  
                     u4871 0CC8                       u4791 0C57                       u4783 0C48  
                     u6447 0779                       u6375 0669                       u5840 032E  
                     u5760 02D3                       u5672 01F0                       u5592 00F3  
                     u4960 0D1F                       u4880 0CCE                       u4792 0C5C  
                     u4784 0C49                       u5920 0870                       u6376 066C  
                     u6537 0812                       u5761 02D2                       u5745 02B1  
                     u5681 0216                       u5673 01F7                       u5665 01C3  
                     u5593 00FA                       u4961 0D1E                       u4881 0CCD  
                     u4793 0C5D                       u4785 0C4E                       u5921 086F  
                     u6457 1500                       u5850 034B                       u5682 021D  
                     u4970 0D2C                       u4890 0CD4                       u4786 0C4F  
                     u6547 081C                       u5851 034A                       u5755 02C8  
                     u5691 0243                       u5683 0224                       u4971 0D2B  
                     u4891 0CD3                       u5915 0862                       u6467 1507  
                     u6387 0465                       u5860 0365                       u5780 02E7  
                     u5692 024A                       u4980 0D31                       u5940 0892  
                     u5861 0364                       u5845 0329                       u5781 02E6  
                     u5693 0251                       u4981 0D30                       u5941 0891  
                     u6477 1340                       u6397 0485                       u5870 0383  
                     u5790 02EC                       u4990 0D42                       u6487 1357  
                     u5871 0382                       u5855 0347                       u5791 02EB  
                     u5775 02D6                       u4991 0D41                       u5935 0884  
                     u5960 08A2                       u5880 082B                       u6497 07BC  
                     u5865 0361                       u5961 08A1                       u5881 082A  
                     u5970 08A8                       u5890 082F                       u5971 08A7  
                     u5955 0897                       u5891 082E                       u5980 08AC  
                     u5981 08AB                       u5990 08C1                       u5995 08BC  
                     _Hum1 006C         hx711_promedio@cont 003C         hx711_promedio@prom 0038  
        ?_Lcd_Write_String 0076                       _bits 00A0         floattostr_@numero_ 0053  
                     _main 0398                       _peso 00AA                       btemp 007E  
                     start 000C         ??_Lcd_Write_String 0020            ___fldiv@new_exp 002D  
         ??_DHT11_ReadData 0073            __end_of_Lcd_Cmd 1378        DHT11_ReadData@datos 0075  
     __size_of_DHT11_start 001B                      ??_ISR 0070        floattostr_@cont_for 0063  
            ___fltol@sign1 0025            __end_of___aldiv 175C            __end_of___fladd 0D44  
                    ?_main 0070            __end_of___fldiv 0ABC            __end_of___flneg 1305  
          __end_of___flmul 0398            __end_of___flsub 13B6            __end_of___fltol 1631  
                    _ANSEL 0188                      _T1CON 0010                      i1l170 16B5  
                    i1l172 16AF                      i1l166 1694                      i1l167 1680  
                    i1l175 16B8                      _TMR1H 000F                      _TMR1L 000E  
                    _PORTA 0005                      _PORTB 0006                      _PORTC 0007  
                    _PORTD 0008                      _PORTE 0009            __end_of_calibra 1014  
  __size_of_Lcd_Set_Cursor 0026                      _TRISA 0085                      _TRISB 0086  
                    _SSPIE 0463                      _TRISE 0089                      _SSPIF 0063  
                    _Temp1 007A        hx711_promedio@veces 0037                      _celda 00AE  
                    _tarar 13DC                      _setup 14D2                      _texto 00B5  
                    pclath 000A                      status 0003                      wtemp0 007E  
         __end_of_Lcd_Init 07FA           __end_of_Lcd_Port 0800            __initialization 000F  
          ??_hx711_lectura 0020               __end_of_main 06D5      hx711_lectura@ganancia 0028  
         ??_DHT11_response 0073                     ??_main 0067         __size_of_Lcd_Clear 000D  
                   _ADRESH 001E                     _CCPR1L 0015                     _CCPR2L 001B  
                   ?_tarar 003D                     ?_setup 0070                     _ANSELH 0189  
                   i1l3201 1668                     i1l3211 167C                     i1l3203 1669  
                   i1l3221 16A4                     i1l3213 167F                     i1l3205 166A  
                   i1l3223 16A9                     i1l3215 1686                     i1l3207 1670  
                   i1l3217 1698                     i1l3209 1674                     i1l3219 169C  
                   i1l3181 1631                     i1l3183 1637                     i1l3191 1652  
                   i1l3193 1656                     i1l3185 1640                     i1l3195 165B  
                   i1l3187 164B                     i1l3197 165F                     i1l3189 1651  
                   i1l3199 1665                     u420_20 165F                     u420_21 165E  
                   u421_20 1670                     u421_21 166F                     u422_20 1674  
                   u422_21 1673                     u423_20 1686                     u423_21 1685  
                   u424_20 1698                     u416_20 1637                     u424_21 1697  
                   u416_21 1636                     u425_20 169C                     u417_20 1640  
                   u425_21 169B                     u417_21 163F                     u426_20 16B5  
                   u418_20 1656                     u426_21 16B4                     u418_21 1655  
                   u419_20 165B                     u419_21 165A                     u655_27 1690  
                ??_Lcd_Cmd 0074                     u656_27 16AC    __size_of_Lcd_Write_Char 0016  
                   _SSPADD 0093                     _TRISC3 043B                     _TRISC4 043C  
                   _SSPBUF 0013                     _SSPCON 0014           __end_of___xxtofl 08DF  
                   ___flge 175C                  ??___aldiv 0073                  ??___fladd 003D  
                ??___fldiv 0073                  ??___flneg 0077       floattostr_@tempo_int 005B  
                ??___flmul 002D                  ??___flsub 0078                  ??___fltol 0020  
                   _factor 00D7                     _offset 00D3                     _tarart 0190  
                   _prueba 1014         __size_of__Umul8_16 0029                     saved_w 007E  
          Lcd_Set_Cursor@a 0021            Lcd_Set_Cursor@b 0077                 _hx711_init 1333  
               ___flge@ff1 0020                 ___flge@ff2 0024               ___xxtofl@arg 0047  
             ___xxtofl@exp 0046               ___xxtofl@val 003D      floattostr_@decimales_ 0059  
     __size_of_floattostr_ 02BC    __end_of__initialization 0033                 ___flneg@f1 0073  
        __end_of_Lcd_Clear 1312                 ___fltol@f1 0073             __pcstackCOMMON 0070  
             __pidataBANK1 0800    __size_of_I2C_Slave_Init 001A              __end_of_tarar 1402  
            __end_of_setup 153D              ??_hx711_pulso 0073             _Lcd_Set_Cursor 13B6  
         ??_hx711_promedio 0033                  ?_Lcd_Init 0070                  ?_Lcd_Port 0070  
                  ??_tarar 003E                    ??_setup 0074      I2C_Slave_Init@address 0073  
               __pbssBANK0 006C                 __pbssBANK1 00A0                 __pbssBANK3 0190  
  floattostr_@largo_entera 0065          __end_of__Umul8_16 142B                 __pmaintext 0398  
                  ?___flge 0020                 __pintentry 0004  __size_of_Lcd_Write_String 0046  
   __end_of_Lcd_Set_Cursor 13DC                  ?___xxtofl 003D                 ??_Lcd_Init 0020  
               ??_Lcd_Port 0073        __end_of_hx711_pulso 1320                    _SSPCON2 0091  
                  _SSPSTAT 0094                ?_hx711_init 0070                 __stringtab 1000  
           hx711_pulso@lei 0073             _Lcd_Write_Char 1348                    _Lcd_Cmd 135E  
            ??_DHT11_start 0073                    ___aldiv 16BF            __size_of___flge 00A4  
                  ___fladd 0ABC                    ___fldiv 08DF                    ___flneg 12FA  
                  ___flmul 0037                    ___flsub 1392                    ___fltol 15B5  
                  _calibra 1010            ?_Lcd_Set_Cursor 0077                    __ptext1 13DC  
                  __ptext2 153D                    __ptext3 06D5                    __ptext4 1312  
                  __ptext5 16BF                    __ptext6 14D2                    __ptext7 1378  
                  __ptext8 1333                    __ptext9 0D44              _offset_manual 1018  
             __size_of_ISR 008E                  _T1CONbits 0010                    _lectura 00B2  
                  _dummyT1 0079                  _T2CONbits 0012                 ??___xxtofl 0041  
                  _offsett 01A9           ___aldiv@dividend 0024                    clrloop0 12F3  
   __end_of_Lcd_Write_Char 135E       end_of_initialization 0033              tarar@ganancia 003D  
           _I2C_Slave_Init 1378           ___aldiv@quotient 002A    hx711_lectura@hx711_dato 002B  
  hx711_lectura@hx711_cont 0029                  Lcd_Port@a 0073      __end_of_hx711_lectura 07B0  
      __end_of_DHT11_start 0823        __size_of_hx711_init 0015                  _PORTDbits 0008  
                _PORTEbits 0009    __size_of_DHT11_ReadData 0035                _hx711_pulso 1312  
              ___fladd@grs 0048              ___xxtofl@sign 0045                  _TRISAbits 0085  
                _TRISCbits 0087                  _TRISDbits 0088                ___fldiv@grs 002F  
              ___fldiv@rem 0028            ?_Lcd_Write_Char 0070          Lcd_Write_String@a 0076  
        Lcd_Write_String@i 0023                ___flmul@grs 0034                _CCP1CONbits 0017  
              _CCP2CONbits 001D     __end_of_I2C_Slave_Init 1392                  _Lcd_Clear 1305  
           __end_of___flge 1800           _Lcd_Write_String 148C             __end_of_prueba 1018  
      start_initialization 000F                __end_of_ISR 16BF              ??_floattostr_ 005A  
  __size_of_DHT11_response 002C          __size_of_Lcd_Init 004A          __size_of_Lcd_Port 0006  
          ?_I2C_Slave_Init 0070                _DHT11_start 0808                 ?_Lcd_Clear 0070  
                 ??___flge 0073                 init_fetch0 1320                  __Umul8_16 1402  
              __pdataBANK1 00D3            Lcd_Write_Char@a 0075                  ___fladd@a 0039  
                ___fladd@b 0035                  ___fldiv@a 0020                  ___fldiv@b 0024  
                ___flmul@a 0029                  ___flmul@b 0025                __pbssCOMMON 0078  
                ___flsub@a 004B                  ___flsub@b 004F                  ___latbits 0002  
            __pcstackBANK0 0020              __pcstackBANK1 00DB          __size_of___xxtofl 00BC  
             ??_hx711_init 0073                   ?_Lcd_Cmd 0070        __end_of_floattostr_ 1000  
                _main$1527 00DB           ??_Lcd_Set_Cursor 0020                   ?___aldiv 0020  
                 ?___fladd 0035                   ?___fldiv 0020                   ?___flneg 0073  
                 ?___flmul 0025                   ?___flsub 004B                   ?___fltol 0073  
               ?__Umul8_16 0073             _DHT11_ReadData 1457                  __pstrings 1000  
               tarar@veces 003F         __end_of_hx711_init 1348                   _CHECKSUM 00D2  
                _dummyHum1 0078             __size_of_tarar 0026             __size_of_setup 006B  
          ___aldiv@divisor 0020          interrupt_function 0004            ___aldiv@counter 0028  
  __size_of_hx711_promedio 0078                  clear_ram0 12F2                   _PIE1bits 008C  
                 Lcd_Cmd@a 0076                   _PIR1bits 000C                ??_Lcd_Clear 0077  
   __end_of_DHT11_ReadData 148C                 _ADCON0bits 001F                __stringbase 100F  
               _ADCON1bits 009F               ?_hx711_pulso 0070           ??_Lcd_Write_Char 0074  
                 _Lcd_Init 07B0                   _Lcd_Port 07FA             _DHT11_response 142B  
              _floattostr_ 0D44     hx711_promedio@ganancia 002F   __end_of_Lcd_Write_String 14D2  
         __size_of_Lcd_Cmd 001A                ??__Umul8_16 0075           __size_of___aldiv 009D  
          ?_DHT11_ReadData 0070           __size_of___fladd 0288           __size_of___fldiv 01DD  
         __size_of___flneg 000B           __size_of___flmul 0361           __size_of___flsub 0024  
         __size_of___fltol 007C            DHT11_ReadData@i 0076         __end_of__stringtab 1010  
   floattostr_@tempo_float 005D                   ___xxtofl 0823     __end_of_DHT11_response 1457  
                 __ptext10 0823                   __ptext11 15B5                   __ptext20 1348  
                 __ptext12 1392                   __ptext21 13B6                   __ptext13 0ABC  
                 __ptext22 07B0                   __ptext14 12FA                   __ptext23 1305  
                 __ptext15 0037                   __ptext24 135E                   __ptext16 1402  
                 __ptext25 07FA                   __ptext17 175C                   __ptext26 0808  
                 __ptext18 08DF                   __ptext27 142B                   __ptext19 148C  
                 __ptext28 1457                   __ptext29 1631                   _contador 00B4  
         ??_I2C_Slave_Init 0073     __size_of_hx711_lectura 00DB              __size_of_main 033D  
             ?_DHT11_start 0070                 _INTCONbits 000B            ?_DHT11_response 0070  
                 init_ram0 1324                   intlevel1 0000             _hx711_promedio 153D  
                stringcode 100A                 _OSCCONbits 008F         Lcd_Set_Cursor@temp 0022  
            _hx711_lectura 06D5      __end_of_offset_manual 101C     __Umul8_16@multiplicand 0073  
                 stringdir 100A                   stringtab 1000       __size_of_hx711_pulso 000E  
             ___aldiv@sign 0029                _SSPCON2bits 0091              ___fladd@signs 0045  
   __end_of_hx711_promedio 15B5               ___fladd@aexp 0046               ___fladd@bexp 0047  
     __Umul8_16@multiplier 0024                 _SSPCONbits 0014          __Umul8_16@product 0020  
