

Microchip MPLAB XC8 Assembler V2.32 build 20210201212658 
                                                                                               Sun Sep 05 14:14:25 2021

Microchip MPLAB XC8 C Compiler v2.32 (Free license) build 20210201212658 Og1 
     1                           	processor	16F887
     2                           	pagewidth 120
     3                           	opt	flic
     4                           	psect	idataBANK0,global,class=CODE,delta=2,noexec
     5                           	psect	idataBANK1,global,class=CODE,delta=2,noexec
     6                           	psect	strings,global,class=STRING,delta=2,noexec
     7                           	psect	cinit,global,class=CODE,merge=1,delta=2
     8                           	psect	bssBANK0,global,class=BANK0,space=1,delta=1,noexec
     9                           	psect	dataBANK0,global,class=BANK0,space=1,delta=1,noexec
    10                           	psect	bssBANK1,global,class=BANK1,space=1,delta=1,noexec
    11                           	psect	dataBANK1,global,class=BANK1,space=1,delta=1,noexec
    12                           	psect	bssBANK3,global,class=BANK3,space=1,delta=1,noexec
    13                           	psect	clrtext,global,class=CODE,delta=2
    14                           	psect	cstackCOMMON,global,class=COMMON,space=1,delta=1,noexec
    15                           	psect	cstackBANK0,global,class=BANK0,space=1,delta=1,noexec
    16                           	psect	maintext,global,class=CODE,split=1,delta=2
    17                           	psect	text1,local,class=CODE,merge=1,delta=2
    18                           	psect	text2,local,class=CODE,merge=1,delta=2
    19                           	psect	text3,local,class=CODE,merge=1,delta=2
    20                           	psect	text4,local,class=CODE,merge=1,delta=2
    21                           	psect	text5,local,class=CODE,merge=1,delta=2,group=1
    22                           	psect	text6,local,class=CODE,merge=1,delta=2
    23                           	psect	text7,local,class=CODE,merge=1,delta=2
    24                           	psect	text8,local,class=CODE,merge=1,delta=2
    25                           	psect	text9,local,class=CODE,merge=1,delta=2,group=1
    26                           	psect	text10,local,class=CODE,merge=1,delta=2,group=1
    27                           	psect	text11,local,class=CODE,merge=1,delta=2,group=1
    28                           	psect	text12,local,class=CODE,merge=1,delta=2,group=1
    29                           	psect	text13,local,class=CODE,merge=1,delta=2,group=1
    30                           	psect	text14,local,class=CODE,merge=1,delta=2,group=1
    31                           	psect	text15,local,class=CODE,merge=1,delta=2,group=1
    32                           	psect	text16,local,class=CODE,merge=1,delta=2,group=1
    33                           	psect	text17,local,class=CODE,merge=1,delta=2,group=1
    34                           	psect	text18,local,class=CODE,merge=1,delta=2
    35                           	psect	text19,local,class=CODE,merge=1,delta=2
    36                           	psect	text20,local,class=CODE,merge=1,delta=2
    37                           	psect	text21,local,class=CODE,merge=1,delta=2
    38                           	psect	text22,local,class=CODE,merge=1,delta=2
    39                           	psect	text23,local,class=CODE,merge=1,delta=2
    40                           	psect	text24,local,class=CODE,merge=1,delta=2
    41                           	psect	config,global,abs,ovrld,class=CONFIG,space=4,delta=2,noexec
    42                           	dabs	1,0x7E,2
    43  0000                     
    44                           ; Version 2.20
    45                           ; Generated 12/02/2020 GMT
    46                           ; 
    47                           ; Copyright © 2020, Microchip Technology Inc. and its subsidiaries ("Microchip")
    48                           ; All rights reserved.
    49                           ; 
    50                           ; This software is developed by Microchip Technology Inc. and its subsidiaries ("Microch
      +                          ip").
    51                           ; 
    52                           ; Redistribution and use in source and binary forms, with or without modification, are
    53                           ; permitted provided that the following conditions are met:
    54                           ; 
    55                           ;     1. Redistributions of source code must retain the above copyright notice, this lis
      +                          t of
    56                           ;        conditions and the following disclaimer.
    57                           ; 
    58                           ;     2. Redistributions in binary form must reproduce the above copyright notice, this 
      +                          list
    59                           ;        of conditions and the following disclaimer in the documentation and/or other
    60                           ;        materials provided with the distribution.
    61                           ; 
    62                           ;     3. Microchip's name may not be used to endorse or promote products derived from th
      +                          is
    63                           ;        software without specific prior written permission.
    64                           ; 
    65                           ; THIS SOFTWARE IS PROVIDED BY MICROCHIP "AS IS" AND ANY EXPRESS OR IMPLIED WARRANTIES,
    66                           ; INCLUDING, BUT NOT LIMITED TO, THE IMPLIED WARRANTIES OF MERCHANTABILITY AND FITNESS F
      +                          OR
    67                           ; PURPOSE ARE DISCLAIMED.  IN NO EVENT SHALL MICROCHIP BE LIABLE FOR ANY DIRECT, INDIREC
      +                          T,
    68                           ; INCIDENTAL, SPECIAL, EXEMPLARY, OR CONSEQUENTIAL DAMAGES (INCLUDING BUT NOT LIMITED TO
    69                           ; PROCUREMENT OF SUBSTITUTE GOODS OR SERVICES; LOSS OF USE, DATA OR PROFITS; OR BUSINESS
    70                           ; INTERRUPTION) HOWSOEVER CAUSED AND ON ANY THEORY OF LIABILITY, WHETHER IN CONTRACT, ST
      +                          RICT
    71                           ; LIABILITY, OR TORT (INCLUDING NEGLIGENCE OR OTHERWISE) ARISING IN ANY WAY OUT OF THE U
      +                          SE OF
    72                           ; THIS SOFTWARE, EVEN IF ADVISED OF THE POSSIBILITY OF SUCH DAMAGE.
    73                           ; 
    74                           ; 
    75                           ; Code-generator required, PIC16F887 Definitions
    76                           ; 
    77                           ; SFR Addresses
    78  0000                     	;# 
    79  0001                     	;# 
    80  0002                     	;# 
    81  0003                     	;# 
    82  0004                     	;# 
    83  0005                     	;# 
    84  0006                     	;# 
    85  0007                     	;# 
    86  0008                     	;# 
    87  0009                     	;# 
    88  000A                     	;# 
    89  000B                     	;# 
    90  000C                     	;# 
    91  000D                     	;# 
    92  000E                     	;# 
    93  000E                     	;# 
    94  000F                     	;# 
    95  0010                     	;# 
    96  0011                     	;# 
    97  0012                     	;# 
    98  0013                     	;# 
    99  0014                     	;# 
   100  0015                     	;# 
   101  0015                     	;# 
   102  0016                     	;# 
   103  0017                     	;# 
   104  0018                     	;# 
   105  0019                     	;# 
   106  001A                     	;# 
   107  001B                     	;# 
   108  001B                     	;# 
   109  001C                     	;# 
   110  001D                     	;# 
   111  001E                     	;# 
   112  001F                     	;# 
   113  0081                     	;# 
   114  0085                     	;# 
   115  0086                     	;# 
   116  0087                     	;# 
   117  0088                     	;# 
   118  0089                     	;# 
   119  008C                     	;# 
   120  008D                     	;# 
   121  008E                     	;# 
   122  008F                     	;# 
   123  0090                     	;# 
   124  0091                     	;# 
   125  0092                     	;# 
   126  0093                     	;# 
   127  0093                     	;# 
   128  0093                     	;# 
   129  0094                     	;# 
   130  0095                     	;# 
   131  0096                     	;# 
   132  0097                     	;# 
   133  0098                     	;# 
   134  0099                     	;# 
   135  009A                     	;# 
   136  009B                     	;# 
   137  009C                     	;# 
   138  009D                     	;# 
   139  009E                     	;# 
   140  009F                     	;# 
   141  0105                     	;# 
   142  0107                     	;# 
   143  0108                     	;# 
   144  0109                     	;# 
   145  010C                     	;# 
   146  010C                     	;# 
   147  010D                     	;# 
   148  010E                     	;# 
   149  010F                     	;# 
   150  0185                     	;# 
   151  0187                     	;# 
   152  0188                     	;# 
   153  0189                     	;# 
   154  018C                     	;# 
   155  018D                     	;# 
   156  0000                     	;# 
   157  0001                     	;# 
   158  0002                     	;# 
   159  0003                     	;# 
   160  0004                     	;# 
   161  0005                     	;# 
   162  0006                     	;# 
   163  0007                     	;# 
   164  0008                     	;# 
   165  0009                     	;# 
   166  000A                     	;# 
   167  000B                     	;# 
   168  000C                     	;# 
   169  000D                     	;# 
   170  000E                     	;# 
   171  000E                     	;# 
   172  000F                     	;# 
   173  0010                     	;# 
   174  0011                     	;# 
   175  0012                     	;# 
   176  0013                     	;# 
   177  0014                     	;# 
   178  0015                     	;# 
   179  0015                     	;# 
   180  0016                     	;# 
   181  0017                     	;# 
   182  0018                     	;# 
   183  0019                     	;# 
   184  001A                     	;# 
   185  001B                     	;# 
   186  001B                     	;# 
   187  001C                     	;# 
   188  001D                     	;# 
   189  001E                     	;# 
   190  001F                     	;# 
   191  0081                     	;# 
   192  0085                     	;# 
   193  0086                     	;# 
   194  0087                     	;# 
   195  0088                     	;# 
   196  0089                     	;# 
   197  008C                     	;# 
   198  008D                     	;# 
   199  008E                     	;# 
   200  008F                     	;# 
   201  0090                     	;# 
   202  0091                     	;# 
   203  0092                     	;# 
   204  0093                     	;# 
   205  0093                     	;# 
   206  0093                     	;# 
   207  0094                     	;# 
   208  0095                     	;# 
   209  0096                     	;# 
   210  0097                     	;# 
   211  0098                     	;# 
   212  0099                     	;# 
   213  009A                     	;# 
   214  009B                     	;# 
   215  009C                     	;# 
   216  009D                     	;# 
   217  009E                     	;# 
   218  009F                     	;# 
   219  0105                     	;# 
   220  0107                     	;# 
   221  0108                     	;# 
   222  0109                     	;# 
   223  010C                     	;# 
   224  010C                     	;# 
   225  010D                     	;# 
   226  010E                     	;# 
   227  010F                     	;# 
   228  0185                     	;# 
   229  0187                     	;# 
   230  0188                     	;# 
   231  0189                     	;# 
   232  018C                     	;# 
   233  018D                     	;# 
   234  0000                     	;# 
   235  0001                     	;# 
   236  0002                     	;# 
   237  0003                     	;# 
   238  0004                     	;# 
   239  0005                     	;# 
   240  0006                     	;# 
   241  0007                     	;# 
   242  0008                     	;# 
   243  0009                     	;# 
   244  000A                     	;# 
   245  000B                     	;# 
   246  000C                     	;# 
   247  000D                     	;# 
   248  000E                     	;# 
   249  000E                     	;# 
   250  000F                     	;# 
   251  0010                     	;# 
   252  0011                     	;# 
   253  0012                     	;# 
   254  0013                     	;# 
   255  0014                     	;# 
   256  0015                     	;# 
   257  0015                     	;# 
   258  0016                     	;# 
   259  0017                     	;# 
   260  0018                     	;# 
   261  0019                     	;# 
   262  001A                     	;# 
   263  001B                     	;# 
   264  001B                     	;# 
   265  001C                     	;# 
   266  001D                     	;# 
   267  001E                     	;# 
   268  001F                     	;# 
   269  0081                     	;# 
   270  0085                     	;# 
   271  0086                     	;# 
   272  0087                     	;# 
   273  0088                     	;# 
   274  0089                     	;# 
   275  008C                     	;# 
   276  008D                     	;# 
   277  008E                     	;# 
   278  008F                     	;# 
   279  0090                     	;# 
   280  0091                     	;# 
   281  0092                     	;# 
   282  0093                     	;# 
   283  0093                     	;# 
   284  0093                     	;# 
   285  0094                     	;# 
   286  0095                     	;# 
   287  0096                     	;# 
   288  0097                     	;# 
   289  0098                     	;# 
   290  0099                     	;# 
   291  009A                     	;# 
   292  009B                     	;# 
   293  009C                     	;# 
   294  009D                     	;# 
   295  009E                     	;# 
   296  009F                     	;# 
   297  0105                     	;# 
   298  0107                     	;# 
   299  0108                     	;# 
   300  0109                     	;# 
   301  010C                     	;# 
   302  010C                     	;# 
   303  010D                     	;# 
   304  010E                     	;# 
   305  010F                     	;# 
   306  0185                     	;# 
   307  0187                     	;# 
   308  0188                     	;# 
   309  0189                     	;# 
   310  018C                     	;# 
   311  018D                     	;# 
   312  0000                     	;# 
   313  0001                     	;# 
   314  0002                     	;# 
   315  0003                     	;# 
   316  0004                     	;# 
   317  0005                     	;# 
   318  0006                     	;# 
   319  0007                     	;# 
   320  0008                     	;# 
   321  0009                     	;# 
   322  000A                     	;# 
   323  000B                     	;# 
   324  000C                     	;# 
   325  000D                     	;# 
   326  000E                     	;# 
   327  000E                     	;# 
   328  000F                     	;# 
   329  0010                     	;# 
   330  0011                     	;# 
   331  0012                     	;# 
   332  0013                     	;# 
   333  0014                     	;# 
   334  0015                     	;# 
   335  0015                     	;# 
   336  0016                     	;# 
   337  0017                     	;# 
   338  0018                     	;# 
   339  0019                     	;# 
   340  001A                     	;# 
   341  001B                     	;# 
   342  001B                     	;# 
   343  001C                     	;# 
   344  001D                     	;# 
   345  001E                     	;# 
   346  001F                     	;# 
   347  0081                     	;# 
   348  0085                     	;# 
   349  0086                     	;# 
   350  0087                     	;# 
   351  0088                     	;# 
   352  0089                     	;# 
   353  008C                     	;# 
   354  008D                     	;# 
   355  008E                     	;# 
   356  008F                     	;# 
   357  0090                     	;# 
   358  0091                     	;# 
   359  0092                     	;# 
   360  0093                     	;# 
   361  0093                     	;# 
   362  0093                     	;# 
   363  0094                     	;# 
   364  0095                     	;# 
   365  0096                     	;# 
   366  0097                     	;# 
   367  0098                     	;# 
   368  0099                     	;# 
   369  009A                     	;# 
   370  009B                     	;# 
   371  009C                     	;# 
   372  009D                     	;# 
   373  009E                     	;# 
   374  009F                     	;# 
   375  0105                     	;# 
   376  0107                     	;# 
   377  0108                     	;# 
   378  0109                     	;# 
   379  010C                     	;# 
   380  010C                     	;# 
   381  010D                     	;# 
   382  010E                     	;# 
   383  010F                     	;# 
   384  0185                     	;# 
   385  0187                     	;# 
   386  0188                     	;# 
   387  0189                     	;# 
   388  018C                     	;# 
   389  018D                     	;# 
   390                           
   391                           	psect	idataBANK0
   392  0800                     __pidataBANK0:
   393                           
   394                           ;initializer for _offset
   395  0800  34A5               	retlw	165
   396  0801  3447               	retlw	71
   397  0802  3401               	retlw	1
   398  0803  3400               	retlw	0
   399                           
   400                           	psect	idataBANK1
   401  15BD                     __pidataBANK1:
   402                           
   403                           ;initializer for _factor
   404  15BD  3421               	retlw	33
   405  15BE  3455               	retlw	85
   406  15BF  3443               	retlw	67
   407  15C0  343B               	retlw	59
   408                           
   409                           	psect	strings
   410  1000                     __pstrings:
   411  1000                     stringtab:
   412  1000                     __stringtab:
   413                           
   414                           ;	String table - string pointers are 1 byte each
   415  1000  1BFF               	btfsc	btemp+1,7
   416  1001  280A               	ljmp	stringcode
   417  1002  1383               	bcf	3,7
   418  1003  187F               	btfsc	btemp+1,0
   419  1004  1783               	bsf	3,7
   420  1005  0800               	movf	0,w
   421  1006  0A84               	incf	4,f
   422  1007  1903               	skipnz
   423  1008  0AFF               	incf	btemp+1,f
   424  1009  0008               	return
   425  100A                     stringcode:
   426  100A                     stringdir:
   427  100A  3010               	movlw	high stringdir
   428  100B  008A               	movwf	10
   429  100C  0804               	movf	4,w
   430  100D  0A84               	incf	4,f
   431  100E  0782               	addwf	2,f
   432  100F                     __stringbase:
   433  100F  3400               	retlw	0
   434  1010                     __end_of__stringtab:
   435  1010                     _calibra:
   436  1010  34BD               	retlw	189
   437  1011  34D2               	retlw	210
   438  1012  34A3               	retlw	163
   439  1013  3448               	retlw	72
   440  1014                     __end_of_calibra:
   441  1014                     _prueba:
   442  1014  3400               	retlw	0
   443  1015  3400               	retlw	0
   444  1016  347A               	retlw	122
   445  1017  3444               	retlw	68
   446  1018                     __end_of_prueba:
   447  1018                     _offset_manual:
   448  1018  3480               	retlw	128
   449  1019  34D2               	retlw	210
   450  101A  34A3               	retlw	163
   451  101B  3447               	retlw	71
   452  101C                     __end_of_offset_manual:
   453  0009                     _PORTEbits	set	9
   454  0009                     _PORTE	set	9
   455  0008                     _PORTD	set	8
   456  0006                     _PORTB	set	6
   457  0005                     _PORTA	set	5
   458  0008                     _PORTDbits	set	8
   459  008F                     _OSCCONbits	set	143
   460  0089                     _TRISE	set	137
   461  0086                     _TRISB	set	134
   462  0088                     _TRISDbits	set	136
   463  0189                     _ANSELH	set	393
   464  0188                     _ANSEL	set	392
   465  101C                     STR_2:
   466  101C  3450               	retlw	80	;'P'
   467  101D  3445               	retlw	69	;'E'
   468  101E  3453               	retlw	83	;'S'
   469  101F  344F               	retlw	79	;'O'
   470  1020  343A               	retlw	58	;':'
   471  1021  3400               	retlw	0
   472  1022                     STR_1:
   473  1022  344F               	retlw	79	;'O'
   474  1023  3466               	retlw	102	;'f'
   475  1024  3466               	retlw	102	;'f'
   476  1025  343A               	retlw	58	;':'
   477  1026  3400               	retlw	0
   478                           
   479                           	psect	cinit
   480  07B2                     start_initialization:	
   481                           ; #config settings
   482                           
   483  07B2                     __initialization:
   484                           
   485                           ; Initialize objects allocated to BANK1
   486  07B2  1683               	bsf	3,5	;RP0=1, select bank1
   487  07B3  1303               	bcf	3,6	;RP1=0, select bank1
   488  07B4  160A  118A  25BD  120A  118A  	fcall	__pidataBANK1	;fetch initializer
   489  07B9  00DA               	movwf	__pdataBANK1& (0+127)
   490  07BA  160A  118A  25BE  120A  118A  	fcall	__pidataBANK1+1	;fetch initializer
   491  07BF  00DB               	movwf	(__pdataBANK1+1)& (0+127)
   492  07C0  160A  118A  25BF  120A  118A  	fcall	__pidataBANK1+2	;fetch initializer
   493  07C5  00DC               	movwf	(__pdataBANK1+2)& (0+127)
   494  07C6  160A  118A  25C0  120A  118A  	fcall	__pidataBANK1+3	;fetch initializer
   495  07CB  00DD               	movwf	(__pdataBANK1+3)& (0+127)
   496                           
   497                           ; Initialize objects allocated to BANK0
   498  07CC  1283               	bcf	3,5	;RP0=0, select bank0
   499  07CD  1303               	bcf	3,6	;RP1=0, select bank0
   500  07CE  120A  158A  2000  120A  118A  	fcall	__pidataBANK0	;fetch initializer
   501  07D3  00EC               	movwf	__pdataBANK0& (0+127)
   502  07D4  120A  158A  2001  120A  118A  	fcall	__pidataBANK0+1	;fetch initializer
   503  07D9  00ED               	movwf	(__pdataBANK0+1)& (0+127)
   504  07DA  120A  158A  2002  120A  118A  	fcall	__pidataBANK0+2	;fetch initializer
   505  07DF  00EE               	movwf	(__pdataBANK0+2)& (0+127)
   506  07E0  120A  158A  2003  120A  118A  	fcall	__pidataBANK0+3	;fetch initializer
   507  07E5  00EF               	movwf	(__pdataBANK0+3)& (0+127)
   508                           
   509                           ; Clear objects allocated to BANK3
   510  07E6  1783               	bsf	3,7	;select IRP bank2
   511  07E7  3090               	movlw	low __pbssBANK3
   512  07E8  0084               	movwf	4
   513  07E9  30A9               	movlw	low (__pbssBANK3+25)
   514  07EA  160A  118A  25C7  120A  118A  	fcall	clear_ram0
   515                           
   516                           ; Clear objects allocated to BANK1
   517  07EF  1383               	bcf	3,7	;select IRP bank0
   518  07F0  30A0               	movlw	low __pbssBANK1
   519  07F1  0084               	movwf	4
   520  07F2  30DA               	movlw	low (__pbssBANK1+58)
   521  07F3  160A  118A  25C7  120A  118A  	fcall	clear_ram0
   522                           
   523                           ; Clear objects allocated to BANK0
   524  07F8  01E8               	clrf	__pbssBANK0& (0+127)
   525  07F9  01E9               	clrf	(__pbssBANK0+1)& (0+127)
   526  07FA  01EA               	clrf	(__pbssBANK0+2)& (0+127)
   527  07FB  01EB               	clrf	(__pbssBANK0+3)& (0+127)
   528  07FC                     end_of_initialization:	
   529                           ;End of C runtime variable initialization code
   530                           
   531  07FC                     __end_of__initialization:
   532  07FC  0183               	clrf	3
   533  07FD  120A  158A  2B79   	ljmp	_main	;jump to C main() function
   534                           
   535                           	psect	bssBANK0
   536  0068                     __pbssBANK0:
   537  0068                     _peso:
   538  0068                     	ds	4
   539                           
   540                           	psect	dataBANK0
   541  006C                     __pdataBANK0:
   542  006C                     _offset:
   543  006C                     	ds	4
   544                           
   545                           	psect	bssBANK1
   546  00A0                     __pbssBANK1:
   547  00A0                     _celda:
   548  00A0                     	ds	4
   549  00A4                     _offsett:
   550  00A4                     	ds	25
   551  00BD                     _texto:
   552  00BD                     	ds	25
   553  00D6                     _cal:
   554  00D6                     	ds	4
   555                           
   556                           	psect	dataBANK1
   557  00DA                     __pdataBANK1:
   558  00DA                     _factor:
   559  00DA                     	ds	4
   560                           
   561                           	psect	bssBANK3
   562  0190                     __pbssBANK3:
   563  0190                     _tarart:
   564  0190                     	ds	25
   565                           
   566                           	psect	clrtext
   567  15C7                     clear_ram0:	
   568                           ;	Called with FSR containing the base address, and
   569                           ;	W with the last address+1
   570                           
   571  15C7  0064               	clrwdt	;clear the watchdog before getting into this loop
   572  15C8                     clrloop0:
   573  15C8  0180               	clrf	0	;clear RAM location pointed to by FSR
   574  15C9  0A84               	incf	4,f	;increment pointer
   575  15CA  0604               	xorwf	4,w	;XOR with final address
   576  15CB  1903               	btfsc	3,2	;have we reached the end yet?
   577  15CC  3400               	retlw	0	;all done for this memory range, return
   578  15CD  0604               	xorwf	4,w	;XOR again to restore value
   579  15CE  2DC8               	goto	clrloop0	;do the next byte
   580                           
   581                           	psect	cstackCOMMON
   582  0070                     __pcstackCOMMON:
   583  0070                     ?___flge:
   584  0070                     ?_setup:	
   585                           ; 1 bit 
   586                           
   587  0070                     ??_setup:	
   588                           ; 1 bytes @ 0x0
   589                           
   590  0070                     ?_hx711_init:	
   591                           ; 1 bytes @ 0x0
   592                           
   593  0070                     ??_hx711_init:	
   594                           ; 1 bytes @ 0x0
   595                           
   596  0070                     ?_Lcd_Init:	
   597                           ; 1 bytes @ 0x0
   598                           
   599  0070                     ?_Lcd_Clear:	
   600                           ; 1 bytes @ 0x0
   601                           
   602  0070                     ?_main:	
   603                           ; 1 bytes @ 0x0
   604                           
   605  0070                     ?_hx711_pulso:	
   606                           ; 1 bytes @ 0x0
   607                           
   608  0070                     ??_hx711_pulso:	
   609                           ; 1 bytes @ 0x0
   610                           
   611  0070                     ?_Lcd_Port:	
   612                           ; 1 bytes @ 0x0
   613                           
   614  0070                     ??_Lcd_Port:	
   615                           ; 1 bytes @ 0x0
   616                           
   617  0070                     ?_Lcd_Cmd:	
   618                           ; 1 bytes @ 0x0
   619                           
   620  0070                     ?_Lcd_Write_Char:	
   621                           ; 1 bytes @ 0x0
   622                           
   623  0070                     ?__Umul8_16:	
   624                           ; 1 bytes @ 0x0
   625                           
   626  0070                     ?___aldiv:	
   627                           ; 2 bytes @ 0x0
   628                           
   629  0070                     ?___flneg:	
   630                           ; 4 bytes @ 0x0
   631                           
   632  0070                     ?___fltol:	
   633                           ; 4 bytes @ 0x0
   634                           
   635  0070                     ?___fldiv:	
   636                           ; 4 bytes @ 0x0
   637                           
   638  0070                     hx711_pulso@lei:	
   639                           ; 4 bytes @ 0x0
   640                           
   641  0070                     Lcd_Port@a:	
   642                           ; 1 bytes @ 0x0
   643                           
   644  0070                     __Umul8_16@multiplicand:	
   645                           ; 1 bytes @ 0x0
   646                           
   647  0070                     ___aldiv@divisor:	
   648                           ; 1 bytes @ 0x0
   649                           
   650  0070                     ___flge@ff1:	
   651                           ; 4 bytes @ 0x0
   652                           
   653  0070                     ___flneg@f1:	
   654                           ; 4 bytes @ 0x0
   655                           
   656  0070                     ___fltol@f1:	
   657                           ; 4 bytes @ 0x0
   658                           
   659  0070                     ___fldiv@a:	
   660                           ; 4 bytes @ 0x0
   661                           
   662                           
   663                           ; 4 bytes @ 0x0
   664  0070                     	ds	1
   665  0071                     ??_Lcd_Cmd:
   666  0071                     ??_Lcd_Write_Char:	
   667                           ; 1 bytes @ 0x1
   668                           
   669  0071                     ?_hx711_lectura:	
   670                           ; 1 bytes @ 0x1
   671                           
   672                           
   673                           ; 4 bytes @ 0x1
   674  0071                     	ds	1
   675  0072                     ??__Umul8_16:
   676  0072                     Lcd_Write_Char@a:	
   677                           ; 1 bytes @ 0x2
   678                           
   679                           
   680                           ; 1 bytes @ 0x2
   681  0072                     	ds	1
   682  0073                     ?_Lcd_Write_String:
   683  0073                     Lcd_Cmd@a:	
   684                           ; 1 bytes @ 0x3
   685                           
   686  0073                     Lcd_Write_String@a:	
   687                           ; 1 bytes @ 0x3
   688                           
   689                           
   690                           ; 2 bytes @ 0x3
   691  0073                     	ds	1
   692  0074                     ??_Lcd_Init:
   693  0074                     ??_Lcd_Clear:	
   694                           ; 1 bytes @ 0x4
   695                           
   696  0074                     ?_Lcd_Set_Cursor:	
   697                           ; 1 bytes @ 0x4
   698                           
   699  0074                     ??___flneg:	
   700                           ; 1 bytes @ 0x4
   701                           
   702  0074                     ??___fltol:	
   703                           ; 1 bytes @ 0x4
   704                           
   705  0074                     Lcd_Set_Cursor@b:	
   706                           ; 1 bytes @ 0x4
   707                           
   708  0074                     __Umul8_16@product:	
   709                           ; 1 bytes @ 0x4
   710                           
   711  0074                     ___aldiv@dividend:	
   712                           ; 2 bytes @ 0x4
   713                           
   714  0074                     ___flge@ff2:	
   715                           ; 4 bytes @ 0x4
   716                           
   717  0074                     ___fldiv@b:	
   718                           ; 4 bytes @ 0x4
   719                           
   720                           
   721                           ; 4 bytes @ 0x4
   722  0074                     	ds	1
   723  0075                     ??_Lcd_Set_Cursor:
   724  0075                     ??_Lcd_Write_String:	
   725                           ; 1 bytes @ 0x5
   726                           
   727  0075                     ??_hx711_lectura:	
   728                           ; 1 bytes @ 0x5
   729                           
   730                           
   731                           ; 1 bytes @ 0x5
   732  0075                     	ds	1
   733  0076                     Lcd_Set_Cursor@a:
   734  0076                     __Umul8_16@word_mpld:	
   735                           ; 1 bytes @ 0x6
   736                           
   737                           
   738                           ; 2 bytes @ 0x6
   739  0076                     	ds	1
   740  0077                     Lcd_Set_Cursor@temp:
   741                           
   742                           ; 1 bytes @ 0x7
   743  0077                     	ds	1
   744  0078                     ??___aldiv:
   745  0078                     ??___flge:	
   746                           ; 1 bytes @ 0x8
   747                           
   748  0078                     ??___fldiv:	
   749                           ; 1 bytes @ 0x8
   750                           
   751  0078                     __Umul8_16@multiplier:	
   752                           ; 1 bytes @ 0x8
   753                           
   754  0078                     Lcd_Write_String@i:	
   755                           ; 1 bytes @ 0x8
   756                           
   757                           
   758                           ; 2 bytes @ 0x8
   759  0078                     	ds	1
   760  0079                     ??___flmul:
   761  0079                     ___fltol@sign1:	
   762                           ; 1 bytes @ 0x9
   763                           
   764                           
   765                           ; 1 bytes @ 0x9
   766  0079                     	ds	1
   767  007A                     ___fltol@exp1:
   768                           
   769                           ; 1 bytes @ 0xA
   770  007A                     	ds	3
   771  007D                     ??_tarar:
   772  007D                     ??___flsub:	
   773                           ; 1 bytes @ 0xD
   774                           
   775                           
   776                           ; 1 bytes @ 0xD
   777  007D                     	ds	1
   778                           
   779                           	psect	cstackBANK0
   780  0020                     __pcstackBANK0:
   781  0020                     ?___flmul:
   782  0020                     hx711_lectura@ganancia:	
   783                           ; 4 bytes @ 0x0
   784                           
   785  0020                     ___aldiv@counter:	
   786                           ; 1 bytes @ 0x0
   787                           
   788  0020                     ___fldiv@rem:	
   789                           ; 1 bytes @ 0x0
   790                           
   791  0020                     ___flmul@b:	
   792                           ; 4 bytes @ 0x0
   793                           
   794                           
   795                           ; 4 bytes @ 0x0
   796  0020                     	ds	1
   797  0021                     ___aldiv@sign:
   798  0021                     hx711_lectura@hx711_cont:	
   799                           ; 1 bytes @ 0x1
   800                           
   801                           
   802                           ; 2 bytes @ 0x1
   803  0021                     	ds	1
   804  0022                     ___aldiv@quotient:
   805                           
   806                           ; 4 bytes @ 0x2
   807  0022                     	ds	1
   808  0023                     hx711_lectura@hx711_dato:
   809                           
   810                           ; 4 bytes @ 0x3
   811  0023                     	ds	1
   812  0024                     ___fldiv@sign:
   813  0024                     ___flmul@a:	
   814                           ; 1 bytes @ 0x4
   815                           
   816                           
   817                           ; 4 bytes @ 0x4
   818  0024                     	ds	1
   819  0025                     ___fldiv@new_exp:
   820                           
   821                           ; 2 bytes @ 0x5
   822  0025                     	ds	2
   823  0027                     ?_hx711_promedio:
   824  0027                     hx711_promedio@ganancia:	
   825                           ; 4 bytes @ 0x7
   826                           
   827  0027                     ___fldiv@grs:	
   828                           ; 1 bytes @ 0x7
   829                           
   830                           
   831                           ; 4 bytes @ 0x7
   832  0027                     	ds	1
   833  0028                     ___flmul@sign:
   834                           
   835                           ; 1 bytes @ 0x8
   836  0028                     	ds	1
   837  0029                     ___flmul@grs:
   838                           
   839                           ; 4 bytes @ 0x9
   840  0029                     	ds	2
   841  002B                     ??_hx711_promedio:
   842  002B                     ___fldiv@bexp:	
   843                           ; 1 bytes @ 0xB
   844                           
   845                           
   846                           ; 1 bytes @ 0xB
   847  002B                     	ds	1
   848  002C                     ___fldiv@aexp:
   849                           
   850                           ; 1 bytes @ 0xC
   851  002C                     	ds	1
   852  002D                     ?___fladd:
   853  002D                     ___flmul@aexp:	
   854                           ; 4 bytes @ 0xD
   855                           
   856  002D                     ___fladd@b:	
   857                           ; 1 bytes @ 0xD
   858                           
   859                           
   860                           ; 4 bytes @ 0xD
   861  002D                     	ds	1
   862  002E                     ___flmul@bexp:
   863                           
   864                           ; 1 bytes @ 0xE
   865  002E                     	ds	1
   866  002F                     hx711_promedio@veces:
   867  002F                     ___flmul@prod:	
   868                           ; 1 bytes @ 0xF
   869                           
   870                           
   871                           ; 4 bytes @ 0xF
   872  002F                     	ds	1
   873  0030                     hx711_promedio@prom:
   874                           
   875                           ; 4 bytes @ 0x10
   876  0030                     	ds	1
   877  0031                     ___fladd@a:
   878                           
   879                           ; 4 bytes @ 0x11
   880  0031                     	ds	2
   881  0033                     ___flmul@temp:
   882                           
   883                           ; 2 bytes @ 0x13
   884  0033                     	ds	1
   885  0034                     hx711_promedio@cont:
   886                           
   887                           ; 1 bytes @ 0x14
   888  0034                     	ds	1
   889  0035                     ?_tarar:
   890  0035                     ??___fladd:	
   891                           ; 1 bytes @ 0x15
   892                           
   893  0035                     ?___xxtofl:	
   894                           ; 1 bytes @ 0x15
   895                           
   896  0035                     tarar@ganancia:	
   897                           ; 4 bytes @ 0x15
   898                           
   899  0035                     ___xxtofl@val:	
   900                           ; 1 bytes @ 0x15
   901                           
   902                           
   903                           ; 4 bytes @ 0x15
   904  0035                     	ds	1
   905  0036                     tarar@veces:
   906                           
   907                           ; 1 bytes @ 0x16
   908  0036                     	ds	3
   909  0039                     ??___xxtofl:
   910                           
   911                           ; 1 bytes @ 0x19
   912  0039                     	ds	4
   913  003D                     ___fladd@signs:
   914  003D                     ___xxtofl@sign:	
   915                           ; 1 bytes @ 0x1D
   916                           
   917                           
   918                           ; 1 bytes @ 0x1D
   919  003D                     	ds	1
   920  003E                     ___fladd@aexp:
   921  003E                     ___xxtofl@exp:	
   922                           ; 1 bytes @ 0x1E
   923                           
   924                           
   925                           ; 1 bytes @ 0x1E
   926  003E                     	ds	1
   927  003F                     ___fladd@bexp:
   928  003F                     ___xxtofl@arg:	
   929                           ; 1 bytes @ 0x1F
   930                           
   931                           
   932                           ; 4 bytes @ 0x1F
   933  003F                     	ds	1
   934  0040                     ___fladd@grs:
   935                           
   936                           ; 1 bytes @ 0x20
   937  0040                     	ds	3
   938  0043                     ?___flsub:
   939  0043                     ___flsub@a:	
   940                           ; 4 bytes @ 0x23
   941                           
   942                           
   943                           ; 4 bytes @ 0x23
   944  0043                     	ds	4
   945  0047                     ___flsub@b:
   946                           
   947                           ; 4 bytes @ 0x27
   948  0047                     	ds	4
   949  004B                     ?_floattostr_:
   950  004B                     floattostr_@numero_:	
   951                           ; 1 bytes @ 0x2B
   952                           
   953                           
   954                           ; 4 bytes @ 0x2B
   955  004B                     	ds	4
   956  004F                     floattostr_@cadena_:
   957                           
   958                           ; 2 bytes @ 0x2F
   959  004F                     	ds	2
   960  0051                     floattostr_@decimales_:
   961                           
   962                           ; 1 bytes @ 0x31
   963  0051                     	ds	1
   964  0052                     ??_floattostr_:
   965                           
   966                           ; 1 bytes @ 0x32
   967  0052                     	ds	1
   968  0053                     floattostr_@tempo_int:
   969                           
   970                           ; 2 bytes @ 0x33
   971  0053                     	ds	2
   972  0055                     floattostr_@tempo_float:
   973                           
   974                           ; 4 bytes @ 0x35
   975  0055                     	ds	4
   976  0059                     floattostr_@largo_n:
   977                           
   978                           ; 2 bytes @ 0x39
   979  0059                     	ds	2
   980  005B                     floattostr_@cont_for:
   981                           
   982                           ; 2 bytes @ 0x3B
   983  005B                     	ds	2
   984  005D                     floattostr_@largo_entera:
   985                           
   986                           ; 2 bytes @ 0x3D
   987  005D                     	ds	2
   988  005F                     ??_main:
   989                           
   990                           ; 1 bytes @ 0x3F
   991  005F                     	ds	5
   992  0064                     _main$897:
   993                           
   994                           ; 4 bytes @ 0x44
   995  0064                     	ds	4
   996                           
   997                           	psect	maintext
   998  0B79                     __pmaintext:	
   999 ;;
  1000 ;;Main: autosize = 0, tempsize = 5, incstack = 0, save=0
  1001 ;;
  1002 ;; *************** function _main *****************
  1003 ;; Defined at:
  1004 ;;		line 123 in file "Slave2.c"
  1005 ;; Parameters:    Size  Location     Type
  1006 ;;		None
  1007 ;; Auto vars:     Size  Location     Type
  1008 ;;		None
  1009 ;; Return value:  Size  Location     Type
  1010 ;;                  1    wreg      void 
  1011 ;; Registers used:
  1012 ;;		wreg, fsr0l, fsr0h, status,2, status,0, btemp+1, pclath, cstack
  1013 ;; Tracked objects:
  1014 ;;		On entry : B00/0
  1015 ;;		On exit  : 0/0
  1016 ;;		Unchanged: 0/0
  1017 ;; Data sizes:     COMMON   BANK0   BANK1   BANK3   BANK2
  1018 ;;      Params:         0       0       0       0       0
  1019 ;;      Locals:         0       4       0       0       0
  1020 ;;      Temps:          0       5       0       0       0
  1021 ;;      Totals:         0       9       0       0       0
  1022 ;;Total ram usage:        9 bytes
  1023 ;; Hardware stack levels required when called: 4
  1024 ;; This function calls:
  1025 ;;		_Lcd_Clear
  1026 ;;		_Lcd_Init
  1027 ;;		_Lcd_Set_Cursor
  1028 ;;		_Lcd_Write_String
  1029 ;;		___fldiv
  1030 ;;		___flge
  1031 ;;		___flmul
  1032 ;;		___xxtofl
  1033 ;;		_floattostr_
  1034 ;;		_hx711_init
  1035 ;;		_hx711_promedio
  1036 ;;		_setup
  1037 ;;		_tarar
  1038 ;; This function is called by:
  1039 ;;		Startup code after reset
  1040 ;; This function uses a non-reentrant model
  1041 ;;
  1042                           
  1043                           
  1044                           ;psect for function _main
  1045  0B79                     _main:
  1046  0B79                     l2774:	
  1047                           ;incstack = 0
  1048                           ; Regs used in _main: [wreg-fsr0h+status,2+status,0+btemp+1+pclath+cstack]
  1049                           
  1050                           
  1051                           ;Slave2.c: 125:     setup();
  1052  0B79  160A  118A  262A  120A  158A  	fcall	_setup
  1053  0B7E                     l2776:
  1054                           
  1055                           ;Slave2.c: 126:     hx711_init();
  1056  0B7E  160A  118A  25E7  120A  158A  	fcall	_hx711_init
  1057  0B83                     l2778:
  1058                           
  1059                           ;Slave2.c: 127:     floattostr_(offset,offsett,1);
  1060  0B83  1283               	bcf	3,5	;RP0=0, select bank0
  1061  0B84  1303               	bcf	3,6	;RP1=0, select bank0
  1062  0B85  086F               	movf	_offset+3,w
  1063  0B86  00B8               	movwf	___xxtofl@val+3
  1064  0B87  086E               	movf	_offset+2,w
  1065  0B88  00B7               	movwf	___xxtofl@val+2
  1066  0B89  086D               	movf	_offset+1,w
  1067  0B8A  00B6               	movwf	___xxtofl@val+1
  1068  0B8B  086C               	movf	_offset,w
  1069  0B8C  00B5               	movwf	___xxtofl@val
  1070  0B8D  3001               	movlw	1
  1071  0B8E  120A  118A  2006  120A  158A  	fcall	___xxtofl
  1072  0B93  1283               	bcf	3,5	;RP0=0, select bank0
  1073  0B94  1303               	bcf	3,6	;RP1=0, select bank0
  1074  0B95  0838               	movf	?___xxtofl+3,w
  1075  0B96  00E7               	movwf	_main$897+3
  1076  0B97  0837               	movf	?___xxtofl+2,w
  1077  0B98  00E6               	movwf	_main$897+2
  1078  0B99  0836               	movf	?___xxtofl+1,w
  1079  0B9A  00E5               	movwf	_main$897+1
  1080  0B9B  0835               	movf	?___xxtofl,w
  1081  0B9C  00E4               	movwf	_main$897
  1082  0B9D                     l2780:
  1083                           
  1084                           ;Slave2.c: 127:     floattostr_(offset,offsett,1);
  1085  0B9D  0867               	movf	_main$897+3,w
  1086  0B9E  00CE               	movwf	floattostr_@numero_+3
  1087  0B9F  0866               	movf	_main$897+2,w
  1088  0BA0  00CD               	movwf	floattostr_@numero_+2
  1089  0BA1  0865               	movf	_main$897+1,w
  1090  0BA2  00CC               	movwf	floattostr_@numero_+1
  1091  0BA3  0864               	movf	_main$897,w
  1092  0BA4  00CB               	movwf	floattostr_@numero_
  1093  0BA5  30A4               	movlw	(low (_offsett| 0))& (0+255)
  1094  0BA6  00CF               	movwf	floattostr_@cadena_
  1095  0BA7  3000               	movlw	0
  1096  0BA8  00D0               	movwf	floattostr_@cadena_+1
  1097  0BA9  01D1               	clrf	floattostr_@decimales_
  1098  0BAA  0AD1               	incf	floattostr_@decimales_,f
  1099  0BAB  120A  118A  2195  120A  158A  	fcall	_floattostr_
  1100  0BB0                     l2782:
  1101                           
  1102                           ;Slave2.c: 128:     Lcd_Init();
  1103  0BB0  120A  158A  2012  120A  158A  	fcall	_Lcd_Init
  1104  0BB5                     l2784:
  1105                           
  1106                           ;Slave2.c: 129:     Lcd_Clear();
  1107  0BB5  160A  118A  25DA  120A  158A  	fcall	_Lcd_Clear
  1108  0BBA                     l2786:
  1109                           
  1110                           ;Slave2.c: 130:      Lcd_Set_Cursor(1, 8);
  1111  0BBA  3008               	movlw	8
  1112  0BBB  1283               	bcf	3,5	;RP0=0, select bank0
  1113  0BBC  1303               	bcf	3,6	;RP1=0, select bank0
  1114  0BBD  00DF               	movwf	??_main
  1115  0BBE  085F               	movf	??_main,w
  1116  0BBF  00F4               	movwf	Lcd_Set_Cursor@b
  1117  0BC0  3001               	movlw	1
  1118  0BC1  160A  118A  265D  120A  158A  	fcall	_Lcd_Set_Cursor
  1119  0BC6                     l2788:
  1120                           
  1121                           ;Slave2.c: 131:      Lcd_Write_String("Off:");
  1122  0BC6  3013               	movlw	(low ((STR_1-__stringbase)| (0+32768)))& (0+255)
  1123  0BC7  00F3               	movwf	Lcd_Write_String@a
  1124  0BC8  3080               	movlw	128
  1125  0BC9  00F4               	movwf	Lcd_Write_String@a+1
  1126  0BCA  160A  118A  26CC  120A  158A  	fcall	_Lcd_Write_String
  1127  0BCF                     l2790:
  1128                           
  1129                           ;Slave2.c: 132:      Lcd_Set_Cursor(2, 8);
  1130  0BCF  3008               	movlw	8
  1131  0BD0  1283               	bcf	3,5	;RP0=0, select bank0
  1132  0BD1  1303               	bcf	3,6	;RP1=0, select bank0
  1133  0BD2  00DF               	movwf	??_main
  1134  0BD3  085F               	movf	??_main,w
  1135  0BD4  00F4               	movwf	Lcd_Set_Cursor@b
  1136  0BD5  3002               	movlw	2
  1137  0BD6  160A  118A  265D  120A  158A  	fcall	_Lcd_Set_Cursor
  1138  0BDB                     l2792:
  1139                           
  1140                           ;Slave2.c: 133:      Lcd_Write_String(offsett);
  1141  0BDB  30A4               	movlw	(low (_offsett| 0))& (0+255)
  1142  0BDC  00F3               	movwf	Lcd_Write_String@a
  1143  0BDD  3000               	movlw	0
  1144  0BDE  00F4               	movwf	Lcd_Write_String@a+1
  1145  0BDF  160A  118A  26CC  120A  158A  	fcall	_Lcd_Write_String
  1146  0BE4                     l2794:
  1147                           
  1148                           ;Slave2.c: 137:     peso=hx711_promedio(10,128)-(float)offset;
  1149  0BE4  3080               	movlw	128
  1150  0BE5  1283               	bcf	3,5	;RP0=0, select bank0
  1151  0BE6  1303               	bcf	3,6	;RP1=0, select bank0
  1152  0BE7  00DF               	movwf	??_main
  1153  0BE8  085F               	movf	??_main,w
  1154  0BE9  00A7               	movwf	hx711_promedio@ganancia
  1155  0BEA  300A               	movlw	10
  1156  0BEB  160A  118A  270E  120A  158A  	fcall	_hx711_promedio
  1157  0BF0  1283               	bcf	3,5	;RP0=0, select bank0
  1158  0BF1  1303               	bcf	3,6	;RP1=0, select bank0
  1159  0BF2  0827               	movf	?_hx711_promedio,w
  1160  0BF3  00E0               	movwf	??_main+1
  1161  0BF4  0828               	movf	?_hx711_promedio+1,w
  1162  0BF5  00E1               	movwf	??_main+2
  1163  0BF6  0829               	movf	?_hx711_promedio+2,w
  1164  0BF7  00E2               	movwf	??_main+3
  1165  0BF8  082A               	movf	?_hx711_promedio+3,w
  1166  0BF9  00E3               	movwf	??_main+4
  1167  0BFA  086C               	movf	_offset,w
  1168  0BFB  02E0               	subwf	??_main+1,f
  1169  0BFC  086D               	movf	_offset+1,w
  1170  0BFD  1C03               	skipc
  1171  0BFE  0F6D               	incfsz	_offset+1,w
  1172  0BFF  2C01               	goto	u3901
  1173  0C00  2C02               	goto	u3902
  1174  0C01                     u3901:
  1175  0C01  02E1               	subwf	??_main+2,f
  1176  0C02                     u3902:
  1177  0C02  086E               	movf	_offset+2,w
  1178  0C03  1C03               	skipc
  1179  0C04  0F6E               	incfsz	_offset+2,w
  1180  0C05  2C07               	goto	u3903
  1181  0C06  2C08               	goto	u3904
  1182  0C07                     u3903:
  1183  0C07  02E2               	subwf	??_main+3,f
  1184  0C08                     u3904:
  1185  0C08  086F               	movf	_offset+3,w
  1186  0C09  1C03               	skipc
  1187  0C0A  0F6F               	incfsz	_offset+3,w
  1188  0C0B  2C0D               	goto	u3905
  1189  0C0C  2C0E               	goto	u3906
  1190  0C0D                     u3905:
  1191  0C0D  02E3               	subwf	??_main+4,f
  1192  0C0E                     u3906:
  1193  0C0E  0863               	movf	??_main+4,w
  1194  0C0F  00B8               	movwf	___xxtofl@val+3
  1195  0C10  0862               	movf	??_main+3,w
  1196  0C11  00B7               	movwf	___xxtofl@val+2
  1197  0C12  0861               	movf	??_main+2,w
  1198  0C13  00B6               	movwf	___xxtofl@val+1
  1199  0C14  0860               	movf	??_main+1,w
  1200  0C15  00B5               	movwf	___xxtofl@val
  1201  0C16  3001               	movlw	1
  1202  0C17  120A  118A  2006  120A  158A  	fcall	___xxtofl
  1203  0C1C  1283               	bcf	3,5	;RP0=0, select bank0
  1204  0C1D  1303               	bcf	3,6	;RP1=0, select bank0
  1205  0C1E  0838               	movf	?___xxtofl+3,w
  1206  0C1F  00EB               	movwf	_peso+3
  1207  0C20  0837               	movf	?___xxtofl+2,w
  1208  0C21  00EA               	movwf	_peso+2
  1209  0C22  0836               	movf	?___xxtofl+1,w
  1210  0C23  00E9               	movwf	_peso+1
  1211  0C24  0835               	movf	?___xxtofl,w
  1212  0C25  00E8               	movwf	_peso
  1213  0C26                     l2796:
  1214                           
  1215                           ;Slave2.c: 138:     peso=peso*factor;
  1216  0C26  1683               	bsf	3,5	;RP0=1, select bank1
  1217  0C27  1303               	bcf	3,6	;RP1=0, select bank1
  1218  0C28  085D               	movf	(_factor+3)^(0+128),w
  1219  0C29  1283               	bcf	3,5	;RP0=0, select bank0
  1220  0C2A  1303               	bcf	3,6	;RP1=0, select bank0
  1221  0C2B  00A3               	movwf	___flmul@b+3
  1222  0C2C  1683               	bsf	3,5	;RP0=1, select bank1
  1223  0C2D  1303               	bcf	3,6	;RP1=0, select bank1
  1224  0C2E  085C               	movf	(_factor+2)^(0+128),w
  1225  0C2F  1283               	bcf	3,5	;RP0=0, select bank0
  1226  0C30  1303               	bcf	3,6	;RP1=0, select bank0
  1227  0C31  00A2               	movwf	___flmul@b+2
  1228  0C32  1683               	bsf	3,5	;RP0=1, select bank1
  1229  0C33  1303               	bcf	3,6	;RP1=0, select bank1
  1230  0C34  085B               	movf	(_factor+1)^(0+128),w
  1231  0C35  1283               	bcf	3,5	;RP0=0, select bank0
  1232  0C36  1303               	bcf	3,6	;RP1=0, select bank0
  1233  0C37  00A1               	movwf	___flmul@b+1
  1234  0C38  1683               	bsf	3,5	;RP0=1, select bank1
  1235  0C39  1303               	bcf	3,6	;RP1=0, select bank1
  1236  0C3A  085A               	movf	_factor^(0+128),w
  1237  0C3B  1283               	bcf	3,5	;RP0=0, select bank0
  1238  0C3C  1303               	bcf	3,6	;RP1=0, select bank0
  1239  0C3D  00A0               	movwf	___flmul@b
  1240  0C3E  086B               	movf	_peso+3,w
  1241  0C3F  00A7               	movwf	___flmul@a+3
  1242  0C40  086A               	movf	_peso+2,w
  1243  0C41  00A6               	movwf	___flmul@a+2
  1244  0C42  0869               	movf	_peso+1,w
  1245  0C43  00A5               	movwf	___flmul@a+1
  1246  0C44  0868               	movf	_peso,w
  1247  0C45  00A4               	movwf	___flmul@a
  1248  0C46  120A  118A  2451  120A  158A  	fcall	___flmul
  1249  0C4B  1283               	bcf	3,5	;RP0=0, select bank0
  1250  0C4C  1303               	bcf	3,6	;RP1=0, select bank0
  1251  0C4D  0823               	movf	?___flmul+3,w
  1252  0C4E  00EB               	movwf	_peso+3
  1253  0C4F  0822               	movf	?___flmul+2,w
  1254  0C50  00EA               	movwf	_peso+2
  1255  0C51  0821               	movf	?___flmul+1,w
  1256  0C52  00E9               	movwf	_peso+1
  1257  0C53  0820               	movf	?___flmul,w
  1258  0C54  00E8               	movwf	_peso
  1259  0C55                     l2798:
  1260                           
  1261                           ;Slave2.c: 139:    if (peso<=0) peso=0;
  1262  0C55  3000               	movlw	0
  1263  0C56  00F3               	movwf	___flge@ff1+3
  1264  0C57  3000               	movlw	0
  1265  0C58  00F2               	movwf	___flge@ff1+2
  1266  0C59  3000               	movlw	0
  1267  0C5A  00F1               	movwf	___flge@ff1+1
  1268  0C5B  3000               	movlw	0
  1269  0C5C  00F0               	movwf	___flge@ff1
  1270  0C5D  086B               	movf	_peso+3,w
  1271  0C5E  00F7               	movwf	___flge@ff2+3
  1272  0C5F  086A               	movf	_peso+2,w
  1273  0C60  00F6               	movwf	___flge@ff2+2
  1274  0C61  0869               	movf	_peso+1,w
  1275  0C62  00F5               	movwf	___flge@ff2+1
  1276  0C63  0868               	movf	_peso,w
  1277  0C64  00F4               	movwf	___flge@ff2
  1278  0C65  120A  158A  20F4  120A  158A  	fcall	___flge
  1279  0C6A  1C03               	btfss	3,0
  1280  0C6B  2C6D               	goto	u3911
  1281  0C6C  2C6E               	goto	u3910
  1282  0C6D                     u3911:
  1283  0C6D  2C78               	goto	l2802
  1284  0C6E                     u3910:
  1285  0C6E                     l2800:
  1286  0C6E  3000               	movlw	0
  1287  0C6F  1283               	bcf	3,5	;RP0=0, select bank0
  1288  0C70  1303               	bcf	3,6	;RP1=0, select bank0
  1289  0C71  00EB               	movwf	_peso+3
  1290  0C72  3000               	movlw	0
  1291  0C73  00EA               	movwf	_peso+2
  1292  0C74  3000               	movlw	0
  1293  0C75  00E9               	movwf	_peso+1
  1294  0C76  3000               	movlw	0
  1295  0C77  00E8               	movwf	_peso
  1296  0C78                     l2802:
  1297                           
  1298                           ;Slave2.c: 140:      floattostr_(peso,texto,1);
  1299  0C78  1283               	bcf	3,5	;RP0=0, select bank0
  1300  0C79  1303               	bcf	3,6	;RP1=0, select bank0
  1301  0C7A  086B               	movf	_peso+3,w
  1302  0C7B  00CE               	movwf	floattostr_@numero_+3
  1303  0C7C  086A               	movf	_peso+2,w
  1304  0C7D  00CD               	movwf	floattostr_@numero_+2
  1305  0C7E  0869               	movf	_peso+1,w
  1306  0C7F  00CC               	movwf	floattostr_@numero_+1
  1307  0C80  0868               	movf	_peso,w
  1308  0C81  00CB               	movwf	floattostr_@numero_
  1309  0C82  30BD               	movlw	(low (_texto| 0))& (0+255)
  1310  0C83  00CF               	movwf	floattostr_@cadena_
  1311  0C84  3000               	movlw	0
  1312  0C85  00D0               	movwf	floattostr_@cadena_+1
  1313  0C86  01D1               	clrf	floattostr_@decimales_
  1314  0C87  0AD1               	incf	floattostr_@decimales_,f
  1315  0C88  120A  118A  2195  120A  158A  	fcall	_floattostr_
  1316  0C8D                     l2804:
  1317                           
  1318                           ;Slave2.c: 141:      Lcd_Set_Cursor(1, 1);
  1319  0C8D  01F4               	clrf	Lcd_Set_Cursor@b
  1320  0C8E  0AF4               	incf	Lcd_Set_Cursor@b,f
  1321  0C8F  3001               	movlw	1
  1322  0C90  160A  118A  265D  120A  158A  	fcall	_Lcd_Set_Cursor
  1323  0C95                     l2806:
  1324                           
  1325                           ;Slave2.c: 142:      Lcd_Write_String("PESO:");
  1326  0C95  300D               	movlw	(low ((STR_2-__stringbase)| (0+32768)))& (0+255)
  1327  0C96  00F3               	movwf	Lcd_Write_String@a
  1328  0C97  3080               	movlw	128
  1329  0C98  00F4               	movwf	Lcd_Write_String@a+1
  1330  0C99  160A  118A  26CC  120A  158A  	fcall	_Lcd_Write_String
  1331  0C9E                     l2808:
  1332                           
  1333                           ;Slave2.c: 143:      Lcd_Set_Cursor(2, 1);
  1334  0C9E  01F4               	clrf	Lcd_Set_Cursor@b
  1335  0C9F  0AF4               	incf	Lcd_Set_Cursor@b,f
  1336  0CA0  3002               	movlw	2
  1337  0CA1  160A  118A  265D  120A  158A  	fcall	_Lcd_Set_Cursor
  1338  0CA6                     l2810:
  1339                           
  1340                           ;Slave2.c: 144:      Lcd_Write_String(texto);
  1341  0CA6  30BD               	movlw	(low (_texto| 0))& (0+255)
  1342  0CA7  00F3               	movwf	Lcd_Write_String@a
  1343  0CA8  3000               	movlw	0
  1344  0CA9  00F4               	movwf	Lcd_Write_String@a+1
  1345  0CAA  160A  118A  26CC  120A  158A  	fcall	_Lcd_Write_String
  1346  0CAF                     l2812:
  1347                           
  1348                           ;Slave2.c: 146:     if(PORTDbits.RD5==1)
  1349  0CAF  1283               	bcf	3,5	;RP0=0, select bank0
  1350  0CB0  1303               	bcf	3,6	;RP1=0, select bank0
  1351  0CB1  1E88               	btfss	8,5	;volatile
  1352  0CB2  2CB4               	goto	u3921
  1353  0CB3  2CB5               	goto	u3920
  1354  0CB4                     u3921:
  1355  0CB4  2D01               	goto	l2820
  1356  0CB5                     u3920:
  1357  0CB5                     l2814:
  1358                           
  1359                           ;Slave2.c: 147:    {;Slave2.c: 148:     tarar(10,128);
  1360  0CB5  3080               	movlw	128
  1361  0CB6  00DF               	movwf	??_main
  1362  0CB7  085F               	movf	??_main,w
  1363  0CB8  00B5               	movwf	tarar@ganancia
  1364  0CB9  300A               	movlw	10
  1365  0CBA  160A  118A  2612  120A  158A  	fcall	_tarar
  1366                           
  1367                           ;Slave2.c: 149:     floattostr_(offset,tarart,1);
  1368  0CBF  1283               	bcf	3,5	;RP0=0, select bank0
  1369  0CC0  1303               	bcf	3,6	;RP1=0, select bank0
  1370  0CC1  086F               	movf	_offset+3,w
  1371  0CC2  00B8               	movwf	___xxtofl@val+3
  1372  0CC3  086E               	movf	_offset+2,w
  1373  0CC4  00B7               	movwf	___xxtofl@val+2
  1374  0CC5  086D               	movf	_offset+1,w
  1375  0CC6  00B6               	movwf	___xxtofl@val+1
  1376  0CC7  086C               	movf	_offset,w
  1377  0CC8  00B5               	movwf	___xxtofl@val
  1378  0CC9  3001               	movlw	1
  1379  0CCA  120A  118A  2006  120A  158A  	fcall	___xxtofl
  1380  0CCF  1283               	bcf	3,5	;RP0=0, select bank0
  1381  0CD0  1303               	bcf	3,6	;RP1=0, select bank0
  1382  0CD1  0838               	movf	?___xxtofl+3,w
  1383  0CD2  00E7               	movwf	_main$897+3
  1384  0CD3  0837               	movf	?___xxtofl+2,w
  1385  0CD4  00E6               	movwf	_main$897+2
  1386  0CD5  0836               	movf	?___xxtofl+1,w
  1387  0CD6  00E5               	movwf	_main$897+1
  1388  0CD7  0835               	movf	?___xxtofl,w
  1389  0CD8  00E4               	movwf	_main$897
  1390  0CD9                     l2816:
  1391                           
  1392                           ;Slave2.c: 149:     floattostr_(offset,tarart,1);
  1393  0CD9  0867               	movf	_main$897+3,w
  1394  0CDA  00CE               	movwf	floattostr_@numero_+3
  1395  0CDB  0866               	movf	_main$897+2,w
  1396  0CDC  00CD               	movwf	floattostr_@numero_+2
  1397  0CDD  0865               	movf	_main$897+1,w
  1398  0CDE  00CC               	movwf	floattostr_@numero_+1
  1399  0CDF  0864               	movf	_main$897,w
  1400  0CE0  00CB               	movwf	floattostr_@numero_
  1401  0CE1  3090               	movlw	(low (_tarart| (0+256)))& (0+255)
  1402  0CE2  00CF               	movwf	floattostr_@cadena_
  1403  0CE3  3001               	movlw	1
  1404  0CE4  00D0               	movwf	floattostr_@cadena_+1
  1405  0CE5  01D1               	clrf	floattostr_@decimales_
  1406  0CE6  0AD1               	incf	floattostr_@decimales_,f
  1407  0CE7  120A  118A  2195  120A  158A  	fcall	_floattostr_
  1408  0CEC                     l2818:
  1409                           
  1410                           ;Slave2.c: 150:     Lcd_Set_Cursor(2, 8);
  1411  0CEC  3008               	movlw	8
  1412  0CED  1283               	bcf	3,5	;RP0=0, select bank0
  1413  0CEE  1303               	bcf	3,6	;RP1=0, select bank0
  1414  0CEF  00DF               	movwf	??_main
  1415  0CF0  085F               	movf	??_main,w
  1416  0CF1  00F4               	movwf	Lcd_Set_Cursor@b
  1417  0CF2  3002               	movlw	2
  1418  0CF3  160A  118A  265D  120A  158A  	fcall	_Lcd_Set_Cursor
  1419                           
  1420                           ;Slave2.c: 151:     Lcd_Write_String(tarart);
  1421  0CF8  3090               	movlw	(low (_tarart| (0+256)))& (0+255)
  1422  0CF9  00F3               	movwf	Lcd_Write_String@a
  1423  0CFA  3001               	movlw	1
  1424  0CFB  00F4               	movwf	Lcd_Write_String@a+1
  1425  0CFC  160A  118A  26CC  120A  158A  	fcall	_Lcd_Write_String
  1426  0D01                     l2820:
  1427                           
  1428                           ;Slave2.c: 155:      if (PORTDbits.RD4==1)
  1429  0D01  1283               	bcf	3,5	;RP0=0, select bank0
  1430  0D02  1303               	bcf	3,6	;RP1=0, select bank0
  1431  0D03  1E08               	btfss	8,4	;volatile
  1432  0D04  2D06               	goto	u3931
  1433  0D05  2D07               	goto	u3930
  1434  0D06                     u3931:
  1435  0D06  2BE4               	goto	l2794
  1436  0D07                     u3930:
  1437  0D07                     l2822:
  1438                           
  1439                           ;Slave2.c: 156:    {;Slave2.c: 157:    cal=hx711_promedio(50,128)-(float)offset;
  1440  0D07  3080               	movlw	128
  1441  0D08  00DF               	movwf	??_main
  1442  0D09  085F               	movf	??_main,w
  1443  0D0A  00A7               	movwf	hx711_promedio@ganancia
  1444  0D0B  3032               	movlw	50
  1445  0D0C  160A  118A  270E  120A  158A  	fcall	_hx711_promedio
  1446  0D11  1283               	bcf	3,5	;RP0=0, select bank0
  1447  0D12  1303               	bcf	3,6	;RP1=0, select bank0
  1448  0D13  0827               	movf	?_hx711_promedio,w
  1449  0D14  00E0               	movwf	??_main+1
  1450  0D15  0828               	movf	?_hx711_promedio+1,w
  1451  0D16  00E1               	movwf	??_main+2
  1452  0D17  0829               	movf	?_hx711_promedio+2,w
  1453  0D18  00E2               	movwf	??_main+3
  1454  0D19  082A               	movf	?_hx711_promedio+3,w
  1455  0D1A  00E3               	movwf	??_main+4
  1456  0D1B  086C               	movf	_offset,w
  1457  0D1C  02E0               	subwf	??_main+1,f
  1458  0D1D  086D               	movf	_offset+1,w
  1459  0D1E  1C03               	skipc
  1460  0D1F  0F6D               	incfsz	_offset+1,w
  1461  0D20  2D22               	goto	u3941
  1462  0D21  2D23               	goto	u3942
  1463  0D22                     u3941:
  1464  0D22  02E1               	subwf	??_main+2,f
  1465  0D23                     u3942:
  1466  0D23  086E               	movf	_offset+2,w
  1467  0D24  1C03               	skipc
  1468  0D25  0F6E               	incfsz	_offset+2,w
  1469  0D26  2D28               	goto	u3943
  1470  0D27  2D29               	goto	u3944
  1471  0D28                     u3943:
  1472  0D28  02E2               	subwf	??_main+3,f
  1473  0D29                     u3944:
  1474  0D29  086F               	movf	_offset+3,w
  1475  0D2A  1C03               	skipc
  1476  0D2B  0F6F               	incfsz	_offset+3,w
  1477  0D2C  2D2E               	goto	u3945
  1478  0D2D  2D2F               	goto	u3946
  1479  0D2E                     u3945:
  1480  0D2E  02E3               	subwf	??_main+4,f
  1481  0D2F                     u3946:
  1482  0D2F  0863               	movf	??_main+4,w
  1483  0D30  00B8               	movwf	___xxtofl@val+3
  1484  0D31  0862               	movf	??_main+3,w
  1485  0D32  00B7               	movwf	___xxtofl@val+2
  1486  0D33  0861               	movf	??_main+2,w
  1487  0D34  00B6               	movwf	___xxtofl@val+1
  1488  0D35  0860               	movf	??_main+1,w
  1489  0D36  00B5               	movwf	___xxtofl@val
  1490  0D37  3001               	movlw	1
  1491  0D38  120A  118A  2006  120A  158A  	fcall	___xxtofl
  1492  0D3D  1283               	bcf	3,5	;RP0=0, select bank0
  1493  0D3E  1303               	bcf	3,6	;RP1=0, select bank0
  1494  0D3F  0838               	movf	?___xxtofl+3,w
  1495  0D40  1683               	bsf	3,5	;RP0=1, select bank1
  1496  0D41  1303               	bcf	3,6	;RP1=0, select bank1
  1497  0D42  00D9               	movwf	(_cal+3)^(0+128)
  1498  0D43  1283               	bcf	3,5	;RP0=0, select bank0
  1499  0D44  1303               	bcf	3,6	;RP1=0, select bank0
  1500  0D45  0837               	movf	?___xxtofl+2,w
  1501  0D46  1683               	bsf	3,5	;RP0=1, select bank1
  1502  0D47  1303               	bcf	3,6	;RP1=0, select bank1
  1503  0D48  00D8               	movwf	(_cal+2)^(0+128)
  1504  0D49  1283               	bcf	3,5	;RP0=0, select bank0
  1505  0D4A  1303               	bcf	3,6	;RP1=0, select bank0
  1506  0D4B  0836               	movf	?___xxtofl+1,w
  1507  0D4C  1683               	bsf	3,5	;RP0=1, select bank1
  1508  0D4D  1303               	bcf	3,6	;RP1=0, select bank1
  1509  0D4E  00D7               	movwf	(_cal+1)^(0+128)
  1510  0D4F  1283               	bcf	3,5	;RP0=0, select bank0
  1511  0D50  1303               	bcf	3,6	;RP1=0, select bank0
  1512  0D51  0835               	movf	?___xxtofl,w
  1513  0D52  1683               	bsf	3,5	;RP0=1, select bank1
  1514  0D53  1303               	bcf	3,6	;RP1=0, select bank1
  1515  0D54  00D6               	movwf	_cal^(0+128)
  1516  0D55                     l2824:
  1517                           
  1518                           ;Slave2.c: 158:    factor= prueba/cal;
  1519  0D55  0859               	movf	(_cal+3)^(0+128),w
  1520  0D56  00F3               	movwf	___fldiv@a+3
  1521  0D57  0858               	movf	(_cal+2)^(0+128),w
  1522  0D58  00F2               	movwf	___fldiv@a+2
  1523  0D59  0857               	movf	(_cal+1)^(0+128),w
  1524  0D5A  00F1               	movwf	___fldiv@a+1
  1525  0D5B  0856               	movf	_cal^(0+128),w
  1526  0D5C  00F0               	movwf	___fldiv@a
  1527  0D5D  3044               	movlw	68
  1528  0D5E  00F7               	movwf	___fldiv@b+3
  1529  0D5F  307A               	movlw	122
  1530  0D60  00F6               	movwf	___fldiv@b+2
  1531  0D61  3000               	movlw	0
  1532  0D62  00F5               	movwf	___fldiv@b+1
  1533  0D63  3000               	movlw	0
  1534  0D64  00F4               	movwf	___fldiv@b
  1535  0D65  120A  158A  2196  120A  158A  	fcall	___fldiv
  1536  0D6A  0873               	movf	?___fldiv+3,w
  1537  0D6B  1683               	bsf	3,5	;RP0=1, select bank1
  1538  0D6C  1303               	bcf	3,6	;RP1=0, select bank1
  1539  0D6D  00DD               	movwf	(_factor+3)^(0+128)
  1540  0D6E  0872               	movf	?___fldiv+2,w
  1541  0D6F  00DC               	movwf	(_factor+2)^(0+128)
  1542  0D70  0871               	movf	?___fldiv+1,w
  1543  0D71  00DB               	movwf	(_factor+1)^(0+128)
  1544  0D72  0870               	movf	?___fldiv,w
  1545  0D73  00DA               	movwf	_factor^(0+128)
  1546  0D74  2BE4               	goto	l2794
  1547  0D75  120A  118A  2800   	ljmp	start
  1548  0D78                     __end_of_main:
  1549                           
  1550                           	psect	text1
  1551  1612                     __ptext1:	
  1552 ;; *************** function _tarar *****************
  1553 ;; Defined at:
  1554 ;;		line 104 in file "hx711.c"
  1555 ;; Parameters:    Size  Location     Type
  1556 ;;  veces           1    wreg     unsigned char 
  1557 ;;  ganancia        1   21[BANK0 ] unsigned char 
  1558 ;; Auto vars:     Size  Location     Type
  1559 ;;  veces           1   22[BANK0 ] unsigned char 
  1560 ;; Return value:  Size  Location     Type
  1561 ;;                  1    wreg      void 
  1562 ;; Registers used:
  1563 ;;		wreg, status,2, status,0, pclath, cstack
  1564 ;; Tracked objects:
  1565 ;;		On entry : 0/0
  1566 ;;		On exit  : 0/0
  1567 ;;		Unchanged: 0/0
  1568 ;; Data sizes:     COMMON   BANK0   BANK1   BANK3   BANK2
  1569 ;;      Params:         0       1       0       0       0
  1570 ;;      Locals:         0       1       0       0       0
  1571 ;;      Temps:          1       0       0       0       0
  1572 ;;      Totals:         1       2       0       0       0
  1573 ;;Total ram usage:        3 bytes
  1574 ;; Hardware stack levels used: 1
  1575 ;; Hardware stack levels required when called: 3
  1576 ;; This function calls:
  1577 ;;		_hx711_promedio
  1578 ;; This function is called by:
  1579 ;;		_main
  1580 ;; This function uses a non-reentrant model
  1581 ;;
  1582                           
  1583                           
  1584                           ;psect for function _tarar
  1585  1612                     _tarar:
  1586                           
  1587                           ;incstack = 0
  1588                           ; Regs used in _tarar: [wreg+status,2+status,0+pclath+cstack]
  1589                           ;tarar@veces stored from wreg
  1590  1612  1283               	bcf	3,5	;RP0=0, select bank0
  1591  1613  1303               	bcf	3,6	;RP1=0, select bank0
  1592  1614  00B6               	movwf	tarar@veces
  1593  1615                     l2626:
  1594                           
  1595                           ;hx711.c: 104: void tarar(unsigned char veces,unsigned char ganancia);hx711.c: 105:  {;h
      +                          x711.c: 106:          offset=hx711_promedio(veces,ganancia);
  1596  1615  0835               	movf	tarar@ganancia,w
  1597  1616  00FD               	movwf	??_tarar
  1598  1617  087D               	movf	??_tarar,w
  1599  1618  00A7               	movwf	hx711_promedio@ganancia
  1600  1619  0836               	movf	tarar@veces,w
  1601  161A  160A  118A  270E  160A  118A  	fcall	_hx711_promedio
  1602  161F  1283               	bcf	3,5	;RP0=0, select bank0
  1603  1620  1303               	bcf	3,6	;RP1=0, select bank0
  1604  1621  082A               	movf	?_hx711_promedio+3,w
  1605  1622  00EF               	movwf	_offset+3
  1606  1623  0829               	movf	?_hx711_promedio+2,w
  1607  1624  00EE               	movwf	_offset+2
  1608  1625  0828               	movf	?_hx711_promedio+1,w
  1609  1626  00ED               	movwf	_offset+1
  1610  1627  0827               	movf	?_hx711_promedio,w
  1611  1628  00EC               	movwf	_offset
  1612  1629                     l137:
  1613  1629  0008               	return
  1614  162A                     __end_of_tarar:
  1615                           
  1616                           	psect	text2
  1617  170E                     __ptext2:	
  1618 ;; *************** function _hx711_promedio *****************
  1619 ;; Defined at:
  1620 ;;		line 91 in file "hx711.c"
  1621 ;; Parameters:    Size  Location     Type
  1622 ;;  veces           1    wreg     unsigned char 
  1623 ;;  ganancia        1    7[BANK0 ] unsigned char 
  1624 ;; Auto vars:     Size  Location     Type
  1625 ;;  veces           1   15[BANK0 ] unsigned char 
  1626 ;;  prom            4   16[BANK0 ] long 
  1627 ;;  cont            1   20[BANK0 ] unsigned char 
  1628 ;; Return value:  Size  Location     Type
  1629 ;;                  4    7[BANK0 ] long 
  1630 ;; Registers used:
  1631 ;;		wreg, status,2, status,0, pclath, cstack
  1632 ;; Tracked objects:
  1633 ;;		On entry : 0/0
  1634 ;;		On exit  : 0/0
  1635 ;;		Unchanged: 0/0
  1636 ;; Data sizes:     COMMON   BANK0   BANK1   BANK3   BANK2
  1637 ;;      Params:         0       4       0       0       0
  1638 ;;      Locals:         0       6       0       0       0
  1639 ;;      Temps:          0       4       0       0       0
  1640 ;;      Totals:         0      14       0       0       0
  1641 ;;Total ram usage:       14 bytes
  1642 ;; Hardware stack levels used: 1
  1643 ;; Hardware stack levels required when called: 2
  1644 ;; This function calls:
  1645 ;;		___aldiv
  1646 ;;		_hx711_lectura
  1647 ;; This function is called by:
  1648 ;;		_main
  1649 ;;		_tarar
  1650 ;; This function uses a non-reentrant model
  1651 ;;
  1652                           
  1653                           
  1654                           ;psect for function _hx711_promedio
  1655  170E                     _hx711_promedio:
  1656                           
  1657                           ;incstack = 0
  1658                           ; Regs used in _hx711_promedio: [wreg+status,2+status,0+pclath+cstack]
  1659                           ;hx711_promedio@veces stored from wreg
  1660  170E  1283               	bcf	3,5	;RP0=0, select bank0
  1661  170F  1303               	bcf	3,6	;RP1=0, select bank0
  1662  1710  00AF               	movwf	hx711_promedio@veces
  1663  1711                     l2050:
  1664                           
  1665                           ;hx711.c: 91: signed long hx711_promedio(unsigned char veces,unsigned char ganancia);hx7
      +                          11.c: 92:  {;hx711.c: 93:         signed long prom = 0;
  1666  1711  3000               	movlw	0
  1667  1712  00B3               	movwf	hx711_promedio@prom+3
  1668  1713  3000               	movlw	0
  1669  1714  00B2               	movwf	hx711_promedio@prom+2
  1670  1715  3000               	movlw	0
  1671  1716  00B1               	movwf	hx711_promedio@prom+1
  1672  1717  3000               	movlw	0
  1673  1718  00B0               	movwf	hx711_promedio@prom
  1674  1719                     l2052:
  1675                           
  1676                           ;hx711.c: 94:         unsigned char cont;;hx711.c: 96:         for (cont = 0; cont < vec
      +                          es; cont++)
  1677  1719  01B4               	clrf	hx711_promedio@cont
  1678  171A  2F5B               	goto	l2060
  1679  171B                     l2054:
  1680                           
  1681                           ;hx711.c: 97:         {;hx711.c: 98:           prom =prom+ hx711_lectura(ganancia);
  1682  171B  0827               	movf	hx711_promedio@ganancia,w
  1683  171C  120A  118A  20C2  160A  118A  	fcall	_hx711_lectura
  1684  1721  0871               	movf	?_hx711_lectura,w
  1685  1722  1283               	bcf	3,5	;RP0=0, select bank0
  1686  1723  1303               	bcf	3,6	;RP1=0, select bank0
  1687  1724  0730               	addwf	hx711_promedio@prom,w
  1688  1725  00AB               	movwf	??_hx711_promedio
  1689  1726  3000               	movlw	0
  1690  1727  1803               	skipnc
  1691  1728  3001               	movlw	1
  1692  1729  0772               	addwf	?_hx711_lectura+1,w
  1693  172A  01AD               	clrf	??_hx711_promedio+2
  1694  172B  1803               	skipnc
  1695  172C  0AAD               	incf	??_hx711_promedio+2,f
  1696  172D  0731               	addwf	hx711_promedio@prom+1,w
  1697  172E  00AC               	movwf	??_hx711_promedio+1
  1698  172F  1803               	skipnc
  1699  1730  0AAD               	incf	??_hx711_promedio+2,f
  1700  1731  0873               	movf	?_hx711_lectura+2,w
  1701  1732  072D               	addwf	??_hx711_promedio+2,w
  1702  1733  01AE               	clrf	??_hx711_promedio+3
  1703  1734  1803               	skipnc
  1704  1735  0AAE               	incf	??_hx711_promedio+3,f
  1705  1736  0732               	addwf	hx711_promedio@prom+2,w
  1706  1737  00AD               	movwf	??_hx711_promedio+2
  1707  1738  1803               	skipnc
  1708  1739  0AAE               	incf	??_hx711_promedio+3,f
  1709  173A  0874               	movf	?_hx711_lectura+3,w
  1710  173B  072E               	addwf	??_hx711_promedio+3,w
  1711  173C  0733               	addwf	hx711_promedio@prom+3,w
  1712  173D  00AE               	movwf	??_hx711_promedio+3
  1713  173E  082E               	movf	??_hx711_promedio+3,w
  1714  173F  00B3               	movwf	hx711_promedio@prom+3
  1715  1740  082D               	movf	??_hx711_promedio+2,w
  1716  1741  00B2               	movwf	hx711_promedio@prom+2
  1717  1742  082C               	movf	??_hx711_promedio+1,w
  1718  1743  00B1               	movwf	hx711_promedio@prom+1
  1719  1744  082B               	movf	??_hx711_promedio,w
  1720  1745  00B0               	movwf	hx711_promedio@prom
  1721  1746                     l2056:
  1722                           
  1723                           ;hx711.c: 99:            _delay((unsigned long)((100)*(8000000/4000.0)));
  1724  1746  3002               	movlw	2
  1725  1747  1283               	bcf	3,5	;RP0=0, select bank0
  1726  1748  1303               	bcf	3,6	;RP1=0, select bank0
  1727  1749  00AD               	movwf	??_hx711_promedio+2
  1728  174A  3004               	movlw	4
  1729  174B  00AC               	movwf	??_hx711_promedio+1
  1730  174C  30B9               	movlw	185
  1731  174D  00AB               	movwf	??_hx711_promedio
  1732  174E                     u3957:
  1733  174E  0BAB               	decfsz	??_hx711_promedio,f
  1734  174F  2F4E               	goto	u3957
  1735  1750  0BAC               	decfsz	??_hx711_promedio+1,f
  1736  1751  2F4E               	goto	u3957
  1737  1752  0BAD               	decfsz	??_hx711_promedio+2,f
  1738  1753  2F4E               	goto	u3957
  1739  1754  2F55               	nop2
  1740  1755                     l2058:
  1741                           
  1742                           ;hx711.c: 100:         }
  1743  1755  3001               	movlw	1
  1744  1756  1283               	bcf	3,5	;RP0=0, select bank0
  1745  1757  1303               	bcf	3,6	;RP1=0, select bank0
  1746  1758  00AB               	movwf	??_hx711_promedio
  1747  1759  082B               	movf	??_hx711_promedio,w
  1748  175A  07B4               	addwf	hx711_promedio@cont,f
  1749  175B                     l2060:
  1750  175B  082F               	movf	hx711_promedio@veces,w
  1751  175C  0234               	subwf	hx711_promedio@cont,w
  1752  175D  1C03               	skipc
  1753  175E  2F60               	goto	u2581
  1754  175F  2F61               	goto	u2580
  1755  1760                     u2581:
  1756  1760  2F1B               	goto	l2054
  1757  1761                     u2580:
  1758  1761                     l2062:
  1759                           
  1760                           ;hx711.c: 101:         return (prom / cont);
  1761  1761  0834               	movf	hx711_promedio@cont,w
  1762  1762  00AB               	movwf	??_hx711_promedio
  1763  1763  01AC               	clrf	??_hx711_promedio+1
  1764  1764  01AD               	clrf	??_hx711_promedio+2
  1765  1765  01AE               	clrf	??_hx711_promedio+3
  1766  1766  082E               	movf	??_hx711_promedio+3,w
  1767  1767  00F3               	movwf	___aldiv@divisor+3
  1768  1768  082D               	movf	??_hx711_promedio+2,w
  1769  1769  00F2               	movwf	___aldiv@divisor+2
  1770  176A  082C               	movf	??_hx711_promedio+1,w
  1771  176B  00F1               	movwf	___aldiv@divisor+1
  1772  176C  082B               	movf	??_hx711_promedio,w
  1773  176D  00F0               	movwf	___aldiv@divisor
  1774  176E  0833               	movf	hx711_promedio@prom+3,w
  1775  176F  00F7               	movwf	___aldiv@dividend+3
  1776  1770  0832               	movf	hx711_promedio@prom+2,w
  1777  1771  00F6               	movwf	___aldiv@dividend+2
  1778  1772  0831               	movf	hx711_promedio@prom+1,w
  1779  1773  00F5               	movwf	___aldiv@dividend+1
  1780  1774  0830               	movf	hx711_promedio@prom,w
  1781  1775  00F4               	movwf	___aldiv@dividend
  1782  1776  120A  158A  2057  160A  118A  	fcall	___aldiv
  1783  177B  0873               	movf	?___aldiv+3,w
  1784  177C  1283               	bcf	3,5	;RP0=0, select bank0
  1785  177D  1303               	bcf	3,6	;RP1=0, select bank0
  1786  177E  00AA               	movwf	?_hx711_promedio+3
  1787  177F  0872               	movf	?___aldiv+2,w
  1788  1780  00A9               	movwf	?_hx711_promedio+2
  1789  1781  0871               	movf	?___aldiv+1,w
  1790  1782  00A8               	movwf	?_hx711_promedio+1
  1791  1783  0870               	movf	?___aldiv,w
  1792  1784  00A7               	movwf	?_hx711_promedio
  1793  1785                     l134:
  1794  1785  0008               	return
  1795  1786                     __end_of_hx711_promedio:
  1796                           
  1797                           	psect	text3
  1798  00C2                     __ptext3:	
  1799 ;; *************** function _hx711_lectura *****************
  1800 ;; Defined at:
  1801 ;;		line 45 in file "hx711.c"
  1802 ;; Parameters:    Size  Location     Type
  1803 ;;  ganancia        1    wreg     unsigned char 
  1804 ;; Auto vars:     Size  Location     Type
  1805 ;;  ganancia        1    0[BANK0 ] unsigned char 
  1806 ;;  hx711_dato      4    3[BANK0 ] long 
  1807 ;;  hx711_cont      2    1[BANK0 ] int 
  1808 ;; Return value:  Size  Location     Type
  1809 ;;                  4    1[COMMON] long 
  1810 ;; Registers used:
  1811 ;;		wreg, status,2, status,0, pclath, cstack
  1812 ;; Tracked objects:
  1813 ;;		On entry : 0/0
  1814 ;;		On exit  : 0/0
  1815 ;;		Unchanged: 0/0
  1816 ;; Data sizes:     COMMON   BANK0   BANK1   BANK3   BANK2
  1817 ;;      Params:         4       0       0       0       0
  1818 ;;      Locals:         0       7       0       0       0
  1819 ;;      Temps:          8       0       0       0       0
  1820 ;;      Totals:        12       7       0       0       0
  1821 ;;Total ram usage:       19 bytes
  1822 ;; Hardware stack levels used: 1
  1823 ;; Hardware stack levels required when called: 1
  1824 ;; This function calls:
  1825 ;;		_hx711_pulso
  1826 ;; This function is called by:
  1827 ;;		_hx711_promedio
  1828 ;; This function uses a non-reentrant model
  1829 ;;
  1830                           
  1831                           
  1832                           ;psect for function _hx711_lectura
  1833  00C2                     _hx711_lectura:
  1834                           
  1835                           ;incstack = 0
  1836                           ; Regs used in _hx711_lectura: [wreg+status,2+status,0+pclath+cstack]
  1837                           ;hx711_lectura@ganancia stored from wreg
  1838  00C2  1283               	bcf	3,5	;RP0=0, select bank0
  1839  00C3  1303               	bcf	3,6	;RP1=0, select bank0
  1840  00C4  00A0               	movwf	hx711_lectura@ganancia
  1841  00C5                     l1746:
  1842                           
  1843                           ;hx711.c: 45: signed long hx711_lectura(unsigned char ganancia);hx711.c: 46: {;hx711.c: 
      +                          47: signed int hx711_cont;;hx711.c: 48: signed long hx711_dato=0;
  1844  00C5  3000               	movlw	0
  1845  00C6  00A6               	movwf	hx711_lectura@hx711_dato+3
  1846  00C7  3000               	movlw	0
  1847  00C8  00A5               	movwf	hx711_lectura@hx711_dato+2
  1848  00C9  3000               	movlw	0
  1849  00CA  00A4               	movwf	hx711_lectura@hx711_dato+1
  1850  00CB  3000               	movlw	0
  1851  00CC  00A3               	movwf	hx711_lectura@hx711_dato
  1852  00CD                     l115:	
  1853                           ;hx711.c: 51:          while (PORTDbits.RD6==1);
  1854                           
  1855  00CD  1B08               	btfsc	8,6	;volatile
  1856  00CE  28D0               	goto	u1901
  1857  00CF  28D1               	goto	u1900
  1858  00D0                     u1901:
  1859  00D0  28CD               	goto	l115
  1860  00D1                     u1900:
  1861  00D1                     l1748:
  1862                           
  1863                           ;hx711.c: 54:   for (hx711_cont=23;hx711_cont>=0;hx711_cont--)
  1864  00D1  3017               	movlw	23
  1865  00D2  00A1               	movwf	hx711_lectura@hx711_cont
  1866  00D3  3000               	movlw	0
  1867  00D4  00A2               	movwf	hx711_lectura@hx711_cont+1
  1868  00D5                     l1750:
  1869  00D5  1FA2               	btfss	hx711_lectura@hx711_cont+1,7
  1870  00D6  28D8               	goto	u1911
  1871  00D7  28D9               	goto	u1910
  1872  00D8                     u1911:
  1873  00D8  28DA               	goto	l1754
  1874  00D9                     u1910:
  1875  00D9  2923               	goto	l1762
  1876  00DA                     l1754:
  1877                           
  1878                           ;hx711.c: 55:   {;hx711.c: 56:      if (hx711_pulso()==1)
  1879  00DA  120A  158A  2004  120A  118A  	fcall	_hx711_pulso
  1880  00DF  3A01               	xorlw	1
  1881  00E0  1D03               	skipz
  1882  00E1  28E3               	goto	u1921
  1883  00E2  28E4               	goto	u1920
  1884  00E3                     u1921:
  1885  00E3  291A               	goto	l1758
  1886  00E4                     u1920:
  1887  00E4                     l1756:
  1888                           
  1889                           ;hx711.c: 57:      {;hx711.c: 58:        hx711_dato=hx711_dato +( 1L<<hx711_cont);
  1890  00E4  1283               	bcf	3,5	;RP0=0, select bank0
  1891  00E5  1303               	bcf	3,6	;RP1=0, select bank0
  1892  00E6  0823               	movf	hx711_lectura@hx711_dato,w
  1893  00E7  00F5               	movwf	??_hx711_lectura
  1894  00E8  0824               	movf	hx711_lectura@hx711_dato+1,w
  1895  00E9  00F6               	movwf	??_hx711_lectura+1
  1896  00EA  0825               	movf	hx711_lectura@hx711_dato+2,w
  1897  00EB  00F7               	movwf	??_hx711_lectura+2
  1898  00EC  0826               	movf	hx711_lectura@hx711_dato+3,w
  1899  00ED  00F8               	movwf	??_hx711_lectura+3
  1900  00EE  3001               	movlw	1
  1901  00EF  00F9               	movwf	??_hx711_lectura+4
  1902  00F0  3000               	movlw	0
  1903  00F1  00FA               	movwf	??_hx711_lectura+5
  1904  00F2  3000               	movlw	0
  1905  00F3  00FB               	movwf	??_hx711_lectura+6
  1906  00F4  3000               	movlw	0
  1907  00F5  00FC               	movwf	??_hx711_lectura+7
  1908  00F6  0A21               	incf	hx711_lectura@hx711_cont,w
  1909  00F7  28FD               	goto	u1930
  1910  00F8                     u1935:
  1911  00F8  1003               	clrc
  1912  00F9  0DF9               	rlf	??_hx711_lectura+4,f
  1913  00FA  0DFA               	rlf	??_hx711_lectura+5,f
  1914  00FB  0DFB               	rlf	??_hx711_lectura+6,f
  1915  00FC  0DFC               	rlf	??_hx711_lectura+7,f
  1916  00FD                     u1930:
  1917  00FD  3EFF               	addlw	-1
  1918  00FE  1D03               	skipz
  1919  00FF  28F8               	goto	u1935
  1920  0100  0879               	movf	??_hx711_lectura+4,w
  1921  0101  07F5               	addwf	??_hx711_lectura,f
  1922  0102  087A               	movf	??_hx711_lectura+5,w
  1923  0103  1803               	skipnc
  1924  0104  0F7A               	incfsz	??_hx711_lectura+5,w
  1925  0105  2907               	goto	u1940
  1926  0106  2908               	goto	u1941
  1927  0107                     u1940:
  1928  0107  07F6               	addwf	??_hx711_lectura+1,f
  1929  0108                     u1941:
  1930  0108  087B               	movf	??_hx711_lectura+6,w
  1931  0109  1803               	skipnc
  1932  010A  0F7B               	incfsz	??_hx711_lectura+6,w
  1933  010B  290D               	goto	u1942
  1934  010C  290E               	goto	u1943
  1935  010D                     u1942:
  1936  010D  07F7               	addwf	??_hx711_lectura+2,f
  1937  010E                     u1943:
  1938  010E  087C               	movf	??_hx711_lectura+7,w
  1939  010F  1803               	skipnc
  1940  0110  0A7C               	incf	??_hx711_lectura+7,w
  1941  0111  07F8               	addwf	??_hx711_lectura+3,f
  1942  0112  0878               	movf	??_hx711_lectura+3,w
  1943  0113  00A6               	movwf	hx711_lectura@hx711_dato+3
  1944  0114  0877               	movf	??_hx711_lectura+2,w
  1945  0115  00A5               	movwf	hx711_lectura@hx711_dato+2
  1946  0116  0876               	movf	??_hx711_lectura+1,w
  1947  0117  00A4               	movwf	hx711_lectura@hx711_dato+1
  1948  0118  0875               	movf	??_hx711_lectura,w
  1949  0119  00A3               	movwf	hx711_lectura@hx711_dato
  1950  011A                     l1758:
  1951                           
  1952                           ;hx711.c: 60:   }
  1953  011A  30FF               	movlw	255
  1954  011B  1283               	bcf	3,5	;RP0=0, select bank0
  1955  011C  1303               	bcf	3,6	;RP1=0, select bank0
  1956  011D  07A1               	addwf	hx711_lectura@hx711_cont,f
  1957  011E  1803               	skipnc
  1958  011F  0AA2               	incf	hx711_lectura@hx711_cont+1,f
  1959  0120  30FF               	movlw	255
  1960  0121  07A2               	addwf	hx711_lectura@hx711_cont+1,f
  1961  0122  28D5               	goto	l1750
  1962  0123                     l1762:
  1963                           
  1964                           ;hx711.c: 61:       _delay((unsigned long)((100)*(8000000/4000000.0)));
  1965  0123  3042               	movlw	66
  1966  0124  00F5               	movwf	??_hx711_lectura
  1967  0125                     u3967:
  1968  0125  0BF5               	decfsz	??_hx711_lectura,f
  1969  0126  2925               	goto	u3967
  1970  0127  0000               	nop
  1971  0128                     l1764:
  1972                           
  1973                           ;hx711.c: 63:      if (ganancia==128) hx711_pulso();
  1974  0128  3080               	movlw	128
  1975  0129  1283               	bcf	3,5	;RP0=0, select bank0
  1976  012A  1303               	bcf	3,6	;RP1=0, select bank0
  1977  012B  0620               	xorwf	hx711_lectura@ganancia,w
  1978  012C  1D03               	btfss	3,2
  1979  012D  292F               	goto	u1951
  1980  012E  2930               	goto	u1950
  1981  012F                     u1951:
  1982  012F  2936               	goto	l1768
  1983  0130                     u1950:
  1984  0130                     l1766:
  1985  0130  120A  158A  2004  120A  118A  	fcall	_hx711_pulso
  1986  0135  2962               	goto	l1786
  1987  0136                     l1768:
  1988  0136  3020               	movlw	32
  1989  0137  0620               	xorwf	hx711_lectura@ganancia,w
  1990  0138  1D03               	btfss	3,2
  1991  0139  293B               	goto	u1961
  1992  013A  293C               	goto	u1960
  1993  013B                     u1961:
  1994  013B  2947               	goto	l1776
  1995  013C                     u1960:
  1996  013C                     l1770:
  1997                           
  1998                           ;hx711.c: 65:      {;hx711.c: 66:       hx711_pulso();
  1999  013C  120A  158A  2004  120A  118A  	fcall	_hx711_pulso
  2000  0141                     l1772:
  2001                           
  2002                           ;hx711.c: 67:       _delay((unsigned long)((100)*(8000000/4000000.0)));
  2003  0141  3042               	movlw	66
  2004  0142  00F5               	movwf	??_hx711_lectura
  2005  0143                     u3977:
  2006  0143  0BF5               	decfsz	??_hx711_lectura,f
  2007  0144  2943               	goto	u3977
  2008  0145  0000               	nop
  2009  0146  2930               	goto	l1766
  2010  0147                     l1776:
  2011  0147  3040               	movlw	64
  2012  0148  0620               	xorwf	hx711_lectura@ganancia,w
  2013  0149  1D03               	btfss	3,2
  2014  014A  294C               	goto	u1971
  2015  014B  294D               	goto	u1970
  2016  014C                     u1971:
  2017  014C  2962               	goto	l1786
  2018  014D                     u1970:
  2019  014D                     l1778:
  2020                           
  2021                           ;hx711.c: 72:      {;hx711.c: 73:       hx711_pulso();
  2022  014D  120A  158A  2004  120A  118A  	fcall	_hx711_pulso
  2023  0152                     l1780:
  2024                           
  2025                           ;hx711.c: 74:       _delay((unsigned long)((100)*(8000000/4000000.0)));
  2026  0152  3042               	movlw	66
  2027  0153  00F5               	movwf	??_hx711_lectura
  2028  0154                     u3987:
  2029  0154  0BF5               	decfsz	??_hx711_lectura,f
  2030  0155  2954               	goto	u3987
  2031  0156  0000               	nop
  2032  0157                     l1782:
  2033                           
  2034                           ;hx711.c: 75:       hx711_pulso();
  2035  0157  120A  158A  2004  120A  118A  	fcall	_hx711_pulso
  2036                           
  2037                           ;hx711.c: 76:       _delay((unsigned long)((100)*(8000000/4000000.0)));
  2038  015C  3042               	movlw	66
  2039  015D  00F5               	movwf	??_hx711_lectura
  2040  015E                     u3997:
  2041  015E  0BF5               	decfsz	??_hx711_lectura,f
  2042  015F  295E               	goto	u3997
  2043  0160  0000               	nop
  2044  0161  2930               	goto	l1766
  2045  0162                     l1786:
  2046                           
  2047                           ;hx711.c: 82:     if ((hx711_dato & 0x800000)!=0)
  2048  0162  1283               	bcf	3,5	;RP0=0, select bank0
  2049  0163  1303               	bcf	3,6	;RP1=0, select bank0
  2050  0164  1FA5               	btfss	hx711_lectura@hx711_dato+2,7
  2051  0165  2967               	goto	u1981
  2052  0166  2968               	goto	u1980
  2053  0167                     u1981:
  2054  0167  298C               	goto	l1796
  2055  0168                     u1980:
  2056  0168                     l1788:
  2057                           
  2058                           ;hx711.c: 83:     {;hx711.c: 84:     hx711_dato=hx711_dato | 0xff000000;
  2059  0168  3000               	movlw	0
  2060  0169  0423               	iorwf	hx711_lectura@hx711_dato,w
  2061  016A  00F5               	movwf	??_hx711_lectura
  2062  016B  3000               	movlw	0
  2063  016C  0424               	iorwf	hx711_lectura@hx711_dato+1,w
  2064  016D  00F6               	movwf	??_hx711_lectura+1
  2065  016E  3000               	movlw	0
  2066  016F  0425               	iorwf	hx711_lectura@hx711_dato+2,w
  2067  0170  00F7               	movwf	??_hx711_lectura+2
  2068  0171  30FF               	movlw	255
  2069  0172  0426               	iorwf	hx711_lectura@hx711_dato+3,w
  2070  0173  00F8               	movwf	??_hx711_lectura+3
  2071  0174  0878               	movf	??_hx711_lectura+3,w
  2072  0175  00A6               	movwf	hx711_lectura@hx711_dato+3
  2073  0176  0877               	movf	??_hx711_lectura+2,w
  2074  0177  00A5               	movwf	hx711_lectura@hx711_dato+2
  2075  0178  0876               	movf	??_hx711_lectura+1,w
  2076  0179  00A4               	movwf	hx711_lectura@hx711_dato+1
  2077  017A  0875               	movf	??_hx711_lectura,w
  2078  017B  00A3               	movwf	hx711_lectura@hx711_dato
  2079  017C                     l1790:
  2080                           
  2081                           ;hx711.c: 85:     return (-hx711_dato);
  2082  017C  0923               	comf	hx711_lectura@hx711_dato,w
  2083  017D  00F1               	movwf	?_hx711_lectura
  2084  017E  0924               	comf	hx711_lectura@hx711_dato+1,w
  2085  017F  00F2               	movwf	?_hx711_lectura+1
  2086  0180  0925               	comf	hx711_lectura@hx711_dato+2,w
  2087  0181  00F3               	movwf	?_hx711_lectura+2
  2088  0182  0926               	comf	hx711_lectura@hx711_dato+3,w
  2089  0183  00F4               	movwf	?_hx711_lectura+3
  2090  0184  0AF1               	incf	?_hx711_lectura,f
  2091  0185  1903               	skipnz
  2092  0186  0AF2               	incf	?_hx711_lectura+1,f
  2093  0187  1903               	skipnz
  2094  0188  0AF3               	incf	?_hx711_lectura+2,f
  2095  0189  1903               	skipnz
  2096  018A  0AF4               	incf	?_hx711_lectura+3,f
  2097  018B  2994               	goto	l127
  2098  018C                     l1796:
  2099  018C  0826               	movf	hx711_lectura@hx711_dato+3,w
  2100  018D  00F4               	movwf	?_hx711_lectura+3
  2101  018E  0825               	movf	hx711_lectura@hx711_dato+2,w
  2102  018F  00F3               	movwf	?_hx711_lectura+2
  2103  0190  0824               	movf	hx711_lectura@hx711_dato+1,w
  2104  0191  00F2               	movwf	?_hx711_lectura+1
  2105  0192  0823               	movf	hx711_lectura@hx711_dato,w
  2106  0193  00F1               	movwf	?_hx711_lectura
  2107  0194                     l127:
  2108  0194  0008               	return
  2109  0195                     __end_of_hx711_lectura:
  2110                           
  2111                           	psect	text4
  2112  0804                     __ptext4:	
  2113 ;; *************** function _hx711_pulso *****************
  2114 ;; Defined at:
  2115 ;;		line 33 in file "hx711.c"
  2116 ;; Parameters:    Size  Location     Type
  2117 ;;		None
  2118 ;; Auto vars:     Size  Location     Type
  2119 ;;  lei             1    0[COMMON] unsigned char 
  2120 ;; Return value:  Size  Location     Type
  2121 ;;                  1    wreg      unsigned char 
  2122 ;; Registers used:
  2123 ;;		wreg, status,2
  2124 ;; Tracked objects:
  2125 ;;		On entry : 0/0
  2126 ;;		On exit  : 0/0
  2127 ;;		Unchanged: 0/0
  2128 ;; Data sizes:     COMMON   BANK0   BANK1   BANK3   BANK2
  2129 ;;      Params:         0       0       0       0       0
  2130 ;;      Locals:         1       0       0       0       0
  2131 ;;      Temps:          0       0       0       0       0
  2132 ;;      Totals:         1       0       0       0       0
  2133 ;;Total ram usage:        1 bytes
  2134 ;; Hardware stack levels used: 1
  2135 ;; This function calls:
  2136 ;;		Nothing
  2137 ;; This function is called by:
  2138 ;;		_hx711_lectura
  2139 ;; This function uses a non-reentrant model
  2140 ;;
  2141                           
  2142                           
  2143                           ;psect for function _hx711_pulso
  2144  0804                     _hx711_pulso:
  2145  0804                     l1734:	
  2146                           ;incstack = 0
  2147                           ; Regs used in _hx711_pulso: [wreg+status,2]
  2148                           
  2149                           
  2150                           ;hx711.c: 35: char lei;;hx711.c: 37:   PORTDbits.RD7=1;
  2151  0804  1283               	bcf	3,5	;RP0=0, select bank0
  2152  0805  1303               	bcf	3,6	;RP1=0, select bank0
  2153  0806  1788               	bsf	8,7	;volatile
  2154                           
  2155                           ;hx711.c: 38:    _delay((unsigned long)((1)*(8000000/4000000.0)));
  2156  0807  2808               	nop2	;2 cycle nop
  2157  0808                     l1736:
  2158                           
  2159                           ;hx711.c: 39:   lei=PORTDbits.RD6;
  2160  0808  3000               	movlw	0
  2161  0809  1283               	bcf	3,5	;RP0=0, select bank0
  2162  080A  1303               	bcf	3,6	;RP1=0, select bank0
  2163  080B  1B08               	btfsc	8,6	;volatile
  2164  080C  3001               	movlw	1
  2165  080D  00F0               	movwf	hx711_pulso@lei
  2166  080E                     l1738:
  2167                           
  2168                           ;hx711.c: 40:  PORTDbits.RD7=0;
  2169  080E  1388               	bcf	8,7	;volatile
  2170  080F                     l1740:
  2171                           
  2172                           ;hx711.c: 41:   _delay((unsigned long)((1)*(8000000/4000000.0)));
  2173  080F  2810               	nop2	;2 cycle nop
  2174  0810                     l1742:
  2175                           
  2176                           ;hx711.c: 42:   return lei;
  2177  0810  0870               	movf	hx711_pulso@lei,w
  2178  0811                     l112:
  2179  0811  0008               	return
  2180  0812                     __end_of_hx711_pulso:
  2181                           
  2182                           	psect	text5
  2183  0857                     __ptext5:	
  2184 ;; *************** function ___aldiv *****************
  2185 ;; Defined at:
  2186 ;;		line 5 in file "C:\Program Files\Microchip\xc8\v2.32\pic\sources\c90\common\aldiv.c"
  2187 ;; Parameters:    Size  Location     Type
  2188 ;;  divisor         4    0[COMMON] long 
  2189 ;;  dividend        4    4[COMMON] long 
  2190 ;; Auto vars:     Size  Location     Type
  2191 ;;  quotient        4    2[BANK0 ] long 
  2192 ;;  sign            1    1[BANK0 ] unsigned char 
  2193 ;;  counter         1    0[BANK0 ] unsigned char 
  2194 ;; Return value:  Size  Location     Type
  2195 ;;                  4    0[COMMON] long 
  2196 ;; Registers used:
  2197 ;;		wreg, status,2, status,0
  2198 ;; Tracked objects:
  2199 ;;		On entry : 0/0
  2200 ;;		On exit  : 0/0
  2201 ;;		Unchanged: 0/0
  2202 ;; Data sizes:     COMMON   BANK0   BANK1   BANK3   BANK2
  2203 ;;      Params:         8       0       0       0       0
  2204 ;;      Locals:         0       6       0       0       0
  2205 ;;      Temps:          1       0       0       0       0
  2206 ;;      Totals:         9       6       0       0       0
  2207 ;;Total ram usage:       15 bytes
  2208 ;; Hardware stack levels used: 1
  2209 ;; This function calls:
  2210 ;;		Nothing
  2211 ;; This function is called by:
  2212 ;;		_hx711_promedio
  2213 ;; This function uses a non-reentrant model
  2214 ;;
  2215                           
  2216                           
  2217                           ;psect for function ___aldiv
  2218  0857                     ___aldiv:
  2219  0857                     l1802:	
  2220                           ;incstack = 0
  2221                           ; Regs used in ___aldiv: [wreg+status,2+status,0]
  2222                           
  2223  0857  1283               	bcf	3,5	;RP0=0, select bank0
  2224  0858  1303               	bcf	3,6	;RP1=0, select bank0
  2225  0859  01A1               	clrf	___aldiv@sign
  2226  085A                     l1804:
  2227  085A  1FF3               	btfss	___aldiv@divisor+3,7
  2228  085B  285D               	goto	u1991
  2229  085C  285E               	goto	u1990
  2230  085D                     u1991:
  2231  085D  286B               	goto	l327
  2232  085E                     u1990:
  2233  085E                     l1806:
  2234  085E  09F0               	comf	___aldiv@divisor,f
  2235  085F  09F1               	comf	___aldiv@divisor+1,f
  2236  0860  09F2               	comf	___aldiv@divisor+2,f
  2237  0861  09F3               	comf	___aldiv@divisor+3,f
  2238  0862  0AF0               	incf	___aldiv@divisor,f
  2239  0863  1903               	skipnz
  2240  0864  0AF1               	incf	___aldiv@divisor+1,f
  2241  0865  1903               	skipnz
  2242  0866  0AF2               	incf	___aldiv@divisor+2,f
  2243  0867  1903               	skipnz
  2244  0868  0AF3               	incf	___aldiv@divisor+3,f
  2245  0869  01A1               	clrf	___aldiv@sign
  2246  086A  0AA1               	incf	___aldiv@sign,f
  2247  086B                     l327:
  2248  086B  1FF7               	btfss	___aldiv@dividend+3,7
  2249  086C  286E               	goto	u2001
  2250  086D  286F               	goto	u2000
  2251  086E                     u2001:
  2252  086E  287E               	goto	l1812
  2253  086F                     u2000:
  2254  086F                     l1808:
  2255  086F  09F4               	comf	___aldiv@dividend,f
  2256  0870  09F5               	comf	___aldiv@dividend+1,f
  2257  0871  09F6               	comf	___aldiv@dividend+2,f
  2258  0872  09F7               	comf	___aldiv@dividend+3,f
  2259  0873  0AF4               	incf	___aldiv@dividend,f
  2260  0874  1903               	skipnz
  2261  0875  0AF5               	incf	___aldiv@dividend+1,f
  2262  0876  1903               	skipnz
  2263  0877  0AF6               	incf	___aldiv@dividend+2,f
  2264  0878  1903               	skipnz
  2265  0879  0AF7               	incf	___aldiv@dividend+3,f
  2266  087A                     l1810:
  2267  087A  3001               	movlw	1
  2268  087B  00F8               	movwf	??___aldiv
  2269  087C  0878               	movf	??___aldiv,w
  2270  087D  06A1               	xorwf	___aldiv@sign,f
  2271  087E                     l1812:
  2272  087E  3000               	movlw	0
  2273  087F  00A5               	movwf	___aldiv@quotient+3
  2274  0880  3000               	movlw	0
  2275  0881  00A4               	movwf	___aldiv@quotient+2
  2276  0882  3000               	movlw	0
  2277  0883  00A3               	movwf	___aldiv@quotient+1
  2278  0884  3000               	movlw	0
  2279  0885  00A2               	movwf	___aldiv@quotient
  2280  0886                     l1814:
  2281  0886  0873               	movf	___aldiv@divisor+3,w
  2282  0887  0472               	iorwf	___aldiv@divisor+2,w
  2283  0888  0471               	iorwf	___aldiv@divisor+1,w
  2284  0889  0470               	iorwf	___aldiv@divisor,w
  2285  088A  1903               	skipnz
  2286  088B  288D               	goto	u2011
  2287  088C  288E               	goto	u2010
  2288  088D                     u2011:
  2289  088D  28DB               	goto	l1834
  2290  088E                     u2010:
  2291  088E                     l1816:
  2292  088E  01A0               	clrf	___aldiv@counter
  2293  088F  0AA0               	incf	___aldiv@counter,f
  2294  0890  289E               	goto	l1820
  2295  0891                     l1818:
  2296  0891  3001               	movlw	1
  2297  0892  00F8               	movwf	??___aldiv
  2298  0893                     u2025:
  2299  0893  1003               	clrc
  2300  0894  0DF0               	rlf	___aldiv@divisor,f
  2301  0895  0DF1               	rlf	___aldiv@divisor+1,f
  2302  0896  0DF2               	rlf	___aldiv@divisor+2,f
  2303  0897  0DF3               	rlf	___aldiv@divisor+3,f
  2304  0898  0BF8               	decfsz	??___aldiv,f
  2305  0899  2893               	goto	u2025
  2306  089A  3001               	movlw	1
  2307  089B  00F8               	movwf	??___aldiv
  2308  089C  0878               	movf	??___aldiv,w
  2309  089D  07A0               	addwf	___aldiv@counter,f
  2310  089E                     l1820:
  2311  089E  1FF3               	btfss	___aldiv@divisor+3,7
  2312  089F  28A1               	goto	u2031
  2313  08A0  28A2               	goto	u2030
  2314  08A1                     u2031:
  2315  08A1  2891               	goto	l1818
  2316  08A2                     u2030:
  2317  08A2                     l1822:
  2318  08A2  3001               	movlw	1
  2319  08A3  00F8               	movwf	??___aldiv
  2320  08A4                     u2045:
  2321  08A4  1003               	clrc
  2322  08A5  0DA2               	rlf	___aldiv@quotient,f
  2323  08A6  0DA3               	rlf	___aldiv@quotient+1,f
  2324  08A7  0DA4               	rlf	___aldiv@quotient+2,f
  2325  08A8  0DA5               	rlf	___aldiv@quotient+3,f
  2326  08A9  0BF8               	decfsz	??___aldiv,f
  2327  08AA  28A4               	goto	u2045
  2328  08AB                     l1824:
  2329  08AB  0873               	movf	___aldiv@divisor+3,w
  2330  08AC  0277               	subwf	___aldiv@dividend+3,w
  2331  08AD  1D03               	skipz
  2332  08AE  28B9               	goto	u2055
  2333  08AF  0872               	movf	___aldiv@divisor+2,w
  2334  08B0  0276               	subwf	___aldiv@dividend+2,w
  2335  08B1  1D03               	skipz
  2336  08B2  28B9               	goto	u2055
  2337  08B3  0871               	movf	___aldiv@divisor+1,w
  2338  08B4  0275               	subwf	___aldiv@dividend+1,w
  2339  08B5  1D03               	skipz
  2340  08B6  28B9               	goto	u2055
  2341  08B7  0870               	movf	___aldiv@divisor,w
  2342  08B8  0274               	subwf	___aldiv@dividend,w
  2343  08B9                     u2055:
  2344  08B9  1C03               	skipc
  2345  08BA  28BC               	goto	u2051
  2346  08BB  28BD               	goto	u2050
  2347  08BC                     u2051:
  2348  08BC  28CC               	goto	l1830
  2349  08BD                     u2050:
  2350  08BD                     l1826:
  2351  08BD  0870               	movf	___aldiv@divisor,w
  2352  08BE  02F4               	subwf	___aldiv@dividend,f
  2353  08BF  0871               	movf	___aldiv@divisor+1,w
  2354  08C0  1C03               	skipc
  2355  08C1  0F71               	incfsz	___aldiv@divisor+1,w
  2356  08C2  02F5               	subwf	___aldiv@dividend+1,f
  2357  08C3  0872               	movf	___aldiv@divisor+2,w
  2358  08C4  1C03               	skipc
  2359  08C5  0F72               	incfsz	___aldiv@divisor+2,w
  2360  08C6  02F6               	subwf	___aldiv@dividend+2,f
  2361  08C7  0873               	movf	___aldiv@divisor+3,w
  2362  08C8  1C03               	skipc
  2363  08C9  0F73               	incfsz	___aldiv@divisor+3,w
  2364  08CA  02F7               	subwf	___aldiv@dividend+3,f
  2365  08CB                     l1828:
  2366  08CB  1422               	bsf	___aldiv@quotient,0
  2367  08CC                     l1830:
  2368  08CC  3001               	movlw	1
  2369  08CD                     u2065:
  2370  08CD  1003               	clrc
  2371  08CE  0CF3               	rrf	___aldiv@divisor+3,f
  2372  08CF  0CF2               	rrf	___aldiv@divisor+2,f
  2373  08D0  0CF1               	rrf	___aldiv@divisor+1,f
  2374  08D1  0CF0               	rrf	___aldiv@divisor,f
  2375  08D2  3EFF               	addlw	-1
  2376  08D3  1D03               	skipz
  2377  08D4  28CD               	goto	u2065
  2378  08D5                     l1832:
  2379  08D5  3001               	movlw	1
  2380  08D6  02A0               	subwf	___aldiv@counter,f
  2381  08D7  1D03               	btfss	3,2
  2382  08D8  28DA               	goto	u2071
  2383  08D9  28DB               	goto	u2070
  2384  08DA                     u2071:
  2385  08DA  28A2               	goto	l1822
  2386  08DB                     u2070:
  2387  08DB                     l1834:
  2388  08DB  0821               	movf	___aldiv@sign,w
  2389  08DC  1903               	btfsc	3,2
  2390  08DD  28DF               	goto	u2081
  2391  08DE  28E0               	goto	u2080
  2392  08DF                     u2081:
  2393  08DF  28EB               	goto	l1838
  2394  08E0                     u2080:
  2395  08E0                     l1836:
  2396  08E0  09A2               	comf	___aldiv@quotient,f
  2397  08E1  09A3               	comf	___aldiv@quotient+1,f
  2398  08E2  09A4               	comf	___aldiv@quotient+2,f
  2399  08E3  09A5               	comf	___aldiv@quotient+3,f
  2400  08E4  0AA2               	incf	___aldiv@quotient,f
  2401  08E5  1903               	skipnz
  2402  08E6  0AA3               	incf	___aldiv@quotient+1,f
  2403  08E7  1903               	skipnz
  2404  08E8  0AA4               	incf	___aldiv@quotient+2,f
  2405  08E9  1903               	skipnz
  2406  08EA  0AA5               	incf	___aldiv@quotient+3,f
  2407  08EB                     l1838:
  2408  08EB  0825               	movf	___aldiv@quotient+3,w
  2409  08EC  00F3               	movwf	?___aldiv+3
  2410  08ED  0824               	movf	___aldiv@quotient+2,w
  2411  08EE  00F2               	movwf	?___aldiv+2
  2412  08EF  0823               	movf	___aldiv@quotient+1,w
  2413  08F0  00F1               	movwf	?___aldiv+1
  2414  08F1  0822               	movf	___aldiv@quotient,w
  2415  08F2  00F0               	movwf	?___aldiv
  2416  08F3                     l337:
  2417  08F3  0008               	return
  2418  08F4                     __end_of___aldiv:
  2419                           
  2420                           	psect	text6
  2421  162A                     __ptext6:	
  2422 ;; *************** function _setup *****************
  2423 ;; Defined at:
  2424 ;;		line 168 in file "Slave2.c"
  2425 ;; Parameters:    Size  Location     Type
  2426 ;;		None
  2427 ;; Auto vars:     Size  Location     Type
  2428 ;;		None
  2429 ;; Return value:  Size  Location     Type
  2430 ;;                  1    wreg      void 
  2431 ;; Registers used:
  2432 ;;		status,2
  2433 ;; Tracked objects:
  2434 ;;		On entry : 0/0
  2435 ;;		On exit  : 0/0
  2436 ;;		Unchanged: 0/0
  2437 ;; Data sizes:     COMMON   BANK0   BANK1   BANK3   BANK2
  2438 ;;      Params:         0       0       0       0       0
  2439 ;;      Locals:         0       0       0       0       0
  2440 ;;      Temps:          0       0       0       0       0
  2441 ;;      Totals:         0       0       0       0       0
  2442 ;;Total ram usage:        0 bytes
  2443 ;; Hardware stack levels used: 1
  2444 ;; This function calls:
  2445 ;;		Nothing
  2446 ;; This function is called by:
  2447 ;;		_main
  2448 ;; This function uses a non-reentrant model
  2449 ;;
  2450                           
  2451                           
  2452                           ;psect for function _setup
  2453  162A                     _setup:
  2454  162A                     l2572:	
  2455                           ;incstack = 0
  2456                           ; Regs used in _setup: [status,2]
  2457                           
  2458                           
  2459                           ;Slave2.c: 169:     ANSEL = 0;
  2460  162A  1683               	bsf	3,5	;RP0=1, select bank3
  2461  162B  1703               	bsf	3,6	;RP1=1, select bank3
  2462  162C  0188               	clrf	8	;volatile
  2463                           
  2464                           ;Slave2.c: 170:     ANSELH = 0;
  2465  162D  0189               	clrf	9	;volatile
  2466  162E                     l2574:
  2467                           
  2468                           ;Slave2.c: 171:     TRISDbits.TRISD4 = 1;
  2469  162E  1683               	bsf	3,5	;RP0=1, select bank1
  2470  162F  1303               	bcf	3,6	;RP1=0, select bank1
  2471  1630  1608               	bsf	8,4	;volatile
  2472  1631                     l2576:
  2473                           
  2474                           ;Slave2.c: 172:     TRISDbits.TRISD5 = 1;
  2475  1631  1688               	bsf	8,5	;volatile
  2476  1632                     l2578:
  2477                           
  2478                           ;Slave2.c: 173:     TRISDbits.TRISD6 = 1;
  2479  1632  1708               	bsf	8,6	;volatile
  2480  1633                     l2580:
  2481                           
  2482                           ;Slave2.c: 174:     TRISDbits.TRISD7 = 1;
  2483  1633  1788               	bsf	8,7	;volatile
  2484                           
  2485                           ;Slave2.c: 175:     TRISB = 0;
  2486  1634  0186               	clrf	6	;volatile
  2487                           
  2488                           ;Slave2.c: 176:     TRISE = 0;
  2489  1635  0189               	clrf	9	;volatile
  2490                           
  2491                           ;Slave2.c: 178:     PORTA = 0;
  2492  1636  1283               	bcf	3,5	;RP0=0, select bank0
  2493  1637  1303               	bcf	3,6	;RP1=0, select bank0
  2494  1638  0185               	clrf	5	;volatile
  2495                           
  2496                           ;Slave2.c: 179:     PORTB = 0;
  2497  1639  0186               	clrf	6	;volatile
  2498                           
  2499                           ;Slave2.c: 180:     PORTD = 0;
  2500  163A  0188               	clrf	8	;volatile
  2501                           
  2502                           ;Slave2.c: 181:     PORTE = 0;
  2503  163B  0189               	clrf	9	;volatile
  2504  163C                     l2582:
  2505                           
  2506                           ;Slave2.c: 184:     OSCCONbits.IRCF2 = 1;
  2507  163C  1683               	bsf	3,5	;RP0=1, select bank1
  2508  163D  1303               	bcf	3,6	;RP1=0, select bank1
  2509  163E  170F               	bsf	15,6	;volatile
  2510  163F                     l2584:
  2511                           
  2512                           ;Slave2.c: 185:     OSCCONbits.IRCF1 = 1;
  2513  163F  168F               	bsf	15,5	;volatile
  2514  1640                     l2586:
  2515                           
  2516                           ;Slave2.c: 186:     OSCCONbits.IRCF0 = 1;
  2517  1640  160F               	bsf	15,4	;volatile
  2518  1641                     l2588:
  2519                           
  2520                           ;Slave2.c: 187:     OSCCONbits.SCS = 1;
  2521  1641  140F               	bsf	15,0	;volatile
  2522  1642                     l98:
  2523  1642  0008               	return
  2524  1643                     __end_of_setup:
  2525                           
  2526                           	psect	text7
  2527  15E7                     __ptext7:	
  2528 ;; *************** function _hx711_init *****************
  2529 ;; Defined at:
  2530 ;;		line 26 in file "hx711.c"
  2531 ;; Parameters:    Size  Location     Type
  2532 ;;		None
  2533 ;; Auto vars:     Size  Location     Type
  2534 ;;		None
  2535 ;; Return value:  Size  Location     Type
  2536 ;;                  1    wreg      void 
  2537 ;; Registers used:
  2538 ;;		wreg
  2539 ;; Tracked objects:
  2540 ;;		On entry : 0/0
  2541 ;;		On exit  : 0/0
  2542 ;;		Unchanged: 0/0
  2543 ;; Data sizes:     COMMON   BANK0   BANK1   BANK3   BANK2
  2544 ;;      Params:         0       0       0       0       0
  2545 ;;      Locals:         0       0       0       0       0
  2546 ;;      Temps:          3       0       0       0       0
  2547 ;;      Totals:         3       0       0       0       0
  2548 ;;Total ram usage:        3 bytes
  2549 ;; Hardware stack levels used: 1
  2550 ;; This function calls:
  2551 ;;		Nothing
  2552 ;; This function is called by:
  2553 ;;		_main
  2554 ;; This function uses a non-reentrant model
  2555 ;;
  2556                           
  2557                           
  2558                           ;psect for function _hx711_init
  2559  15E7                     _hx711_init:
  2560  15E7                     l2590:	
  2561                           ;incstack = 0
  2562                           ; Regs used in _hx711_init: [wreg]
  2563                           
  2564  15E7  1683               	bsf	3,5	;RP0=1, select bank1
  2565  15E8  1303               	bcf	3,6	;RP1=0, select bank1
  2566  15E9  1388               	bcf	8,7	;volatile
  2567                           
  2568                           ;hx711.c: 28:    TRISDbits.TRISD6=1;
  2569  15EA  1708               	bsf	8,6	;volatile
  2570                           
  2571                           ;hx711.c: 29:    PORTDbits.RD7=0;
  2572  15EB  1283               	bcf	3,5	;RP0=0, select bank0
  2573  15EC  1303               	bcf	3,6	;RP1=0, select bank0
  2574  15ED  1388               	bcf	8,7	;volatile
  2575  15EE                     l2592:
  2576                           
  2577                           ;hx711.c: 30:    _delay((unsigned long)((500)*(8000000/4000.0)));
  2578  15EE  3006               	movlw	6
  2579  15EF  00F2               	movwf	??_hx711_init+2
  2580  15F0  3013               	movlw	19
  2581  15F1  00F1               	movwf	??_hx711_init+1
  2582  15F2  30AD               	movlw	173
  2583  15F3  00F0               	movwf	??_hx711_init
  2584  15F4                     u4007:
  2585  15F4  0BF0               	decfsz	??_hx711_init,f
  2586  15F5  2DF4               	goto	u4007
  2587  15F6  0BF1               	decfsz	??_hx711_init+1,f
  2588  15F7  2DF4               	goto	u4007
  2589  15F8  0BF2               	decfsz	??_hx711_init+2,f
  2590  15F9  2DF4               	goto	u4007
  2591  15FA  2DFB               	nop2
  2592  15FB                     l109:
  2593  15FB  0008               	return
  2594  15FC                     __end_of_hx711_init:
  2595                           
  2596                           	psect	text8
  2597  0195                     __ptext8:	
  2598 ;; *************** function _floattostr_ *****************
  2599 ;; Defined at:
  2600 ;;		line 69 in file "Slave2.c"
  2601 ;; Parameters:    Size  Location     Type
  2602 ;;  numero_         4   43[BANK0 ] float 
  2603 ;;  cadena_         2   47[BANK0 ] PTR unsigned char 
  2604 ;;		 -> tarart(25), texto(25), offsett(25), 
  2605 ;;  decimales_      1   49[BANK0 ] unsigned char 
  2606 ;; Auto vars:     Size  Location     Type
  2607 ;;  tempo_float     4   53[BANK0 ] unsigned char 
  2608 ;;  largo_entera    2   61[BANK0 ] int 
  2609 ;;  cont_for        2   59[BANK0 ] int 
  2610 ;;  largo_n         2   57[BANK0 ] int 
  2611 ;;  tempo_int       2   51[BANK0 ] int 
  2612 ;; Return value:  Size  Location     Type
  2613 ;;                  1    wreg      void 
  2614 ;; Registers used:
  2615 ;;		wreg, fsr0l, fsr0h, status,2, status,0, btemp+1, pclath, cstack
  2616 ;; Tracked objects:
  2617 ;;		On entry : 0/0
  2618 ;;		On exit  : 0/0
  2619 ;;		Unchanged: 0/0
  2620 ;; Data sizes:     COMMON   BANK0   BANK1   BANK3   BANK2
  2621 ;;      Params:         0       7       0       0       0
  2622 ;;      Locals:         0      12       0       0       0
  2623 ;;      Temps:          0       1       0       0       0
  2624 ;;      Totals:         0      20       0       0       0
  2625 ;;Total ram usage:       20 bytes
  2626 ;; Hardware stack levels used: 1
  2627 ;; Hardware stack levels required when called: 2
  2628 ;; This function calls:
  2629 ;;		___fladd
  2630 ;;		___fldiv
  2631 ;;		___flge
  2632 ;;		___flmul
  2633 ;;		___flneg
  2634 ;;		___flsub
  2635 ;;		___fltol
  2636 ;;		___xxtofl
  2637 ;; This function is called by:
  2638 ;;		_main
  2639 ;; This function uses a non-reentrant model
  2640 ;;
  2641                           
  2642                           
  2643                           ;psect for function _floattostr_
  2644  0195                     _floattostr_:
  2645  0195                     l2684:	
  2646                           ;incstack = 0
  2647                           ; Regs used in _floattostr_: [wreg-fsr0h+status,2+status,0+btemp+1+pclath+cstack]
  2648                           
  2649                           
  2650                           ;Slave2.c: 69:  void floattostr_(float numero_, unsigned char *cadena_,char decimales_);
      +                          Slave2.c: 70: {;Slave2.c: 72: int largo_entera,largo_n,cont_for,tempo_int;;Slave2.c: 73:
      +                           double tempo_float;;Slave2.c: 75: largo_n = decimales_+1;
  2651  0195  1283               	bcf	3,5	;RP0=0, select bank0
  2652  0196  1303               	bcf	3,6	;RP1=0, select bank0
  2653  0197  0851               	movf	floattostr_@decimales_,w
  2654  0198  3E01               	addlw	1
  2655  0199  00D9               	movwf	floattostr_@largo_n
  2656  019A  3000               	movlw	0
  2657  019B  1803               	skipnc
  2658  019C  3001               	movlw	1
  2659  019D  00DA               	movwf	floattostr_@largo_n+1
  2660  019E                     l2686:
  2661                           
  2662                           ;Slave2.c: 76: largo_entera = 0;
  2663  019E  01DD               	clrf	floattostr_@largo_entera
  2664  019F  01DE               	clrf	floattostr_@largo_entera+1
  2665  01A0                     l2688:
  2666                           
  2667                           ;Slave2.c: 78: if ( numero_ < 0)
  2668  01A0  084E               	movf	floattostr_@numero_+3,w
  2669  01A1  00F3               	movwf	___flge@ff1+3
  2670  01A2  084D               	movf	floattostr_@numero_+2,w
  2671  01A3  00F2               	movwf	___flge@ff1+2
  2672  01A4  084C               	movf	floattostr_@numero_+1,w
  2673  01A5  00F1               	movwf	___flge@ff1+1
  2674  01A6  084B               	movf	floattostr_@numero_,w
  2675  01A7  00F0               	movwf	___flge@ff1
  2676  01A8  3000               	movlw	0
  2677  01A9  00F7               	movwf	___flge@ff2+3
  2678  01AA  3000               	movlw	0
  2679  01AB  00F6               	movwf	___flge@ff2+2
  2680  01AC  3000               	movlw	0
  2681  01AD  00F5               	movwf	___flge@ff2+1
  2682  01AE  3000               	movlw	0
  2683  01AF  00F4               	movwf	___flge@ff2
  2684  01B0  120A  158A  20F4  120A  118A  	fcall	___flge
  2685  01B5  1803               	btfsc	3,0
  2686  01B6  29B8               	goto	u3791
  2687  01B7  29B9               	goto	u3790
  2688  01B8                     u3791:
  2689  01B8  29E1               	goto	l2696
  2690  01B9                     u3790:
  2691  01B9                     l2690:
  2692                           
  2693                           ;Slave2.c: 79:   {;Slave2.c: 80:   *cadena_++ = '-';
  2694  01B9  302D               	movlw	45
  2695  01BA  1283               	bcf	3,5	;RP0=0, select bank0
  2696  01BB  1303               	bcf	3,6	;RP1=0, select bank0
  2697  01BC  00D2               	movwf	??_floattostr_
  2698  01BD  084F               	movf	floattostr_@cadena_,w
  2699  01BE  0084               	movwf	4
  2700  01BF  1783               	bsf	3,7
  2701  01C0  1C50               	btfss	floattostr_@cadena_+1,0
  2702  01C1  1383               	bcf	3,7
  2703  01C2  0852               	movf	??_floattostr_,w
  2704  01C3  0080               	movwf	0
  2705  01C4                     l2692:
  2706  01C4  3001               	movlw	1
  2707  01C5  07CF               	addwf	floattostr_@cadena_,f
  2708  01C6  1803               	skipnc
  2709  01C7  0AD0               	incf	floattostr_@cadena_+1,f
  2710  01C8  3000               	movlw	0
  2711  01C9  07D0               	addwf	floattostr_@cadena_+1,f
  2712  01CA                     l2694:
  2713                           
  2714                           ;Slave2.c: 81:   numero_ = -numero_;
  2715  01CA  084E               	movf	floattostr_@numero_+3,w
  2716  01CB  00F3               	movwf	___flneg@f1+3
  2717  01CC  084D               	movf	floattostr_@numero_+2,w
  2718  01CD  00F2               	movwf	___flneg@f1+2
  2719  01CE  084C               	movf	floattostr_@numero_+1,w
  2720  01CF  00F1               	movwf	___flneg@f1+1
  2721  01D0  084B               	movf	floattostr_@numero_,w
  2722  01D1  00F0               	movwf	___flneg@f1
  2723  01D2  160A  118A  25CF  120A  118A  	fcall	___flneg
  2724  01D7  0873               	movf	?___flneg+3,w
  2725  01D8  1283               	bcf	3,5	;RP0=0, select bank0
  2726  01D9  1303               	bcf	3,6	;RP1=0, select bank0
  2727  01DA  00CE               	movwf	floattostr_@numero_+3
  2728  01DB  0872               	movf	?___flneg+2,w
  2729  01DC  00CD               	movwf	floattostr_@numero_+2
  2730  01DD  0871               	movf	?___flneg+1,w
  2731  01DE  00CC               	movwf	floattostr_@numero_+1
  2732  01DF  0870               	movf	?___flneg,w
  2733  01E0  00CB               	movwf	floattostr_@numero_
  2734  01E1                     l2696:
  2735                           
  2736                           ;Slave2.c: 84: if (numero_ > 0.0) while (numero_ < 1.0)
  2737  01E1  3000               	movlw	0
  2738  01E2  00F3               	movwf	___flge@ff1+3
  2739  01E3  3000               	movlw	0
  2740  01E4  00F2               	movwf	___flge@ff1+2
  2741  01E5  3000               	movlw	0
  2742  01E6  00F1               	movwf	___flge@ff1+1
  2743  01E7  3000               	movlw	0
  2744  01E8  00F0               	movwf	___flge@ff1
  2745  01E9  1283               	bcf	3,5	;RP0=0, select bank0
  2746  01EA  1303               	bcf	3,6	;RP1=0, select bank0
  2747  01EB  084E               	movf	floattostr_@numero_+3,w
  2748  01EC  00F7               	movwf	___flge@ff2+3
  2749  01ED  084D               	movf	floattostr_@numero_+2,w
  2750  01EE  00F6               	movwf	___flge@ff2+2
  2751  01EF  084C               	movf	floattostr_@numero_+1,w
  2752  01F0  00F5               	movwf	___flge@ff2+1
  2753  01F1  084B               	movf	floattostr_@numero_,w
  2754  01F2  00F4               	movwf	___flge@ff2
  2755  01F3  120A  158A  20F4  120A  118A  	fcall	___flge
  2756  01F8  1803               	btfsc	3,0
  2757  01F9  29FB               	goto	u3801
  2758  01FA  29FC               	goto	u3800
  2759  01FB                     u3801:
  2760  01FB  2A67               	goto	l2710
  2761  01FC                     u3800:
  2762  01FC  2A24               	goto	l2704
  2763  01FD                     l2700:
  2764                           
  2765                           ;Slave2.c: 85:   {;Slave2.c: 86:   numero_ =numero_* 10.0;
  2766  01FD  3041               	movlw	65
  2767  01FE  1283               	bcf	3,5	;RP0=0, select bank0
  2768  01FF  1303               	bcf	3,6	;RP1=0, select bank0
  2769  0200  00A3               	movwf	___flmul@b+3
  2770  0201  3020               	movlw	32
  2771  0202  00A2               	movwf	___flmul@b+2
  2772  0203  3000               	movlw	0
  2773  0204  00A1               	movwf	___flmul@b+1
  2774  0205  3000               	movlw	0
  2775  0206  00A0               	movwf	___flmul@b
  2776  0207  084E               	movf	floattostr_@numero_+3,w
  2777  0208  00A7               	movwf	___flmul@a+3
  2778  0209  084D               	movf	floattostr_@numero_+2,w
  2779  020A  00A6               	movwf	___flmul@a+2
  2780  020B  084C               	movf	floattostr_@numero_+1,w
  2781  020C  00A5               	movwf	___flmul@a+1
  2782  020D  084B               	movf	floattostr_@numero_,w
  2783  020E  00A4               	movwf	___flmul@a
  2784  020F  120A  118A  2451  120A  118A  	fcall	___flmul
  2785  0214  1283               	bcf	3,5	;RP0=0, select bank0
  2786  0215  1303               	bcf	3,6	;RP1=0, select bank0
  2787  0216  0823               	movf	?___flmul+3,w
  2788  0217  00CE               	movwf	floattostr_@numero_+3
  2789  0218  0822               	movf	?___flmul+2,w
  2790  0219  00CD               	movwf	floattostr_@numero_+2
  2791  021A  0821               	movf	?___flmul+1,w
  2792  021B  00CC               	movwf	floattostr_@numero_+1
  2793  021C  0820               	movf	?___flmul,w
  2794  021D  00CB               	movwf	floattostr_@numero_
  2795  021E                     l2702:
  2796                           
  2797                           ;Slave2.c: 87:   largo_entera--;
  2798  021E  30FF               	movlw	255
  2799  021F  07DD               	addwf	floattostr_@largo_entera,f
  2800  0220  1803               	skipnc
  2801  0221  0ADE               	incf	floattostr_@largo_entera+1,f
  2802  0222  30FF               	movlw	255
  2803  0223  07DE               	addwf	floattostr_@largo_entera+1,f
  2804  0224                     l2704:
  2805                           
  2806                           ;Slave2.c: 84: if (numero_ > 0.0) while (numero_ < 1.0)
  2807  0224  1283               	bcf	3,5	;RP0=0, select bank0
  2808  0225  1303               	bcf	3,6	;RP1=0, select bank0
  2809  0226  084E               	movf	floattostr_@numero_+3,w
  2810  0227  00F3               	movwf	___flge@ff1+3
  2811  0228  084D               	movf	floattostr_@numero_+2,w
  2812  0229  00F2               	movwf	___flge@ff1+2
  2813  022A  084C               	movf	floattostr_@numero_+1,w
  2814  022B  00F1               	movwf	___flge@ff1+1
  2815  022C  084B               	movf	floattostr_@numero_,w
  2816  022D  00F0               	movwf	___flge@ff1
  2817  022E  303F               	movlw	63
  2818  022F  00F7               	movwf	___flge@ff2+3
  2819  0230  3080               	movlw	128
  2820  0231  00F6               	movwf	___flge@ff2+2
  2821  0232  3000               	movlw	0
  2822  0233  00F5               	movwf	___flge@ff2+1
  2823  0234  3000               	movlw	0
  2824  0235  00F4               	movwf	___flge@ff2
  2825  0236  120A  158A  20F4  120A  118A  	fcall	___flge
  2826  023B  1C03               	btfss	3,0
  2827  023C  2A3E               	goto	u3811
  2828  023D  2A3F               	goto	u3810
  2829  023E                     u3811:
  2830  023E  29FD               	goto	l2700
  2831  023F                     u3810:
  2832  023F  2A67               	goto	l2710
  2833  0240                     l2706:
  2834                           
  2835                           ;Slave2.c: 92:   {;Slave2.c: 93:   numero_ = numero_/10.0;
  2836  0240  3041               	movlw	65
  2837  0241  00F3               	movwf	___fldiv@a+3
  2838  0242  3020               	movlw	32
  2839  0243  00F2               	movwf	___fldiv@a+2
  2840  0244  3000               	movlw	0
  2841  0245  00F1               	movwf	___fldiv@a+1
  2842  0246  3000               	movlw	0
  2843  0247  00F0               	movwf	___fldiv@a
  2844  0248  1283               	bcf	3,5	;RP0=0, select bank0
  2845  0249  1303               	bcf	3,6	;RP1=0, select bank0
  2846  024A  084E               	movf	floattostr_@numero_+3,w
  2847  024B  00F7               	movwf	___fldiv@b+3
  2848  024C  084D               	movf	floattostr_@numero_+2,w
  2849  024D  00F6               	movwf	___fldiv@b+2
  2850  024E  084C               	movf	floattostr_@numero_+1,w
  2851  024F  00F5               	movwf	___fldiv@b+1
  2852  0250  084B               	movf	floattostr_@numero_,w
  2853  0251  00F4               	movwf	___fldiv@b
  2854  0252  120A  158A  2196  120A  118A  	fcall	___fldiv
  2855  0257  0873               	movf	?___fldiv+3,w
  2856  0258  1283               	bcf	3,5	;RP0=0, select bank0
  2857  0259  1303               	bcf	3,6	;RP1=0, select bank0
  2858  025A  00CE               	movwf	floattostr_@numero_+3
  2859  025B  0872               	movf	?___fldiv+2,w
  2860  025C  00CD               	movwf	floattostr_@numero_+2
  2861  025D  0871               	movf	?___fldiv+1,w
  2862  025E  00CC               	movwf	floattostr_@numero_+1
  2863  025F  0870               	movf	?___fldiv,w
  2864  0260  00CB               	movwf	floattostr_@numero_
  2865  0261                     l2708:
  2866                           
  2867                           ;Slave2.c: 94:   largo_entera++;
  2868  0261  3001               	movlw	1
  2869  0262  07DD               	addwf	floattostr_@largo_entera,f
  2870  0263  1803               	skipnc
  2871  0264  0ADE               	incf	floattostr_@largo_entera+1,f
  2872  0265  3000               	movlw	0
  2873  0266  07DE               	addwf	floattostr_@largo_entera+1,f
  2874  0267                     l2710:
  2875                           
  2876                           ;Slave2.c: 91: while (numero_ >= 10.0)
  2877  0267  1283               	bcf	3,5	;RP0=0, select bank0
  2878  0268  1303               	bcf	3,6	;RP1=0, select bank0
  2879  0269  084E               	movf	floattostr_@numero_+3,w
  2880  026A  00F3               	movwf	___flge@ff1+3
  2881  026B  084D               	movf	floattostr_@numero_+2,w
  2882  026C  00F2               	movwf	___flge@ff1+2
  2883  026D  084C               	movf	floattostr_@numero_+1,w
  2884  026E  00F1               	movwf	___flge@ff1+1
  2885  026F  084B               	movf	floattostr_@numero_,w
  2886  0270  00F0               	movwf	___flge@ff1
  2887  0271  3041               	movlw	65
  2888  0272  00F7               	movwf	___flge@ff2+3
  2889  0273  3020               	movlw	32
  2890  0274  00F6               	movwf	___flge@ff2+2
  2891  0275  3000               	movlw	0
  2892  0276  00F5               	movwf	___flge@ff2+1
  2893  0277  3000               	movlw	0
  2894  0278  00F4               	movwf	___flge@ff2
  2895  0279  120A  158A  20F4  120A  118A  	fcall	___flge
  2896  027E  1803               	btfsc	3,0
  2897  027F  2A81               	goto	u3821
  2898  0280  2A82               	goto	u3820
  2899  0281                     u3821:
  2900  0281  2A40               	goto	l2706
  2901  0282                     u3820:
  2902  0282                     l2712:
  2903                           
  2904                           ;Slave2.c: 96:  largo_n = largo_n+largo_entera;
  2905  0282  1283               	bcf	3,5	;RP0=0, select bank0
  2906  0283  1303               	bcf	3,6	;RP1=0, select bank0
  2907  0284  085D               	movf	floattostr_@largo_entera,w
  2908  0285  0759               	addwf	floattostr_@largo_n,w
  2909  0286  00D9               	movwf	floattostr_@largo_n
  2910  0287  085E               	movf	floattostr_@largo_entera+1,w
  2911  0288  1803               	skipnc
  2912  0289  0A5E               	incf	floattostr_@largo_entera+1,w
  2913  028A  075A               	addwf	floattostr_@largo_n+1,w
  2914  028B  00DA               	movwf	floattostr_@largo_n+1
  2915  028C                     l2714:
  2916                           
  2917                           ;Slave2.c: 100: for (tempo_float = cont_for = 1; cont_for < largo_n; cont_for++)
  2918  028C  3001               	movlw	1
  2919  028D  00DB               	movwf	floattostr_@cont_for
  2920  028E  3000               	movlw	0
  2921  028F  00DC               	movwf	floattostr_@cont_for+1
  2922  0290  085B               	movf	floattostr_@cont_for,w
  2923  0291  00B5               	movwf	___xxtofl@val
  2924  0292  085C               	movf	floattostr_@cont_for+1,w
  2925  0293  00B6               	movwf	___xxtofl@val+1
  2926  0294  3000               	movlw	0
  2927  0295  1BB6               	btfsc	___xxtofl@val+1,7
  2928  0296  30FF               	movlw	255
  2929  0297  00B7               	movwf	___xxtofl@val+2
  2930  0298  00B8               	movwf	___xxtofl@val+3
  2931  0299  3001               	movlw	1
  2932  029A  120A  118A  2006  120A  118A  	fcall	___xxtofl
  2933  029F  1283               	bcf	3,5	;RP0=0, select bank0
  2934  02A0  1303               	bcf	3,6	;RP1=0, select bank0
  2935  02A1  0838               	movf	?___xxtofl+3,w
  2936  02A2  00D8               	movwf	floattostr_@tempo_float+3
  2937  02A3  0837               	movf	?___xxtofl+2,w
  2938  02A4  00D7               	movwf	floattostr_@tempo_float+2
  2939  02A5  0836               	movf	?___xxtofl+1,w
  2940  02A6  00D6               	movwf	floattostr_@tempo_float+1
  2941  02A7  0835               	movf	?___xxtofl,w
  2942  02A8  00D5               	movwf	floattostr_@tempo_float
  2943  02A9  2AD1               	goto	l2720
  2944  02AA                     l2716:
  2945                           
  2946                           ;Slave2.c: 101:   tempo_float = tempo_float/10.0;
  2947  02AA  3041               	movlw	65
  2948  02AB  00F3               	movwf	___fldiv@a+3
  2949  02AC  3020               	movlw	32
  2950  02AD  00F2               	movwf	___fldiv@a+2
  2951  02AE  3000               	movlw	0
  2952  02AF  00F1               	movwf	___fldiv@a+1
  2953  02B0  3000               	movlw	0
  2954  02B1  00F0               	movwf	___fldiv@a
  2955  02B2  1283               	bcf	3,5	;RP0=0, select bank0
  2956  02B3  1303               	bcf	3,6	;RP1=0, select bank0
  2957  02B4  0858               	movf	floattostr_@tempo_float+3,w
  2958  02B5  00F7               	movwf	___fldiv@b+3
  2959  02B6  0857               	movf	floattostr_@tempo_float+2,w
  2960  02B7  00F6               	movwf	___fldiv@b+2
  2961  02B8  0856               	movf	floattostr_@tempo_float+1,w
  2962  02B9  00F5               	movwf	___fldiv@b+1
  2963  02BA  0855               	movf	floattostr_@tempo_float,w
  2964  02BB  00F4               	movwf	___fldiv@b
  2965  02BC  120A  158A  2196  120A  118A  	fcall	___fldiv
  2966  02C1  0873               	movf	?___fldiv+3,w
  2967  02C2  1283               	bcf	3,5	;RP0=0, select bank0
  2968  02C3  1303               	bcf	3,6	;RP1=0, select bank0
  2969  02C4  00D8               	movwf	floattostr_@tempo_float+3
  2970  02C5  0872               	movf	?___fldiv+2,w
  2971  02C6  00D7               	movwf	floattostr_@tempo_float+2
  2972  02C7  0871               	movf	?___fldiv+1,w
  2973  02C8  00D6               	movwf	floattostr_@tempo_float+1
  2974  02C9  0870               	movf	?___fldiv,w
  2975  02CA  00D5               	movwf	floattostr_@tempo_float
  2976  02CB                     l2718:
  2977  02CB  3001               	movlw	1
  2978  02CC  07DB               	addwf	floattostr_@cont_for,f
  2979  02CD  1803               	skipnc
  2980  02CE  0ADC               	incf	floattostr_@cont_for+1,f
  2981  02CF  3000               	movlw	0
  2982  02D0  07DC               	addwf	floattostr_@cont_for+1,f
  2983  02D1                     l2720:
  2984  02D1  085C               	movf	floattostr_@cont_for+1,w
  2985  02D2  3A80               	xorlw	128
  2986  02D3  00D2               	movwf	??_floattostr_
  2987  02D4  085A               	movf	floattostr_@largo_n+1,w
  2988  02D5  3A80               	xorlw	128
  2989  02D6  0252               	subwf	??_floattostr_,w
  2990  02D7  1D03               	skipz
  2991  02D8  2ADB               	goto	u3835
  2992  02D9  0859               	movf	floattostr_@largo_n,w
  2993  02DA  025B               	subwf	floattostr_@cont_for,w
  2994  02DB                     u3835:
  2995  02DB  1C03               	skipc
  2996  02DC  2ADE               	goto	u3831
  2997  02DD  2ADF               	goto	u3830
  2998  02DE                     u3831:
  2999  02DE  2AAA               	goto	l2716
  3000  02DF                     u3830:
  3001  02DF                     l2722:
  3002                           
  3003                           ;Slave2.c: 102: numero_ += tempo_float/2.0;
  3004  02DF  1283               	bcf	3,5	;RP0=0, select bank0
  3005  02E0  1303               	bcf	3,6	;RP1=0, select bank0
  3006  02E1  0858               	movf	floattostr_@tempo_float+3,w
  3007  02E2  00F7               	movwf	___fldiv@b+3
  3008  02E3  0857               	movf	floattostr_@tempo_float+2,w
  3009  02E4  00F6               	movwf	___fldiv@b+2
  3010  02E5  0856               	movf	floattostr_@tempo_float+1,w
  3011  02E6  00F5               	movwf	___fldiv@b+1
  3012  02E7  0855               	movf	floattostr_@tempo_float,w
  3013  02E8  00F4               	movwf	___fldiv@b
  3014  02E9  3040               	movlw	64
  3015  02EA  00F3               	movwf	___fldiv@a+3
  3016  02EB  3000               	movlw	0
  3017  02EC  00F2               	movwf	___fldiv@a+2
  3018  02ED  3000               	movlw	0
  3019  02EE  00F1               	movwf	___fldiv@a+1
  3020  02EF  3000               	movlw	0
  3021  02F0  00F0               	movwf	___fldiv@a
  3022  02F1  120A  158A  2196  120A  118A  	fcall	___fldiv
  3023  02F6  0873               	movf	?___fldiv+3,w
  3024  02F7  1283               	bcf	3,5	;RP0=0, select bank0
  3025  02F8  1303               	bcf	3,6	;RP1=0, select bank0
  3026  02F9  00B0               	movwf	___fladd@b+3
  3027  02FA  0872               	movf	?___fldiv+2,w
  3028  02FB  00AF               	movwf	___fladd@b+2
  3029  02FC  0871               	movf	?___fldiv+1,w
  3030  02FD  00AE               	movwf	___fladd@b+1
  3031  02FE  0870               	movf	?___fldiv,w
  3032  02FF  00AD               	movwf	___fladd@b
  3033  0300  084E               	movf	floattostr_@numero_+3,w
  3034  0301  00B4               	movwf	___fladd@a+3
  3035  0302  084D               	movf	floattostr_@numero_+2,w
  3036  0303  00B3               	movwf	___fladd@a+2
  3037  0304  084C               	movf	floattostr_@numero_+1,w
  3038  0305  00B2               	movwf	___fladd@a+1
  3039  0306  084B               	movf	floattostr_@numero_,w
  3040  0307  00B1               	movwf	___fladd@a
  3041  0308  120A  158A  2578  120A  118A  	fcall	___fladd
  3042  030D  1283               	bcf	3,5	;RP0=0, select bank0
  3043  030E  1303               	bcf	3,6	;RP1=0, select bank0
  3044  030F  0830               	movf	?___fladd+3,w
  3045  0310  00CE               	movwf	floattostr_@numero_+3
  3046  0311  082F               	movf	?___fladd+2,w
  3047  0312  00CD               	movwf	floattostr_@numero_+2
  3048  0313  082E               	movf	?___fladd+1,w
  3049  0314  00CC               	movwf	floattostr_@numero_+1
  3050  0315  082D               	movf	?___fladd,w
  3051  0316  00CB               	movwf	floattostr_@numero_
  3052  0317                     l2724:
  3053                           
  3054                           ;Slave2.c: 103: if (numero_ >= 10.0) {numero_ = 1.0; largo_entera++;}
  3055  0317  084E               	movf	floattostr_@numero_+3,w
  3056  0318  00F3               	movwf	___flge@ff1+3
  3057  0319  084D               	movf	floattostr_@numero_+2,w
  3058  031A  00F2               	movwf	___flge@ff1+2
  3059  031B  084C               	movf	floattostr_@numero_+1,w
  3060  031C  00F1               	movwf	___flge@ff1+1
  3061  031D  084B               	movf	floattostr_@numero_,w
  3062  031E  00F0               	movwf	___flge@ff1
  3063  031F  3041               	movlw	65
  3064  0320  00F7               	movwf	___flge@ff2+3
  3065  0321  3020               	movlw	32
  3066  0322  00F6               	movwf	___flge@ff2+2
  3067  0323  3000               	movlw	0
  3068  0324  00F5               	movwf	___flge@ff2+1
  3069  0325  3000               	movlw	0
  3070  0326  00F4               	movwf	___flge@ff2
  3071  0327  120A  158A  20F4  120A  118A  	fcall	___flge
  3072  032C  1C03               	btfss	3,0
  3073  032D  2B2F               	goto	u3841
  3074  032E  2B30               	goto	u3840
  3075  032F                     u3841:
  3076  032F  2B40               	goto	l2728
  3077  0330                     u3840:
  3078  0330                     l2726:
  3079  0330  303F               	movlw	63
  3080  0331  1283               	bcf	3,5	;RP0=0, select bank0
  3081  0332  1303               	bcf	3,6	;RP1=0, select bank0
  3082  0333  00CE               	movwf	floattostr_@numero_+3
  3083  0334  3080               	movlw	128
  3084  0335  00CD               	movwf	floattostr_@numero_+2
  3085  0336  3000               	movlw	0
  3086  0337  00CC               	movwf	floattostr_@numero_+1
  3087  0338  3000               	movlw	0
  3088  0339  00CB               	movwf	floattostr_@numero_
  3089  033A  3001               	movlw	1
  3090  033B  07DD               	addwf	floattostr_@largo_entera,f
  3091  033C  1803               	skipnc
  3092  033D  0ADE               	incf	floattostr_@largo_entera+1,f
  3093  033E  3000               	movlw	0
  3094  033F  07DE               	addwf	floattostr_@largo_entera+1,f
  3095  0340                     l2728:
  3096                           
  3097                           ;Slave2.c: 105: if (largo_entera<0)
  3098  0340  1283               	bcf	3,5	;RP0=0, select bank0
  3099  0341  1303               	bcf	3,6	;RP1=0, select bank0
  3100  0342  1FDE               	btfss	floattostr_@largo_entera+1,7
  3101  0343  2B45               	goto	u3851
  3102  0344  2B46               	goto	u3850
  3103  0345                     u3851:
  3104  0345  2B9A               	goto	l2750
  3105  0346                     u3850:
  3106  0346                     l2730:
  3107                           
  3108                           ;Slave2.c: 106:   {;Slave2.c: 107:    *cadena_++ = '0'; *cadena_++ = '.';
  3109  0346  3030               	movlw	48
  3110  0347  00D2               	movwf	??_floattostr_
  3111  0348  084F               	movf	floattostr_@cadena_,w
  3112  0349  0084               	movwf	4
  3113  034A  1783               	bsf	3,7
  3114  034B  1C50               	btfss	floattostr_@cadena_+1,0
  3115  034C  1383               	bcf	3,7
  3116  034D  0852               	movf	??_floattostr_,w
  3117  034E  0080               	movwf	0
  3118  034F                     l2732:
  3119  034F  3001               	movlw	1
  3120  0350  07CF               	addwf	floattostr_@cadena_,f
  3121  0351  1803               	skipnc
  3122  0352  0AD0               	incf	floattostr_@cadena_+1,f
  3123  0353  3000               	movlw	0
  3124  0354  07D0               	addwf	floattostr_@cadena_+1,f
  3125  0355                     l2734:
  3126  0355  302E               	movlw	46
  3127  0356  00D2               	movwf	??_floattostr_
  3128  0357  084F               	movf	floattostr_@cadena_,w
  3129  0358  0084               	movwf	4
  3130  0359  1783               	bsf	3,7
  3131  035A  1C50               	btfss	floattostr_@cadena_+1,0
  3132  035B  1383               	bcf	3,7
  3133  035C  0852               	movf	??_floattostr_,w
  3134  035D  0080               	movwf	0
  3135  035E  3001               	movlw	1
  3136  035F  07CF               	addwf	floattostr_@cadena_,f
  3137  0360  1803               	skipnc
  3138  0361  0AD0               	incf	floattostr_@cadena_+1,f
  3139  0362  3000               	movlw	0
  3140  0363  07D0               	addwf	floattostr_@cadena_+1,f
  3141  0364                     l2736:
  3142                           
  3143                           ;Slave2.c: 108:    if (largo_n < 0) largo_entera = largo_entera-largo_n;
  3144  0364  1FDA               	btfss	floattostr_@largo_n+1,7
  3145  0365  2B67               	goto	u3861
  3146  0366  2B68               	goto	u3860
  3147  0367                     u3861:
  3148  0367  2B70               	goto	l2740
  3149  0368                     u3860:
  3150  0368                     l2738:
  3151  0368  0859               	movf	floattostr_@largo_n,w
  3152  0369  025D               	subwf	floattostr_@largo_entera,w
  3153  036A  00DD               	movwf	floattostr_@largo_entera
  3154  036B  085A               	movf	floattostr_@largo_n+1,w
  3155  036C  1C03               	skipc
  3156  036D  0A5A               	incf	floattostr_@largo_n+1,w
  3157  036E  025E               	subwf	floattostr_@largo_entera+1,w
  3158  036F  00DE               	movwf	floattostr_@largo_entera+1
  3159  0370                     l2740:
  3160                           
  3161                           ;Slave2.c: 109:    for (cont_for = -1; cont_for > largo_entera; cont_for--) *cadena_++ =
      +                           '0';
  3162  0370  30FF               	movlw	255
  3163  0371  00DB               	movwf	floattostr_@cont_for
  3164  0372  30FF               	movlw	255
  3165  0373  00DC               	movwf	floattostr_@cont_for+1
  3166  0374  2B8C               	goto	l2748
  3167  0375                     l2742:
  3168  0375  3030               	movlw	48
  3169  0376  1283               	bcf	3,5	;RP0=0, select bank0
  3170  0377  1303               	bcf	3,6	;RP1=0, select bank0
  3171  0378  00D2               	movwf	??_floattostr_
  3172  0379  084F               	movf	floattostr_@cadena_,w
  3173  037A  0084               	movwf	4
  3174  037B  1783               	bsf	3,7
  3175  037C  1C50               	btfss	floattostr_@cadena_+1,0
  3176  037D  1383               	bcf	3,7
  3177  037E  0852               	movf	??_floattostr_,w
  3178  037F  0080               	movwf	0
  3179  0380                     l2744:
  3180  0380  3001               	movlw	1
  3181  0381  07CF               	addwf	floattostr_@cadena_,f
  3182  0382  1803               	skipnc
  3183  0383  0AD0               	incf	floattostr_@cadena_+1,f
  3184  0384  3000               	movlw	0
  3185  0385  07D0               	addwf	floattostr_@cadena_+1,f
  3186  0386                     l2746:
  3187  0386  30FF               	movlw	255
  3188  0387  07DB               	addwf	floattostr_@cont_for,f
  3189  0388  1803               	skipnc
  3190  0389  0ADC               	incf	floattostr_@cont_for+1,f
  3191  038A  30FF               	movlw	255
  3192  038B  07DC               	addwf	floattostr_@cont_for+1,f
  3193  038C                     l2748:
  3194  038C  085E               	movf	floattostr_@largo_entera+1,w
  3195  038D  3A80               	xorlw	128
  3196  038E  00D2               	movwf	??_floattostr_
  3197  038F  085C               	movf	floattostr_@cont_for+1,w
  3198  0390  3A80               	xorlw	128
  3199  0391  0252               	subwf	??_floattostr_,w
  3200  0392  1D03               	skipz
  3201  0393  2B96               	goto	u3875
  3202  0394  085B               	movf	floattostr_@cont_for,w
  3203  0395  025D               	subwf	floattostr_@largo_entera,w
  3204  0396                     u3875:
  3205  0396  1C03               	skipc
  3206  0397  2B99               	goto	u3871
  3207  0398  2B9A               	goto	u3870
  3208  0399                     u3871:
  3209  0399  2B75               	goto	l2742
  3210  039A                     u3870:
  3211  039A                     l2750:
  3212                           
  3213                           ;Slave2.c: 111: for (cont_for=0; cont_for < largo_n; cont_for++)
  3214  039A  1283               	bcf	3,5	;RP0=0, select bank0
  3215  039B  1303               	bcf	3,6	;RP1=0, select bank0
  3216  039C  01DB               	clrf	floattostr_@cont_for
  3217  039D  01DC               	clrf	floattostr_@cont_for+1
  3218  039E  2C3A               	goto	l2770
  3219  039F                     l2752:
  3220                           
  3221                           ;Slave2.c: 112:   {;Slave2.c: 113:   tempo_int = numero_;
  3222  039F  1283               	bcf	3,5	;RP0=0, select bank0
  3223  03A0  1303               	bcf	3,6	;RP1=0, select bank0
  3224  03A1  084E               	movf	floattostr_@numero_+3,w
  3225  03A2  00F3               	movwf	___fltol@f1+3
  3226  03A3  084D               	movf	floattostr_@numero_+2,w
  3227  03A4  00F2               	movwf	___fltol@f1+2
  3228  03A5  084C               	movf	floattostr_@numero_+1,w
  3229  03A6  00F1               	movwf	___fltol@f1+1
  3230  03A7  084B               	movf	floattostr_@numero_,w
  3231  03A8  00F0               	movwf	___fltol@f1
  3232  03A9  160A  118A  2786  120A  118A  	fcall	___fltol
  3233  03AE  0871               	movf	?___fltol+1,w
  3234  03AF  1283               	bcf	3,5	;RP0=0, select bank0
  3235  03B0  1303               	bcf	3,6	;RP1=0, select bank0
  3236  03B1  00D4               	movwf	floattostr_@tempo_int+1
  3237  03B2  0870               	movf	?___fltol,w
  3238  03B3  00D3               	movwf	floattostr_@tempo_int
  3239  03B4                     l2754:
  3240                           
  3241                           ;Slave2.c: 114:   *cadena_++ = tempo_int + 48;
  3242  03B4  0853               	movf	floattostr_@tempo_int,w
  3243  03B5  3E30               	addlw	48
  3244  03B6  00D2               	movwf	??_floattostr_
  3245  03B7  084F               	movf	floattostr_@cadena_,w
  3246  03B8  0084               	movwf	4
  3247  03B9  1783               	bsf	3,7
  3248  03BA  1C50               	btfss	floattostr_@cadena_+1,0
  3249  03BB  1383               	bcf	3,7
  3250  03BC  0852               	movf	??_floattostr_,w
  3251  03BD  0080               	movwf	0
  3252  03BE                     l2756:
  3253  03BE  3001               	movlw	1
  3254  03BF  07CF               	addwf	floattostr_@cadena_,f
  3255  03C0  1803               	skipnc
  3256  03C1  0AD0               	incf	floattostr_@cadena_+1,f
  3257  03C2  3000               	movlw	0
  3258  03C3  07D0               	addwf	floattostr_@cadena_+1,f
  3259  03C4                     l2758:
  3260                           
  3261                           ;Slave2.c: 115:   if (cont_for == largo_entera ) *cadena_++ = '.';
  3262  03C4  085E               	movf	floattostr_@largo_entera+1,w
  3263  03C5  065C               	xorwf	floattostr_@cont_for+1,w
  3264  03C6  1D03               	skipz
  3265  03C7  2BCA               	goto	u3885
  3266  03C8  085D               	movf	floattostr_@largo_entera,w
  3267  03C9  065B               	xorwf	floattostr_@cont_for,w
  3268  03CA                     u3885:
  3269  03CA  1D03               	skipz
  3270  03CB  2BCD               	goto	u3881
  3271  03CC  2BCE               	goto	u3880
  3272  03CD                     u3881:
  3273  03CD  2BDD               	goto	l2764
  3274  03CE                     u3880:
  3275  03CE                     l2760:
  3276  03CE  302E               	movlw	46
  3277  03CF  00D2               	movwf	??_floattostr_
  3278  03D0  084F               	movf	floattostr_@cadena_,w
  3279  03D1  0084               	movwf	4
  3280  03D2  1783               	bsf	3,7
  3281  03D3  1C50               	btfss	floattostr_@cadena_+1,0
  3282  03D4  1383               	bcf	3,7
  3283  03D5  0852               	movf	??_floattostr_,w
  3284  03D6  0080               	movwf	0
  3285  03D7                     l2762:
  3286  03D7  3001               	movlw	1
  3287  03D8  07CF               	addwf	floattostr_@cadena_,f
  3288  03D9  1803               	skipnc
  3289  03DA  0AD0               	incf	floattostr_@cadena_+1,f
  3290  03DB  3000               	movlw	0
  3291  03DC  07D0               	addwf	floattostr_@cadena_+1,f
  3292  03DD                     l2764:
  3293                           
  3294                           ;Slave2.c: 116:   numero_ -= (tempo_float=tempo_int);
  3295  03DD  0853               	movf	floattostr_@tempo_int,w
  3296  03DE  00B5               	movwf	___xxtofl@val
  3297  03DF  0854               	movf	floattostr_@tempo_int+1,w
  3298  03E0  00B6               	movwf	___xxtofl@val+1
  3299  03E1  3000               	movlw	0
  3300  03E2  1BB6               	btfsc	___xxtofl@val+1,7
  3301  03E3  30FF               	movlw	255
  3302  03E4  00B7               	movwf	___xxtofl@val+2
  3303  03E5  00B8               	movwf	___xxtofl@val+3
  3304  03E6  3001               	movlw	1
  3305  03E7  120A  118A  2006  120A  118A  	fcall	___xxtofl
  3306  03EC  1283               	bcf	3,5	;RP0=0, select bank0
  3307  03ED  1303               	bcf	3,6	;RP1=0, select bank0
  3308  03EE  0838               	movf	?___xxtofl+3,w
  3309  03EF  00D8               	movwf	floattostr_@tempo_float+3
  3310  03F0  0837               	movf	?___xxtofl+2,w
  3311  03F1  00D7               	movwf	floattostr_@tempo_float+2
  3312  03F2  0836               	movf	?___xxtofl+1,w
  3313  03F3  00D6               	movwf	floattostr_@tempo_float+1
  3314  03F4  0835               	movf	?___xxtofl,w
  3315  03F5  00D5               	movwf	floattostr_@tempo_float
  3316  03F6  0858               	movf	floattostr_@tempo_float+3,w
  3317  03F7  00C6               	movwf	___flsub@a+3
  3318  03F8  0857               	movf	floattostr_@tempo_float+2,w
  3319  03F9  00C5               	movwf	___flsub@a+2
  3320  03FA  0856               	movf	floattostr_@tempo_float+1,w
  3321  03FB  00C4               	movwf	___flsub@a+1
  3322  03FC  0855               	movf	floattostr_@tempo_float,w
  3323  03FD  00C3               	movwf	___flsub@a
  3324  03FE  084E               	movf	floattostr_@numero_+3,w
  3325  03FF  00CA               	movwf	___flsub@b+3
  3326  0400  084D               	movf	floattostr_@numero_+2,w
  3327  0401  00C9               	movwf	___flsub@b+2
  3328  0402  084C               	movf	floattostr_@numero_+1,w
  3329  0403  00C8               	movwf	___flsub@b+1
  3330  0404  084B               	movf	floattostr_@numero_,w
  3331  0405  00C7               	movwf	___flsub@b
  3332  0406  160A  118A  2681  120A  118A  	fcall	___flsub
  3333  040B  1283               	bcf	3,5	;RP0=0, select bank0
  3334  040C  1303               	bcf	3,6	;RP1=0, select bank0
  3335  040D  0846               	movf	?___flsub+3,w
  3336  040E  00CE               	movwf	floattostr_@numero_+3
  3337  040F  0845               	movf	?___flsub+2,w
  3338  0410  00CD               	movwf	floattostr_@numero_+2
  3339  0411  0844               	movf	?___flsub+1,w
  3340  0412  00CC               	movwf	floattostr_@numero_+1
  3341  0413  0843               	movf	?___flsub,w
  3342  0414  00CB               	movwf	floattostr_@numero_
  3343  0415                     l2766:
  3344                           
  3345                           ;Slave2.c: 117:   numero_ = numero_*10.0;
  3346  0415  3041               	movlw	65
  3347  0416  00A3               	movwf	___flmul@b+3
  3348  0417  3020               	movlw	32
  3349  0418  00A2               	movwf	___flmul@b+2
  3350  0419  3000               	movlw	0
  3351  041A  00A1               	movwf	___flmul@b+1
  3352  041B  3000               	movlw	0
  3353  041C  00A0               	movwf	___flmul@b
  3354  041D  084E               	movf	floattostr_@numero_+3,w
  3355  041E  00A7               	movwf	___flmul@a+3
  3356  041F  084D               	movf	floattostr_@numero_+2,w
  3357  0420  00A6               	movwf	___flmul@a+2
  3358  0421  084C               	movf	floattostr_@numero_+1,w
  3359  0422  00A5               	movwf	___flmul@a+1
  3360  0423  084B               	movf	floattostr_@numero_,w
  3361  0424  00A4               	movwf	___flmul@a
  3362  0425  120A  118A  2451  120A  118A  	fcall	___flmul
  3363  042A  1283               	bcf	3,5	;RP0=0, select bank0
  3364  042B  1303               	bcf	3,6	;RP1=0, select bank0
  3365  042C  0823               	movf	?___flmul+3,w
  3366  042D  00CE               	movwf	floattostr_@numero_+3
  3367  042E  0822               	movf	?___flmul+2,w
  3368  042F  00CD               	movwf	floattostr_@numero_+2
  3369  0430  0821               	movf	?___flmul+1,w
  3370  0431  00CC               	movwf	floattostr_@numero_+1
  3371  0432  0820               	movf	?___flmul,w
  3372  0433  00CB               	movwf	floattostr_@numero_
  3373  0434                     l2768:
  3374                           
  3375                           ;Slave2.c: 118:   }
  3376  0434  3001               	movlw	1
  3377  0435  07DB               	addwf	floattostr_@cont_for,f
  3378  0436  1803               	skipnc
  3379  0437  0ADC               	incf	floattostr_@cont_for+1,f
  3380  0438  3000               	movlw	0
  3381  0439  07DC               	addwf	floattostr_@cont_for+1,f
  3382  043A                     l2770:
  3383  043A  085C               	movf	floattostr_@cont_for+1,w
  3384  043B  3A80               	xorlw	128
  3385  043C  00D2               	movwf	??_floattostr_
  3386  043D  085A               	movf	floattostr_@largo_n+1,w
  3387  043E  3A80               	xorlw	128
  3388  043F  0252               	subwf	??_floattostr_,w
  3389  0440  1D03               	skipz
  3390  0441  2C44               	goto	u3895
  3391  0442  0859               	movf	floattostr_@largo_n,w
  3392  0443  025B               	subwf	floattostr_@cont_for,w
  3393  0444                     u3895:
  3394  0444  1C03               	skipc
  3395  0445  2C47               	goto	u3891
  3396  0446  2C48               	goto	u3890
  3397  0447                     u3891:
  3398  0447  2B9F               	goto	l2752
  3399  0448                     u3890:
  3400  0448                     l2772:
  3401                           
  3402                           ;Slave2.c: 119: *cadena_ =0;
  3403  0448  1283               	bcf	3,5	;RP0=0, select bank0
  3404  0449  1303               	bcf	3,6	;RP1=0, select bank0
  3405  044A  084F               	movf	floattostr_@cadena_,w
  3406  044B  0084               	movwf	4
  3407  044C  1783               	bsf	3,7
  3408  044D  1C50               	btfss	floattostr_@cadena_+1,0
  3409  044E  1383               	bcf	3,7
  3410  044F  0180               	clrf	0
  3411  0450                     l84:
  3412  0450  0008               	return
  3413  0451                     __end_of_floattostr_:
  3414                           
  3415                           	psect	text9
  3416  0006                     __ptext9:	
  3417 ;; *************** function ___xxtofl *****************
  3418 ;; Defined at:
  3419 ;;		line 10 in file "C:\Program Files\Microchip\xc8\v2.32\pic\sources\c90\common\xxtofl.c"
  3420 ;; Parameters:    Size  Location     Type
  3421 ;;  sign            1    wreg     unsigned char 
  3422 ;;  val             4   21[BANK0 ] long 
  3423 ;; Auto vars:     Size  Location     Type
  3424 ;;  sign            1   29[BANK0 ] unsigned char 
  3425 ;;  arg             4   31[BANK0 ] unsigned long 
  3426 ;;  exp             1   30[BANK0 ] unsigned char 
  3427 ;; Return value:  Size  Location     Type
  3428 ;;                  4   21[BANK0 ] unsigned char 
  3429 ;; Registers used:
  3430 ;;		wreg, status,2, status,0
  3431 ;; Tracked objects:
  3432 ;;		On entry : 0/0
  3433 ;;		On exit  : 0/0
  3434 ;;		Unchanged: 0/0
  3435 ;; Data sizes:     COMMON   BANK0   BANK1   BANK3   BANK2
  3436 ;;      Params:         0       4       0       0       0
  3437 ;;      Locals:         0       6       0       0       0
  3438 ;;      Temps:          0       4       0       0       0
  3439 ;;      Totals:         0      14       0       0       0
  3440 ;;Total ram usage:       14 bytes
  3441 ;; Hardware stack levels used: 1
  3442 ;; This function calls:
  3443 ;;		Nothing
  3444 ;; This function is called by:
  3445 ;;		_floattostr_
  3446 ;;		_main
  3447 ;; This function uses a non-reentrant model
  3448 ;;
  3449                           
  3450                           
  3451                           ;psect for function ___xxtofl
  3452  0006                     ___xxtofl:
  3453                           
  3454                           ;incstack = 0
  3455                           ; Regs used in ___xxtofl: [wreg+status,2+status,0]
  3456                           ;___xxtofl@sign stored from wreg
  3457  0006  1283               	bcf	3,5	;RP0=0, select bank0
  3458  0007  1303               	bcf	3,6	;RP1=0, select bank0
  3459  0008  00BD               	movwf	___xxtofl@sign
  3460  0009                     l2438:
  3461  0009  083D               	movf	___xxtofl@sign,w
  3462  000A  1903               	btfsc	3,2
  3463  000B  280D               	goto	u3441
  3464  000C  280E               	goto	u3440
  3465  000D                     u3441:
  3466  000D  2822               	goto	l2444
  3467  000E                     u3440:
  3468  000E                     l2440:
  3469  000E  1FB8               	btfss	___xxtofl@val+3,7
  3470  000F  2811               	goto	u3451
  3471  0010  2812               	goto	u3450
  3472  0011                     u3451:
  3473  0011  2822               	goto	l2444
  3474  0012                     u3450:
  3475  0012                     l2442:
  3476  0012  0935               	comf	___xxtofl@val,w
  3477  0013  00BF               	movwf	___xxtofl@arg
  3478  0014  0936               	comf	___xxtofl@val+1,w
  3479  0015  00C0               	movwf	___xxtofl@arg+1
  3480  0016  0937               	comf	___xxtofl@val+2,w
  3481  0017  00C1               	movwf	___xxtofl@arg+2
  3482  0018  0938               	comf	___xxtofl@val+3,w
  3483  0019  00C2               	movwf	___xxtofl@arg+3
  3484  001A  0ABF               	incf	___xxtofl@arg,f
  3485  001B  1903               	skipnz
  3486  001C  0AC0               	incf	___xxtofl@arg+1,f
  3487  001D  1903               	skipnz
  3488  001E  0AC1               	incf	___xxtofl@arg+2,f
  3489  001F  1903               	skipnz
  3490  0020  0AC2               	incf	___xxtofl@arg+3,f
  3491  0021  282A               	goto	l695
  3492  0022                     l2444:
  3493  0022  0838               	movf	___xxtofl@val+3,w
  3494  0023  00C2               	movwf	___xxtofl@arg+3
  3495  0024  0837               	movf	___xxtofl@val+2,w
  3496  0025  00C1               	movwf	___xxtofl@arg+2
  3497  0026  0836               	movf	___xxtofl@val+1,w
  3498  0027  00C0               	movwf	___xxtofl@arg+1
  3499  0028  0835               	movf	___xxtofl@val,w
  3500  0029  00BF               	movwf	___xxtofl@arg
  3501  002A                     l695:
  3502  002A  0838               	movf	___xxtofl@val+3,w
  3503  002B  0437               	iorwf	___xxtofl@val+2,w
  3504  002C  0436               	iorwf	___xxtofl@val+1,w
  3505  002D  0435               	iorwf	___xxtofl@val,w
  3506  002E  1D03               	skipz
  3507  002F  2831               	goto	u3461
  3508  0030  2832               	goto	u3460
  3509  0031                     u3461:
  3510  0031  283B               	goto	l2450
  3511  0032                     u3460:
  3512  0032                     l2446:
  3513  0032  3000               	movlw	0
  3514  0033  00B8               	movwf	?___xxtofl+3
  3515  0034  3000               	movlw	0
  3516  0035  00B7               	movwf	?___xxtofl+2
  3517  0036  3000               	movlw	0
  3518  0037  00B6               	movwf	?___xxtofl+1
  3519  0038  3000               	movlw	0
  3520  0039  00B5               	movwf	?___xxtofl
  3521  003A  28C1               	goto	l697
  3522  003B                     l2450:
  3523  003B  3096               	movlw	150
  3524  003C  00B9               	movwf	??___xxtofl
  3525  003D  0839               	movf	??___xxtofl,w
  3526  003E  00BE               	movwf	___xxtofl@exp
  3527  003F  284D               	goto	l2454
  3528  0040                     l2452:
  3529  0040  3001               	movlw	1
  3530  0041  00B9               	movwf	??___xxtofl
  3531  0042  0839               	movf	??___xxtofl,w
  3532  0043  07BE               	addwf	___xxtofl@exp,f
  3533  0044  3001               	movlw	1
  3534  0045                     u3475:
  3535  0045  1003               	clrc
  3536  0046  0CC2               	rrf	___xxtofl@arg+3,f
  3537  0047  0CC1               	rrf	___xxtofl@arg+2,f
  3538  0048  0CC0               	rrf	___xxtofl@arg+1,f
  3539  0049  0CBF               	rrf	___xxtofl@arg,f
  3540  004A  3EFF               	addlw	-1
  3541  004B  1D03               	skipz
  3542  004C  2845               	goto	u3475
  3543  004D                     l2454:
  3544  004D  30FE               	movlw	254
  3545  004E  0542               	andwf	___xxtofl@arg+3,w
  3546  004F  1D03               	btfss	3,2
  3547  0050  2852               	goto	u3481
  3548  0051  2853               	goto	u3480
  3549  0052                     u3481:
  3550  0052  2840               	goto	l2452
  3551  0053                     u3480:
  3552  0053  286F               	goto	l701
  3553  0054                     l2456:
  3554  0054  3001               	movlw	1
  3555  0055  00B9               	movwf	??___xxtofl
  3556  0056  0839               	movf	??___xxtofl,w
  3557  0057  07BE               	addwf	___xxtofl@exp,f
  3558  0058                     l2458:
  3559  0058  3001               	movlw	1
  3560  0059  07BF               	addwf	___xxtofl@arg,f
  3561  005A  3000               	movlw	0
  3562  005B  1803               	skipnc
  3563  005C  3001               	movlw	1
  3564  005D  07C0               	addwf	___xxtofl@arg+1,f
  3565  005E  3000               	movlw	0
  3566  005F  1803               	skipnc
  3567  0060  3001               	movlw	1
  3568  0061  07C1               	addwf	___xxtofl@arg+2,f
  3569  0062  3000               	movlw	0
  3570  0063  1803               	skipnc
  3571  0064  3001               	movlw	1
  3572  0065  07C2               	addwf	___xxtofl@arg+3,f
  3573  0066                     l2460:
  3574  0066  3001               	movlw	1
  3575  0067                     u3495:
  3576  0067  1003               	clrc
  3577  0068  0CC2               	rrf	___xxtofl@arg+3,f
  3578  0069  0CC1               	rrf	___xxtofl@arg+2,f
  3579  006A  0CC0               	rrf	___xxtofl@arg+1,f
  3580  006B  0CBF               	rrf	___xxtofl@arg,f
  3581  006C  3EFF               	addlw	-1
  3582  006D  1D03               	skipz
  3583  006E  2867               	goto	u3495
  3584  006F                     l701:
  3585  006F  30FF               	movlw	255
  3586  0070  0542               	andwf	___xxtofl@arg+3,w
  3587  0071  1D03               	btfss	3,2
  3588  0072  2874               	goto	u3501
  3589  0073  2875               	goto	u3500
  3590  0074                     u3501:
  3591  0074  2854               	goto	l2456
  3592  0075                     u3500:
  3593  0075  2881               	goto	l2464
  3594  0076                     l2462:
  3595  0076  3001               	movlw	1
  3596  0077  02BE               	subwf	___xxtofl@exp,f
  3597  0078  3001               	movlw	1
  3598  0079  00B9               	movwf	??___xxtofl
  3599  007A                     u3515:
  3600  007A  1003               	clrc
  3601  007B  0DBF               	rlf	___xxtofl@arg,f
  3602  007C  0DC0               	rlf	___xxtofl@arg+1,f
  3603  007D  0DC1               	rlf	___xxtofl@arg+2,f
  3604  007E  0DC2               	rlf	___xxtofl@arg+3,f
  3605  007F  0BB9               	decfsz	??___xxtofl,f
  3606  0080  287A               	goto	u3515
  3607  0081                     l2464:
  3608  0081  1BC1               	btfsc	___xxtofl@arg+2,7
  3609  0082  2884               	goto	u3521
  3610  0083  2885               	goto	u3520
  3611  0084                     u3521:
  3612  0084  288B               	goto	l708
  3613  0085                     u3520:
  3614  0085                     l2466:
  3615  0085  3002               	movlw	2
  3616  0086  023E               	subwf	___xxtofl@exp,w
  3617  0087  1803               	skipnc
  3618  0088  288A               	goto	u3531
  3619  0089  288B               	goto	u3530
  3620  008A                     u3531:
  3621  008A  2876               	goto	l2462
  3622  008B                     u3530:
  3623  008B                     l708:
  3624  008B  183E               	btfsc	___xxtofl@exp,0
  3625  008C  288E               	goto	u3541
  3626  008D  288F               	goto	u3540
  3627  008E                     u3541:
  3628  008E  2897               	goto	l709
  3629  008F                     u3540:
  3630  008F                     l2468:
  3631  008F  30FF               	movlw	255
  3632  0090  05BF               	andwf	___xxtofl@arg,f
  3633  0091  30FF               	movlw	255
  3634  0092  05C0               	andwf	___xxtofl@arg+1,f
  3635  0093  307F               	movlw	127
  3636  0094  05C1               	andwf	___xxtofl@arg+2,f
  3637  0095  30FF               	movlw	255
  3638  0096  05C2               	andwf	___xxtofl@arg+3,f
  3639  0097                     l709:
  3640  0097  1003               	clrc
  3641  0098  0CBE               	rrf	___xxtofl@exp,f
  3642  0099                     l2470:
  3643  0099  083E               	movf	___xxtofl@exp,w
  3644  009A  00B9               	movwf	??___xxtofl
  3645  009B  01BA               	clrf	??___xxtofl+1
  3646  009C  01BB               	clrf	??___xxtofl+2
  3647  009D  01BC               	clrf	??___xxtofl+3
  3648  009E  3018               	movlw	24
  3649  009F                     u3555:
  3650  009F  1003               	clrc
  3651  00A0  0DB9               	rlf	??___xxtofl,f
  3652  00A1  0DBA               	rlf	??___xxtofl+1,f
  3653  00A2  0DBB               	rlf	??___xxtofl+2,f
  3654  00A3  0DBC               	rlf	??___xxtofl+3,f
  3655  00A4                     u3550:
  3656  00A4  3EFF               	addlw	-1
  3657  00A5  1D03               	skipz
  3658  00A6  289F               	goto	u3555
  3659  00A7  0839               	movf	??___xxtofl,w
  3660  00A8  04BF               	iorwf	___xxtofl@arg,f
  3661  00A9  083A               	movf	??___xxtofl+1,w
  3662  00AA  04C0               	iorwf	___xxtofl@arg+1,f
  3663  00AB  083B               	movf	??___xxtofl+2,w
  3664  00AC  04C1               	iorwf	___xxtofl@arg+2,f
  3665  00AD  083C               	movf	??___xxtofl+3,w
  3666  00AE  04C2               	iorwf	___xxtofl@arg+3,f
  3667  00AF                     l2472:
  3668  00AF  083D               	movf	___xxtofl@sign,w
  3669  00B0  1903               	btfsc	3,2
  3670  00B1  28B3               	goto	u3561
  3671  00B2  28B4               	goto	u3560
  3672  00B3                     u3561:
  3673  00B3  28B9               	goto	l2478
  3674  00B4                     u3560:
  3675  00B4                     l2474:
  3676  00B4  1FB8               	btfss	___xxtofl@val+3,7
  3677  00B5  28B7               	goto	u3571
  3678  00B6  28B8               	goto	u3570
  3679  00B7                     u3571:
  3680  00B7  28B9               	goto	l2478
  3681  00B8                     u3570:
  3682  00B8                     l2476:
  3683  00B8  17C2               	bsf	___xxtofl@arg+3,7
  3684  00B9                     l2478:
  3685  00B9  0842               	movf	___xxtofl@arg+3,w
  3686  00BA  00B8               	movwf	?___xxtofl+3
  3687  00BB  0841               	movf	___xxtofl@arg+2,w
  3688  00BC  00B7               	movwf	?___xxtofl+2
  3689  00BD  0840               	movf	___xxtofl@arg+1,w
  3690  00BE  00B6               	movwf	?___xxtofl+1
  3691  00BF  083F               	movf	___xxtofl@arg,w
  3692  00C0  00B5               	movwf	?___xxtofl
  3693  00C1                     l697:
  3694  00C1  0008               	return
  3695  00C2                     __end_of___xxtofl:
  3696                           
  3697                           	psect	text10
  3698  1786                     __ptext10:	
  3699 ;; *************** function ___fltol *****************
  3700 ;; Defined at:
  3701 ;;		line 43 in file "C:\Program Files\Microchip\xc8\v2.32\pic\sources\c90\common\fltol.c"
  3702 ;; Parameters:    Size  Location     Type
  3703 ;;  f1              4    0[COMMON] unsigned char 
  3704 ;; Auto vars:     Size  Location     Type
  3705 ;;  exp1            1   10[COMMON] unsigned char 
  3706 ;;  sign1           1    9[COMMON] unsigned char 
  3707 ;; Return value:  Size  Location     Type
  3708 ;;                  4    0[COMMON] long 
  3709 ;; Registers used:
  3710 ;;		wreg, status,2, status,0
  3711 ;; Tracked objects:
  3712 ;;		On entry : 0/0
  3713 ;;		On exit  : 0/0
  3714 ;;		Unchanged: 0/0
  3715 ;; Data sizes:     COMMON   BANK0   BANK1   BANK3   BANK2
  3716 ;;      Params:         4       0       0       0       0
  3717 ;;      Locals:         2       0       0       0       0
  3718 ;;      Temps:          5       0       0       0       0
  3719 ;;      Totals:        11       0       0       0       0
  3720 ;;Total ram usage:       11 bytes
  3721 ;; Hardware stack levels used: 1
  3722 ;; This function calls:
  3723 ;;		Nothing
  3724 ;; This function is called by:
  3725 ;;		_floattostr_
  3726 ;; This function uses a non-reentrant model
  3727 ;;
  3728                           
  3729                           
  3730                           ;psect for function ___fltol
  3731  1786                     ___fltol:
  3732  1786                     l2114:	
  3733                           ;incstack = 0
  3734                           ; Regs used in ___fltol: [wreg+status,2+status,0]
  3735                           
  3736  1786  1003               	clrc
  3737  1787  0D72               	rlf	___fltol@f1+2,w
  3738  1788  0D73               	rlf	___fltol@f1+3,w
  3739  1789  00F4               	movwf	??___fltol
  3740  178A  0874               	movf	??___fltol,w
  3741  178B  00FA               	movwf	___fltol@exp1
  3742  178C  087A               	movf	___fltol@exp1,w
  3743  178D  1D03               	btfss	3,2
  3744  178E  2F90               	goto	u2671
  3745  178F  2F91               	goto	u2670
  3746  1790                     u2671:
  3747  1790  2F9A               	goto	l2120
  3748  1791                     u2670:
  3749  1791                     l2116:
  3750  1791  3000               	movlw	0
  3751  1792  00F3               	movwf	?___fltol+3
  3752  1793  3000               	movlw	0
  3753  1794  00F2               	movwf	?___fltol+2
  3754  1795  3000               	movlw	0
  3755  1796  00F1               	movwf	?___fltol+1
  3756  1797  3000               	movlw	0
  3757  1798  00F0               	movwf	?___fltol
  3758  1799  2FFF               	goto	l448
  3759  179A                     l2120:
  3760  179A  0870               	movf	___fltol@f1,w
  3761  179B  00F4               	movwf	??___fltol
  3762  179C  0871               	movf	___fltol@f1+1,w
  3763  179D  00F5               	movwf	??___fltol+1
  3764  179E  0872               	movf	___fltol@f1+2,w
  3765  179F  00F6               	movwf	??___fltol+2
  3766  17A0  0873               	movf	___fltol@f1+3,w
  3767  17A1  00F7               	movwf	??___fltol+3
  3768  17A2  301F               	movlw	31
  3769  17A3                     u2685:
  3770  17A3  1003               	clrc
  3771  17A4  0CF7               	rrf	??___fltol+3,f
  3772  17A5  0CF6               	rrf	??___fltol+2,f
  3773  17A6  0CF5               	rrf	??___fltol+1,f
  3774  17A7  0CF4               	rrf	??___fltol,f
  3775  17A8                     u2680:
  3776  17A8  3EFF               	addlw	-1
  3777  17A9  1D03               	skipz
  3778  17AA  2FA3               	goto	u2685
  3779  17AB  0874               	movf	??___fltol,w
  3780  17AC  00F8               	movwf	??___fltol+4
  3781  17AD  0878               	movf	??___fltol+4,w
  3782  17AE  00F9               	movwf	___fltol@sign1
  3783  17AF                     l2122:
  3784  17AF  17F2               	bsf	___fltol@f1+2,7
  3785  17B0                     l2124:
  3786  17B0  30FF               	movlw	255
  3787  17B1  05F0               	andwf	___fltol@f1,f
  3788  17B2  30FF               	movlw	255
  3789  17B3  05F1               	andwf	___fltol@f1+1,f
  3790  17B4  30FF               	movlw	255
  3791  17B5  05F2               	andwf	___fltol@f1+2,f
  3792  17B6  3000               	movlw	0
  3793  17B7  05F3               	andwf	___fltol@f1+3,f
  3794  17B8                     l2126:
  3795  17B8  3096               	movlw	150
  3796  17B9  02FA               	subwf	___fltol@exp1,f
  3797  17BA                     l2128:
  3798  17BA  1FFA               	btfss	___fltol@exp1,7
  3799  17BB  2FBD               	goto	u2691
  3800  17BC  2FBE               	goto	u2690
  3801  17BD                     u2691:
  3802  17BD  2FD8               	goto	l2138
  3803  17BE                     u2690:
  3804  17BE                     l2130:
  3805  17BE  087A               	movf	___fltol@exp1,w
  3806  17BF  3A80               	xorlw	128
  3807  17C0  3E97               	addlw	151
  3808  17C1  1803               	skipnc
  3809  17C2  2FC4               	goto	u2701
  3810  17C3  2FC5               	goto	u2700
  3811  17C4                     u2701:
  3812  17C4  2FC6               	goto	l2136
  3813  17C5                     u2700:
  3814  17C5  2F91               	goto	l2116
  3815  17C6                     l2136:
  3816  17C6  3001               	movlw	1
  3817  17C7                     u2715:
  3818  17C7  1003               	clrc
  3819  17C8  0CF3               	rrf	___fltol@f1+3,f
  3820  17C9  0CF2               	rrf	___fltol@f1+2,f
  3821  17CA  0CF1               	rrf	___fltol@f1+1,f
  3822  17CB  0CF0               	rrf	___fltol@f1,f
  3823  17CC  3EFF               	addlw	-1
  3824  17CD  1D03               	skipz
  3825  17CE  2FC7               	goto	u2715
  3826  17CF  3001               	movlw	1
  3827  17D0  00F4               	movwf	??___fltol
  3828  17D1  0874               	movf	??___fltol,w
  3829  17D2  07FA               	addwf	___fltol@exp1,f
  3830  17D3  1D03               	btfss	3,2
  3831  17D4  2FD6               	goto	u2721
  3832  17D5  2FD7               	goto	u2720
  3833  17D6                     u2721:
  3834  17D6  2FC6               	goto	l2136
  3835  17D7                     u2720:
  3836  17D7  2FEF               	goto	l2146
  3837  17D8                     l2138:
  3838  17D8  3020               	movlw	32
  3839  17D9  027A               	subwf	___fltol@exp1,w
  3840  17DA  1C03               	skipc
  3841  17DB  2FDD               	goto	u2731
  3842  17DC  2FDE               	goto	u2730
  3843  17DD                     u2731:
  3844  17DD  2FEA               	goto	l455
  3845  17DE                     u2730:
  3846  17DE  2F91               	goto	l2116
  3847  17DF                     l2144:
  3848  17DF  3001               	movlw	1
  3849  17E0  00F4               	movwf	??___fltol
  3850  17E1                     u2745:
  3851  17E1  1003               	clrc
  3852  17E2  0DF0               	rlf	___fltol@f1,f
  3853  17E3  0DF1               	rlf	___fltol@f1+1,f
  3854  17E4  0DF2               	rlf	___fltol@f1+2,f
  3855  17E5  0DF3               	rlf	___fltol@f1+3,f
  3856  17E6  0BF4               	decfsz	??___fltol,f
  3857  17E7  2FE1               	goto	u2745
  3858  17E8  3001               	movlw	1
  3859  17E9  02FA               	subwf	___fltol@exp1,f
  3860  17EA                     l455:
  3861  17EA  087A               	movf	___fltol@exp1,w
  3862  17EB  1D03               	btfss	3,2
  3863  17EC  2FEE               	goto	u2751
  3864  17ED  2FEF               	goto	u2750
  3865  17EE                     u2751:
  3866  17EE  2FDF               	goto	l2144
  3867  17EF                     u2750:
  3868  17EF                     l2146:
  3869  17EF  0879               	movf	___fltol@sign1,w
  3870  17F0  1903               	btfsc	3,2
  3871  17F1  2FF3               	goto	u2761
  3872  17F2  2FF4               	goto	u2760
  3873  17F3                     u2761:
  3874  17F3  2FFF               	goto	l458
  3875  17F4                     u2760:
  3876  17F4                     l2148:
  3877  17F4  09F0               	comf	___fltol@f1,f
  3878  17F5  09F1               	comf	___fltol@f1+1,f
  3879  17F6  09F2               	comf	___fltol@f1+2,f
  3880  17F7  09F3               	comf	___fltol@f1+3,f
  3881  17F8  0AF0               	incf	___fltol@f1,f
  3882  17F9  1903               	skipnz
  3883  17FA  0AF1               	incf	___fltol@f1+1,f
  3884  17FB  1903               	skipnz
  3885  17FC  0AF2               	incf	___fltol@f1+2,f
  3886  17FD  1903               	skipnz
  3887  17FE  0AF3               	incf	___fltol@f1+3,f
  3888  17FF                     l458:
  3889  17FF                     l448:
  3890  17FF  0008               	return
  3891  1800                     __end_of___fltol:
  3892                           
  3893                           	psect	text11
  3894  1681                     __ptext11:	
  3895 ;; *************** function ___flsub *****************
  3896 ;; Defined at:
  3897 ;;		line 242 in file "C:\Program Files\Microchip\xc8\v2.32\pic\sources\c90\common\sprcadd.c"
  3898 ;; Parameters:    Size  Location     Type
  3899 ;;  a               4   35[BANK0 ] long 
  3900 ;;  b               4   39[BANK0 ] long 
  3901 ;; Auto vars:     Size  Location     Type
  3902 ;;		None
  3903 ;; Return value:  Size  Location     Type
  3904 ;;                  4   35[BANK0 ] long 
  3905 ;; Registers used:
  3906 ;;		wreg, status,2, status,0, btemp+1, pclath, cstack
  3907 ;; Tracked objects:
  3908 ;;		On entry : 0/0
  3909 ;;		On exit  : 0/0
  3910 ;;		Unchanged: 0/0
  3911 ;; Data sizes:     COMMON   BANK0   BANK1   BANK3   BANK2
  3912 ;;      Params:         0       8       0       0       0
  3913 ;;      Locals:         0       0       0       0       0
  3914 ;;      Temps:          0       0       0       0       0
  3915 ;;      Totals:         0       8       0       0       0
  3916 ;;Total ram usage:        8 bytes
  3917 ;; Hardware stack levels used: 1
  3918 ;; Hardware stack levels required when called: 1
  3919 ;; This function calls:
  3920 ;;		___fladd
  3921 ;; This function is called by:
  3922 ;;		_floattostr_
  3923 ;; This function uses a non-reentrant model
  3924 ;;
  3925                           
  3926                           
  3927                           ;psect for function ___flsub
  3928  1681                     ___flsub:
  3929  1681                     l2150:	
  3930                           ;incstack = 0
  3931                           ; Regs used in ___flsub: [wreg+status,2+status,0+btemp+1+pclath+cstack]
  3932                           
  3933  1681  3080               	movlw	128
  3934  1682  1283               	bcf	3,5	;RP0=0, select bank0
  3935  1683  1303               	bcf	3,6	;RP1=0, select bank0
  3936  1684  06C6               	xorwf	___flsub@a+3,f
  3937  1685                     l2152:
  3938  1685  084A               	movf	___flsub@b+3,w
  3939  1686  00B0               	movwf	___fladd@b+3
  3940  1687  0849               	movf	___flsub@b+2,w
  3941  1688  00AF               	movwf	___fladd@b+2
  3942  1689  0848               	movf	___flsub@b+1,w
  3943  168A  00AE               	movwf	___fladd@b+1
  3944  168B  0847               	movf	___flsub@b,w
  3945  168C  00AD               	movwf	___fladd@b
  3946  168D  0846               	movf	___flsub@a+3,w
  3947  168E  00B4               	movwf	___fladd@a+3
  3948  168F  0845               	movf	___flsub@a+2,w
  3949  1690  00B3               	movwf	___fladd@a+2
  3950  1691  0844               	movf	___flsub@a+1,w
  3951  1692  00B2               	movwf	___fladd@a+1
  3952  1693  0843               	movf	___flsub@a,w
  3953  1694  00B1               	movwf	___fladd@a
  3954  1695  120A  158A  2578  160A  118A  	fcall	___fladd
  3955  169A  1283               	bcf	3,5	;RP0=0, select bank0
  3956  169B  1303               	bcf	3,6	;RP1=0, select bank0
  3957  169C  0830               	movf	?___fladd+3,w
  3958  169D  00C6               	movwf	?___flsub+3
  3959  169E  082F               	movf	?___fladd+2,w
  3960  169F  00C5               	movwf	?___flsub+2
  3961  16A0  082E               	movf	?___fladd+1,w
  3962  16A1  00C4               	movwf	?___flsub+1
  3963  16A2  082D               	movf	?___fladd,w
  3964  16A3  00C3               	movwf	?___flsub
  3965  16A4                     l601:
  3966  16A4  0008               	return
  3967  16A5                     __end_of___flsub:
  3968                           
  3969                           	psect	text12
  3970  0D78                     __ptext12:	
  3971 ;; *************** function ___fladd *****************
  3972 ;; Defined at:
  3973 ;;		line 10 in file "C:\Program Files\Microchip\xc8\v2.32\pic\sources\c90\common\sprcadd.c"
  3974 ;; Parameters:    Size  Location     Type
  3975 ;;  b               4   13[BANK0 ] long 
  3976 ;;  a               4   17[BANK0 ] long 
  3977 ;; Auto vars:     Size  Location     Type
  3978 ;;  grs             1   32[BANK0 ] unsigned char 
  3979 ;;  bexp            1   31[BANK0 ] unsigned char 
  3980 ;;  aexp            1   30[BANK0 ] unsigned char 
  3981 ;;  signs           1   29[BANK0 ] unsigned char 
  3982 ;; Return value:  Size  Location     Type
  3983 ;;                  4   13[BANK0 ] unsigned char 
  3984 ;; Registers used:
  3985 ;;		wreg, status,2, status,0, btemp+1
  3986 ;; Tracked objects:
  3987 ;;		On entry : 0/0
  3988 ;;		On exit  : 0/0
  3989 ;;		Unchanged: 0/0
  3990 ;; Data sizes:     COMMON   BANK0   BANK1   BANK3   BANK2
  3991 ;;      Params:         0       8       0       0       0
  3992 ;;      Locals:         0       4       0       0       0
  3993 ;;      Temps:          0       8       0       0       0
  3994 ;;      Totals:         0      20       0       0       0
  3995 ;;Total ram usage:       20 bytes
  3996 ;; Hardware stack levels used: 1
  3997 ;; This function calls:
  3998 ;;		Nothing
  3999 ;; This function is called by:
  4000 ;;		_floattostr_
  4001 ;;		___flsub
  4002 ;; This function uses a non-reentrant model
  4003 ;;
  4004                           
  4005                           
  4006                           ;psect for function ___fladd
  4007  0D78                     ___fladd:
  4008  0D78                     l1842:	
  4009                           ;incstack = 0
  4010                           ; Regs used in ___fladd: [wreg+status,2+status,0+btemp+1]
  4011                           
  4012  0D78  1283               	bcf	3,5	;RP0=0, select bank0
  4013  0D79  1303               	bcf	3,6	;RP1=0, select bank0
  4014  0D7A  0830               	movf	___fladd@b+3,w
  4015  0D7B  3980               	andlw	128
  4016  0D7C  00B5               	movwf	??___fladd
  4017  0D7D  0835               	movf	??___fladd,w
  4018  0D7E  00BD               	movwf	___fladd@signs
  4019  0D7F                     l1844:
  4020  0D7F  0830               	movf	___fladd@b+3,w
  4021  0D80  00B5               	movwf	??___fladd
  4022  0D81  0735               	addwf	??___fladd,w
  4023  0D82  00B6               	movwf	??___fladd+1
  4024  0D83  0836               	movf	??___fladd+1,w
  4025  0D84  00BF               	movwf	___fladd@bexp
  4026  0D85                     l1846:
  4027  0D85  1FAF               	btfss	___fladd@b+2,7
  4028  0D86  2D88               	goto	u2091
  4029  0D87  2D89               	goto	u2090
  4030  0D88                     u2091:
  4031  0D88  2D8A               	goto	l1850
  4032  0D89                     u2090:
  4033  0D89                     l1848:
  4034  0D89  143F               	bsf	___fladd@bexp,0
  4035  0D8A                     l1850:
  4036  0D8A  083F               	movf	___fladd@bexp,w
  4037  0D8B  1903               	btfsc	3,2
  4038  0D8C  2D8E               	goto	u2101
  4039  0D8D  2D8F               	goto	u2100
  4040  0D8E                     u2101:
  4041  0D8E  2D9F               	goto	l1860
  4042  0D8F                     u2100:
  4043  0D8F                     l1852:
  4044  0D8F  0A3F               	incf	___fladd@bexp,w
  4045  0D90  1D03               	btfss	3,2
  4046  0D91  2D93               	goto	u2111
  4047  0D92  2D94               	goto	u2110
  4048  0D93                     u2111:
  4049  0D93  2D9C               	goto	l1856
  4050  0D94                     u2110:
  4051  0D94                     l1854:
  4052  0D94  3000               	movlw	0
  4053  0D95  00B0               	movwf	___fladd@b+3
  4054  0D96  3000               	movlw	0
  4055  0D97  00AF               	movwf	___fladd@b+2
  4056  0D98  3000               	movlw	0
  4057  0D99  00AE               	movwf	___fladd@b+1
  4058  0D9A  3000               	movlw	0
  4059  0D9B  00AD               	movwf	___fladd@b
  4060  0D9C                     l1856:
  4061  0D9C  17AF               	bsf	___fladd@b+2,7
  4062  0D9D                     l1858:
  4063  0D9D  01B0               	clrf	___fladd@b+3
  4064  0D9E  2DA7               	goto	l1862
  4065  0D9F                     l1860:
  4066  0D9F  3000               	movlw	0
  4067  0DA0  00B0               	movwf	___fladd@b+3
  4068  0DA1  3000               	movlw	0
  4069  0DA2  00AF               	movwf	___fladd@b+2
  4070  0DA3  3000               	movlw	0
  4071  0DA4  00AE               	movwf	___fladd@b+1
  4072  0DA5  3000               	movlw	0
  4073  0DA6  00AD               	movwf	___fladd@b
  4074  0DA7                     l1862:
  4075  0DA7  0834               	movf	___fladd@a+3,w
  4076  0DA8  3980               	andlw	128
  4077  0DA9  00B5               	movwf	??___fladd
  4078  0DAA  0835               	movf	??___fladd,w
  4079  0DAB  00BE               	movwf	___fladd@aexp
  4080  0DAC                     l1864:
  4081  0DAC  083E               	movf	___fladd@aexp,w
  4082  0DAD  063D               	xorwf	___fladd@signs,w
  4083  0DAE  1903               	skipnz
  4084  0DAF  2DB1               	goto	u2121
  4085  0DB0  2DB2               	goto	u2120
  4086  0DB1                     u2121:
  4087  0DB1  2DB3               	goto	l1868
  4088  0DB2                     u2120:
  4089  0DB2                     l1866:
  4090  0DB2  173D               	bsf	___fladd@signs,6
  4091  0DB3                     l1868:
  4092  0DB3  0834               	movf	___fladd@a+3,w
  4093  0DB4  00B5               	movwf	??___fladd
  4094  0DB5  0735               	addwf	??___fladd,w
  4095  0DB6  00B6               	movwf	??___fladd+1
  4096  0DB7  0836               	movf	??___fladd+1,w
  4097  0DB8  00BE               	movwf	___fladd@aexp
  4098  0DB9                     l1870:
  4099  0DB9  1FB3               	btfss	___fladd@a+2,7
  4100  0DBA  2DBC               	goto	u2131
  4101  0DBB  2DBD               	goto	u2130
  4102  0DBC                     u2131:
  4103  0DBC  2DBE               	goto	l1874
  4104  0DBD                     u2130:
  4105  0DBD                     l1872:
  4106  0DBD  143E               	bsf	___fladd@aexp,0
  4107  0DBE                     l1874:
  4108  0DBE  083E               	movf	___fladd@aexp,w
  4109  0DBF  1903               	btfsc	3,2
  4110  0DC0  2DC2               	goto	u2141
  4111  0DC1  2DC3               	goto	u2140
  4112  0DC2                     u2141:
  4113  0DC2  2DD3               	goto	l1884
  4114  0DC3                     u2140:
  4115  0DC3                     l1876:
  4116  0DC3  0A3E               	incf	___fladd@aexp,w
  4117  0DC4  1D03               	btfss	3,2
  4118  0DC5  2DC7               	goto	u2151
  4119  0DC6  2DC8               	goto	u2150
  4120  0DC7                     u2151:
  4121  0DC7  2DD0               	goto	l1880
  4122  0DC8                     u2150:
  4123  0DC8                     l1878:
  4124  0DC8  3000               	movlw	0
  4125  0DC9  00B4               	movwf	___fladd@a+3
  4126  0DCA  3000               	movlw	0
  4127  0DCB  00B3               	movwf	___fladd@a+2
  4128  0DCC  3000               	movlw	0
  4129  0DCD  00B2               	movwf	___fladd@a+1
  4130  0DCE  3000               	movlw	0
  4131  0DCF  00B1               	movwf	___fladd@a
  4132  0DD0                     l1880:
  4133  0DD0  17B3               	bsf	___fladd@a+2,7
  4134  0DD1                     l1882:
  4135  0DD1  01B4               	clrf	___fladd@a+3
  4136  0DD2  2DDB               	goto	l555
  4137  0DD3                     l1884:
  4138  0DD3  3000               	movlw	0
  4139  0DD4  00B4               	movwf	___fladd@a+3
  4140  0DD5  3000               	movlw	0
  4141  0DD6  00B3               	movwf	___fladd@a+2
  4142  0DD7  3000               	movlw	0
  4143  0DD8  00B2               	movwf	___fladd@a+1
  4144  0DD9  3000               	movlw	0
  4145  0DDA  00B1               	movwf	___fladd@a
  4146  0DDB                     l555:
  4147  0DDB  083F               	movf	___fladd@bexp,w
  4148  0DDC  023E               	subwf	___fladd@aexp,w
  4149  0DDD  1803               	skipnc
  4150  0DDE  2DE0               	goto	u2161
  4151  0DDF  2DE1               	goto	u2160
  4152  0DE0                     u2161:
  4153  0DE0  2E25               	goto	l1920
  4154  0DE1                     u2160:
  4155  0DE1                     l1886:
  4156  0DE1  1F3D               	btfss	___fladd@signs,6
  4157  0DE2  2DE4               	goto	u2171
  4158  0DE3  2DE5               	goto	u2170
  4159  0DE4                     u2171:
  4160  0DE4  2DE9               	goto	l1890
  4161  0DE5                     u2170:
  4162  0DE5                     l1888:
  4163  0DE5  3080               	movlw	128
  4164  0DE6  00B5               	movwf	??___fladd
  4165  0DE7  0835               	movf	??___fladd,w
  4166  0DE8  06BD               	xorwf	___fladd@signs,f
  4167  0DE9                     l1890:
  4168  0DE9  083F               	movf	___fladd@bexp,w
  4169  0DEA  00B5               	movwf	??___fladd
  4170  0DEB  0835               	movf	??___fladd,w
  4171  0DEC  00C0               	movwf	___fladd@grs
  4172  0DED                     l1892:
  4173  0DED  083E               	movf	___fladd@aexp,w
  4174  0DEE  00B5               	movwf	??___fladd
  4175  0DEF  0835               	movf	??___fladd,w
  4176  0DF0  00BF               	movwf	___fladd@bexp
  4177  0DF1                     l1894:
  4178  0DF1  0840               	movf	___fladd@grs,w
  4179  0DF2  00B5               	movwf	??___fladd
  4180  0DF3  0835               	movf	??___fladd,w
  4181  0DF4  00BE               	movwf	___fladd@aexp
  4182  0DF5                     l1896:
  4183  0DF5  082D               	movf	___fladd@b,w
  4184  0DF6  00B5               	movwf	??___fladd
  4185  0DF7  0835               	movf	??___fladd,w
  4186  0DF8  00C0               	movwf	___fladd@grs
  4187  0DF9                     l1898:
  4188  0DF9  0831               	movf	___fladd@a,w
  4189  0DFA  00B5               	movwf	??___fladd
  4190  0DFB  0835               	movf	??___fladd,w
  4191  0DFC  00AD               	movwf	___fladd@b
  4192  0DFD                     l1900:
  4193  0DFD  0840               	movf	___fladd@grs,w
  4194  0DFE  00B5               	movwf	??___fladd
  4195  0DFF  0835               	movf	??___fladd,w
  4196  0E00  00B1               	movwf	___fladd@a
  4197  0E01                     l1902:
  4198  0E01  082E               	movf	___fladd@b+1,w
  4199  0E02  00B5               	movwf	??___fladd
  4200  0E03  0835               	movf	??___fladd,w
  4201  0E04  00C0               	movwf	___fladd@grs
  4202  0E05                     l1904:
  4203  0E05  0832               	movf	___fladd@a+1,w
  4204  0E06  00B5               	movwf	??___fladd
  4205  0E07  0835               	movf	??___fladd,w
  4206  0E08  00AE               	movwf	___fladd@b+1
  4207  0E09                     l1906:
  4208  0E09  0840               	movf	___fladd@grs,w
  4209  0E0A  00B5               	movwf	??___fladd
  4210  0E0B  0835               	movf	??___fladd,w
  4211  0E0C  00B2               	movwf	___fladd@a+1
  4212  0E0D                     l1908:
  4213  0E0D  082F               	movf	___fladd@b+2,w
  4214  0E0E  00B5               	movwf	??___fladd
  4215  0E0F  0835               	movf	??___fladd,w
  4216  0E10  00C0               	movwf	___fladd@grs
  4217  0E11                     l1910:
  4218  0E11  0833               	movf	___fladd@a+2,w
  4219  0E12  00B5               	movwf	??___fladd
  4220  0E13  0835               	movf	??___fladd,w
  4221  0E14  00AF               	movwf	___fladd@b+2
  4222  0E15                     l1912:
  4223  0E15  0840               	movf	___fladd@grs,w
  4224  0E16  00B5               	movwf	??___fladd
  4225  0E17  0835               	movf	??___fladd,w
  4226  0E18  00B3               	movwf	___fladd@a+2
  4227  0E19                     l1914:
  4228  0E19  0830               	movf	___fladd@b+3,w
  4229  0E1A  00B5               	movwf	??___fladd
  4230  0E1B  0835               	movf	??___fladd,w
  4231  0E1C  00C0               	movwf	___fladd@grs
  4232  0E1D                     l1916:
  4233  0E1D  0834               	movf	___fladd@a+3,w
  4234  0E1E  00B5               	movwf	??___fladd
  4235  0E1F  0835               	movf	??___fladd,w
  4236  0E20  00B0               	movwf	___fladd@b+3
  4237  0E21                     l1918:
  4238  0E21  0840               	movf	___fladd@grs,w
  4239  0E22  00B5               	movwf	??___fladd
  4240  0E23  0835               	movf	??___fladd,w
  4241  0E24  00B4               	movwf	___fladd@a+3
  4242  0E25                     l1920:
  4243  0E25  01C0               	clrf	___fladd@grs
  4244  0E26                     l1922:
  4245  0E26  083E               	movf	___fladd@aexp,w
  4246  0E27  00B5               	movwf	??___fladd
  4247  0E28  01B6               	clrf	??___fladd+1
  4248  0E29  0836               	movf	??___fladd+1,w
  4249  0E2A  00B8               	movwf	??___fladd+3
  4250  0E2B  083F               	movf	___fladd@bexp,w
  4251  0E2C  0235               	subwf	??___fladd,w
  4252  0E2D  00B7               	movwf	??___fladd+2
  4253  0E2E  1C03               	skipc
  4254  0E2F  03B8               	decf	??___fladd+3,f
  4255  0E30  0838               	movf	??___fladd+3,w
  4256  0E31  3A80               	xorlw	128
  4257  0E32  00FF               	movwf	btemp+1
  4258  0E33  3080               	movlw	128
  4259  0E34  027F               	subwf	btemp+1,w
  4260  0E35  1D03               	skipz
  4261  0E36  2E39               	goto	u2185
  4262  0E37  301A               	movlw	26
  4263  0E38  0237               	subwf	??___fladd+2,w
  4264  0E39                     u2185:
  4265  0E39  1C03               	skipc
  4266  0E3A  2E3C               	goto	u2181
  4267  0E3B  2E3D               	goto	u2180
  4268  0E3C                     u2181:
  4269  0E3C  2E7A               	goto	l1938
  4270  0E3D                     u2180:
  4271  0E3D                     l1924:
  4272  0E3D  1283               	bcf	3,5	;RP0=0, select bank0
  4273  0E3E  1303               	bcf	3,6	;RP1=0, select bank0
  4274  0E3F  0830               	movf	___fladd@b+3,w
  4275  0E40  042F               	iorwf	___fladd@b+2,w
  4276  0E41  042E               	iorwf	___fladd@b+1,w
  4277  0E42  042D               	iorwf	___fladd@b,w
  4278  0E43  1D03               	skipz
  4279  0E44  2E46               	goto	u2191
  4280  0E45  2E48               	goto	u2190
  4281  0E46                     u2191:
  4282  0E46  3001               	movlw	1
  4283  0E47  2E49               	goto	u2200
  4284  0E48                     u2190:
  4285  0E48  3000               	movlw	0
  4286  0E49                     u2200:
  4287  0E49  00B5               	movwf	??___fladd
  4288  0E4A  0835               	movf	??___fladd,w
  4289  0E4B  00C0               	movwf	___fladd@grs
  4290  0E4C  3000               	movlw	0
  4291  0E4D  00B0               	movwf	___fladd@b+3
  4292  0E4E  3000               	movlw	0
  4293  0E4F  00AF               	movwf	___fladd@b+2
  4294  0E50  3000               	movlw	0
  4295  0E51  00AE               	movwf	___fladd@b+1
  4296  0E52  3000               	movlw	0
  4297  0E53  00AD               	movwf	___fladd@b
  4298  0E54  083E               	movf	___fladd@aexp,w
  4299  0E55  00B5               	movwf	??___fladd
  4300  0E56  0835               	movf	??___fladd,w
  4301  0E57  00BF               	movwf	___fladd@bexp
  4302  0E58  2E82               	goto	l559
  4303  0E59                     l561:
  4304  0E59  1C40               	btfss	___fladd@grs,0
  4305  0E5A  2E5C               	goto	u2211
  4306  0E5B  2E5D               	goto	u2210
  4307  0E5C                     u2211:
  4308  0E5C  2E66               	goto	l1928
  4309  0E5D                     u2210:
  4310  0E5D                     l1926:
  4311  0E5D  0840               	movf	___fladd@grs,w
  4312  0E5E  00B5               	movwf	??___fladd
  4313  0E5F  1003               	clrc
  4314  0E60  0C35               	rrf	??___fladd,w
  4315  0E61  3801               	iorlw	1
  4316  0E62  00B6               	movwf	??___fladd+1
  4317  0E63  0836               	movf	??___fladd+1,w
  4318  0E64  00C0               	movwf	___fladd@grs
  4319  0E65  2E68               	goto	l1930
  4320  0E66                     l1928:
  4321  0E66  1003               	clrc
  4322  0E67  0CC0               	rrf	___fladd@grs,f
  4323  0E68                     l1930:
  4324  0E68  1C2D               	btfss	___fladd@b,0
  4325  0E69  2E6B               	goto	u2221
  4326  0E6A  2E6C               	goto	u2220
  4327  0E6B                     u2221:
  4328  0E6B  2E6D               	goto	l1934
  4329  0E6C                     u2220:
  4330  0E6C                     l1932:
  4331  0E6C  17C0               	bsf	___fladd@grs,7
  4332  0E6D                     l1934:
  4333  0E6D  3001               	movlw	1
  4334  0E6E  00B5               	movwf	??___fladd
  4335  0E6F                     u2235:
  4336  0E6F  0D30               	rlf	___fladd@b+3,w
  4337  0E70  0CB0               	rrf	___fladd@b+3,f
  4338  0E71  0CAF               	rrf	___fladd@b+2,f
  4339  0E72  0CAE               	rrf	___fladd@b+1,f
  4340  0E73  0CAD               	rrf	___fladd@b,f
  4341  0E74  0BB5               	decfsz	??___fladd& (0+127),f
  4342  0E75  2E6F               	goto	u2235
  4343  0E76                     l1936:
  4344  0E76  3001               	movlw	1
  4345  0E77  00B5               	movwf	??___fladd
  4346  0E78  0835               	movf	??___fladd,w
  4347  0E79  07BF               	addwf	___fladd@bexp,f
  4348  0E7A                     l1938:
  4349  0E7A  1283               	bcf	3,5	;RP0=0, select bank0
  4350  0E7B  1303               	bcf	3,6	;RP1=0, select bank0
  4351  0E7C  083E               	movf	___fladd@aexp,w
  4352  0E7D  023F               	subwf	___fladd@bexp,w
  4353  0E7E  1C03               	skipc
  4354  0E7F  2E81               	goto	u2241
  4355  0E80  2E82               	goto	u2240
  4356  0E81                     u2241:
  4357  0E81  2E59               	goto	l561
  4358  0E82                     u2240:
  4359  0E82                     l559:
  4360  0E82  1B3D               	btfsc	___fladd@signs,6
  4361  0E83  2E85               	goto	u2251
  4362  0E84  2E86               	goto	u2250
  4363  0E85                     u2251:
  4364  0E85  2ED1               	goto	l1964
  4365  0E86                     u2250:
  4366  0E86                     l1940:
  4367  0E86  083F               	movf	___fladd@bexp,w
  4368  0E87  1D03               	btfss	3,2
  4369  0E88  2E8A               	goto	u2261
  4370  0E89  2E8B               	goto	u2260
  4371  0E8A                     u2261:
  4372  0E8A  2E94               	goto	l1946
  4373  0E8B                     u2260:
  4374  0E8B                     l1942:
  4375  0E8B  3000               	movlw	0
  4376  0E8C  00B0               	movwf	?___fladd+3
  4377  0E8D  3000               	movlw	0
  4378  0E8E  00AF               	movwf	?___fladd+2
  4379  0E8F  3000               	movlw	0
  4380  0E90  00AE               	movwf	?___fladd+1
  4381  0E91  3000               	movlw	0
  4382  0E92  00AD               	movwf	?___fladd
  4383  0E93  2FFF               	goto	l568
  4384  0E94                     l1946:
  4385  0E94  0831               	movf	___fladd@a,w
  4386  0E95  07AD               	addwf	___fladd@b,f
  4387  0E96  0832               	movf	___fladd@a+1,w
  4388  0E97  1103               	clrz
  4389  0E98  1803               	skipnc
  4390  0E99  3E01               	addlw	1
  4391  0E9A  1903               	skipnz
  4392  0E9B  2E9D               	goto	u2271
  4393  0E9C  07AE               	addwf	___fladd@b+1,f
  4394  0E9D                     u2271:
  4395  0E9D  0833               	movf	___fladd@a+2,w
  4396  0E9E  1103               	clrz
  4397  0E9F  1803               	skipnc
  4398  0EA0  3E01               	addlw	1
  4399  0EA1  1903               	skipnz
  4400  0EA2  2EA4               	goto	u2272
  4401  0EA3  07AF               	addwf	___fladd@b+2,f
  4402  0EA4                     u2272:
  4403  0EA4  0834               	movf	___fladd@a+3,w
  4404  0EA5  1103               	clrz
  4405  0EA6  1803               	skipnc
  4406  0EA7  3E01               	addlw	1
  4407  0EA8  1903               	skipnz
  4408  0EA9  2EAB               	goto	u2273
  4409  0EAA  07B0               	addwf	___fladd@b+3,f
  4410  0EAB                     u2273:
  4411  0EAB                     l1948:
  4412  0EAB  1C30               	btfss	___fladd@b+3,0
  4413  0EAC  2EAE               	goto	u2281
  4414  0EAD  2EAF               	goto	u2280
  4415  0EAE                     u2281:
  4416  0EAE  2F85               	goto	l1998
  4417  0EAF                     u2280:
  4418  0EAF                     l1950:
  4419  0EAF  1C40               	btfss	___fladd@grs,0
  4420  0EB0  2EB2               	goto	u2291
  4421  0EB1  2EB3               	goto	u2290
  4422  0EB2                     u2291:
  4423  0EB2  2EBC               	goto	l1954
  4424  0EB3                     u2290:
  4425  0EB3                     l1952:
  4426  0EB3  0840               	movf	___fladd@grs,w
  4427  0EB4  00B5               	movwf	??___fladd
  4428  0EB5  1003               	clrc
  4429  0EB6  0C35               	rrf	??___fladd,w
  4430  0EB7  3801               	iorlw	1
  4431  0EB8  00B6               	movwf	??___fladd+1
  4432  0EB9  0836               	movf	??___fladd+1,w
  4433  0EBA  00C0               	movwf	___fladd@grs
  4434  0EBB  2EBE               	goto	l1956
  4435  0EBC                     l1954:
  4436  0EBC  1003               	clrc
  4437  0EBD  0CC0               	rrf	___fladd@grs,f
  4438  0EBE                     l1956:
  4439  0EBE  1C2D               	btfss	___fladd@b,0
  4440  0EBF  2EC1               	goto	u2301
  4441  0EC0  2EC2               	goto	u2300
  4442  0EC1                     u2301:
  4443  0EC1  2EC3               	goto	l1960
  4444  0EC2                     u2300:
  4445  0EC2                     l1958:
  4446  0EC2  17C0               	bsf	___fladd@grs,7
  4447  0EC3                     l1960:
  4448  0EC3  3001               	movlw	1
  4449  0EC4  00B5               	movwf	??___fladd
  4450  0EC5                     u2315:
  4451  0EC5  0D30               	rlf	___fladd@b+3,w
  4452  0EC6  0CB0               	rrf	___fladd@b+3,f
  4453  0EC7  0CAF               	rrf	___fladd@b+2,f
  4454  0EC8  0CAE               	rrf	___fladd@b+1,f
  4455  0EC9  0CAD               	rrf	___fladd@b,f
  4456  0ECA  0BB5               	decfsz	??___fladd& (0+127),f
  4457  0ECB  2EC5               	goto	u2315
  4458  0ECC                     l1962:
  4459  0ECC  3001               	movlw	1
  4460  0ECD  00B5               	movwf	??___fladd
  4461  0ECE  0835               	movf	??___fladd,w
  4462  0ECF  07BF               	addwf	___fladd@bexp,f
  4463  0ED0  2F85               	goto	l1998
  4464  0ED1                     l1964:
  4465  0ED1  0830               	movf	___fladd@b+3,w
  4466  0ED2  3A80               	xorlw	128
  4467  0ED3  00FF               	movwf	btemp+1
  4468  0ED4  0834               	movf	___fladd@a+3,w
  4469  0ED5  3A80               	xorlw	128
  4470  0ED6  027F               	subwf	btemp+1,w
  4471  0ED7  1D03               	skipz
  4472  0ED8  2EE3               	goto	u2323
  4473  0ED9  0833               	movf	___fladd@a+2,w
  4474  0EDA  022F               	subwf	___fladd@b+2,w
  4475  0EDB  1D03               	skipz
  4476  0EDC  2EE3               	goto	u2323
  4477  0EDD  0832               	movf	___fladd@a+1,w
  4478  0EDE  022E               	subwf	___fladd@b+1,w
  4479  0EDF  1D03               	skipz
  4480  0EE0  2EE3               	goto	u2323
  4481  0EE1  0831               	movf	___fladd@a,w
  4482  0EE2  022D               	subwf	___fladd@b,w
  4483  0EE3                     u2323:
  4484  0EE3  1803               	skipnc
  4485  0EE4  2EE6               	goto	u2321
  4486  0EE5  2EE7               	goto	u2320
  4487  0EE6                     u2321:
  4488  0EE6  2F3F               	goto	l1974
  4489  0EE7                     u2320:
  4490  0EE7                     l1966:
  4491  0EE7  30FF               	movlw	255
  4492  0EE8  00B5               	movwf	??___fladd
  4493  0EE9  30FF               	movlw	255
  4494  0EEA  00B6               	movwf	??___fladd+1
  4495  0EEB  30FF               	movlw	255
  4496  0EEC  00B7               	movwf	??___fladd+2
  4497  0EED  30FF               	movlw	255
  4498  0EEE  00B8               	movwf	??___fladd+3
  4499  0EEF  0831               	movf	___fladd@a,w
  4500  0EF0  00B9               	movwf	??___fladd+4
  4501  0EF1  0832               	movf	___fladd@a+1,w
  4502  0EF2  00BA               	movwf	??___fladd+5
  4503  0EF3  0833               	movf	___fladd@a+2,w
  4504  0EF4  00BB               	movwf	??___fladd+6
  4505  0EF5  0834               	movf	___fladd@a+3,w
  4506  0EF6  00BC               	movwf	??___fladd+7
  4507  0EF7  082D               	movf	___fladd@b,w
  4508  0EF8  02B9               	subwf	??___fladd+4,f
  4509  0EF9  082E               	movf	___fladd@b+1,w
  4510  0EFA  1C03               	skipc
  4511  0EFB  0F2E               	incfsz	___fladd@b+1,w
  4512  0EFC  2EFE               	goto	u2331
  4513  0EFD  2EFF               	goto	u2332
  4514  0EFE                     u2331:
  4515  0EFE  02BA               	subwf	??___fladd+5,f
  4516  0EFF                     u2332:
  4517  0EFF  082F               	movf	___fladd@b+2,w
  4518  0F00  1C03               	skipc
  4519  0F01  0F2F               	incfsz	___fladd@b+2,w
  4520  0F02  2F04               	goto	u2333
  4521  0F03  2F05               	goto	u2334
  4522  0F04                     u2333:
  4523  0F04  02BB               	subwf	??___fladd+6,f
  4524  0F05                     u2334:
  4525  0F05  0830               	movf	___fladd@b+3,w
  4526  0F06  1C03               	skipc
  4527  0F07  0F30               	incfsz	___fladd@b+3,w
  4528  0F08  2F0A               	goto	u2335
  4529  0F09  2F0B               	goto	u2336
  4530  0F0A                     u2335:
  4531  0F0A  02BC               	subwf	??___fladd+7,f
  4532  0F0B                     u2336:
  4533  0F0B  0839               	movf	??___fladd+4,w
  4534  0F0C  07B5               	addwf	??___fladd,f
  4535  0F0D  083A               	movf	??___fladd+5,w
  4536  0F0E  1803               	skipnc
  4537  0F0F  0F3A               	incfsz	??___fladd+5,w
  4538  0F10  2F12               	goto	u2340
  4539  0F11  2F13               	goto	u2341
  4540  0F12                     u2340:
  4541  0F12  07B6               	addwf	??___fladd+1,f
  4542  0F13                     u2341:
  4543  0F13  083B               	movf	??___fladd+6,w
  4544  0F14  1803               	skipnc
  4545  0F15  0F3B               	incfsz	??___fladd+6,w
  4546  0F16  2F18               	goto	u2342
  4547  0F17  2F19               	goto	u2343
  4548  0F18                     u2342:
  4549  0F18  07B7               	addwf	??___fladd+2,f
  4550  0F19                     u2343:
  4551  0F19  083C               	movf	??___fladd+7,w
  4552  0F1A  1803               	skipnc
  4553  0F1B  0A3C               	incf	??___fladd+7,w
  4554  0F1C  07B8               	addwf	??___fladd+3,f
  4555  0F1D  0838               	movf	??___fladd+3,w
  4556  0F1E  00B0               	movwf	___fladd@b+3
  4557  0F1F  0837               	movf	??___fladd+2,w
  4558  0F20  00AF               	movwf	___fladd@b+2
  4559  0F21  0836               	movf	??___fladd+1,w
  4560  0F22  00AE               	movwf	___fladd@b+1
  4561  0F23  0835               	movf	??___fladd,w
  4562  0F24  00AD               	movwf	___fladd@b
  4563  0F25                     l1968:
  4564  0F25  3080               	movlw	128
  4565  0F26  00B5               	movwf	??___fladd
  4566  0F27  0835               	movf	??___fladd,w
  4567  0F28  06BD               	xorwf	___fladd@signs,f
  4568  0F29  09C0               	comf	___fladd@grs,f
  4569  0F2A  0AC0               	incf	___fladd@grs,f
  4570  0F2B                     l1970:
  4571  0F2B  0840               	movf	___fladd@grs,w
  4572  0F2C  1D03               	btfss	3,2
  4573  0F2D  2F2F               	goto	u2351
  4574  0F2E  2F30               	goto	u2350
  4575  0F2F                     u2351:
  4576  0F2F  2F4D               	goto	l576
  4577  0F30                     u2350:
  4578  0F30                     l1972:
  4579  0F30  3001               	movlw	1
  4580  0F31  07AD               	addwf	___fladd@b,f
  4581  0F32  3000               	movlw	0
  4582  0F33  1803               	skipnc
  4583  0F34  3001               	movlw	1
  4584  0F35  07AE               	addwf	___fladd@b+1,f
  4585  0F36  3000               	movlw	0
  4586  0F37  1803               	skipnc
  4587  0F38  3001               	movlw	1
  4588  0F39  07AF               	addwf	___fladd@b+2,f
  4589  0F3A  3000               	movlw	0
  4590  0F3B  1803               	skipnc
  4591  0F3C  3001               	movlw	1
  4592  0F3D  07B0               	addwf	___fladd@b+3,f
  4593  0F3E  2F4D               	goto	l576
  4594  0F3F                     l1974:
  4595  0F3F  0831               	movf	___fladd@a,w
  4596  0F40  02AD               	subwf	___fladd@b,f
  4597  0F41  0832               	movf	___fladd@a+1,w
  4598  0F42  1C03               	skipc
  4599  0F43  0F32               	incfsz	___fladd@a+1,w
  4600  0F44  02AE               	subwf	___fladd@b+1,f
  4601  0F45  0833               	movf	___fladd@a+2,w
  4602  0F46  1C03               	skipc
  4603  0F47  0F33               	incfsz	___fladd@a+2,w
  4604  0F48  02AF               	subwf	___fladd@b+2,f
  4605  0F49  0834               	movf	___fladd@a+3,w
  4606  0F4A  1C03               	skipc
  4607  0F4B  0F34               	incfsz	___fladd@a+3,w
  4608  0F4C  02B0               	subwf	___fladd@b+3,f
  4609  0F4D                     l576:
  4610  0F4D  0830               	movf	___fladd@b+3,w
  4611  0F4E  042F               	iorwf	___fladd@b+2,w
  4612  0F4F  042E               	iorwf	___fladd@b+1,w
  4613  0F50  042D               	iorwf	___fladd@b,w
  4614  0F51  1D03               	skipz
  4615  0F52  2F54               	goto	u2361
  4616  0F53  2F55               	goto	u2360
  4617  0F54                     u2361:
  4618  0F54  2F81               	goto	l1996
  4619  0F55                     u2360:
  4620  0F55                     l1976:
  4621  0F55  0840               	movf	___fladd@grs,w
  4622  0F56  1D03               	btfss	3,2
  4623  0F57  2F59               	goto	u2371
  4624  0F58  2F5A               	goto	u2370
  4625  0F59                     u2371:
  4626  0F59  2F81               	goto	l1996
  4627  0F5A                     u2370:
  4628  0F5A                     l1978:
  4629  0F5A  3000               	movlw	0
  4630  0F5B  00B0               	movwf	?___fladd+3
  4631  0F5C  3000               	movlw	0
  4632  0F5D  00AF               	movwf	?___fladd+2
  4633  0F5E  3000               	movlw	0
  4634  0F5F  00AE               	movwf	?___fladd+1
  4635  0F60  3000               	movlw	0
  4636  0F61  00AD               	movwf	?___fladd
  4637  0F62  2FFF               	goto	l568
  4638  0F63                     l1982:
  4639  0F63  3001               	movlw	1
  4640  0F64  00B5               	movwf	??___fladd
  4641  0F65                     u2385:
  4642  0F65  1003               	clrc
  4643  0F66  0DAD               	rlf	___fladd@b,f
  4644  0F67  0DAE               	rlf	___fladd@b+1,f
  4645  0F68  0DAF               	rlf	___fladd@b+2,f
  4646  0F69  0DB0               	rlf	___fladd@b+3,f
  4647  0F6A  0BB5               	decfsz	??___fladd,f
  4648  0F6B  2F65               	goto	u2385
  4649  0F6C                     l1984:
  4650  0F6C  1FC0               	btfss	___fladd@grs,7
  4651  0F6D  2F6F               	goto	u2391
  4652  0F6E  2F70               	goto	u2390
  4653  0F6F                     u2391:
  4654  0F6F  2F71               	goto	l580
  4655  0F70                     u2390:
  4656  0F70                     l1986:
  4657  0F70  142D               	bsf	___fladd@b,0
  4658  0F71                     l580:
  4659  0F71  1C40               	btfss	___fladd@grs,0
  4660  0F72  2F74               	goto	u2401
  4661  0F73  2F75               	goto	u2400
  4662  0F74                     u2401:
  4663  0F74  2F78               	goto	l1990
  4664  0F75                     u2400:
  4665  0F75                     l1988:
  4666  0F75  1403               	setc
  4667  0F76  0DC0               	rlf	___fladd@grs,f
  4668  0F77  2F7A               	goto	l1992
  4669  0F78                     l1990:
  4670  0F78  1003               	clrc
  4671  0F79  0DC0               	rlf	___fladd@grs,f
  4672  0F7A                     l1992:
  4673  0F7A  083F               	movf	___fladd@bexp,w
  4674  0F7B  1903               	btfsc	3,2
  4675  0F7C  2F7E               	goto	u2411
  4676  0F7D  2F7F               	goto	u2410
  4677  0F7E                     u2411:
  4678  0F7E  2F81               	goto	l1996
  4679  0F7F                     u2410:
  4680  0F7F                     l1994:
  4681  0F7F  3001               	movlw	1
  4682  0F80  02BF               	subwf	___fladd@bexp,f
  4683  0F81                     l1996:
  4684  0F81  1FAF               	btfss	___fladd@b+2,7
  4685  0F82  2F84               	goto	u2421
  4686  0F83  2F85               	goto	u2420
  4687  0F84                     u2421:
  4688  0F84  2F63               	goto	l1982
  4689  0F85                     u2420:
  4690  0F85                     l1998:
  4691  0F85  01BE               	clrf	___fladd@aexp
  4692  0F86                     l2000:
  4693  0F86  1FC0               	btfss	___fladd@grs,7
  4694  0F87  2F89               	goto	u2431
  4695  0F88  2F8A               	goto	u2430
  4696  0F89                     u2431:
  4697  0F89  2F98               	goto	l2008
  4698  0F8A                     u2430:
  4699  0F8A                     l2002:
  4700  0F8A  0840               	movf	___fladd@grs,w
  4701  0F8B  397F               	andlw	127
  4702  0F8C  1903               	btfsc	3,2
  4703  0F8D  2F8F               	goto	u2441
  4704  0F8E  2F90               	goto	u2440
  4705  0F8F                     u2441:
  4706  0F8F  2F93               	goto	l586
  4707  0F90                     u2440:
  4708  0F90                     l2004:
  4709  0F90  01BE               	clrf	___fladd@aexp
  4710  0F91  0ABE               	incf	___fladd@aexp,f
  4711  0F92  2F98               	goto	l2008
  4712  0F93                     l586:
  4713  0F93  1C2D               	btfss	___fladd@b,0
  4714  0F94  2F96               	goto	u2451
  4715  0F95  2F97               	goto	u2450
  4716  0F96                     u2451:
  4717  0F96  2F98               	goto	l2008
  4718  0F97                     u2450:
  4719  0F97  2F90               	goto	l2004
  4720  0F98                     l2008:
  4721  0F98  083E               	movf	___fladd@aexp,w
  4722  0F99  1903               	btfsc	3,2
  4723  0F9A  2F9C               	goto	u2461
  4724  0F9B  2F9D               	goto	u2460
  4725  0F9C                     u2461:
  4726  0F9C  2FD1               	goto	l589
  4727  0F9D                     u2460:
  4728  0F9D                     l2010:
  4729  0F9D  3001               	movlw	1
  4730  0F9E  07AD               	addwf	___fladd@b,f
  4731  0F9F  3000               	movlw	0
  4732  0FA0  1803               	skipnc
  4733  0FA1  3001               	movlw	1
  4734  0FA2  07AE               	addwf	___fladd@b+1,f
  4735  0FA3  3000               	movlw	0
  4736  0FA4  1803               	skipnc
  4737  0FA5  3001               	movlw	1
  4738  0FA6  07AF               	addwf	___fladd@b+2,f
  4739  0FA7  3000               	movlw	0
  4740  0FA8  1803               	skipnc
  4741  0FA9  3001               	movlw	1
  4742  0FAA  07B0               	addwf	___fladd@b+3,f
  4743  0FAB                     l2012:
  4744  0FAB  1C30               	btfss	___fladd@b+3,0
  4745  0FAC  2FAE               	goto	u2471
  4746  0FAD  2FAF               	goto	u2470
  4747  0FAE                     u2471:
  4748  0FAE  2FD1               	goto	l589
  4749  0FAF                     u2470:
  4750  0FAF                     l2014:
  4751  0FAF  082D               	movf	___fladd@b,w
  4752  0FB0  00B5               	movwf	??___fladd
  4753  0FB1  082E               	movf	___fladd@b+1,w
  4754  0FB2  00B6               	movwf	??___fladd+1
  4755  0FB3  082F               	movf	___fladd@b+2,w
  4756  0FB4  00B7               	movwf	??___fladd+2
  4757  0FB5  0830               	movf	___fladd@b+3,w
  4758  0FB6  00B8               	movwf	??___fladd+3
  4759  0FB7  3001               	movlw	1
  4760  0FB8  00B9               	movwf	??___fladd+4
  4761  0FB9                     u2485:
  4762  0FB9  0D38               	rlf	??___fladd+3,w
  4763  0FBA  0CB8               	rrf	??___fladd+3,f
  4764  0FBB  0CB7               	rrf	??___fladd+2,f
  4765  0FBC  0CB6               	rrf	??___fladd+1,f
  4766  0FBD  0CB5               	rrf	??___fladd,f
  4767  0FBE                     u2480:
  4768  0FBE  0BB9               	decfsz	??___fladd+4,f
  4769  0FBF  2FB9               	goto	u2485
  4770  0FC0  0838               	movf	??___fladd+3,w
  4771  0FC1  00B0               	movwf	___fladd@b+3
  4772  0FC2  0837               	movf	??___fladd+2,w
  4773  0FC3  00AF               	movwf	___fladd@b+2
  4774  0FC4  0836               	movf	??___fladd+1,w
  4775  0FC5  00AE               	movwf	___fladd@b+1
  4776  0FC6  0835               	movf	??___fladd,w
  4777  0FC7  00AD               	movwf	___fladd@b
  4778  0FC8  0A3F               	incf	___fladd@bexp,w
  4779  0FC9  1903               	btfsc	3,2
  4780  0FCA  2FCC               	goto	u2491
  4781  0FCB  2FCD               	goto	u2490
  4782  0FCC                     u2491:
  4783  0FCC  2FD1               	goto	l589
  4784  0FCD                     u2490:
  4785  0FCD                     l2016:
  4786  0FCD  3001               	movlw	1
  4787  0FCE  00B5               	movwf	??___fladd
  4788  0FCF  0835               	movf	??___fladd,w
  4789  0FD0  07BF               	addwf	___fladd@bexp,f
  4790  0FD1                     l589:
  4791  0FD1  0A3F               	incf	___fladd@bexp,w
  4792  0FD2  1903               	btfsc	3,2
  4793  0FD3  2FD5               	goto	u2501
  4794  0FD4  2FD6               	goto	u2500
  4795  0FD5                     u2501:
  4796  0FD5  2FDB               	goto	l2020
  4797  0FD6                     u2500:
  4798  0FD6                     l2018:
  4799  0FD6  083F               	movf	___fladd@bexp,w
  4800  0FD7  1D03               	btfss	3,2
  4801  0FD8  2FDA               	goto	u2511
  4802  0FD9  2FDB               	goto	u2510
  4803  0FDA                     u2511:
  4804  0FDA  2FE9               	goto	l2026
  4805  0FDB                     u2510:
  4806  0FDB                     l2020:
  4807  0FDB  3000               	movlw	0
  4808  0FDC  00B0               	movwf	___fladd@b+3
  4809  0FDD  3000               	movlw	0
  4810  0FDE  00AF               	movwf	___fladd@b+2
  4811  0FDF  3000               	movlw	0
  4812  0FE0  00AE               	movwf	___fladd@b+1
  4813  0FE1  3000               	movlw	0
  4814  0FE2  00AD               	movwf	___fladd@b
  4815  0FE3                     l2022:
  4816  0FE3  083F               	movf	___fladd@bexp,w
  4817  0FE4  1D03               	btfss	3,2
  4818  0FE5  2FE7               	goto	u2521
  4819  0FE6  2FE8               	goto	u2520
  4820  0FE7                     u2521:
  4821  0FE7  2FE9               	goto	l2026
  4822  0FE8                     u2520:
  4823  0FE8                     l2024:
  4824  0FE8  01BD               	clrf	___fladd@signs
  4825  0FE9                     l2026:
  4826  0FE9  1C3F               	btfss	___fladd@bexp,0
  4827  0FEA  2FEC               	goto	u2531
  4828  0FEB  2FED               	goto	u2530
  4829  0FEC                     u2531:
  4830  0FEC  2FEF               	goto	l2030
  4831  0FED                     u2530:
  4832  0FED                     l2028:
  4833  0FED  17AF               	bsf	___fladd@b+2,7
  4834  0FEE  2FF3               	goto	l597
  4835  0FEF                     l2030:
  4836  0FEF  307F               	movlw	127
  4837  0FF0  00B5               	movwf	??___fladd
  4838  0FF1  0835               	movf	??___fladd,w
  4839  0FF2  05AF               	andwf	___fladd@b+2,f
  4840  0FF3                     l597:
  4841  0FF3  083F               	movf	___fladd@bexp,w
  4842  0FF4  00B5               	movwf	??___fladd
  4843  0FF5  1003               	clrc
  4844  0FF6  0C35               	rrf	??___fladd,w
  4845  0FF7  00B6               	movwf	??___fladd+1
  4846  0FF8  0836               	movf	??___fladd+1,w
  4847  0FF9  00B0               	movwf	___fladd@b+3
  4848  0FFA                     l2032:
  4849  0FFA  1FBD               	btfss	___fladd@signs,7
  4850  0FFB  2FFD               	goto	u2541
  4851  0FFC  2FFE               	goto	u2540
  4852  0FFD                     u2541:
  4853  0FFD  2FFF               	goto	l598
  4854  0FFE                     u2540:
  4855  0FFE                     l2034:
  4856  0FFE  17B0               	bsf	___fladd@b+3,7
  4857  0FFF                     l598:
  4858  0FFF                     l568:
  4859  0FFF  0008               	return
  4860  1000                     __end_of___fladd:
  4861                           
  4862                           	psect	text13
  4863  15CF                     __ptext13:	
  4864 ;; *************** function ___flneg *****************
  4865 ;; Defined at:
  4866 ;;		line 15 in file "C:\Program Files\Microchip\xc8\v2.32\pic\sources\c90\common\flneg.c"
  4867 ;; Parameters:    Size  Location     Type
  4868 ;;  f1              4    0[COMMON] unsigned char 
  4869 ;; Auto vars:     Size  Location     Type
  4870 ;;		None
  4871 ;; Return value:  Size  Location     Type
  4872 ;;                  4    0[COMMON] unsigned char 
  4873 ;; Registers used:
  4874 ;;		wreg
  4875 ;; Tracked objects:
  4876 ;;		On entry : 0/0
  4877 ;;		On exit  : 0/0
  4878 ;;		Unchanged: 0/0
  4879 ;; Data sizes:     COMMON   BANK0   BANK1   BANK3   BANK2
  4880 ;;      Params:         4       0       0       0       0
  4881 ;;      Locals:         0       0       0       0       0
  4882 ;;      Temps:          0       0       0       0       0
  4883 ;;      Totals:         4       0       0       0       0
  4884 ;;Total ram usage:        4 bytes
  4885 ;; Hardware stack levels used: 1
  4886 ;; This function calls:
  4887 ;;		Nothing
  4888 ;; This function is called by:
  4889 ;;		_floattostr_
  4890 ;; This function uses a non-reentrant model
  4891 ;;
  4892                           
  4893                           
  4894                           ;psect for function ___flneg
  4895  15CF                     ___flneg:
  4896  15CF                     l2106:	
  4897                           ;incstack = 0
  4898                           ; Regs used in ___flneg: [wreg]
  4899                           
  4900  15CF  0873               	movf	___flneg@f1+3,w
  4901  15D0  0472               	iorwf	___flneg@f1+2,w
  4902  15D1  0471               	iorwf	___flneg@f1+1,w
  4903  15D2  0470               	iorwf	___flneg@f1,w
  4904  15D3  1903               	skipnz
  4905  15D4  2DD6               	goto	u2661
  4906  15D5  2DD7               	goto	u2660
  4907  15D6                     u2661:
  4908  15D6  2DD9               	goto	l2110
  4909  15D7                     u2660:
  4910  15D7                     l2108:
  4911  15D7  3080               	movlw	128
  4912  15D8  06F3               	xorwf	___flneg@f1+3,f
  4913  15D9                     l2110:
  4914  15D9                     l444:
  4915  15D9  0008               	return
  4916  15DA                     __end_of___flneg:
  4917                           
  4918                           	psect	text14
  4919  0451                     __ptext14:	
  4920 ;; *************** function ___flmul *****************
  4921 ;; Defined at:
  4922 ;;		line 8 in file "C:\Program Files\Microchip\xc8\v2.32\pic\sources\c90\common\sprcmul.c"
  4923 ;; Parameters:    Size  Location     Type
  4924 ;;  b               4    0[BANK0 ] unsigned char 
  4925 ;;  a               4    4[BANK0 ] unsigned char 
  4926 ;; Auto vars:     Size  Location     Type
  4927 ;;  prod            4   15[BANK0 ] struct .
  4928 ;;  grs             4    9[BANK0 ] unsigned long 
  4929 ;;  temp            2   19[BANK0 ] struct .
  4930 ;;  bexp            1   14[BANK0 ] unsigned char 
  4931 ;;  aexp            1   13[BANK0 ] unsigned char 
  4932 ;;  sign            1    8[BANK0 ] unsigned char 
  4933 ;; Return value:  Size  Location     Type
  4934 ;;                  4    0[BANK0 ] unsigned char 
  4935 ;; Registers used:
  4936 ;;		wreg, status,2, status,0, btemp+1, pclath, cstack
  4937 ;; Tracked objects:
  4938 ;;		On entry : 0/0
  4939 ;;		On exit  : 0/0
  4940 ;;		Unchanged: 0/0
  4941 ;; Data sizes:     COMMON   BANK0   BANK1   BANK3   BANK2
  4942 ;;      Params:         0       8       0       0       0
  4943 ;;      Locals:         0      13       0       0       0
  4944 ;;      Temps:          5       0       0       0       0
  4945 ;;      Totals:         5      21       0       0       0
  4946 ;;Total ram usage:       26 bytes
  4947 ;; Hardware stack levels used: 1
  4948 ;; Hardware stack levels required when called: 1
  4949 ;; This function calls:
  4950 ;;		__Umul8_16
  4951 ;; This function is called by:
  4952 ;;		_floattostr_
  4953 ;;		_main
  4954 ;; This function uses a non-reentrant model
  4955 ;;
  4956                           
  4957                           
  4958                           ;psect for function ___flmul
  4959  0451                     ___flmul:
  4960  0451                     l2298:	
  4961                           ;incstack = 0
  4962                           ; Regs used in ___flmul: [wreg+status,2+status,0+btemp+1+pclath+cstack]
  4963                           
  4964  0451  1283               	bcf	3,5	;RP0=0, select bank0
  4965  0452  1303               	bcf	3,6	;RP1=0, select bank0
  4966  0453  0823               	movf	___flmul@b+3,w
  4967  0454  3980               	andlw	128
  4968  0455  00F9               	movwf	??___flmul
  4969  0456  0879               	movf	??___flmul,w
  4970  0457  00A8               	movwf	___flmul@sign
  4971  0458                     l2300:
  4972  0458  0823               	movf	___flmul@b+3,w
  4973  0459  00F9               	movwf	??___flmul
  4974  045A  0779               	addwf	??___flmul,w
  4975  045B  00FA               	movwf	??___flmul+1
  4976  045C  087A               	movf	??___flmul+1,w
  4977  045D  00AE               	movwf	___flmul@bexp
  4978  045E                     l2302:
  4979  045E  1FA2               	btfss	___flmul@b+2,7
  4980  045F  2C61               	goto	u3071
  4981  0460  2C62               	goto	u3070
  4982  0461                     u3071:
  4983  0461  2C63               	goto	l2306
  4984  0462                     u3070:
  4985  0462                     l2304:
  4986  0462  142E               	bsf	___flmul@bexp,0
  4987  0463                     l2306:
  4988  0463  082E               	movf	___flmul@bexp,w
  4989  0464  1903               	btfsc	3,2
  4990  0465  2C67               	goto	u3081
  4991  0466  2C68               	goto	u3080
  4992  0467                     u3081:
  4993  0467  2C77               	goto	l2314
  4994  0468                     u3080:
  4995  0468                     l2308:
  4996  0468  0A2E               	incf	___flmul@bexp,w
  4997  0469  1D03               	btfss	3,2
  4998  046A  2C6C               	goto	u3091
  4999  046B  2C6D               	goto	u3090
  5000  046C                     u3091:
  5001  046C  2C75               	goto	l2312
  5002  046D                     u3090:
  5003  046D                     l2310:
  5004  046D  3000               	movlw	0
  5005  046E  00A3               	movwf	___flmul@b+3
  5006  046F  3000               	movlw	0
  5007  0470  00A2               	movwf	___flmul@b+2
  5008  0471  3000               	movlw	0
  5009  0472  00A1               	movwf	___flmul@b+1
  5010  0473  3000               	movlw	0
  5011  0474  00A0               	movwf	___flmul@b
  5012  0475                     l2312:
  5013  0475  17A2               	bsf	___flmul@b+2,7
  5014  0476  2C7F               	goto	l2316
  5015  0477                     l2314:
  5016  0477  3000               	movlw	0
  5017  0478  00A3               	movwf	___flmul@b+3
  5018  0479  3000               	movlw	0
  5019  047A  00A2               	movwf	___flmul@b+2
  5020  047B  3000               	movlw	0
  5021  047C  00A1               	movwf	___flmul@b+1
  5022  047D  3000               	movlw	0
  5023  047E  00A0               	movwf	___flmul@b
  5024  047F                     l2316:
  5025  047F  0827               	movf	___flmul@a+3,w
  5026  0480  3980               	andlw	128
  5027  0481  00F9               	movwf	??___flmul
  5028  0482  0879               	movf	??___flmul,w
  5029  0483  06A8               	xorwf	___flmul@sign,f
  5030  0484                     l2318:
  5031  0484  0827               	movf	___flmul@a+3,w
  5032  0485  00F9               	movwf	??___flmul
  5033  0486  0779               	addwf	??___flmul,w
  5034  0487  00FA               	movwf	??___flmul+1
  5035  0488  087A               	movf	??___flmul+1,w
  5036  0489  00AD               	movwf	___flmul@aexp
  5037  048A                     l2320:
  5038  048A  1FA6               	btfss	___flmul@a+2,7
  5039  048B  2C8D               	goto	u3101
  5040  048C  2C8E               	goto	u3100
  5041  048D                     u3101:
  5042  048D  2C8F               	goto	l2324
  5043  048E                     u3100:
  5044  048E                     l2322:
  5045  048E  142D               	bsf	___flmul@aexp,0
  5046  048F                     l2324:
  5047  048F  082D               	movf	___flmul@aexp,w
  5048  0490  1903               	btfsc	3,2
  5049  0491  2C93               	goto	u3111
  5050  0492  2C94               	goto	u3110
  5051  0493                     u3111:
  5052  0493  2CA3               	goto	l2332
  5053  0494                     u3110:
  5054  0494                     l2326:
  5055  0494  0A2D               	incf	___flmul@aexp,w
  5056  0495  1D03               	btfss	3,2
  5057  0496  2C98               	goto	u3121
  5058  0497  2C99               	goto	u3120
  5059  0498                     u3121:
  5060  0498  2CA1               	goto	l2330
  5061  0499                     u3120:
  5062  0499                     l2328:
  5063  0499  3000               	movlw	0
  5064  049A  00A7               	movwf	___flmul@a+3
  5065  049B  3000               	movlw	0
  5066  049C  00A6               	movwf	___flmul@a+2
  5067  049D  3000               	movlw	0
  5068  049E  00A5               	movwf	___flmul@a+1
  5069  049F  3000               	movlw	0
  5070  04A0  00A4               	movwf	___flmul@a
  5071  04A1                     l2330:
  5072  04A1  17A6               	bsf	___flmul@a+2,7
  5073  04A2  2CAB               	goto	l2334
  5074  04A3                     l2332:
  5075  04A3  3000               	movlw	0
  5076  04A4  00A7               	movwf	___flmul@a+3
  5077  04A5  3000               	movlw	0
  5078  04A6  00A6               	movwf	___flmul@a+2
  5079  04A7  3000               	movlw	0
  5080  04A8  00A5               	movwf	___flmul@a+1
  5081  04A9  3000               	movlw	0
  5082  04AA  00A4               	movwf	___flmul@a
  5083  04AB                     l2334:
  5084  04AB  082D               	movf	___flmul@aexp,w
  5085  04AC  1903               	btfsc	3,2
  5086  04AD  2CAF               	goto	u3131
  5087  04AE  2CB0               	goto	u3130
  5088  04AF                     u3131:
  5089  04AF  2CB5               	goto	l2338
  5090  04B0                     u3130:
  5091  04B0                     l2336:
  5092  04B0  082E               	movf	___flmul@bexp,w
  5093  04B1  1D03               	btfss	3,2
  5094  04B2  2CB4               	goto	u3141
  5095  04B3  2CB5               	goto	u3140
  5096  04B4                     u3141:
  5097  04B4  2CBE               	goto	l2342
  5098  04B5                     u3140:
  5099  04B5                     l2338:
  5100  04B5  3000               	movlw	0
  5101  04B6  00A3               	movwf	?___flmul+3
  5102  04B7  3000               	movlw	0
  5103  04B8  00A2               	movwf	?___flmul+2
  5104  04B9  3000               	movlw	0
  5105  04BA  00A1               	movwf	?___flmul+1
  5106  04BB  3000               	movlw	0
  5107  04BC  00A0               	movwf	?___flmul
  5108  04BD  2FB1               	goto	l651
  5109  04BE                     l2342:
  5110  04BE  0820               	movf	___flmul@b,w
  5111  04BF  00F9               	movwf	??___flmul
  5112  04C0  0879               	movf	??___flmul,w
  5113  04C1  00F0               	movwf	__Umul8_16@multiplicand
  5114  04C2  0826               	movf	___flmul@a+2,w
  5115  04C3  160A  118A  26A5  120A  118A  	fcall	__Umul8_16
  5116  04C8  0871               	movf	?__Umul8_16+1,w
  5117  04C9  1283               	bcf	3,5	;RP0=0, select bank0
  5118  04CA  1303               	bcf	3,6	;RP1=0, select bank0
  5119  04CB  00B4               	movwf	___flmul@temp+1
  5120  04CC  0870               	movf	?__Umul8_16,w
  5121  04CD  00B3               	movwf	___flmul@temp
  5122  04CE                     l2344:
  5123  04CE  0833               	movf	___flmul@temp,w
  5124  04CF  00F9               	movwf	??___flmul
  5125  04D0  01FA               	clrf	??___flmul+1
  5126  04D1  01FB               	clrf	??___flmul+2
  5127  04D2  01FC               	clrf	??___flmul+3
  5128  04D3  087C               	movf	??___flmul+3,w
  5129  04D4  00AC               	movwf	___flmul@grs+3
  5130  04D5  087B               	movf	??___flmul+2,w
  5131  04D6  00AB               	movwf	___flmul@grs+2
  5132  04D7  087A               	movf	??___flmul+1,w
  5133  04D8  00AA               	movwf	___flmul@grs+1
  5134  04D9  0879               	movf	??___flmul,w
  5135  04DA  00A9               	movwf	___flmul@grs
  5136  04DB                     l2346:
  5137  04DB  0834               	movf	___flmul@temp+1,w
  5138  04DC  00F9               	movwf	??___flmul
  5139  04DD  01FA               	clrf	??___flmul+1
  5140  04DE  01FB               	clrf	??___flmul+2
  5141  04DF  01FC               	clrf	??___flmul+3
  5142  04E0  087C               	movf	??___flmul+3,w
  5143  04E1  00B2               	movwf	___flmul@prod+3
  5144  04E2  087B               	movf	??___flmul+2,w
  5145  04E3  00B1               	movwf	___flmul@prod+2
  5146  04E4  087A               	movf	??___flmul+1,w
  5147  04E5  00B0               	movwf	___flmul@prod+1
  5148  04E6  0879               	movf	??___flmul,w
  5149  04E7  00AF               	movwf	___flmul@prod
  5150  04E8  0821               	movf	___flmul@b+1,w
  5151  04E9  00F9               	movwf	??___flmul
  5152  04EA  0879               	movf	??___flmul,w
  5153  04EB  00F0               	movwf	__Umul8_16@multiplicand
  5154  04EC  0825               	movf	___flmul@a+1,w
  5155  04ED  160A  118A  26A5  120A  118A  	fcall	__Umul8_16
  5156  04F2  0871               	movf	?__Umul8_16+1,w
  5157  04F3  1283               	bcf	3,5	;RP0=0, select bank0
  5158  04F4  1303               	bcf	3,6	;RP1=0, select bank0
  5159  04F5  00B4               	movwf	___flmul@temp+1
  5160  04F6  0870               	movf	?__Umul8_16,w
  5161  04F7  00B3               	movwf	___flmul@temp
  5162  04F8                     l2348:
  5163  04F8  0833               	movf	___flmul@temp,w
  5164  04F9  00F9               	movwf	??___flmul
  5165  04FA  01FA               	clrf	??___flmul+1
  5166  04FB  01FB               	clrf	??___flmul+2
  5167  04FC  01FC               	clrf	??___flmul+3
  5168  04FD  0879               	movf	??___flmul,w
  5169  04FE  07A9               	addwf	___flmul@grs,f
  5170  04FF  087A               	movf	??___flmul+1,w
  5171  0500  1103               	clrz
  5172  0501  1803               	skipnc
  5173  0502  3E01               	addlw	1
  5174  0503  1903               	skipnz
  5175  0504  2D06               	goto	u3151
  5176  0505  07AA               	addwf	___flmul@grs+1,f
  5177  0506                     u3151:
  5178  0506  087B               	movf	??___flmul+2,w
  5179  0507  1103               	clrz
  5180  0508  1803               	skipnc
  5181  0509  3E01               	addlw	1
  5182  050A  1903               	skipnz
  5183  050B  2D0D               	goto	u3152
  5184  050C  07AB               	addwf	___flmul@grs+2,f
  5185  050D                     u3152:
  5186  050D  087C               	movf	??___flmul+3,w
  5187  050E  1103               	clrz
  5188  050F  1803               	skipnc
  5189  0510  3E01               	addlw	1
  5190  0511  1903               	skipnz
  5191  0512  2D14               	goto	u3153
  5192  0513  07AC               	addwf	___flmul@grs+3,f
  5193  0514                     u3153:
  5194  0514                     l2350:
  5195  0514  0834               	movf	___flmul@temp+1,w
  5196  0515  00F9               	movwf	??___flmul
  5197  0516  01FA               	clrf	??___flmul+1
  5198  0517  01FB               	clrf	??___flmul+2
  5199  0518  01FC               	clrf	??___flmul+3
  5200  0519  0879               	movf	??___flmul,w
  5201  051A  07AF               	addwf	___flmul@prod,f
  5202  051B  087A               	movf	??___flmul+1,w
  5203  051C  1103               	clrz
  5204  051D  1803               	skipnc
  5205  051E  3E01               	addlw	1
  5206  051F  1903               	skipnz
  5207  0520  2D22               	goto	u3161
  5208  0521  07B0               	addwf	___flmul@prod+1,f
  5209  0522                     u3161:
  5210  0522  087B               	movf	??___flmul+2,w
  5211  0523  1103               	clrz
  5212  0524  1803               	skipnc
  5213  0525  3E01               	addlw	1
  5214  0526  1903               	skipnz
  5215  0527  2D29               	goto	u3162
  5216  0528  07B1               	addwf	___flmul@prod+2,f
  5217  0529                     u3162:
  5218  0529  087C               	movf	??___flmul+3,w
  5219  052A  1103               	clrz
  5220  052B  1803               	skipnc
  5221  052C  3E01               	addlw	1
  5222  052D  1903               	skipnz
  5223  052E  2D30               	goto	u3163
  5224  052F  07B2               	addwf	___flmul@prod+3,f
  5225  0530                     u3163:
  5226  0530  0822               	movf	___flmul@b+2,w
  5227  0531  00F9               	movwf	??___flmul
  5228  0532  0879               	movf	??___flmul,w
  5229  0533  00F0               	movwf	__Umul8_16@multiplicand
  5230  0534  0824               	movf	___flmul@a,w
  5231  0535  160A  118A  26A5  120A  118A  	fcall	__Umul8_16
  5232  053A  0871               	movf	?__Umul8_16+1,w
  5233  053B  1283               	bcf	3,5	;RP0=0, select bank0
  5234  053C  1303               	bcf	3,6	;RP1=0, select bank0
  5235  053D  00B4               	movwf	___flmul@temp+1
  5236  053E  0870               	movf	?__Umul8_16,w
  5237  053F  00B3               	movwf	___flmul@temp
  5238  0540                     l2352:
  5239  0540  0833               	movf	___flmul@temp,w
  5240  0541  00F9               	movwf	??___flmul
  5241  0542  01FA               	clrf	??___flmul+1
  5242  0543  01FB               	clrf	??___flmul+2
  5243  0544  01FC               	clrf	??___flmul+3
  5244  0545  0879               	movf	??___flmul,w
  5245  0546  07A9               	addwf	___flmul@grs,f
  5246  0547  087A               	movf	??___flmul+1,w
  5247  0548  1103               	clrz
  5248  0549  1803               	skipnc
  5249  054A  3E01               	addlw	1
  5250  054B  1903               	skipnz
  5251  054C  2D4E               	goto	u3171
  5252  054D  07AA               	addwf	___flmul@grs+1,f
  5253  054E                     u3171:
  5254  054E  087B               	movf	??___flmul+2,w
  5255  054F  1103               	clrz
  5256  0550  1803               	skipnc
  5257  0551  3E01               	addlw	1
  5258  0552  1903               	skipnz
  5259  0553  2D55               	goto	u3172
  5260  0554  07AB               	addwf	___flmul@grs+2,f
  5261  0555                     u3172:
  5262  0555  087C               	movf	??___flmul+3,w
  5263  0556  1103               	clrz
  5264  0557  1803               	skipnc
  5265  0558  3E01               	addlw	1
  5266  0559  1903               	skipnz
  5267  055A  2D5C               	goto	u3173
  5268  055B  07AC               	addwf	___flmul@grs+3,f
  5269  055C                     u3173:
  5270  055C                     l2354:
  5271  055C  0834               	movf	___flmul@temp+1,w
  5272  055D  00F9               	movwf	??___flmul
  5273  055E  01FA               	clrf	??___flmul+1
  5274  055F  01FB               	clrf	??___flmul+2
  5275  0560  01FC               	clrf	??___flmul+3
  5276  0561  0879               	movf	??___flmul,w
  5277  0562  07AF               	addwf	___flmul@prod,f
  5278  0563  087A               	movf	??___flmul+1,w
  5279  0564  1103               	clrz
  5280  0565  1803               	skipnc
  5281  0566  3E01               	addlw	1
  5282  0567  1903               	skipnz
  5283  0568  2D6A               	goto	u3181
  5284  0569  07B0               	addwf	___flmul@prod+1,f
  5285  056A                     u3181:
  5286  056A  087B               	movf	??___flmul+2,w
  5287  056B  1103               	clrz
  5288  056C  1803               	skipnc
  5289  056D  3E01               	addlw	1
  5290  056E  1903               	skipnz
  5291  056F  2D71               	goto	u3182
  5292  0570  07B1               	addwf	___flmul@prod+2,f
  5293  0571                     u3182:
  5294  0571  087C               	movf	??___flmul+3,w
  5295  0572  1103               	clrz
  5296  0573  1803               	skipnc
  5297  0574  3E01               	addlw	1
  5298  0575  1903               	skipnz
  5299  0576  2D78               	goto	u3183
  5300  0577  07B2               	addwf	___flmul@prod+3,f
  5301  0578                     u3183:
  5302  0578                     l2356:
  5303  0578  3008               	movlw	8
  5304  0579  00F9               	movwf	??___flmul
  5305  057A                     u3195:
  5306  057A  1003               	clrc
  5307  057B  0DA9               	rlf	___flmul@grs,f
  5308  057C  0DAA               	rlf	___flmul@grs+1,f
  5309  057D  0DAB               	rlf	___flmul@grs+2,f
  5310  057E  0DAC               	rlf	___flmul@grs+3,f
  5311  057F  0BF9               	decfsz	??___flmul,f
  5312  0580  2D7A               	goto	u3195
  5313  0581                     l2358:
  5314  0581  0821               	movf	___flmul@b+1,w
  5315  0582  00F9               	movwf	??___flmul
  5316  0583  0879               	movf	??___flmul,w
  5317  0584  00F0               	movwf	__Umul8_16@multiplicand
  5318  0585  0824               	movf	___flmul@a,w
  5319  0586  160A  118A  26A5  120A  118A  	fcall	__Umul8_16
  5320  058B  0871               	movf	?__Umul8_16+1,w
  5321  058C  1283               	bcf	3,5	;RP0=0, select bank0
  5322  058D  1303               	bcf	3,6	;RP1=0, select bank0
  5323  058E  00B4               	movwf	___flmul@temp+1
  5324  058F  0870               	movf	?__Umul8_16,w
  5325  0590  00B3               	movwf	___flmul@temp
  5326  0591                     l2360:
  5327  0591  0833               	movf	___flmul@temp,w
  5328  0592  00F9               	movwf	??___flmul
  5329  0593  0834               	movf	___flmul@temp+1,w
  5330  0594  00FA               	movwf	??___flmul+1
  5331  0595  01FB               	clrf	??___flmul+2
  5332  0596  01FC               	clrf	??___flmul+3
  5333  0597  0879               	movf	??___flmul,w
  5334  0598  07A9               	addwf	___flmul@grs,f
  5335  0599  087A               	movf	??___flmul+1,w
  5336  059A  1103               	clrz
  5337  059B  1803               	skipnc
  5338  059C  3E01               	addlw	1
  5339  059D  1903               	skipnz
  5340  059E  2DA0               	goto	u3201
  5341  059F  07AA               	addwf	___flmul@grs+1,f
  5342  05A0                     u3201:
  5343  05A0  087B               	movf	??___flmul+2,w
  5344  05A1  1103               	clrz
  5345  05A2  1803               	skipnc
  5346  05A3  3E01               	addlw	1
  5347  05A4  1903               	skipnz
  5348  05A5  2DA7               	goto	u3202
  5349  05A6  07AB               	addwf	___flmul@grs+2,f
  5350  05A7                     u3202:
  5351  05A7  087C               	movf	??___flmul+3,w
  5352  05A8  1103               	clrz
  5353  05A9  1803               	skipnc
  5354  05AA  3E01               	addlw	1
  5355  05AB  1903               	skipnz
  5356  05AC  2DAE               	goto	u3203
  5357  05AD  07AC               	addwf	___flmul@grs+3,f
  5358  05AE                     u3203:
  5359  05AE                     l2362:
  5360  05AE  0820               	movf	___flmul@b,w
  5361  05AF  00F9               	movwf	??___flmul
  5362  05B0  0879               	movf	??___flmul,w
  5363  05B1  00F0               	movwf	__Umul8_16@multiplicand
  5364  05B2  0825               	movf	___flmul@a+1,w
  5365  05B3  160A  118A  26A5  120A  118A  	fcall	__Umul8_16
  5366  05B8  0871               	movf	?__Umul8_16+1,w
  5367  05B9  1283               	bcf	3,5	;RP0=0, select bank0
  5368  05BA  1303               	bcf	3,6	;RP1=0, select bank0
  5369  05BB  00B4               	movwf	___flmul@temp+1
  5370  05BC  0870               	movf	?__Umul8_16,w
  5371  05BD  00B3               	movwf	___flmul@temp
  5372  05BE                     l2364:
  5373  05BE  0833               	movf	___flmul@temp,w
  5374  05BF  00F9               	movwf	??___flmul
  5375  05C0  0834               	movf	___flmul@temp+1,w
  5376  05C1  00FA               	movwf	??___flmul+1
  5377  05C2  01FB               	clrf	??___flmul+2
  5378  05C3  01FC               	clrf	??___flmul+3
  5379  05C4  0879               	movf	??___flmul,w
  5380  05C5  07A9               	addwf	___flmul@grs,f
  5381  05C6  087A               	movf	??___flmul+1,w
  5382  05C7  1103               	clrz
  5383  05C8  1803               	skipnc
  5384  05C9  3E01               	addlw	1
  5385  05CA  1903               	skipnz
  5386  05CB  2DCD               	goto	u3211
  5387  05CC  07AA               	addwf	___flmul@grs+1,f
  5388  05CD                     u3211:
  5389  05CD  087B               	movf	??___flmul+2,w
  5390  05CE  1103               	clrz
  5391  05CF  1803               	skipnc
  5392  05D0  3E01               	addlw	1
  5393  05D1  1903               	skipnz
  5394  05D2  2DD4               	goto	u3212
  5395  05D3  07AB               	addwf	___flmul@grs+2,f
  5396  05D4                     u3212:
  5397  05D4  087C               	movf	??___flmul+3,w
  5398  05D5  1103               	clrz
  5399  05D6  1803               	skipnc
  5400  05D7  3E01               	addlw	1
  5401  05D8  1903               	skipnz
  5402  05D9  2DDB               	goto	u3213
  5403  05DA  07AC               	addwf	___flmul@grs+3,f
  5404  05DB                     u3213:
  5405  05DB                     l2366:
  5406  05DB  3008               	movlw	8
  5407  05DC  00F9               	movwf	??___flmul
  5408  05DD                     u3225:
  5409  05DD  1003               	clrc
  5410  05DE  0DA9               	rlf	___flmul@grs,f
  5411  05DF  0DAA               	rlf	___flmul@grs+1,f
  5412  05E0  0DAB               	rlf	___flmul@grs+2,f
  5413  05E1  0DAC               	rlf	___flmul@grs+3,f
  5414  05E2  0BF9               	decfsz	??___flmul,f
  5415  05E3  2DDD               	goto	u3225
  5416  05E4  0820               	movf	___flmul@b,w
  5417  05E5  00F9               	movwf	??___flmul
  5418  05E6  0879               	movf	??___flmul,w
  5419  05E7  00F0               	movwf	__Umul8_16@multiplicand
  5420  05E8  0824               	movf	___flmul@a,w
  5421  05E9  160A  118A  26A5  120A  118A  	fcall	__Umul8_16
  5422  05EE  0871               	movf	?__Umul8_16+1,w
  5423  05EF  1283               	bcf	3,5	;RP0=0, select bank0
  5424  05F0  1303               	bcf	3,6	;RP1=0, select bank0
  5425  05F1  00B4               	movwf	___flmul@temp+1
  5426  05F2  0870               	movf	?__Umul8_16,w
  5427  05F3  00B3               	movwf	___flmul@temp
  5428  05F4                     l2368:
  5429  05F4  0833               	movf	___flmul@temp,w
  5430  05F5  00F9               	movwf	??___flmul
  5431  05F6  0834               	movf	___flmul@temp+1,w
  5432  05F7  00FA               	movwf	??___flmul+1
  5433  05F8  01FB               	clrf	??___flmul+2
  5434  05F9  01FC               	clrf	??___flmul+3
  5435  05FA  0879               	movf	??___flmul,w
  5436  05FB  07A9               	addwf	___flmul@grs,f
  5437  05FC  087A               	movf	??___flmul+1,w
  5438  05FD  1103               	clrz
  5439  05FE  1803               	skipnc
  5440  05FF  3E01               	addlw	1
  5441  0600  1903               	skipnz
  5442  0601  2E03               	goto	u3231
  5443  0602  07AA               	addwf	___flmul@grs+1,f
  5444  0603                     u3231:
  5445  0603  087B               	movf	??___flmul+2,w
  5446  0604  1103               	clrz
  5447  0605  1803               	skipnc
  5448  0606  3E01               	addlw	1
  5449  0607  1903               	skipnz
  5450  0608  2E0A               	goto	u3232
  5451  0609  07AB               	addwf	___flmul@grs+2,f
  5452  060A                     u3232:
  5453  060A  087C               	movf	??___flmul+3,w
  5454  060B  1103               	clrz
  5455  060C  1803               	skipnc
  5456  060D  3E01               	addlw	1
  5457  060E  1903               	skipnz
  5458  060F  2E11               	goto	u3233
  5459  0610  07AC               	addwf	___flmul@grs+3,f
  5460  0611                     u3233:
  5461  0611                     l2370:
  5462  0611  0821               	movf	___flmul@b+1,w
  5463  0612  00F9               	movwf	??___flmul
  5464  0613  0879               	movf	??___flmul,w
  5465  0614  00F0               	movwf	__Umul8_16@multiplicand
  5466  0615  0826               	movf	___flmul@a+2,w
  5467  0616  160A  118A  26A5  120A  118A  	fcall	__Umul8_16
  5468  061B  0871               	movf	?__Umul8_16+1,w
  5469  061C  1283               	bcf	3,5	;RP0=0, select bank0
  5470  061D  1303               	bcf	3,6	;RP1=0, select bank0
  5471  061E  00B4               	movwf	___flmul@temp+1
  5472  061F  0870               	movf	?__Umul8_16,w
  5473  0620  00B3               	movwf	___flmul@temp
  5474  0621  0833               	movf	___flmul@temp,w
  5475  0622  00F9               	movwf	??___flmul
  5476  0623  0834               	movf	___flmul@temp+1,w
  5477  0624  00FA               	movwf	??___flmul+1
  5478  0625  01FB               	clrf	??___flmul+2
  5479  0626  01FC               	clrf	??___flmul+3
  5480  0627  0879               	movf	??___flmul,w
  5481  0628  07AF               	addwf	___flmul@prod,f
  5482  0629  087A               	movf	??___flmul+1,w
  5483  062A  1103               	clrz
  5484  062B  1803               	skipnc
  5485  062C  3E01               	addlw	1
  5486  062D  1903               	skipnz
  5487  062E  2E30               	goto	u3241
  5488  062F  07B0               	addwf	___flmul@prod+1,f
  5489  0630                     u3241:
  5490  0630  087B               	movf	??___flmul+2,w
  5491  0631  1103               	clrz
  5492  0632  1803               	skipnc
  5493  0633  3E01               	addlw	1
  5494  0634  1903               	skipnz
  5495  0635  2E37               	goto	u3242
  5496  0636  07B1               	addwf	___flmul@prod+2,f
  5497  0637                     u3242:
  5498  0637  087C               	movf	??___flmul+3,w
  5499  0638  1103               	clrz
  5500  0639  1803               	skipnc
  5501  063A  3E01               	addlw	1
  5502  063B  1903               	skipnz
  5503  063C  2E3E               	goto	u3243
  5504  063D  07B2               	addwf	___flmul@prod+3,f
  5505  063E                     u3243:
  5506  063E                     l2372:
  5507  063E  0822               	movf	___flmul@b+2,w
  5508  063F  00F9               	movwf	??___flmul
  5509  0640  0879               	movf	??___flmul,w
  5510  0641  00F0               	movwf	__Umul8_16@multiplicand
  5511  0642  0825               	movf	___flmul@a+1,w
  5512  0643  160A  118A  26A5  120A  118A  	fcall	__Umul8_16
  5513  0648  0871               	movf	?__Umul8_16+1,w
  5514  0649  1283               	bcf	3,5	;RP0=0, select bank0
  5515  064A  1303               	bcf	3,6	;RP1=0, select bank0
  5516  064B  00B4               	movwf	___flmul@temp+1
  5517  064C  0870               	movf	?__Umul8_16,w
  5518  064D  00B3               	movwf	___flmul@temp
  5519  064E                     l2374:
  5520  064E  0833               	movf	___flmul@temp,w
  5521  064F  00F9               	movwf	??___flmul
  5522  0650  0834               	movf	___flmul@temp+1,w
  5523  0651  00FA               	movwf	??___flmul+1
  5524  0652  01FB               	clrf	??___flmul+2
  5525  0653  01FC               	clrf	??___flmul+3
  5526  0654  0879               	movf	??___flmul,w
  5527  0655  07AF               	addwf	___flmul@prod,f
  5528  0656  087A               	movf	??___flmul+1,w
  5529  0657  1103               	clrz
  5530  0658  1803               	skipnc
  5531  0659  3E01               	addlw	1
  5532  065A  1903               	skipnz
  5533  065B  2E5D               	goto	u3251
  5534  065C  07B0               	addwf	___flmul@prod+1,f
  5535  065D                     u3251:
  5536  065D  087B               	movf	??___flmul+2,w
  5537  065E  1103               	clrz
  5538  065F  1803               	skipnc
  5539  0660  3E01               	addlw	1
  5540  0661  1903               	skipnz
  5541  0662  2E64               	goto	u3252
  5542  0663  07B1               	addwf	___flmul@prod+2,f
  5543  0664                     u3252:
  5544  0664  087C               	movf	??___flmul+3,w
  5545  0665  1103               	clrz
  5546  0666  1803               	skipnc
  5547  0667  3E01               	addlw	1
  5548  0668  1903               	skipnz
  5549  0669  2E6B               	goto	u3253
  5550  066A  07B2               	addwf	___flmul@prod+3,f
  5551  066B                     u3253:
  5552  066B  0822               	movf	___flmul@b+2,w
  5553  066C  00F9               	movwf	??___flmul
  5554  066D  0879               	movf	??___flmul,w
  5555  066E  00F0               	movwf	__Umul8_16@multiplicand
  5556  066F  0826               	movf	___flmul@a+2,w
  5557  0670  160A  118A  26A5  120A  118A  	fcall	__Umul8_16
  5558  0675  0871               	movf	?__Umul8_16+1,w
  5559  0676  1283               	bcf	3,5	;RP0=0, select bank0
  5560  0677  1303               	bcf	3,6	;RP1=0, select bank0
  5561  0678  00B4               	movwf	___flmul@temp+1
  5562  0679  0870               	movf	?__Umul8_16,w
  5563  067A  00B3               	movwf	___flmul@temp
  5564  067B                     l2376:
  5565  067B  0833               	movf	___flmul@temp,w
  5566  067C  00F9               	movwf	??___flmul
  5567  067D  0834               	movf	___flmul@temp+1,w
  5568  067E  00FA               	movwf	??___flmul+1
  5569  067F  01FB               	clrf	??___flmul+2
  5570  0680  01FC               	clrf	??___flmul+3
  5571  0681  3008               	movlw	8
  5572  0682                     u3265:
  5573  0682  1003               	clrc
  5574  0683  0DF9               	rlf	??___flmul,f
  5575  0684  0DFA               	rlf	??___flmul+1,f
  5576  0685  0DFB               	rlf	??___flmul+2,f
  5577  0686  0DFC               	rlf	??___flmul+3,f
  5578  0687                     u3260:
  5579  0687  3EFF               	addlw	-1
  5580  0688  1D03               	skipz
  5581  0689  2E82               	goto	u3265
  5582  068A  0879               	movf	??___flmul,w
  5583  068B  07AF               	addwf	___flmul@prod,f
  5584  068C  087A               	movf	??___flmul+1,w
  5585  068D  1103               	clrz
  5586  068E  1803               	skipnc
  5587  068F  3E01               	addlw	1
  5588  0690  1903               	skipnz
  5589  0691  2E93               	goto	u3271
  5590  0692  07B0               	addwf	___flmul@prod+1,f
  5591  0693                     u3271:
  5592  0693  087B               	movf	??___flmul+2,w
  5593  0694  1103               	clrz
  5594  0695  1803               	skipnc
  5595  0696  3E01               	addlw	1
  5596  0697  1903               	skipnz
  5597  0698  2E9A               	goto	u3272
  5598  0699  07B1               	addwf	___flmul@prod+2,f
  5599  069A                     u3272:
  5600  069A  087C               	movf	??___flmul+3,w
  5601  069B  1103               	clrz
  5602  069C  1803               	skipnc
  5603  069D  3E01               	addlw	1
  5604  069E  1903               	skipnz
  5605  069F  2EA1               	goto	u3273
  5606  06A0  07B2               	addwf	___flmul@prod+3,f
  5607  06A1                     u3273:
  5608  06A1                     l2378:
  5609  06A1  0829               	movf	___flmul@grs,w
  5610  06A2  00F9               	movwf	??___flmul
  5611  06A3  082A               	movf	___flmul@grs+1,w
  5612  06A4  00FA               	movwf	??___flmul+1
  5613  06A5  082B               	movf	___flmul@grs+2,w
  5614  06A6  00FB               	movwf	??___flmul+2
  5615  06A7  082C               	movf	___flmul@grs+3,w
  5616  06A8  00FC               	movwf	??___flmul+3
  5617  06A9  3018               	movlw	24
  5618  06AA                     u3285:
  5619  06AA  1003               	clrc
  5620  06AB  0CFC               	rrf	??___flmul+3,f
  5621  06AC  0CFB               	rrf	??___flmul+2,f
  5622  06AD  0CFA               	rrf	??___flmul+1,f
  5623  06AE  0CF9               	rrf	??___flmul,f
  5624  06AF                     u3280:
  5625  06AF  3EFF               	addlw	-1
  5626  06B0  1D03               	skipz
  5627  06B1  2EAA               	goto	u3285
  5628  06B2  0879               	movf	??___flmul,w
  5629  06B3  07AF               	addwf	___flmul@prod,f
  5630  06B4  087A               	movf	??___flmul+1,w
  5631  06B5  1103               	clrz
  5632  06B6  1803               	skipnc
  5633  06B7  3E01               	addlw	1
  5634  06B8  1903               	skipnz
  5635  06B9  2EBB               	goto	u3291
  5636  06BA  07B0               	addwf	___flmul@prod+1,f
  5637  06BB                     u3291:
  5638  06BB  087B               	movf	??___flmul+2,w
  5639  06BC  1103               	clrz
  5640  06BD  1803               	skipnc
  5641  06BE  3E01               	addlw	1
  5642  06BF  1903               	skipnz
  5643  06C0  2EC2               	goto	u3292
  5644  06C1  07B1               	addwf	___flmul@prod+2,f
  5645  06C2                     u3292:
  5646  06C2  087C               	movf	??___flmul+3,w
  5647  06C3  1103               	clrz
  5648  06C4  1803               	skipnc
  5649  06C5  3E01               	addlw	1
  5650  06C6  1903               	skipnz
  5651  06C7  2EC9               	goto	u3293
  5652  06C8  07B2               	addwf	___flmul@prod+3,f
  5653  06C9                     u3293:
  5654  06C9                     l2380:
  5655  06C9  3008               	movlw	8
  5656  06CA  00F9               	movwf	??___flmul
  5657  06CB                     u3305:
  5658  06CB  1003               	clrc
  5659  06CC  0DA9               	rlf	___flmul@grs,f
  5660  06CD  0DAA               	rlf	___flmul@grs+1,f
  5661  06CE  0DAB               	rlf	___flmul@grs+2,f
  5662  06CF  0DAC               	rlf	___flmul@grs+3,f
  5663  06D0  0BF9               	decfsz	??___flmul,f
  5664  06D1  2ECB               	goto	u3305
  5665  06D2                     l2382:
  5666  06D2  082E               	movf	___flmul@bexp,w
  5667  06D3  072D               	addwf	___flmul@aexp,w
  5668  06D4  00F9               	movwf	??___flmul
  5669  06D5  01FA               	clrf	??___flmul+1
  5670  06D6  0DFA               	rlf	??___flmul+1,f
  5671  06D7  0879               	movf	??___flmul,w
  5672  06D8  3E82               	addlw	130
  5673  06D9  00B3               	movwf	___flmul@temp
  5674  06DA  087A               	movf	??___flmul+1,w
  5675  06DB  1803               	skipnc
  5676  06DC  3E01               	addlw	1
  5677  06DD  3EFF               	addlw	255
  5678  06DE  00B4               	movwf	___flmul@temp+1
  5679  06DF  2EFD               	goto	l2394
  5680  06E0                     l2384:
  5681  06E0  3001               	movlw	1
  5682  06E1  00F9               	movwf	??___flmul
  5683  06E2                     u3315:
  5684  06E2  1003               	clrc
  5685  06E3  0DAF               	rlf	___flmul@prod,f
  5686  06E4  0DB0               	rlf	___flmul@prod+1,f
  5687  06E5  0DB1               	rlf	___flmul@prod+2,f
  5688  06E6  0DB2               	rlf	___flmul@prod+3,f
  5689  06E7  0BF9               	decfsz	??___flmul,f
  5690  06E8  2EE2               	goto	u3315
  5691  06E9                     l2386:
  5692  06E9  1FAC               	btfss	___flmul@grs+3,7
  5693  06EA  2EEC               	goto	u3321
  5694  06EB  2EED               	goto	u3320
  5695  06EC                     u3321:
  5696  06EC  2EEE               	goto	l2390
  5697  06ED                     u3320:
  5698  06ED                     l2388:
  5699  06ED  142F               	bsf	___flmul@prod,0
  5700  06EE                     l2390:
  5701  06EE  3001               	movlw	1
  5702  06EF  00F9               	movwf	??___flmul
  5703  06F0                     u3335:
  5704  06F0  1003               	clrc
  5705  06F1  0DA9               	rlf	___flmul@grs,f
  5706  06F2  0DAA               	rlf	___flmul@grs+1,f
  5707  06F3  0DAB               	rlf	___flmul@grs+2,f
  5708  06F4  0DAC               	rlf	___flmul@grs+3,f
  5709  06F5  0BF9               	decfsz	??___flmul,f
  5710  06F6  2EF0               	goto	u3335
  5711  06F7                     l2392:
  5712  06F7  30FF               	movlw	255
  5713  06F8  07B3               	addwf	___flmul@temp,f
  5714  06F9  1803               	skipnc
  5715  06FA  0AB4               	incf	___flmul@temp+1,f
  5716  06FB  30FF               	movlw	255
  5717  06FC  07B4               	addwf	___flmul@temp+1,f
  5718  06FD                     l2394:
  5719  06FD  1FB1               	btfss	___flmul@prod+2,7
  5720  06FE  2F00               	goto	u3341
  5721  06FF  2F01               	goto	u3340
  5722  0700                     u3341:
  5723  0700  2EE0               	goto	l2384
  5724  0701                     u3340:
  5725  0701                     l2396:
  5726  0701  01AD               	clrf	___flmul@aexp
  5727  0702                     l2398:
  5728  0702  1FAC               	btfss	___flmul@grs+3,7
  5729  0703  2F05               	goto	u3351
  5730  0704  2F06               	goto	u3350
  5731  0705                     u3351:
  5732  0705  2F22               	goto	l2406
  5733  0706                     u3350:
  5734  0706                     l2400:
  5735  0706  30FF               	movlw	255
  5736  0707  0529               	andwf	___flmul@grs,w
  5737  0708  00F9               	movwf	??___flmul
  5738  0709  30FF               	movlw	255
  5739  070A  052A               	andwf	___flmul@grs+1,w
  5740  070B  00FA               	movwf	??___flmul+1
  5741  070C  30FF               	movlw	255
  5742  070D  052B               	andwf	___flmul@grs+2,w
  5743  070E  00FB               	movwf	??___flmul+2
  5744  070F  307F               	movlw	127
  5745  0710  052C               	andwf	___flmul@grs+3,w
  5746  0711  00FC               	movwf	??___flmul+3
  5747  0712  087C               	movf	??___flmul+3,w
  5748  0713  047B               	iorwf	??___flmul+2,w
  5749  0714  047A               	iorwf	??___flmul+1,w
  5750  0715  0479               	iorwf	??___flmul,w
  5751  0716  1903               	skipnz
  5752  0717  2F19               	goto	u3361
  5753  0718  2F1A               	goto	u3360
  5754  0719                     u3361:
  5755  0719  2F1D               	goto	l657
  5756  071A                     u3360:
  5757  071A                     l2402:
  5758  071A  01AD               	clrf	___flmul@aexp
  5759  071B  0AAD               	incf	___flmul@aexp,f
  5760  071C  2F22               	goto	l2406
  5761  071D                     l657:
  5762  071D  1C2F               	btfss	___flmul@prod,0
  5763  071E  2F20               	goto	u3371
  5764  071F  2F21               	goto	u3370
  5765  0720                     u3371:
  5766  0720  2F22               	goto	l2406
  5767  0721                     u3370:
  5768  0721  2F1A               	goto	l2402
  5769  0722                     l2406:
  5770  0722  082D               	movf	___flmul@aexp,w
  5771  0723  1903               	btfsc	3,2
  5772  0724  2F26               	goto	u3381
  5773  0725  2F27               	goto	u3380
  5774  0726                     u3381:
  5775  0726  2F58               	goto	l2416
  5776  0727                     u3380:
  5777  0727                     l2408:
  5778  0727  3001               	movlw	1
  5779  0728  07AF               	addwf	___flmul@prod,f
  5780  0729  3000               	movlw	0
  5781  072A  1803               	skipnc
  5782  072B  3001               	movlw	1
  5783  072C  07B0               	addwf	___flmul@prod+1,f
  5784  072D  3000               	movlw	0
  5785  072E  1803               	skipnc
  5786  072F  3001               	movlw	1
  5787  0730  07B1               	addwf	___flmul@prod+2,f
  5788  0731  3000               	movlw	0
  5789  0732  1803               	skipnc
  5790  0733  3001               	movlw	1
  5791  0734  07B2               	addwf	___flmul@prod+3,f
  5792  0735                     l2410:
  5793  0735  1C32               	btfss	___flmul@prod+3,0
  5794  0736  2F38               	goto	u3391
  5795  0737  2F39               	goto	u3390
  5796  0738                     u3391:
  5797  0738  2F58               	goto	l2416
  5798  0739                     u3390:
  5799  0739                     l2412:
  5800  0739  082F               	movf	___flmul@prod,w
  5801  073A  00F9               	movwf	??___flmul
  5802  073B  0830               	movf	___flmul@prod+1,w
  5803  073C  00FA               	movwf	??___flmul+1
  5804  073D  0831               	movf	___flmul@prod+2,w
  5805  073E  00FB               	movwf	??___flmul+2
  5806  073F  0832               	movf	___flmul@prod+3,w
  5807  0740  00FC               	movwf	??___flmul+3
  5808  0741  3001               	movlw	1
  5809  0742  00FD               	movwf	??___flmul+4
  5810  0743                     u3405:
  5811  0743  0D7C               	rlf	??___flmul+3,w
  5812  0744  0CFC               	rrf	??___flmul+3,f
  5813  0745  0CFB               	rrf	??___flmul+2,f
  5814  0746  0CFA               	rrf	??___flmul+1,f
  5815  0747  0CF9               	rrf	??___flmul,f
  5816  0748                     u3400:
  5817  0748  0BFD               	decfsz	??___flmul+4,f
  5818  0749  2F43               	goto	u3405
  5819  074A  087C               	movf	??___flmul+3,w
  5820  074B  00B2               	movwf	___flmul@prod+3
  5821  074C  087B               	movf	??___flmul+2,w
  5822  074D  00B1               	movwf	___flmul@prod+2
  5823  074E  087A               	movf	??___flmul+1,w
  5824  074F  00B0               	movwf	___flmul@prod+1
  5825  0750  0879               	movf	??___flmul,w
  5826  0751  00AF               	movwf	___flmul@prod
  5827  0752                     l2414:
  5828  0752  3001               	movlw	1
  5829  0753  07B3               	addwf	___flmul@temp,f
  5830  0754  1803               	skipnc
  5831  0755  0AB4               	incf	___flmul@temp+1,f
  5832  0756  3000               	movlw	0
  5833  0757  07B4               	addwf	___flmul@temp+1,f
  5834  0758                     l2416:
  5835  0758  0834               	movf	___flmul@temp+1,w
  5836  0759  3A80               	xorlw	128
  5837  075A  00FF               	movwf	btemp+1
  5838  075B  3080               	movlw	128
  5839  075C  027F               	subwf	btemp+1,w
  5840  075D  1D03               	skipz
  5841  075E  2F61               	goto	u3415
  5842  075F  30FF               	movlw	255
  5843  0760  0233               	subwf	___flmul@temp,w
  5844  0761                     u3415:
  5845  0761  1C03               	skipc
  5846  0762  2F64               	goto	u3411
  5847  0763  2F65               	goto	u3410
  5848  0764                     u3411:
  5849  0764  2F70               	goto	l2420
  5850  0765                     u3410:
  5851  0765                     l2418:
  5852  0765  307F               	movlw	127
  5853  0766  1283               	bcf	3,5	;RP0=0, select bank0
  5854  0767  1303               	bcf	3,6	;RP1=0, select bank0
  5855  0768  00B2               	movwf	___flmul@prod+3
  5856  0769  3080               	movlw	128
  5857  076A  00B1               	movwf	___flmul@prod+2
  5858  076B  3000               	movlw	0
  5859  076C  00B0               	movwf	___flmul@prod+1
  5860  076D  3000               	movlw	0
  5861  076E  00AF               	movwf	___flmul@prod
  5862  076F  2FA5               	goto	l663
  5863  0770                     l2420:
  5864  0770  1283               	bcf	3,5	;RP0=0, select bank0
  5865  0771  1303               	bcf	3,6	;RP1=0, select bank0
  5866  0772  0834               	movf	___flmul@temp+1,w
  5867  0773  3A80               	xorlw	128
  5868  0774  00FF               	movwf	btemp+1
  5869  0775  3080               	movlw	128
  5870  0776  027F               	subwf	btemp+1,w
  5871  0777  1D03               	skipz
  5872  0778  2F7B               	goto	u3425
  5873  0779  3001               	movlw	1
  5874  077A  0233               	subwf	___flmul@temp,w
  5875  077B                     u3425:
  5876  077B  1803               	skipnc
  5877  077C  2F7E               	goto	u3421
  5878  077D  2F7F               	goto	u3420
  5879  077E                     u3421:
  5880  077E  2F8B               	goto	l2426
  5881  077F                     u3420:
  5882  077F                     l2422:
  5883  077F  3000               	movlw	0
  5884  0780  1283               	bcf	3,5	;RP0=0, select bank0
  5885  0781  1303               	bcf	3,6	;RP1=0, select bank0
  5886  0782  00B2               	movwf	___flmul@prod+3
  5887  0783  3000               	movlw	0
  5888  0784  00B1               	movwf	___flmul@prod+2
  5889  0785  3000               	movlw	0
  5890  0786  00B0               	movwf	___flmul@prod+1
  5891  0787  3000               	movlw	0
  5892  0788  00AF               	movwf	___flmul@prod
  5893  0789                     l2424:
  5894  0789  01A8               	clrf	___flmul@sign
  5895  078A  2FA5               	goto	l663
  5896  078B                     l2426:
  5897  078B  1283               	bcf	3,5	;RP0=0, select bank0
  5898  078C  1303               	bcf	3,6	;RP1=0, select bank0
  5899  078D  0833               	movf	___flmul@temp,w
  5900  078E  00F9               	movwf	??___flmul
  5901  078F  0879               	movf	??___flmul,w
  5902  0790  00AE               	movwf	___flmul@bexp
  5903  0791  30FF               	movlw	255
  5904  0792  05AF               	andwf	___flmul@prod,f
  5905  0793  30FF               	movlw	255
  5906  0794  05B0               	andwf	___flmul@prod+1,f
  5907  0795  307F               	movlw	127
  5908  0796  05B1               	andwf	___flmul@prod+2,f
  5909  0797  3000               	movlw	0
  5910  0798  05B2               	andwf	___flmul@prod+3,f
  5911  0799                     l2428:
  5912  0799  1C2E               	btfss	___flmul@bexp,0
  5913  079A  2F9C               	goto	u3431
  5914  079B  2F9D               	goto	u3430
  5915  079C                     u3431:
  5916  079C  2F9E               	goto	l2432
  5917  079D                     u3430:
  5918  079D                     l2430:
  5919  079D  17B1               	bsf	___flmul@prod+2,7
  5920  079E                     l2432:
  5921  079E  082E               	movf	___flmul@bexp,w
  5922  079F  00F9               	movwf	??___flmul
  5923  07A0  1003               	clrc
  5924  07A1  0C79               	rrf	??___flmul,w
  5925  07A2  00FA               	movwf	??___flmul+1
  5926  07A3  087A               	movf	??___flmul+1,w
  5927  07A4  00B2               	movwf	___flmul@prod+3
  5928  07A5                     l663:
  5929  07A5  0828               	movf	___flmul@sign,w
  5930  07A6  00F9               	movwf	??___flmul
  5931  07A7  0879               	movf	??___flmul,w
  5932  07A8  04B2               	iorwf	___flmul@prod+3,f
  5933  07A9                     l2434:
  5934  07A9  0832               	movf	___flmul@prod+3,w
  5935  07AA  00A3               	movwf	?___flmul+3
  5936  07AB  0831               	movf	___flmul@prod+2,w
  5937  07AC  00A2               	movwf	?___flmul+2
  5938  07AD  0830               	movf	___flmul@prod+1,w
  5939  07AE  00A1               	movwf	?___flmul+1
  5940  07AF  082F               	movf	___flmul@prod,w
  5941  07B0  00A0               	movwf	?___flmul
  5942  07B1                     l651:
  5943  07B1  0008               	return
  5944  07B2                     __end_of___flmul:
  5945                           
  5946                           	psect	text15
  5947  16A5                     __ptext15:	
  5948 ;; *************** function __Umul8_16 *****************
  5949 ;; Defined at:
  5950 ;;		line 4 in file "C:\Program Files\Microchip\xc8\v2.32\pic\sources\c90\common\Umul8_16.c"
  5951 ;; Parameters:    Size  Location     Type
  5952 ;;  multiplier      1    wreg     unsigned char 
  5953 ;;  multiplicand    1    0[COMMON] unsigned char 
  5954 ;; Auto vars:     Size  Location     Type
  5955 ;;  multiplier      1    8[COMMON] unsigned char 
  5956 ;;  word_mpld       2    6[COMMON] unsigned int 
  5957 ;;  product         2    4[COMMON] unsigned int 
  5958 ;; Return value:  Size  Location     Type
  5959 ;;                  2    0[COMMON] unsigned int 
  5960 ;; Registers used:
  5961 ;;		wreg, status,2, status,0
  5962 ;; Tracked objects:
  5963 ;;		On entry : 0/0
  5964 ;;		On exit  : 0/0
  5965 ;;		Unchanged: 0/0
  5966 ;; Data sizes:     COMMON   BANK0   BANK1   BANK3   BANK2
  5967 ;;      Params:         2       0       0       0       0
  5968 ;;      Locals:         5       0       0       0       0
  5969 ;;      Temps:          2       0       0       0       0
  5970 ;;      Totals:         9       0       0       0       0
  5971 ;;Total ram usage:        9 bytes
  5972 ;; Hardware stack levels used: 1
  5973 ;; This function calls:
  5974 ;;		Nothing
  5975 ;; This function is called by:
  5976 ;;		___flmul
  5977 ;; This function uses a non-reentrant model
  5978 ;;
  5979                           
  5980                           
  5981                           ;psect for function __Umul8_16
  5982  16A5                     __Umul8_16:
  5983                           
  5984                           ;incstack = 0
  5985                           ; Regs used in __Umul8_16: [wreg+status,2+status,0]
  5986                           ;__Umul8_16@multiplier stored from wreg
  5987  16A5  00F8               	movwf	__Umul8_16@multiplier
  5988  16A6                     l2036:
  5989  16A6  01F4               	clrf	__Umul8_16@product
  5990  16A7  01F5               	clrf	__Umul8_16@product+1
  5991  16A8                     l2038:
  5992  16A8  0870               	movf	__Umul8_16@multiplicand,w
  5993  16A9  00F2               	movwf	??__Umul8_16
  5994  16AA  01F3               	clrf	??__Umul8_16+1
  5995  16AB  0872               	movf	??__Umul8_16,w
  5996  16AC  00F6               	movwf	__Umul8_16@word_mpld
  5997  16AD  0873               	movf	??__Umul8_16+1,w
  5998  16AE  00F7               	movwf	__Umul8_16@word_mpld+1
  5999  16AF                     l2040:
  6000  16AF  1C78               	btfss	__Umul8_16@multiplier,0
  6001  16B0  2EB2               	goto	u2551
  6002  16B1  2EB3               	goto	u2550
  6003  16B2                     u2551:
  6004  16B2  2EB9               	goto	l670
  6005  16B3                     u2550:
  6006  16B3                     l2042:
  6007  16B3  0876               	movf	__Umul8_16@word_mpld,w
  6008  16B4  07F4               	addwf	__Umul8_16@product,f
  6009  16B5  1803               	skipnc
  6010  16B6  0AF5               	incf	__Umul8_16@product+1,f
  6011  16B7  0877               	movf	__Umul8_16@word_mpld+1,w
  6012  16B8  07F5               	addwf	__Umul8_16@product+1,f
  6013  16B9                     l670:
  6014  16B9  3001               	movlw	1
  6015  16BA                     u2565:
  6016  16BA  1003               	clrc
  6017  16BB  0DF6               	rlf	__Umul8_16@word_mpld,f
  6018  16BC  0DF7               	rlf	__Umul8_16@word_mpld+1,f
  6019  16BD  3EFF               	addlw	-1
  6020  16BE  1D03               	skipz
  6021  16BF  2EBA               	goto	u2565
  6022  16C0  1003               	clrc
  6023  16C1  0CF8               	rrf	__Umul8_16@multiplier,f
  6024  16C2                     l2044:
  6025  16C2  0878               	movf	__Umul8_16@multiplier,w
  6026  16C3  1D03               	btfss	3,2
  6027  16C4  2EC6               	goto	u2571
  6028  16C5  2EC7               	goto	u2570
  6029  16C6                     u2571:
  6030  16C6  2EAF               	goto	l2040
  6031  16C7                     u2570:
  6032  16C7                     l2046:
  6033  16C7  0875               	movf	__Umul8_16@product+1,w
  6034  16C8  00F1               	movwf	?__Umul8_16+1
  6035  16C9  0874               	movf	__Umul8_16@product,w
  6036  16CA  00F0               	movwf	?__Umul8_16
  6037  16CB                     l672:
  6038  16CB  0008               	return
  6039  16CC                     __end_of__Umul8_16:
  6040                           
  6041                           	psect	text16
  6042  08F4                     __ptext16:	
  6043 ;; *************** function ___flge *****************
  6044 ;; Defined at:
  6045 ;;		line 4 in file "C:\Program Files\Microchip\xc8\v2.32\pic\sources\c90\common\flge.c"
  6046 ;; Parameters:    Size  Location     Type
  6047 ;;  ff1             4    0[COMMON] unsigned int 
  6048 ;;  ff2             4    4[COMMON] unsigned int 
  6049 ;; Auto vars:     Size  Location     Type
  6050 ;;		None
  6051 ;; Return value:  Size  Location     Type
  6052 ;;		None               void
  6053 ;; Registers used:
  6054 ;;		wreg, status,2, status,0
  6055 ;; Tracked objects:
  6056 ;;		On entry : 0/0
  6057 ;;		On exit  : 0/0
  6058 ;;		Unchanged: 0/0
  6059 ;; Data sizes:     COMMON   BANK0   BANK1   BANK3   BANK2
  6060 ;;      Params:         8       0       0       0       0
  6061 ;;      Locals:         0       0       0       0       0
  6062 ;;      Temps:          4       0       0       0       0
  6063 ;;      Totals:        12       0       0       0       0
  6064 ;;Total ram usage:       12 bytes
  6065 ;; Hardware stack levels used: 1
  6066 ;; This function calls:
  6067 ;;		Nothing
  6068 ;; This function is called by:
  6069 ;;		_floattostr_
  6070 ;;		_main
  6071 ;; This function uses a non-reentrant model
  6072 ;;
  6073                           
  6074                           
  6075                           ;psect for function ___flge
  6076  08F4                     ___flge:
  6077  08F4                     l2086:	
  6078                           ;incstack = 0
  6079                           ; Regs used in ___flge: [wreg+status,2+status,0]
  6080                           
  6081  08F4  3000               	movlw	0
  6082  08F5  0570               	andwf	___flge@ff1,w
  6083  08F6  00F8               	movwf	??___flge
  6084  08F7  3000               	movlw	0
  6085  08F8  0571               	andwf	___flge@ff1+1,w
  6086  08F9  00F9               	movwf	??___flge+1
  6087  08FA  3080               	movlw	128
  6088  08FB  0572               	andwf	___flge@ff1+2,w
  6089  08FC  00FA               	movwf	??___flge+2
  6090  08FD  307F               	movlw	127
  6091  08FE  0573               	andwf	___flge@ff1+3,w
  6092  08FF  00FB               	movwf	??___flge+3
  6093  0900  087B               	movf	??___flge+3,w
  6094  0901  047A               	iorwf	??___flge+2,w
  6095  0902  0479               	iorwf	??___flge+1,w
  6096  0903  0478               	iorwf	??___flge,w
  6097  0904  1D03               	skipz
  6098  0905  2907               	goto	u2591
  6099  0906  2908               	goto	u2590
  6100  0907                     u2591:
  6101  0907  2910               	goto	l436
  6102  0908                     u2590:
  6103  0908                     l2088:
  6104  0908  3000               	movlw	0
  6105  0909  00F3               	movwf	___flge@ff1+3
  6106  090A  3000               	movlw	0
  6107  090B  00F2               	movwf	___flge@ff1+2
  6108  090C  3000               	movlw	0
  6109  090D  00F1               	movwf	___flge@ff1+1
  6110  090E  3000               	movlw	0
  6111  090F  00F0               	movwf	___flge@ff1
  6112  0910                     l436:
  6113  0910  3000               	movlw	0
  6114  0911  0574               	andwf	___flge@ff2,w
  6115  0912  00F8               	movwf	??___flge
  6116  0913  3000               	movlw	0
  6117  0914  0575               	andwf	___flge@ff2+1,w
  6118  0915  00F9               	movwf	??___flge+1
  6119  0916  3080               	movlw	128
  6120  0917  0576               	andwf	___flge@ff2+2,w
  6121  0918  00FA               	movwf	??___flge+2
  6122  0919  307F               	movlw	127
  6123  091A  0577               	andwf	___flge@ff2+3,w
  6124  091B  00FB               	movwf	??___flge+3
  6125  091C  087B               	movf	??___flge+3,w
  6126  091D  047A               	iorwf	??___flge+2,w
  6127  091E  0479               	iorwf	??___flge+1,w
  6128  091F  0478               	iorwf	??___flge,w
  6129  0920  1D03               	skipz
  6130  0921  2923               	goto	u2601
  6131  0922  2924               	goto	u2600
  6132  0923                     u2601:
  6133  0923  292C               	goto	l2092
  6134  0924                     u2600:
  6135  0924                     l2090:
  6136  0924  3000               	movlw	0
  6137  0925  00F7               	movwf	___flge@ff2+3
  6138  0926  3000               	movlw	0
  6139  0927  00F6               	movwf	___flge@ff2+2
  6140  0928  3000               	movlw	0
  6141  0929  00F5               	movwf	___flge@ff2+1
  6142  092A  3000               	movlw	0
  6143  092B  00F4               	movwf	___flge@ff2
  6144  092C                     l2092:
  6145  092C  1FF3               	btfss	___flge@ff1+3,7
  6146  092D  292F               	goto	u2611
  6147  092E  2930               	goto	u2610
  6148  092F                     u2611:
  6149  092F  2954               	goto	l2096
  6150  0930                     u2610:
  6151  0930                     l2094:
  6152  0930  3000               	movlw	0
  6153  0931  00F8               	movwf	??___flge
  6154  0932  3000               	movlw	0
  6155  0933  00F9               	movwf	??___flge+1
  6156  0934  3000               	movlw	0
  6157  0935  00FA               	movwf	??___flge+2
  6158  0936  3080               	movlw	128
  6159  0937  00FB               	movwf	??___flge+3
  6160  0938  0870               	movf	___flge@ff1,w
  6161  0939  02F8               	subwf	??___flge,f
  6162  093A  0871               	movf	___flge@ff1+1,w
  6163  093B  1C03               	skipc
  6164  093C  0F71               	incfsz	___flge@ff1+1,w
  6165  093D  293F               	goto	u2621
  6166  093E  2940               	goto	u2622
  6167  093F                     u2621:
  6168  093F  02F9               	subwf	??___flge+1,f
  6169  0940                     u2622:
  6170  0940  0872               	movf	___flge@ff1+2,w
  6171  0941  1C03               	skipc
  6172  0942  0F72               	incfsz	___flge@ff1+2,w
  6173  0943  2945               	goto	u2623
  6174  0944  2946               	goto	u2624
  6175  0945                     u2623:
  6176  0945  02FA               	subwf	??___flge+2,f
  6177  0946                     u2624:
  6178  0946  0873               	movf	___flge@ff1+3,w
  6179  0947  1C03               	skipc
  6180  0948  0F73               	incfsz	___flge@ff1+3,w
  6181  0949  294B               	goto	u2625
  6182  094A  294C               	goto	u2626
  6183  094B                     u2625:
  6184  094B  02FB               	subwf	??___flge+3,f
  6185  094C                     u2626:
  6186  094C  087B               	movf	??___flge+3,w
  6187  094D  00F3               	movwf	___flge@ff1+3
  6188  094E  087A               	movf	??___flge+2,w
  6189  094F  00F2               	movwf	___flge@ff1+2
  6190  0950  0879               	movf	??___flge+1,w
  6191  0951  00F1               	movwf	___flge@ff1+1
  6192  0952  0878               	movf	??___flge,w
  6193  0953  00F0               	movwf	___flge@ff1
  6194  0954                     l2096:
  6195  0954  1FF7               	btfss	___flge@ff2+3,7
  6196  0955  2957               	goto	u2631
  6197  0956  2958               	goto	u2630
  6198  0957                     u2631:
  6199  0957  297C               	goto	l439
  6200  0958                     u2630:
  6201  0958                     l2098:
  6202  0958  3000               	movlw	0
  6203  0959  00F8               	movwf	??___flge
  6204  095A  3000               	movlw	0
  6205  095B  00F9               	movwf	??___flge+1
  6206  095C  3000               	movlw	0
  6207  095D  00FA               	movwf	??___flge+2
  6208  095E  3080               	movlw	128
  6209  095F  00FB               	movwf	??___flge+3
  6210  0960  0874               	movf	___flge@ff2,w
  6211  0961  02F8               	subwf	??___flge,f
  6212  0962  0875               	movf	___flge@ff2+1,w
  6213  0963  1C03               	skipc
  6214  0964  0F75               	incfsz	___flge@ff2+1,w
  6215  0965  2967               	goto	u2641
  6216  0966  2968               	goto	u2642
  6217  0967                     u2641:
  6218  0967  02F9               	subwf	??___flge+1,f
  6219  0968                     u2642:
  6220  0968  0876               	movf	___flge@ff2+2,w
  6221  0969  1C03               	skipc
  6222  096A  0F76               	incfsz	___flge@ff2+2,w
  6223  096B  296D               	goto	u2643
  6224  096C  296E               	goto	u2644
  6225  096D                     u2643:
  6226  096D  02FA               	subwf	??___flge+2,f
  6227  096E                     u2644:
  6228  096E  0877               	movf	___flge@ff2+3,w
  6229  096F  1C03               	skipc
  6230  0970  0F77               	incfsz	___flge@ff2+3,w
  6231  0971  2973               	goto	u2645
  6232  0972  2974               	goto	u2646
  6233  0973                     u2645:
  6234  0973  02FB               	subwf	??___flge+3,f
  6235  0974                     u2646:
  6236  0974  087B               	movf	??___flge+3,w
  6237  0975  00F7               	movwf	___flge@ff2+3
  6238  0976  087A               	movf	??___flge+2,w
  6239  0977  00F6               	movwf	___flge@ff2+2
  6240  0978  0879               	movf	??___flge+1,w
  6241  0979  00F5               	movwf	___flge@ff2+1
  6242  097A  0878               	movf	??___flge,w
  6243  097B  00F4               	movwf	___flge@ff2
  6244  097C                     l439:
  6245  097C  3080               	movlw	128
  6246  097D  06F3               	xorwf	___flge@ff1+3,f
  6247  097E  3080               	movlw	128
  6248  097F  06F7               	xorwf	___flge@ff2+3,f
  6249  0980  0877               	movf	___flge@ff2+3,w
  6250  0981  0273               	subwf	___flge@ff1+3,w
  6251  0982  1D03               	skipz
  6252  0983  298E               	goto	u2655
  6253  0984  0876               	movf	___flge@ff2+2,w
  6254  0985  0272               	subwf	___flge@ff1+2,w
  6255  0986  1D03               	skipz
  6256  0987  298E               	goto	u2655
  6257  0988  0875               	movf	___flge@ff2+1,w
  6258  0989  0271               	subwf	___flge@ff1+1,w
  6259  098A  1D03               	skipz
  6260  098B  298E               	goto	u2655
  6261  098C  0874               	movf	___flge@ff2,w
  6262  098D  0270               	subwf	___flge@ff1,w
  6263  098E                     u2655:
  6264  098E  1803               	skipnc
  6265  098F  2991               	goto	u2651
  6266  0990  2992               	goto	u2650
  6267  0991                     u2651:
  6268  0991  2994               	goto	l2102
  6269  0992                     u2650:
  6270  0992                     l2100:
  6271  0992  1003               	clrc
  6272  0993  2995               	goto	l440
  6273  0994                     l2102:
  6274  0994  1403               	setc
  6275  0995                     l440:
  6276  0995  0008               	return
  6277  0996                     __end_of___flge:
  6278                           
  6279                           	psect	text17
  6280  0996                     __ptext17:	
  6281 ;; *************** function ___fldiv *****************
  6282 ;; Defined at:
  6283 ;;		line 8 in file "C:\Program Files\Microchip\xc8\v2.32\pic\sources\c90\common\sprcdiv.c"
  6284 ;; Parameters:    Size  Location     Type
  6285 ;;  a               4    0[COMMON] unsigned int 
  6286 ;;  b               4    4[COMMON] unsigned int 
  6287 ;; Auto vars:     Size  Location     Type
  6288 ;;  grs             4    7[BANK0 ] unsigned long 
  6289 ;;  rem             4    0[BANK0 ] unsigned long 
  6290 ;;  new_exp         2    5[BANK0 ] int 
  6291 ;;  aexp            1   12[BANK0 ] unsigned char 
  6292 ;;  bexp            1   11[BANK0 ] unsigned char 
  6293 ;;  sign            1    4[BANK0 ] unsigned char 
  6294 ;; Return value:  Size  Location     Type
  6295 ;;                  4    0[COMMON] unsigned char 
  6296 ;; Registers used:
  6297 ;;		wreg, status,2, status,0, btemp+1
  6298 ;; Tracked objects:
  6299 ;;		On entry : 0/0
  6300 ;;		On exit  : 0/0
  6301 ;;		Unchanged: 0/0
  6302 ;; Data sizes:     COMMON   BANK0   BANK1   BANK3   BANK2
  6303 ;;      Params:         8       0       0       0       0
  6304 ;;      Locals:         0      13       0       0       0
  6305 ;;      Temps:          5       0       0       0       0
  6306 ;;      Totals:        13      13       0       0       0
  6307 ;;Total ram usage:       26 bytes
  6308 ;; Hardware stack levels used: 1
  6309 ;; This function calls:
  6310 ;;		Nothing
  6311 ;; This function is called by:
  6312 ;;		_floattostr_
  6313 ;;		_main
  6314 ;; This function uses a non-reentrant model
  6315 ;;
  6316                           
  6317                           
  6318                           ;psect for function ___fldiv
  6319  0996                     ___fldiv:
  6320  0996                     l2156:	
  6321                           ;incstack = 0
  6322                           ; Regs used in ___fldiv: [wreg+status,2+status,0+btemp+1]
  6323                           
  6324  0996  0877               	movf	___fldiv@b+3,w
  6325  0997  3980               	andlw	128
  6326  0998  00F8               	movwf	??___fldiv
  6327  0999  0878               	movf	??___fldiv,w
  6328  099A  1283               	bcf	3,5	;RP0=0, select bank0
  6329  099B  1303               	bcf	3,6	;RP1=0, select bank0
  6330  099C  00A4               	movwf	___fldiv@sign
  6331  099D                     l2158:
  6332  099D  0877               	movf	___fldiv@b+3,w
  6333  099E  00F8               	movwf	??___fldiv
  6334  099F  0778               	addwf	??___fldiv,w
  6335  09A0  00F9               	movwf	??___fldiv+1
  6336  09A1  0879               	movf	??___fldiv+1,w
  6337  09A2  00AB               	movwf	___fldiv@bexp
  6338  09A3                     l2160:
  6339  09A3  1FF6               	btfss	___fldiv@b+2,7
  6340  09A4  29A6               	goto	u2771
  6341  09A5  29A7               	goto	u2770
  6342  09A6                     u2771:
  6343  09A6  29A8               	goto	l2164
  6344  09A7                     u2770:
  6345  09A7                     l2162:
  6346  09A7  142B               	bsf	___fldiv@bexp,0
  6347  09A8                     l2164:
  6348  09A8  082B               	movf	___fldiv@bexp,w
  6349  09A9  1903               	btfsc	3,2
  6350  09AA  29AC               	goto	u2781
  6351  09AB  29AD               	goto	u2780
  6352  09AC                     u2781:
  6353  09AC  29BD               	goto	l2174
  6354  09AD                     u2780:
  6355  09AD                     l2166:
  6356  09AD  0A2B               	incf	___fldiv@bexp,w
  6357  09AE  1D03               	btfss	3,2
  6358  09AF  29B1               	goto	u2791
  6359  09B0  29B2               	goto	u2790
  6360  09B1                     u2791:
  6361  09B1  29BA               	goto	l2170
  6362  09B2                     u2790:
  6363  09B2                     l2168:
  6364  09B2  3000               	movlw	0
  6365  09B3  00F7               	movwf	___fldiv@b+3
  6366  09B4  3000               	movlw	0
  6367  09B5  00F6               	movwf	___fldiv@b+2
  6368  09B6  3000               	movlw	0
  6369  09B7  00F5               	movwf	___fldiv@b+1
  6370  09B8  3000               	movlw	0
  6371  09B9  00F4               	movwf	___fldiv@b
  6372  09BA                     l2170:
  6373  09BA  17F6               	bsf	___fldiv@b+2,7
  6374  09BB                     l2172:
  6375  09BB  01F7               	clrf	___fldiv@b+3
  6376  09BC  29C5               	goto	l2176
  6377  09BD                     l2174:
  6378  09BD  3000               	movlw	0
  6379  09BE  00F7               	movwf	___fldiv@b+3
  6380  09BF  3000               	movlw	0
  6381  09C0  00F6               	movwf	___fldiv@b+2
  6382  09C1  3000               	movlw	0
  6383  09C2  00F5               	movwf	___fldiv@b+1
  6384  09C3  3000               	movlw	0
  6385  09C4  00F4               	movwf	___fldiv@b
  6386  09C5                     l2176:
  6387  09C5  0873               	movf	___fldiv@a+3,w
  6388  09C6  3980               	andlw	128
  6389  09C7  00F8               	movwf	??___fldiv
  6390  09C8  0878               	movf	??___fldiv,w
  6391  09C9  06A4               	xorwf	___fldiv@sign,f
  6392  09CA                     l2178:
  6393  09CA  0873               	movf	___fldiv@a+3,w
  6394  09CB  00F8               	movwf	??___fldiv
  6395  09CC  0778               	addwf	??___fldiv,w
  6396  09CD  00F9               	movwf	??___fldiv+1
  6397  09CE  0879               	movf	??___fldiv+1,w
  6398  09CF  00AC               	movwf	___fldiv@aexp
  6399  09D0                     l2180:
  6400  09D0  1FF2               	btfss	___fldiv@a+2,7
  6401  09D1  29D3               	goto	u2801
  6402  09D2  29D4               	goto	u2800
  6403  09D3                     u2801:
  6404  09D3  29D5               	goto	l2184
  6405  09D4                     u2800:
  6406  09D4                     l2182:
  6407  09D4  142C               	bsf	___fldiv@aexp,0
  6408  09D5                     l2184:
  6409  09D5  082C               	movf	___fldiv@aexp,w
  6410  09D6  1903               	btfsc	3,2
  6411  09D7  29D9               	goto	u2811
  6412  09D8  29DA               	goto	u2810
  6413  09D9                     u2811:
  6414  09D9  29EA               	goto	l2194
  6415  09DA                     u2810:
  6416  09DA                     l2186:
  6417  09DA  0A2C               	incf	___fldiv@aexp,w
  6418  09DB  1D03               	btfss	3,2
  6419  09DC  29DE               	goto	u2821
  6420  09DD  29DF               	goto	u2820
  6421  09DE                     u2821:
  6422  09DE  29E7               	goto	l2190
  6423  09DF                     u2820:
  6424  09DF                     l2188:
  6425  09DF  3000               	movlw	0
  6426  09E0  00F3               	movwf	___fldiv@a+3
  6427  09E1  3000               	movlw	0
  6428  09E2  00F2               	movwf	___fldiv@a+2
  6429  09E3  3000               	movlw	0
  6430  09E4  00F1               	movwf	___fldiv@a+1
  6431  09E5  3000               	movlw	0
  6432  09E6  00F0               	movwf	___fldiv@a
  6433  09E7                     l2190:
  6434  09E7  17F2               	bsf	___fldiv@a+2,7
  6435  09E8                     l2192:
  6436  09E8  01F3               	clrf	___fldiv@a+3
  6437  09E9  29F2               	goto	l611
  6438  09EA                     l2194:
  6439  09EA  3000               	movlw	0
  6440  09EB  00F3               	movwf	___fldiv@a+3
  6441  09EC  3000               	movlw	0
  6442  09ED  00F2               	movwf	___fldiv@a+2
  6443  09EE  3000               	movlw	0
  6444  09EF  00F1               	movwf	___fldiv@a+1
  6445  09F0  3000               	movlw	0
  6446  09F1  00F0               	movwf	___fldiv@a
  6447  09F2                     l611:
  6448  09F2  0873               	movf	___fldiv@a+3,w
  6449  09F3  0472               	iorwf	___fldiv@a+2,w
  6450  09F4  0471               	iorwf	___fldiv@a+1,w
  6451  09F5  0470               	iorwf	___fldiv@a,w
  6452  09F6  1D03               	skipz
  6453  09F7  29F9               	goto	u2831
  6454  09F8  29FA               	goto	u2830
  6455  09F9                     u2831:
  6456  09F9  2A13               	goto	l2204
  6457  09FA                     u2830:
  6458  09FA                     l2196:
  6459  09FA  3000               	movlw	0
  6460  09FB  00F7               	movwf	___fldiv@b+3
  6461  09FC  3000               	movlw	0
  6462  09FD  00F6               	movwf	___fldiv@b+2
  6463  09FE  3000               	movlw	0
  6464  09FF  00F5               	movwf	___fldiv@b+1
  6465  0A00  3000               	movlw	0
  6466  0A01  00F4               	movwf	___fldiv@b
  6467  0A02  3080               	movlw	128
  6468  0A03  04F6               	iorwf	___fldiv@b+2,f
  6469  0A04  307F               	movlw	127
  6470  0A05  04F7               	iorwf	___fldiv@b+3,f
  6471  0A06                     l2198:
  6472  0A06  0824               	movf	___fldiv@sign,w
  6473  0A07  00F8               	movwf	??___fldiv
  6474  0A08  0878               	movf	??___fldiv,w
  6475  0A09  04F7               	iorwf	___fldiv@b+3,f
  6476  0A0A                     l2200:
  6477  0A0A  0877               	movf	___fldiv@b+3,w
  6478  0A0B  00F3               	movwf	?___fldiv+3
  6479  0A0C  0876               	movf	___fldiv@b+2,w
  6480  0A0D  00F2               	movwf	?___fldiv+2
  6481  0A0E  0875               	movf	___fldiv@b+1,w
  6482  0A0F  00F1               	movwf	?___fldiv+1
  6483  0A10  0874               	movf	___fldiv@b,w
  6484  0A11  00F0               	movwf	?___fldiv
  6485  0A12  2B78               	goto	l613
  6486  0A13                     l2204:
  6487  0A13  082B               	movf	___fldiv@bexp,w
  6488  0A14  1D03               	btfss	3,2
  6489  0A15  2A17               	goto	u2841
  6490  0A16  2A18               	goto	u2840
  6491  0A17                     u2841:
  6492  0A17  2A21               	goto	l2210
  6493  0A18                     u2840:
  6494  0A18                     l2206:
  6495  0A18  3000               	movlw	0
  6496  0A19  00F3               	movwf	?___fldiv+3
  6497  0A1A  3000               	movlw	0
  6498  0A1B  00F2               	movwf	?___fldiv+2
  6499  0A1C  3000               	movlw	0
  6500  0A1D  00F1               	movwf	?___fldiv+1
  6501  0A1E  3000               	movlw	0
  6502  0A1F  00F0               	movwf	?___fldiv
  6503  0A20  2B78               	goto	l613
  6504  0A21                     l2210:
  6505  0A21  082B               	movf	___fldiv@bexp,w
  6506  0A22  00F8               	movwf	??___fldiv
  6507  0A23  01F9               	clrf	??___fldiv+1
  6508  0A24  0879               	movf	??___fldiv+1,w
  6509  0A25  00FB               	movwf	??___fldiv+3
  6510  0A26  082C               	movf	___fldiv@aexp,w
  6511  0A27  0278               	subwf	??___fldiv,w
  6512  0A28  00FA               	movwf	??___fldiv+2
  6513  0A29  1C03               	skipc
  6514  0A2A  03FB               	decf	??___fldiv+3,f
  6515  0A2B  087A               	movf	??___fldiv+2,w
  6516  0A2C  3E7F               	addlw	127
  6517  0A2D  00A5               	movwf	___fldiv@new_exp
  6518  0A2E  087B               	movf	??___fldiv+3,w
  6519  0A2F  1803               	skipnc
  6520  0A30  3E01               	addlw	1
  6521  0A31  3E00               	addlw	0
  6522  0A32  00A6               	movwf	___fldiv@new_exp+1
  6523  0A33                     l2212:
  6524  0A33  0877               	movf	___fldiv@b+3,w
  6525  0A34  00A3               	movwf	___fldiv@rem+3
  6526  0A35  0876               	movf	___fldiv@b+2,w
  6527  0A36  00A2               	movwf	___fldiv@rem+2
  6528  0A37  0875               	movf	___fldiv@b+1,w
  6529  0A38  00A1               	movwf	___fldiv@rem+1
  6530  0A39  0874               	movf	___fldiv@b,w
  6531  0A3A  00A0               	movwf	___fldiv@rem
  6532  0A3B                     l2214:
  6533  0A3B  3000               	movlw	0
  6534  0A3C  00F7               	movwf	___fldiv@b+3
  6535  0A3D  3000               	movlw	0
  6536  0A3E  00F6               	movwf	___fldiv@b+2
  6537  0A3F  3000               	movlw	0
  6538  0A40  00F5               	movwf	___fldiv@b+1
  6539  0A41  3000               	movlw	0
  6540  0A42  00F4               	movwf	___fldiv@b
  6541  0A43                     l2216:
  6542  0A43  3000               	movlw	0
  6543  0A44  00AA               	movwf	___fldiv@grs+3
  6544  0A45  3000               	movlw	0
  6545  0A46  00A9               	movwf	___fldiv@grs+2
  6546  0A47  3000               	movlw	0
  6547  0A48  00A8               	movwf	___fldiv@grs+1
  6548  0A49  3000               	movlw	0
  6549  0A4A  00A7               	movwf	___fldiv@grs
  6550  0A4B                     l2218:
  6551  0A4B  01AC               	clrf	___fldiv@aexp
  6552  0A4C  2A9D               	goto	l2238
  6553  0A4D                     l2220:
  6554  0A4D  082C               	movf	___fldiv@aexp,w
  6555  0A4E  1903               	btfsc	3,2
  6556  0A4F  2A51               	goto	u2851
  6557  0A50  2A52               	goto	u2850
  6558  0A51                     u2851:
  6559  0A51  2A72               	goto	l2230
  6560  0A52                     u2850:
  6561  0A52                     l2222:
  6562  0A52  3001               	movlw	1
  6563  0A53  00F8               	movwf	??___fldiv
  6564  0A54                     u2865:
  6565  0A54  1003               	clrc
  6566  0A55  0DA0               	rlf	___fldiv@rem,f
  6567  0A56  0DA1               	rlf	___fldiv@rem+1,f
  6568  0A57  0DA2               	rlf	___fldiv@rem+2,f
  6569  0A58  0DA3               	rlf	___fldiv@rem+3,f
  6570  0A59  0BF8               	decfsz	??___fldiv,f
  6571  0A5A  2A54               	goto	u2865
  6572  0A5B  3001               	movlw	1
  6573  0A5C  00F8               	movwf	??___fldiv
  6574  0A5D                     u2875:
  6575  0A5D  1003               	clrc
  6576  0A5E  0DF4               	rlf	___fldiv@b,f
  6577  0A5F  0DF5               	rlf	___fldiv@b+1,f
  6578  0A60  0DF6               	rlf	___fldiv@b+2,f
  6579  0A61  0DF7               	rlf	___fldiv@b+3,f
  6580  0A62  0BF8               	decfsz	??___fldiv,f
  6581  0A63  2A5D               	goto	u2875
  6582  0A64                     l2224:
  6583  0A64  1FAA               	btfss	___fldiv@grs+3,7
  6584  0A65  2A67               	goto	u2881
  6585  0A66  2A68               	goto	u2880
  6586  0A67                     u2881:
  6587  0A67  2A69               	goto	l2228
  6588  0A68                     u2880:
  6589  0A68                     l2226:
  6590  0A68  1474               	bsf	___fldiv@b,0
  6591  0A69                     l2228:
  6592  0A69  3001               	movlw	1
  6593  0A6A  00F8               	movwf	??___fldiv
  6594  0A6B                     u2895:
  6595  0A6B  1003               	clrc
  6596  0A6C  0DA7               	rlf	___fldiv@grs,f
  6597  0A6D  0DA8               	rlf	___fldiv@grs+1,f
  6598  0A6E  0DA9               	rlf	___fldiv@grs+2,f
  6599  0A6F  0DAA               	rlf	___fldiv@grs+3,f
  6600  0A70  0BF8               	decfsz	??___fldiv,f
  6601  0A71  2A6B               	goto	u2895
  6602  0A72                     l2230:
  6603  0A72  0873               	movf	___fldiv@a+3,w
  6604  0A73  0223               	subwf	___fldiv@rem+3,w
  6605  0A74  1D03               	skipz
  6606  0A75  2A80               	goto	u2905
  6607  0A76  0872               	movf	___fldiv@a+2,w
  6608  0A77  0222               	subwf	___fldiv@rem+2,w
  6609  0A78  1D03               	skipz
  6610  0A79  2A80               	goto	u2905
  6611  0A7A  0871               	movf	___fldiv@a+1,w
  6612  0A7B  0221               	subwf	___fldiv@rem+1,w
  6613  0A7C  1D03               	skipz
  6614  0A7D  2A80               	goto	u2905
  6615  0A7E  0870               	movf	___fldiv@a,w
  6616  0A7F  0220               	subwf	___fldiv@rem,w
  6617  0A80                     u2905:
  6618  0A80  1C03               	skipc
  6619  0A81  2A83               	goto	u2901
  6620  0A82  2A84               	goto	u2900
  6621  0A83                     u2901:
  6622  0A83  2A99               	goto	l2236
  6623  0A84                     u2900:
  6624  0A84                     l2232:
  6625  0A84  172A               	bsf	___fldiv@grs+3,6
  6626  0A85                     l2234:
  6627  0A85  0870               	movf	___fldiv@a,w
  6628  0A86  02A0               	subwf	___fldiv@rem,f
  6629  0A87  0871               	movf	___fldiv@a+1,w
  6630  0A88  1C03               	skipc
  6631  0A89  0F71               	incfsz	___fldiv@a+1,w
  6632  0A8A  2A8C               	goto	u2915
  6633  0A8B  2A8D               	goto	u2916
  6634  0A8C                     u2915:
  6635  0A8C  02A1               	subwf	___fldiv@rem+1,f
  6636  0A8D                     u2916:
  6637  0A8D  0872               	movf	___fldiv@a+2,w
  6638  0A8E  1C03               	skipc
  6639  0A8F  0F72               	incfsz	___fldiv@a+2,w
  6640  0A90  2A92               	goto	u2917
  6641  0A91  2A93               	goto	u2918
  6642  0A92                     u2917:
  6643  0A92  02A2               	subwf	___fldiv@rem+2,f
  6644  0A93                     u2918:
  6645  0A93  0873               	movf	___fldiv@a+3,w
  6646  0A94  1C03               	skipc
  6647  0A95  0F73               	incfsz	___fldiv@a+3,w
  6648  0A96  2A98               	goto	u2919
  6649  0A97  2A99               	goto	u2910
  6650  0A98                     u2919:
  6651  0A98  02A3               	subwf	___fldiv@rem+3,f
  6652  0A99                     u2910:
  6653  0A99                     l2236:
  6654  0A99  3001               	movlw	1
  6655  0A9A  00F8               	movwf	??___fldiv
  6656  0A9B  0878               	movf	??___fldiv,w
  6657  0A9C  07AC               	addwf	___fldiv@aexp,f
  6658  0A9D                     l2238:
  6659  0A9D  301A               	movlw	26
  6660  0A9E  022C               	subwf	___fldiv@aexp,w
  6661  0A9F  1C03               	skipc
  6662  0AA0  2AA2               	goto	u2921
  6663  0AA1  2AA3               	goto	u2920
  6664  0AA2                     u2921:
  6665  0AA2  2A4D               	goto	l2220
  6666  0AA3                     u2920:
  6667  0AA3                     l2240:
  6668  0AA3  0823               	movf	___fldiv@rem+3,w
  6669  0AA4  0422               	iorwf	___fldiv@rem+2,w
  6670  0AA5  0421               	iorwf	___fldiv@rem+1,w
  6671  0AA6  0420               	iorwf	___fldiv@rem,w
  6672  0AA7  1903               	skipnz
  6673  0AA8  2AAA               	goto	u2931
  6674  0AA9  2AAB               	goto	u2930
  6675  0AAA                     u2931:
  6676  0AAA  2ACA               	goto	l2254
  6677  0AAB                     u2930:
  6678  0AAB                     l2242:
  6679  0AAB  1427               	bsf	___fldiv@grs,0
  6680  0AAC  2ACA               	goto	l2254
  6681  0AAD                     l2244:
  6682  0AAD  3001               	movlw	1
  6683  0AAE  00F8               	movwf	??___fldiv
  6684  0AAF                     u2945:
  6685  0AAF  1003               	clrc
  6686  0AB0  0DF4               	rlf	___fldiv@b,f
  6687  0AB1  0DF5               	rlf	___fldiv@b+1,f
  6688  0AB2  0DF6               	rlf	___fldiv@b+2,f
  6689  0AB3  0DF7               	rlf	___fldiv@b+3,f
  6690  0AB4  0BF8               	decfsz	??___fldiv,f
  6691  0AB5  2AAF               	goto	u2945
  6692  0AB6                     l2246:
  6693  0AB6  1FAA               	btfss	___fldiv@grs+3,7
  6694  0AB7  2AB9               	goto	u2951
  6695  0AB8  2ABA               	goto	u2950
  6696  0AB9                     u2951:
  6697  0AB9  2ABB               	goto	l2250
  6698  0ABA                     u2950:
  6699  0ABA                     l2248:
  6700  0ABA  1474               	bsf	___fldiv@b,0
  6701  0ABB                     l2250:
  6702  0ABB  3001               	movlw	1
  6703  0ABC  00F8               	movwf	??___fldiv
  6704  0ABD                     u2965:
  6705  0ABD  1003               	clrc
  6706  0ABE  0DA7               	rlf	___fldiv@grs,f
  6707  0ABF  0DA8               	rlf	___fldiv@grs+1,f
  6708  0AC0  0DA9               	rlf	___fldiv@grs+2,f
  6709  0AC1  0DAA               	rlf	___fldiv@grs+3,f
  6710  0AC2  0BF8               	decfsz	??___fldiv,f
  6711  0AC3  2ABD               	goto	u2965
  6712  0AC4                     l2252:
  6713  0AC4  30FF               	movlw	255
  6714  0AC5  07A5               	addwf	___fldiv@new_exp,f
  6715  0AC6  1803               	skipnc
  6716  0AC7  0AA6               	incf	___fldiv@new_exp+1,f
  6717  0AC8  30FF               	movlw	255
  6718  0AC9  07A6               	addwf	___fldiv@new_exp+1,f
  6719  0ACA                     l2254:
  6720  0ACA  1FF6               	btfss	___fldiv@b+2,7
  6721  0ACB  2ACD               	goto	u2971
  6722  0ACC  2ACE               	goto	u2970
  6723  0ACD                     u2971:
  6724  0ACD  2AAD               	goto	l2244
  6725  0ACE                     u2970:
  6726  0ACE                     l2256:
  6727  0ACE  01AC               	clrf	___fldiv@aexp
  6728  0ACF                     l2258:
  6729  0ACF  1FAA               	btfss	___fldiv@grs+3,7
  6730  0AD0  2AD2               	goto	u2981
  6731  0AD1  2AD3               	goto	u2980
  6732  0AD2                     u2981:
  6733  0AD2  2AEF               	goto	l2266
  6734  0AD3                     u2980:
  6735  0AD3                     l2260:
  6736  0AD3  30FF               	movlw	255
  6737  0AD4  0527               	andwf	___fldiv@grs,w
  6738  0AD5  00F8               	movwf	??___fldiv
  6739  0AD6  30FF               	movlw	255
  6740  0AD7  0528               	andwf	___fldiv@grs+1,w
  6741  0AD8  00F9               	movwf	??___fldiv+1
  6742  0AD9  30FF               	movlw	255
  6743  0ADA  0529               	andwf	___fldiv@grs+2,w
  6744  0ADB  00FA               	movwf	??___fldiv+2
  6745  0ADC  307F               	movlw	127
  6746  0ADD  052A               	andwf	___fldiv@grs+3,w
  6747  0ADE  00FB               	movwf	??___fldiv+3
  6748  0ADF  087B               	movf	??___fldiv+3,w
  6749  0AE0  047A               	iorwf	??___fldiv+2,w
  6750  0AE1  0479               	iorwf	??___fldiv+1,w
  6751  0AE2  0478               	iorwf	??___fldiv,w
  6752  0AE3  1903               	skipnz
  6753  0AE4  2AE6               	goto	u2991
  6754  0AE5  2AE7               	goto	u2990
  6755  0AE6                     u2991:
  6756  0AE6  2AEA               	goto	l627
  6757  0AE7                     u2990:
  6758  0AE7                     l2262:
  6759  0AE7  01AC               	clrf	___fldiv@aexp
  6760  0AE8  0AAC               	incf	___fldiv@aexp,f
  6761  0AE9  2AEF               	goto	l2266
  6762  0AEA                     l627:
  6763  0AEA  1C74               	btfss	___fldiv@b,0
  6764  0AEB  2AED               	goto	u3001
  6765  0AEC  2AEE               	goto	u3000
  6766  0AED                     u3001:
  6767  0AED  2AEF               	goto	l2266
  6768  0AEE                     u3000:
  6769  0AEE  2AE7               	goto	l2262
  6770  0AEF                     l2266:
  6771  0AEF  082C               	movf	___fldiv@aexp,w
  6772  0AF0  1903               	btfsc	3,2
  6773  0AF1  2AF3               	goto	u3011
  6774  0AF2  2AF4               	goto	u3010
  6775  0AF3                     u3011:
  6776  0AF3  2B25               	goto	l2276
  6777  0AF4                     u3010:
  6778  0AF4                     l2268:
  6779  0AF4  3001               	movlw	1
  6780  0AF5  07F4               	addwf	___fldiv@b,f
  6781  0AF6  3000               	movlw	0
  6782  0AF7  1803               	skipnc
  6783  0AF8  3001               	movlw	1
  6784  0AF9  07F5               	addwf	___fldiv@b+1,f
  6785  0AFA  3000               	movlw	0
  6786  0AFB  1803               	skipnc
  6787  0AFC  3001               	movlw	1
  6788  0AFD  07F6               	addwf	___fldiv@b+2,f
  6789  0AFE  3000               	movlw	0
  6790  0AFF  1803               	skipnc
  6791  0B00  3001               	movlw	1
  6792  0B01  07F7               	addwf	___fldiv@b+3,f
  6793  0B02                     l2270:
  6794  0B02  1C77               	btfss	___fldiv@b+3,0
  6795  0B03  2B05               	goto	u3021
  6796  0B04  2B06               	goto	u3020
  6797  0B05                     u3021:
  6798  0B05  2B25               	goto	l2276
  6799  0B06                     u3020:
  6800  0B06                     l2272:
  6801  0B06  0874               	movf	___fldiv@b,w
  6802  0B07  00F8               	movwf	??___fldiv
  6803  0B08  0875               	movf	___fldiv@b+1,w
  6804  0B09  00F9               	movwf	??___fldiv+1
  6805  0B0A  0876               	movf	___fldiv@b+2,w
  6806  0B0B  00FA               	movwf	??___fldiv+2
  6807  0B0C  0877               	movf	___fldiv@b+3,w
  6808  0B0D  00FB               	movwf	??___fldiv+3
  6809  0B0E  3001               	movlw	1
  6810  0B0F  00FC               	movwf	??___fldiv+4
  6811  0B10                     u3035:
  6812  0B10  0D7B               	rlf	??___fldiv+3,w
  6813  0B11  0CFB               	rrf	??___fldiv+3,f
  6814  0B12  0CFA               	rrf	??___fldiv+2,f
  6815  0B13  0CF9               	rrf	??___fldiv+1,f
  6816  0B14  0CF8               	rrf	??___fldiv,f
  6817  0B15                     u3030:
  6818  0B15  0BFC               	decfsz	??___fldiv+4,f
  6819  0B16  2B10               	goto	u3035
  6820  0B17  087B               	movf	??___fldiv+3,w
  6821  0B18  00F7               	movwf	___fldiv@b+3
  6822  0B19  087A               	movf	??___fldiv+2,w
  6823  0B1A  00F6               	movwf	___fldiv@b+2
  6824  0B1B  0879               	movf	??___fldiv+1,w
  6825  0B1C  00F5               	movwf	___fldiv@b+1
  6826  0B1D  0878               	movf	??___fldiv,w
  6827  0B1E  00F4               	movwf	___fldiv@b
  6828  0B1F                     l2274:
  6829  0B1F  3001               	movlw	1
  6830  0B20  07A5               	addwf	___fldiv@new_exp,f
  6831  0B21  1803               	skipnc
  6832  0B22  0AA6               	incf	___fldiv@new_exp+1,f
  6833  0B23  3000               	movlw	0
  6834  0B24  07A6               	addwf	___fldiv@new_exp+1,f
  6835  0B25                     l2276:
  6836  0B25  0826               	movf	___fldiv@new_exp+1,w
  6837  0B26  3A80               	xorlw	128
  6838  0B27  00FF               	movwf	btemp+1
  6839  0B28  3080               	movlw	128
  6840  0B29  027F               	subwf	btemp+1,w
  6841  0B2A  1D03               	skipz
  6842  0B2B  2B2E               	goto	u3045
  6843  0B2C  30FF               	movlw	255
  6844  0B2D  0225               	subwf	___fldiv@new_exp,w
  6845  0B2E                     u3045:
  6846  0B2E  1C03               	skipc
  6847  0B2F  2B31               	goto	u3041
  6848  0B30  2B32               	goto	u3040
  6849  0B31                     u3041:
  6850  0B31  2B40               	goto	l2280
  6851  0B32                     u3040:
  6852  0B32                     l2278:
  6853  0B32  30FF               	movlw	255
  6854  0B33  1283               	bcf	3,5	;RP0=0, select bank0
  6855  0B34  1303               	bcf	3,6	;RP1=0, select bank0
  6856  0B35  00A5               	movwf	___fldiv@new_exp
  6857  0B36  3000               	movlw	0
  6858  0B37  00A6               	movwf	___fldiv@new_exp+1
  6859  0B38  3000               	movlw	0
  6860  0B39  00F7               	movwf	___fldiv@b+3
  6861  0B3A  3000               	movlw	0
  6862  0B3B  00F6               	movwf	___fldiv@b+2
  6863  0B3C  3000               	movlw	0
  6864  0B3D  00F5               	movwf	___fldiv@b+1
  6865  0B3E  3000               	movlw	0
  6866  0B3F  00F4               	movwf	___fldiv@b
  6867  0B40                     l2280:
  6868  0B40  1283               	bcf	3,5	;RP0=0, select bank0
  6869  0B41  1303               	bcf	3,6	;RP1=0, select bank0
  6870  0B42  0826               	movf	___fldiv@new_exp+1,w
  6871  0B43  3A80               	xorlw	128
  6872  0B44  00FF               	movwf	btemp+1
  6873  0B45  3080               	movlw	128
  6874  0B46  027F               	subwf	btemp+1,w
  6875  0B47  1D03               	skipz
  6876  0B48  2B4B               	goto	u3055
  6877  0B49  3001               	movlw	1
  6878  0B4A  0225               	subwf	___fldiv@new_exp,w
  6879  0B4B                     u3055:
  6880  0B4B  1803               	skipnc
  6881  0B4C  2B4E               	goto	u3051
  6882  0B4D  2B4F               	goto	u3050
  6883  0B4E                     u3051:
  6884  0B4E  2B5C               	goto	l633
  6885  0B4F                     u3050:
  6886  0B4F                     l2282:
  6887  0B4F  1283               	bcf	3,5	;RP0=0, select bank0
  6888  0B50  1303               	bcf	3,6	;RP1=0, select bank0
  6889  0B51  01A5               	clrf	___fldiv@new_exp
  6890  0B52  01A6               	clrf	___fldiv@new_exp+1
  6891  0B53                     l2284:
  6892  0B53  3000               	movlw	0
  6893  0B54  00F7               	movwf	___fldiv@b+3
  6894  0B55  3000               	movlw	0
  6895  0B56  00F6               	movwf	___fldiv@b+2
  6896  0B57  3000               	movlw	0
  6897  0B58  00F5               	movwf	___fldiv@b+1
  6898  0B59  3000               	movlw	0
  6899  0B5A  00F4               	movwf	___fldiv@b
  6900  0B5B                     l2286:
  6901  0B5B  01A4               	clrf	___fldiv@sign
  6902  0B5C                     l633:
  6903  0B5C  1283               	bcf	3,5	;RP0=0, select bank0
  6904  0B5D  1303               	bcf	3,6	;RP1=0, select bank0
  6905  0B5E  0825               	movf	___fldiv@new_exp,w
  6906  0B5F  00F8               	movwf	??___fldiv
  6907  0B60  0878               	movf	??___fldiv,w
  6908  0B61  00AB               	movwf	___fldiv@bexp
  6909  0B62                     l2288:
  6910  0B62  1C2B               	btfss	___fldiv@bexp,0
  6911  0B63  2B65               	goto	u3061
  6912  0B64  2B66               	goto	u3060
  6913  0B65                     u3061:
  6914  0B65  2B68               	goto	l2292
  6915  0B66                     u3060:
  6916  0B66                     l2290:
  6917  0B66  17F6               	bsf	___fldiv@b+2,7
  6918  0B67  2B6C               	goto	l635
  6919  0B68                     l2292:
  6920  0B68  307F               	movlw	127
  6921  0B69  00F8               	movwf	??___fldiv
  6922  0B6A  0878               	movf	??___fldiv,w
  6923  0B6B  05F6               	andwf	___fldiv@b+2,f
  6924  0B6C                     l635:
  6925  0B6C  082B               	movf	___fldiv@bexp,w
  6926  0B6D  00F8               	movwf	??___fldiv
  6927  0B6E  1003               	clrc
  6928  0B6F  0C78               	rrf	??___fldiv,w
  6929  0B70  00F9               	movwf	??___fldiv+1
  6930  0B71  0879               	movf	??___fldiv+1,w
  6931  0B72  00F7               	movwf	___fldiv@b+3
  6932  0B73  0824               	movf	___fldiv@sign,w
  6933  0B74  00F8               	movwf	??___fldiv
  6934  0B75  0878               	movf	??___fldiv,w
  6935  0B76  04F7               	iorwf	___fldiv@b+3,f
  6936  0B77  2A0A               	goto	l2200
  6937  0B78                     l613:
  6938  0B78  0008               	return
  6939  0B79                     __end_of___fldiv:
  6940                           
  6941                           	psect	text18
  6942  16CC                     __ptext18:	
  6943 ;; *************** function _Lcd_Write_String *****************
  6944 ;; Defined at:
  6945 ;;		line 66 in file "LCDP1.c"
  6946 ;; Parameters:    Size  Location     Type
  6947 ;;  a               2    3[COMMON] PTR unsigned char 
  6948 ;;		 -> tarart(25), STR_2(6), texto(25), STR_1(5), 
  6949 ;;		 -> offsett(25), 
  6950 ;; Auto vars:     Size  Location     Type
  6951 ;;  i               2    8[COMMON] int 
  6952 ;; Return value:  Size  Location     Type
  6953 ;;                  1    wreg      void 
  6954 ;; Registers used:
  6955 ;;		wreg, fsr0l, fsr0h, status,2, status,0, btemp+1, pclath, cstack
  6956 ;; Tracked objects:
  6957 ;;		On entry : 0/0
  6958 ;;		On exit  : 0/0
  6959 ;;		Unchanged: 0/0
  6960 ;; Data sizes:     COMMON   BANK0   BANK1   BANK3   BANK2
  6961 ;;      Params:         2       0       0       0       0
  6962 ;;      Locals:         2       0       0       0       0
  6963 ;;      Temps:          3       0       0       0       0
  6964 ;;      Totals:         7       0       0       0       0
  6965 ;;Total ram usage:        7 bytes
  6966 ;; Hardware stack levels used: 1
  6967 ;; Hardware stack levels required when called: 2
  6968 ;; This function calls:
  6969 ;;		_Lcd_Write_Char
  6970 ;; This function is called by:
  6971 ;;		_main
  6972 ;; This function uses a non-reentrant model
  6973 ;;
  6974                           
  6975                           
  6976                           ;psect for function _Lcd_Write_String
  6977  16CC                     _Lcd_Write_String:
  6978  16CC                     l2618:	
  6979                           ;incstack = 0
  6980                           ; Regs used in _Lcd_Write_String: [wreg-fsr0h+status,2+status,0+btemp+1+pclath+cstack]
  6981                           
  6982                           
  6983                           ;LCDP1.c: 67:     int i;;LCDP1.c: 68:     for (i = 0; a[i] != '\0'; i++)
  6984  16CC  01F8               	clrf	Lcd_Write_String@i
  6985  16CD  01F9               	clrf	Lcd_Write_String@i+1
  6986  16CE  2EF1               	goto	l2624
  6987  16CF                     l2620:
  6988                           
  6989                           ;LCDP1.c: 69:         Lcd_Write_Char(a[i]);
  6990  16CF  0878               	movf	Lcd_Write_String@i,w
  6991  16D0  0773               	addwf	Lcd_Write_String@a,w
  6992  16D1  00F6               	movwf	??_Lcd_Write_String+1
  6993  16D2  0874               	movf	Lcd_Write_String@a+1,w
  6994  16D3  00F5               	movwf	??_Lcd_Write_String
  6995  16D4  1803               	skipnc
  6996  16D5  0AF5               	incf	??_Lcd_Write_String,f
  6997  16D6  1FF8               	btfss	Lcd_Write_String@i,7
  6998  16D7  2ED9               	goto	u3710
  6999  16D8  03F5               	decf	??_Lcd_Write_String,f
  7000  16D9                     u3710:
  7001  16D9  0875               	movf	??_Lcd_Write_String,w
  7002  16DA  00F7               	movwf	??_Lcd_Write_String+2
  7003  16DB  0877               	movf	??_Lcd_Write_String+2,w
  7004  16DC  1283               	bcf	3,5	;RP0=0, select bank0
  7005  16DD  1303               	bcf	3,6	;RP1=0, select bank0
  7006  16DE  00FF               	movwf	btemp+1
  7007  16DF  0876               	movf	??_Lcd_Write_String+1,w
  7008  16E0  0084               	movwf	4
  7009  16E1  160A  118A  2000  160A  118A  	fcall	stringtab
  7010  16E6  160A  118A  25FC  160A  118A  	fcall	_Lcd_Write_Char
  7011  16EB                     l2622:
  7012  16EB  3001               	movlw	1
  7013  16EC  07F8               	addwf	Lcd_Write_String@i,f
  7014  16ED  1803               	skipnc
  7015  16EE  0AF9               	incf	Lcd_Write_String@i+1,f
  7016  16EF  3000               	movlw	0
  7017  16F0  07F9               	addwf	Lcd_Write_String@i+1,f
  7018  16F1                     l2624:
  7019  16F1  0878               	movf	Lcd_Write_String@i,w
  7020  16F2  0773               	addwf	Lcd_Write_String@a,w
  7021  16F3  00F6               	movwf	??_Lcd_Write_String+1
  7022  16F4  0874               	movf	Lcd_Write_String@a+1,w
  7023  16F5  00F5               	movwf	??_Lcd_Write_String
  7024  16F6  1803               	skipnc
  7025  16F7  0AF5               	incf	??_Lcd_Write_String,f
  7026  16F8  1FF8               	btfss	Lcd_Write_String@i,7
  7027  16F9  2EFB               	goto	u3720
  7028  16FA  03F5               	decf	??_Lcd_Write_String,f
  7029  16FB                     u3720:
  7030  16FB  0875               	movf	??_Lcd_Write_String,w
  7031  16FC  00F7               	movwf	??_Lcd_Write_String+2
  7032  16FD  0877               	movf	??_Lcd_Write_String+2,w
  7033  16FE  1283               	bcf	3,5	;RP0=0, select bank0
  7034  16FF  1303               	bcf	3,6	;RP1=0, select bank0
  7035  1700  00FF               	movwf	btemp+1
  7036  1701  0876               	movf	??_Lcd_Write_String+1,w
  7037  1702  0084               	movwf	4
  7038  1703  160A  118A  2000  160A  118A  	fcall	stringtab
  7039  1708  3A00               	xorlw	0
  7040  1709  1D03               	skipz
  7041  170A  2F0C               	goto	u3731
  7042  170B  2F0D               	goto	u3730
  7043  170C                     u3731:
  7044  170C  2ECF               	goto	l2620
  7045  170D                     u3730:
  7046  170D                     l170:
  7047  170D  0008               	return
  7048  170E                     __end_of_Lcd_Write_String:
  7049                           
  7050                           	psect	text19
  7051  15FC                     __ptext19:	
  7052 ;; *************** function _Lcd_Write_Char *****************
  7053 ;; Defined at:
  7054 ;;		line 58 in file "LCDP1.c"
  7055 ;; Parameters:    Size  Location     Type
  7056 ;;  a               1    wreg     unsigned char 
  7057 ;; Auto vars:     Size  Location     Type
  7058 ;;  a               1    2[COMMON] unsigned char 
  7059 ;; Return value:  Size  Location     Type
  7060 ;;                  1    wreg      void 
  7061 ;; Registers used:
  7062 ;;		wreg, status,2, status,0, pclath, cstack
  7063 ;; Tracked objects:
  7064 ;;		On entry : 0/0
  7065 ;;		On exit  : 0/0
  7066 ;;		Unchanged: 0/0
  7067 ;; Data sizes:     COMMON   BANK0   BANK1   BANK3   BANK2
  7068 ;;      Params:         0       0       0       0       0
  7069 ;;      Locals:         1       0       0       0       0
  7070 ;;      Temps:          1       0       0       0       0
  7071 ;;      Totals:         2       0       0       0       0
  7072 ;;Total ram usage:        2 bytes
  7073 ;; Hardware stack levels used: 1
  7074 ;; Hardware stack levels required when called: 1
  7075 ;; This function calls:
  7076 ;;		_Lcd_Port
  7077 ;; This function is called by:
  7078 ;;		_Lcd_Write_String
  7079 ;; This function uses a non-reentrant model
  7080 ;;
  7081                           
  7082                           
  7083                           ;psect for function _Lcd_Write_Char
  7084  15FC                     _Lcd_Write_Char:
  7085                           
  7086                           ;incstack = 0
  7087                           ; Regs used in _Lcd_Write_Char: [wreg+status,2+status,0+pclath+cstack]
  7088                           ;Lcd_Write_Char@a stored from wreg
  7089  15FC  00F2               	movwf	Lcd_Write_Char@a
  7090  15FD                     l2076:
  7091                           
  7092                           ;LCDP1.c: 59:     PORTEbits.RE0 = 1;
  7093  15FD  1283               	bcf	3,5	;RP0=0, select bank0
  7094  15FE  1303               	bcf	3,6	;RP1=0, select bank0
  7095  15FF  1409               	bsf	9,0	;volatile
  7096  1600                     l2078:
  7097                           
  7098                           ;LCDP1.c: 60:     Lcd_Port(a);
  7099  1600  0872               	movf	Lcd_Write_Char@a,w
  7100  1601  160A  118A  25C1  160A  118A  	fcall	_Lcd_Port
  7101  1606                     l2080:
  7102                           
  7103                           ;LCDP1.c: 61:     PORTEbits.RE2 = 1;
  7104  1606  1283               	bcf	3,5	;RP0=0, select bank0
  7105  1607  1303               	bcf	3,6	;RP1=0, select bank0
  7106  1608  1509               	bsf	9,2	;volatile
  7107  1609                     l2082:
  7108                           
  7109                           ;LCDP1.c: 62:     _delay((unsigned long)((10)*(8000000/4000000.0)));
  7110  1609  3006               	movlw	6
  7111  160A  00F1               	movwf	??_Lcd_Write_Char
  7112  160B                     u4017:
  7113  160B  0BF1               	decfsz	??_Lcd_Write_Char,f
  7114  160C  2E0B               	goto	u4017
  7115  160D  0000               	nop
  7116  160E                     l2084:
  7117                           
  7118                           ;LCDP1.c: 63:     PORTEbits.RE2 = 0;
  7119  160E  1283               	bcf	3,5	;RP0=0, select bank0
  7120  160F  1303               	bcf	3,6	;RP1=0, select bank0
  7121  1610  1109               	bcf	9,2	;volatile
  7122  1611                     l164:
  7123  1611  0008               	return
  7124  1612                     __end_of_Lcd_Write_Char:
  7125                           
  7126                           	psect	text20
  7127  165D                     __ptext20:	
  7128 ;; *************** function _Lcd_Set_Cursor *****************
  7129 ;; Defined at:
  7130 ;;		line 33 in file "LCDP1.c"
  7131 ;; Parameters:    Size  Location     Type
  7132 ;;  a               1    wreg     unsigned char 
  7133 ;;  b               1    4[COMMON] unsigned char 
  7134 ;; Auto vars:     Size  Location     Type
  7135 ;;  a               1    6[COMMON] unsigned char 
  7136 ;;  temp            1    7[COMMON] unsigned char 
  7137 ;; Return value:  Size  Location     Type
  7138 ;;                  1    wreg      void 
  7139 ;; Registers used:
  7140 ;;		wreg, status,2, status,0, pclath, cstack
  7141 ;; Tracked objects:
  7142 ;;		On entry : 0/0
  7143 ;;		On exit  : 0/0
  7144 ;;		Unchanged: 0/0
  7145 ;; Data sizes:     COMMON   BANK0   BANK1   BANK3   BANK2
  7146 ;;      Params:         1       0       0       0       0
  7147 ;;      Locals:         2       0       0       0       0
  7148 ;;      Temps:          1       0       0       0       0
  7149 ;;      Totals:         4       0       0       0       0
  7150 ;;Total ram usage:        4 bytes
  7151 ;; Hardware stack levels used: 1
  7152 ;; Hardware stack levels required when called: 2
  7153 ;; This function calls:
  7154 ;;		_Lcd_Cmd
  7155 ;; This function is called by:
  7156 ;;		_main
  7157 ;; This function uses a non-reentrant model
  7158 ;;
  7159                           
  7160                           
  7161                           ;psect for function _Lcd_Set_Cursor
  7162  165D                     _Lcd_Set_Cursor:
  7163                           
  7164                           ;incstack = 0
  7165                           ; Regs used in _Lcd_Set_Cursor: [wreg+status,2+status,0+pclath+cstack]
  7166                           ;Lcd_Set_Cursor@a stored from wreg
  7167  165D  00F6               	movwf	Lcd_Set_Cursor@a
  7168  165E                     l2606:
  7169                           
  7170                           ;LCDP1.c: 34:    char temp;;LCDP1.c: 35:     if (a == 1) {
  7171  165E  0376               	decf	Lcd_Set_Cursor@a,w
  7172  165F  1D03               	btfss	3,2
  7173  1660  2E62               	goto	u3691
  7174  1661  2E63               	goto	u3690
  7175  1662                     u3691:
  7176  1662  2E6F               	goto	l2612
  7177  1663                     u3690:
  7178  1663                     l2608:
  7179                           
  7180                           ;LCDP1.c: 36:         temp = 0x80 + b - 1;
  7181  1663  0874               	movf	Lcd_Set_Cursor@b,w
  7182  1664  3E7F               	addlw	127
  7183  1665  00F5               	movwf	??_Lcd_Set_Cursor
  7184  1666  0875               	movf	??_Lcd_Set_Cursor,w
  7185  1667  00F7               	movwf	Lcd_Set_Cursor@temp
  7186  1668                     l2610:
  7187                           
  7188                           ;LCDP1.c: 37:         Lcd_Cmd(temp);
  7189  1668  0877               	movf	Lcd_Set_Cursor@temp,w
  7190  1669  160A  118A  2643  160A  118A  	fcall	_Lcd_Cmd
  7191                           
  7192                           ;LCDP1.c: 38:     } else if (a == 2) {
  7193  166E  2E80               	goto	l158
  7194  166F                     l2612:
  7195  166F  3002               	movlw	2
  7196  1670  0676               	xorwf	Lcd_Set_Cursor@a,w
  7197  1671  1D03               	btfss	3,2
  7198  1672  2E74               	goto	u3701
  7199  1673  2E75               	goto	u3700
  7200  1674                     u3701:
  7201  1674  2E80               	goto	l158
  7202  1675                     u3700:
  7203  1675                     l2614:
  7204                           
  7205                           ;LCDP1.c: 39:         temp = 0xC0 + b - 1;
  7206  1675  0874               	movf	Lcd_Set_Cursor@b,w
  7207  1676  3EBF               	addlw	191
  7208  1677  00F5               	movwf	??_Lcd_Set_Cursor
  7209  1678  0875               	movf	??_Lcd_Set_Cursor,w
  7210  1679  00F7               	movwf	Lcd_Set_Cursor@temp
  7211  167A                     l2616:
  7212                           
  7213                           ;LCDP1.c: 40:         Lcd_Cmd(temp);
  7214  167A  0877               	movf	Lcd_Set_Cursor@temp,w
  7215  167B  160A  118A  2643  160A  118A  	fcall	_Lcd_Cmd
  7216  1680                     l158:
  7217  1680  0008               	return
  7218  1681                     __end_of_Lcd_Set_Cursor:
  7219                           
  7220                           	psect	text21
  7221  0812                     __ptext21:	
  7222 ;; *************** function _Lcd_Init *****************
  7223 ;; Defined at:
  7224 ;;		line 44 in file "LCDP1.c"
  7225 ;; Parameters:    Size  Location     Type
  7226 ;;		None
  7227 ;; Auto vars:     Size  Location     Type
  7228 ;;		None
  7229 ;; Return value:  Size  Location     Type
  7230 ;;                  1    wreg      void 
  7231 ;; Registers used:
  7232 ;;		wreg, status,2, status,0, pclath, cstack
  7233 ;; Tracked objects:
  7234 ;;		On entry : 0/0
  7235 ;;		On exit  : 0/0
  7236 ;;		Unchanged: 0/0
  7237 ;; Data sizes:     COMMON   BANK0   BANK1   BANK3   BANK2
  7238 ;;      Params:         0       0       0       0       0
  7239 ;;      Locals:         0       0       0       0       0
  7240 ;;      Temps:          2       0       0       0       0
  7241 ;;      Totals:         2       0       0       0       0
  7242 ;;Total ram usage:        2 bytes
  7243 ;; Hardware stack levels used: 1
  7244 ;; Hardware stack levels required when called: 2
  7245 ;; This function calls:
  7246 ;;		_Lcd_Cmd
  7247 ;;		_Lcd_Port
  7248 ;; This function is called by:
  7249 ;;		_main
  7250 ;; This function uses a non-reentrant model
  7251 ;;
  7252                           
  7253                           
  7254                           ;psect for function _Lcd_Init
  7255  0812                     _Lcd_Init:
  7256  0812                     l2594:	
  7257                           ;incstack = 0
  7258                           ; Regs used in _Lcd_Init: [wreg+status,2+status,0+pclath+cstack]
  7259                           
  7260                           
  7261                           ;LCDP1.c: 45:     Lcd_Port(0x00);
  7262  0812  3000               	movlw	0
  7263  0813  160A  118A  25C1  120A  158A  	fcall	_Lcd_Port
  7264  0818                     l2596:
  7265                           
  7266                           ;LCDP1.c: 46:     _delay((unsigned long)((20)*(8000000/4000.0)));
  7267  0818  3034               	movlw	52
  7268  0819  00F5               	movwf	??_Lcd_Init+1
  7269  081A  30F1               	movlw	241
  7270  081B  00F4               	movwf	??_Lcd_Init
  7271  081C                     u4027:
  7272  081C  0BF4               	decfsz	??_Lcd_Init,f
  7273  081D  281C               	goto	u4027
  7274  081E  0BF5               	decfsz	??_Lcd_Init+1,f
  7275  081F  281C               	goto	u4027
  7276  0820  2821               	nop2
  7277  0821                     l2598:
  7278                           
  7279                           ;LCDP1.c: 47:     Lcd_Cmd(0x30);
  7280  0821  3030               	movlw	48
  7281  0822  160A  118A  2643  120A  158A  	fcall	_Lcd_Cmd
  7282                           
  7283                           ;LCDP1.c: 48:     _delay((unsigned long)((5)*(8000000/4000.0)));
  7284  0827  300D               	movlw	13
  7285  0828  00F5               	movwf	??_Lcd_Init+1
  7286  0829  30FB               	movlw	251
  7287  082A  00F4               	movwf	??_Lcd_Init
  7288  082B                     u4037:
  7289  082B  0BF4               	decfsz	??_Lcd_Init,f
  7290  082C  282B               	goto	u4037
  7291  082D  0BF5               	decfsz	??_Lcd_Init+1,f
  7292  082E  282B               	goto	u4037
  7293  082F  2830               	nop2
  7294  0830                     l2600:
  7295                           
  7296                           ;LCDP1.c: 49:     Lcd_Cmd(0x30);
  7297  0830  3030               	movlw	48
  7298  0831  160A  118A  2643  120A  158A  	fcall	_Lcd_Cmd
  7299  0836                     l2602:
  7300                           
  7301                           ;LCDP1.c: 50:     _delay((unsigned long)((11)*(8000000/4000.0)));
  7302  0836  301D               	movlw	29
  7303  0837  00F5               	movwf	??_Lcd_Init+1
  7304  0838  3091               	movlw	145
  7305  0839  00F4               	movwf	??_Lcd_Init
  7306  083A                     u4047:
  7307  083A  0BF4               	decfsz	??_Lcd_Init,f
  7308  083B  283A               	goto	u4047
  7309  083C  0BF5               	decfsz	??_Lcd_Init+1,f
  7310  083D  283A               	goto	u4047
  7311                           
  7312                           ;LCDP1.c: 51:     Lcd_Cmd(0x30);
  7313  083E  3030               	movlw	48
  7314  083F  160A  118A  2643  120A  158A  	fcall	_Lcd_Cmd
  7315                           
  7316                           ;LCDP1.c: 53:     Lcd_Cmd(0x38);
  7317  0844  3038               	movlw	56
  7318  0845  160A  118A  2643  120A  158A  	fcall	_Lcd_Cmd
  7319                           
  7320                           ;LCDP1.c: 54:     Lcd_Cmd(0x0C);
  7321  084A  300C               	movlw	12
  7322  084B  160A  118A  2643  120A  158A  	fcall	_Lcd_Cmd
  7323                           
  7324                           ;LCDP1.c: 55:     Lcd_Cmd(0x6);
  7325  0850  3006               	movlw	6
  7326  0851  160A  118A  2643  120A  158A  	fcall	_Lcd_Cmd
  7327  0856                     l161:
  7328  0856  0008               	return
  7329  0857                     __end_of_Lcd_Init:
  7330                           
  7331                           	psect	text22
  7332  15DA                     __ptext22:	
  7333 ;; *************** function _Lcd_Clear *****************
  7334 ;; Defined at:
  7335 ;;		line 28 in file "LCDP1.c"
  7336 ;; Parameters:    Size  Location     Type
  7337 ;;		None
  7338 ;; Auto vars:     Size  Location     Type
  7339 ;;		None
  7340 ;; Return value:  Size  Location     Type
  7341 ;;                  1    wreg      void 
  7342 ;; Registers used:
  7343 ;;		wreg, status,2, status,0, pclath, cstack
  7344 ;; Tracked objects:
  7345 ;;		On entry : 0/0
  7346 ;;		On exit  : 0/0
  7347 ;;		Unchanged: 0/0
  7348 ;; Data sizes:     COMMON   BANK0   BANK1   BANK3   BANK2
  7349 ;;      Params:         0       0       0       0       0
  7350 ;;      Locals:         0       0       0       0       0
  7351 ;;      Temps:          0       0       0       0       0
  7352 ;;      Totals:         0       0       0       0       0
  7353 ;;Total ram usage:        0 bytes
  7354 ;; Hardware stack levels used: 1
  7355 ;; Hardware stack levels required when called: 2
  7356 ;; This function calls:
  7357 ;;		_Lcd_Cmd
  7358 ;; This function is called by:
  7359 ;;		_main
  7360 ;; This function uses a non-reentrant model
  7361 ;;
  7362                           
  7363                           
  7364                           ;psect for function _Lcd_Clear
  7365  15DA                     _Lcd_Clear:
  7366  15DA                     l2604:	
  7367                           ;incstack = 0
  7368                           ; Regs used in _Lcd_Clear: [wreg+status,2+status,0+pclath+cstack]
  7369                           
  7370                           
  7371                           ;LCDP1.c: 29:     Lcd_Cmd(0);
  7372  15DA  3000               	movlw	0
  7373  15DB  160A  118A  2643  160A  118A  	fcall	_Lcd_Cmd
  7374                           
  7375                           ;LCDP1.c: 30:     Lcd_Cmd(1);
  7376  15E0  3001               	movlw	1
  7377  15E1  160A  118A  2643  160A  118A  	fcall	_Lcd_Cmd
  7378  15E6                     l152:
  7379  15E6  0008               	return
  7380  15E7                     __end_of_Lcd_Clear:
  7381                           
  7382                           	psect	text23
  7383  1643                     __ptext23:	
  7384 ;; *************** function _Lcd_Cmd *****************
  7385 ;; Defined at:
  7386 ;;		line 20 in file "LCDP1.c"
  7387 ;; Parameters:    Size  Location     Type
  7388 ;;  a               1    wreg     unsigned char 
  7389 ;; Auto vars:     Size  Location     Type
  7390 ;;  a               1    3[COMMON] unsigned char 
  7391 ;; Return value:  Size  Location     Type
  7392 ;;                  1    wreg      void 
  7393 ;; Registers used:
  7394 ;;		wreg, status,2, status,0, pclath, cstack
  7395 ;; Tracked objects:
  7396 ;;		On entry : 0/0
  7397 ;;		On exit  : 0/0
  7398 ;;		Unchanged: 0/0
  7399 ;; Data sizes:     COMMON   BANK0   BANK1   BANK3   BANK2
  7400 ;;      Params:         0       0       0       0       0
  7401 ;;      Locals:         1       0       0       0       0
  7402 ;;      Temps:          2       0       0       0       0
  7403 ;;      Totals:         3       0       0       0       0
  7404 ;;Total ram usage:        3 bytes
  7405 ;; Hardware stack levels used: 1
  7406 ;; Hardware stack levels required when called: 1
  7407 ;; This function calls:
  7408 ;;		_Lcd_Port
  7409 ;; This function is called by:
  7410 ;;		_Lcd_Clear
  7411 ;;		_Lcd_Set_Cursor
  7412 ;;		_Lcd_Init
  7413 ;;		_Lcd_Shift_Right
  7414 ;;		_Lcd_Shift_Left
  7415 ;; This function uses a non-reentrant model
  7416 ;;
  7417                           
  7418                           
  7419                           ;psect for function _Lcd_Cmd
  7420  1643                     _Lcd_Cmd:
  7421                           
  7422                           ;incstack = 0
  7423                           ; Regs used in _Lcd_Cmd: [wreg+status,2+status,0+pclath+cstack]
  7424                           ;Lcd_Cmd@a stored from wreg
  7425  1643  00F3               	movwf	Lcd_Cmd@a
  7426  1644                     l2066:
  7427                           
  7428                           ;LCDP1.c: 21:     PORTEbits.RE0 = 0;
  7429  1644  1283               	bcf	3,5	;RP0=0, select bank0
  7430  1645  1303               	bcf	3,6	;RP1=0, select bank0
  7431  1646  1009               	bcf	9,0	;volatile
  7432  1647                     l2068:
  7433                           
  7434                           ;LCDP1.c: 22:     Lcd_Port(a);
  7435  1647  0873               	movf	Lcd_Cmd@a,w
  7436  1648  160A  118A  25C1  160A  118A  	fcall	_Lcd_Port
  7437  164D                     l2070:
  7438                           
  7439                           ;LCDP1.c: 23:     PORTEbits.RE2 = 1;
  7440  164D  1283               	bcf	3,5	;RP0=0, select bank0
  7441  164E  1303               	bcf	3,6	;RP1=0, select bank0
  7442  164F  1509               	bsf	9,2	;volatile
  7443  1650                     l2072:
  7444                           
  7445                           ;LCDP1.c: 24:     _delay((unsigned long)((4)*(8000000/4000.0)));
  7446  1650  300B               	movlw	11
  7447  1651  00F2               	movwf	??_Lcd_Cmd+1
  7448  1652  3062               	movlw	98
  7449  1653  00F1               	movwf	??_Lcd_Cmd
  7450  1654                     u4057:
  7451  1654  0BF1               	decfsz	??_Lcd_Cmd,f
  7452  1655  2E54               	goto	u4057
  7453  1656  0BF2               	decfsz	??_Lcd_Cmd+1,f
  7454  1657  2E54               	goto	u4057
  7455  1658  0000               	nop
  7456  1659                     l2074:
  7457                           
  7458                           ;LCDP1.c: 25:     PORTEbits.RE2 = 0;
  7459  1659  1283               	bcf	3,5	;RP0=0, select bank0
  7460  165A  1303               	bcf	3,6	;RP1=0, select bank0
  7461  165B  1109               	bcf	9,2	;volatile
  7462  165C                     l149:
  7463  165C  0008               	return
  7464  165D                     __end_of_Lcd_Cmd:
  7465                           
  7466                           	psect	text24
  7467  15C1                     __ptext24:	
  7468 ;; *************** function _Lcd_Port *****************
  7469 ;; Defined at:
  7470 ;;		line 16 in file "LCDP1.c"
  7471 ;; Parameters:    Size  Location     Type
  7472 ;;  a               1    wreg     unsigned char 
  7473 ;; Auto vars:     Size  Location     Type
  7474 ;;  a               1    0[COMMON] unsigned char 
  7475 ;; Return value:  Size  Location     Type
  7476 ;;                  1    wreg      void 
  7477 ;; Registers used:
  7478 ;;		wreg
  7479 ;; Tracked objects:
  7480 ;;		On entry : 0/0
  7481 ;;		On exit  : 0/0
  7482 ;;		Unchanged: 0/0
  7483 ;; Data sizes:     COMMON   BANK0   BANK1   BANK3   BANK2
  7484 ;;      Params:         0       0       0       0       0
  7485 ;;      Locals:         1       0       0       0       0
  7486 ;;      Temps:          0       0       0       0       0
  7487 ;;      Totals:         1       0       0       0       0
  7488 ;;Total ram usage:        1 bytes
  7489 ;; Hardware stack levels used: 1
  7490 ;; This function calls:
  7491 ;;		Nothing
  7492 ;; This function is called by:
  7493 ;;		_Lcd_Cmd
  7494 ;;		_Lcd_Init
  7495 ;;		_Lcd_Write_Char
  7496 ;; This function uses a non-reentrant model
  7497 ;;
  7498                           
  7499                           
  7500                           ;psect for function _Lcd_Port
  7501  15C1                     _Lcd_Port:
  7502                           
  7503                           ;incstack = 0
  7504                           ; Regs used in _Lcd_Port: [wreg]
  7505                           ;Lcd_Port@a stored from wreg
  7506  15C1  00F0               	movwf	Lcd_Port@a
  7507  15C2                     l1800:
  7508                           
  7509                           ;LCDP1.c: 17:         PORTB = a;
  7510  15C2  0870               	movf	Lcd_Port@a,w
  7511  15C3  1283               	bcf	3,5	;RP0=0, select bank0
  7512  15C4  1303               	bcf	3,6	;RP1=0, select bank0
  7513  15C5  0086               	movwf	6	;volatile
  7514  15C6                     l146:
  7515  15C6  0008               	return
  7516  15C7                     __end_of_Lcd_Port:
  7517  007E                     btemp	set	126	;btemp
  7518  007E                     wtemp0	set	126
  7519                           
  7520                           	psect	config
  7521                           
  7522                           ;Config register CONFIG1 @ 0x2007
  7523                           ;	Oscillator Selection bits
  7524                           ;	FOSC = INTRC_NOCLKOUT, INTOSCIO oscillator: I/O function on RA6/OSC2/CLKOUT pin, I/O f
      +                          unction on RA7/OSC1/CLKIN
  7525                           ;	Watchdog Timer Enable bit
  7526                           ;	WDTE = OFF, WDT disabled and can be enabled by SWDTEN bit of the WDTCON register
  7527                           ;	Power-up Timer Enable bit
  7528                           ;	PWRTE = ON, PWRT enabled
  7529                           ;	RE3/MCLR pin function select bit
  7530                           ;	MCLRE = OFF, RE3/MCLR pin function is digital input, MCLR internally tied to VDD
  7531                           ;	Code Protection bit
  7532                           ;	CP = OFF, Program memory code protection is disabled
  7533                           ;	Data Code Protection bit
  7534                           ;	CPD = OFF, Data memory code protection is disabled
  7535                           ;	Brown Out Reset Selection bits
  7536                           ;	BOREN = OFF, BOR disabled
  7537                           ;	Internal External Switchover bit
  7538                           ;	IESO = OFF, Internal/External Switchover mode is disabled
  7539                           ;	Fail-Safe Clock Monitor Enabled bit
  7540                           ;	FCMEN = OFF, Fail-Safe Clock Monitor is disabled
  7541                           ;	Low Voltage Programming Enable bit
  7542                           ;	LVP = OFF, RB3 pin has digital I/O, HV on MCLR must be used for programming
  7543                           ;	In-Circuit Debugger Mode bit
  7544                           ;	DEBUG = 0x1, unprogrammed default
  7545  2007                     	org	8199
  7546  2007  20C4               	dw	8388
  7547                           
  7548                           ;Config register CONFIG2 @ 0x2008
  7549                           ;	Brown-out Reset Selection bit
  7550                           ;	BOR4V = BOR40V, Brown-out Reset set to 4.0V
  7551                           ;	Flash Program Memory Self Write Enable bits
  7552                           ;	WRT = OFF, Write protection off
  7553  2008                     	org	8200
  7554  2008  3FFF               	dw	16383

Data Sizes:
    Strings     11
    Constant    12
    Data        8
    BSS         87
    Persistent  0
    Stack       0

Auto Spaces:
    Space          Size  Autos    Used
    COMMON           14     14      14
    BANK0            80     72      80
    BANK1            80      0      62
    BANK3            96      0      25
    BANK2            96      0       0

Pointer List with Targets:

    Lcd_Write_String@a	PTR unsigned char  size(2) Largest target is 25
		 -> tarart(BANK3[25]), STR_2(CODE[6]), texto(BANK1[25]), STR_1(CODE[5]), 
		 -> offsett(BANK1[25]), 

    floattostr_@cadena_	PTR unsigned char  size(2) Largest target is 25
		 -> tarart(BANK3[25]), texto(BANK1[25]), offsett(BANK1[25]), 


Critical Paths under _main in COMMON

    _main->___flmul
    _main->_tarar
    _hx711_promedio->_hx711_lectura
    _hx711_lectura->_hx711_pulso
    _floattostr_->___flmul
    ___fladd->___fldiv
    ___flmul->__Umul8_16
    _Lcd_Write_String->_Lcd_Write_Char
    _Lcd_Write_Char->_Lcd_Port
    _Lcd_Set_Cursor->_Lcd_Cmd
    _Lcd_Init->_Lcd_Cmd
    _Lcd_Clear->_Lcd_Cmd
    _Lcd_Cmd->_Lcd_Port

Critical Paths under _main in BANK0

    _main->_floattostr_
    _tarar->_hx711_promedio
    _hx711_promedio->_hx711_lectura
    _floattostr_->___flsub
    ___xxtofl->_hx711_promedio
    ___flsub->___xxtofl
    ___fladd->___fldiv

Critical Paths under _main in BANK1

    None.

Critical Paths under _main in BANK3

    None.

Critical Paths under _main in BANK2

    None.

Call Graph Tables:

 ---------------------------------------------------------------------------------
 (Depth) Function   	        Calls       Base Space   Used Autos Params    Refs
 ---------------------------------------------------------------------------------
 (0) _main                                                 9     9      0   23463
                                             63 BANK0      9     9      0
                          _Lcd_Clear
                           _Lcd_Init
                     _Lcd_Set_Cursor
                   _Lcd_Write_String
                            ___fldiv
                             ___flge
                            ___flmul
                           ___xxtofl
                        _floattostr_
                         _hx711_init
                     _hx711_promedio
                              _setup
                              _tarar
 ---------------------------------------------------------------------------------
 (1) _tarar                                                3     2      1    1206
                                             13 COMMON     1     1      0
                                             21 BANK0      2     1      1
                     _hx711_promedio
 ---------------------------------------------------------------------------------
 (2) _hx711_promedio                                      14    10      4    1086
                                              7 BANK0     14    10      4
                            ___aldiv
                      _hx711_lectura
 ---------------------------------------------------------------------------------
 (3) _hx711_lectura                                       19    15      4     270
                                              1 COMMON    12     8      4
                                              0 BANK0      7     7      0
                        _hx711_pulso
 ---------------------------------------------------------------------------------
 (4) _hx711_pulso                                          1     1      0      23
                                              0 COMMON     1     1      0
 ---------------------------------------------------------------------------------
 (3) ___aldiv                                             15     7      8     452
                                              0 COMMON     9     1      8
                                              0 BANK0      6     6      0
 ---------------------------------------------------------------------------------
 (1) _setup                                                0     0      0       0
 ---------------------------------------------------------------------------------
 (1) _hx711_init                                           3     3      0       0
                                              0 COMMON     3     3      0
 ---------------------------------------------------------------------------------
 (1) _floattostr_                                         20    13      7   13599
                                             43 BANK0     20    13      7
                            ___fladd
                            ___fldiv
                             ___flge
                            ___flmul
                            ___flneg
                            ___flsub
                            ___fltol
                           ___xxtofl
 ---------------------------------------------------------------------------------
 (2) ___xxtofl                                            14    10      4     778
                                             21 BANK0     14    10      4
                     _hx711_promedio (ARG)
 ---------------------------------------------------------------------------------
 (2) ___fltol                                             11     7      4     305
                                              0 COMMON    11     7      4
 ---------------------------------------------------------------------------------
 (2) ___flsub                                              8     0      8    2485
                                             35 BANK0      8     0      8
                            ___fladd
                           ___xxtofl (ARG)
 ---------------------------------------------------------------------------------
 (3) ___fladd                                             20    12      8    2288
                                             13 BANK0     20    12      8
                            ___fldiv (ARG)
 ---------------------------------------------------------------------------------
 (2) ___flneg                                              4     0      4     121
                                              0 COMMON     4     0      4
 ---------------------------------------------------------------------------------
 (2) ___flmul                                             26    18      8    2721
                                              9 COMMON     5     5      0
                                              0 BANK0     21    13      8
                          __Umul8_16
 ---------------------------------------------------------------------------------
 (3) __Umul8_16                                            9     7      2     799
                                              0 COMMON     9     7      2
 ---------------------------------------------------------------------------------
 (2) ___flge                                              12     4      8    1094
                                              0 COMMON    12     4      8
 ---------------------------------------------------------------------------------
 (2) ___fldiv                                             26    18      8    1729
                                              0 COMMON    13     5      8
                                              0 BANK0     13    13      0
 ---------------------------------------------------------------------------------
 (1) _Lcd_Write_String                                     7     5      2     514
                                              3 COMMON     7     5      2
                     _Lcd_Write_Char
 ---------------------------------------------------------------------------------
 (2) _Lcd_Write_Char                                       2     2      0      44
                                              1 COMMON     2     2      0
                           _Lcd_Port
 ---------------------------------------------------------------------------------
 (1) _Lcd_Set_Cursor                                       4     3      1     558
                                              4 COMMON     4     3      1
                            _Lcd_Cmd
 ---------------------------------------------------------------------------------
 (1) _Lcd_Init                                             2     2      0      66
                                              4 COMMON     2     2      0
                            _Lcd_Cmd
                           _Lcd_Port
 ---------------------------------------------------------------------------------
 (1) _Lcd_Clear                                            0     0      0      44
                            _Lcd_Cmd
 ---------------------------------------------------------------------------------
 (2) _Lcd_Cmd                                              3     3      0      44
                                              1 COMMON     3     3      0
                           _Lcd_Port
 ---------------------------------------------------------------------------------
 (3) _Lcd_Port                                             1     1      0      22
                                              0 COMMON     1     1      0
 ---------------------------------------------------------------------------------
 Estimated maximum stack depth 4
 ---------------------------------------------------------------------------------

 Call Graph Graphs:

 _main (ROOT)
   _Lcd_Clear
     _Lcd_Cmd
       _Lcd_Port
   _Lcd_Init
     _Lcd_Cmd
     _Lcd_Port
   _Lcd_Set_Cursor
     _Lcd_Cmd
   _Lcd_Write_String
     _Lcd_Write_Char
       _Lcd_Port
   ___fldiv
   ___flge
   ___flmul
     __Umul8_16
   ___xxtofl
     _hx711_promedio (ARG)
       ___aldiv
       _hx711_lectura
         _hx711_pulso
   _floattostr_
     ___fladd
       ___fldiv (ARG)
     ___fldiv
     ___flge
     ___flmul
     ___flneg
     ___flsub
       ___fladd
       ___xxtofl (ARG)
     ___fltol
     ___xxtofl
   _hx711_init
   _hx711_promedio
   _setup
   _tarar
     _hx711_promedio

 Address spaces:
Name               Size   Autos  Total    Cost      Usage
BANK3               60      0      19       9       26.0%
BITBANK3            60      0       0       8        0.0%
SFR3                 0      0       0       4        0.0%
BITSFR3              0      0       0       4        0.0%
BANK2               60      0       0      11        0.0%
BITBANK2            60      0       0      10        0.0%
SFR2                 0      0       0       5        0.0%
BITSFR2              0      0       0       5        0.0%
BANK1               50      0      3E       7       77.5%
BITBANK1            50      0       0       6        0.0%
SFR1                 0      0       0       2        0.0%
BITSFR1              0      0       0       2        0.0%
BANK0               50     48      50       5      100.0%
BITBANK0            50      0       0       4        0.0%
SFR0                 0      0       0       1        0.0%
BITSFR0              0      0       0       1        0.0%
COMMON               E      E       E       1      100.0%
BITCOMMON            E      0       0       0        0.0%
CODE                 0      0       0       0        0.0%
DATA                 0      0      B5      12        0.0%
ABS                  0      0      B5       3        0.0%
NULL                 0      0       0       0        0.0%
STACK                0      0       0       2        0.0%
EEDATA             100      0       0       0        0.0%


Microchip Technology PIC Macro Assembler V2.32 build 20210201212658 
Symbol Table                                                                                   Sun Sep 05 14:14:25 2021

             ___fldiv@aexp 002C               ___fldiv@bexp 002B                          pc 0002  
             ___fldiv@sign 0024             ?_hx711_lectura 0071                         l84 0450  
                       l98 1642                         fsr 0004        __Umul8_16@word_mpld 0076  
                      l112 0811                        l115 00CD                        l109 15FB  
                      l134 1785                        l127 0194                        l152 15E6  
                      l161 0856                        l137 1629                        l146 15C6  
                      l170 170D                        l164 1611                        l149 165C  
                      l158 1680                        l327 086B                        l440 0995  
                      l601 16A4                        l337 08F3                        l611 09F2  
                      l436 0910                        l444 15D9                        l613 0B78  
                      l701 006F                        l439 097C                        l455 17EA  
                      l448 17FF                        l633 0B5C                        l561 0E59  
                      l458 17FF                        l635 0B6C                        l627 0AEA  
                      l651 07B1                        l555 0DDB                        l580 0F71  
                      l708 008B                        l709 0097                        l670 16B9  
                      l663 07A5                        l559 0E82                        l672 16CB  
                      l576 0F4D                        l568 0FFF                        l657 071D  
                      l586 0F93                        l597 0FF3                        l589 0FD1  
                      l598 0FFF                        l695 002A                        l697 00C1  
                      _cal 00D6                        fsr0 0004         floattostr_@cadena_ 004F  
                      indf 0000               ___flmul@aexp 002D               ___flmul@bexp 002E  
             ___flmul@sign 0028               ___flmul@temp 0033               ___flmul@prod 002F  
             ?_floattostr_ 004B         floattostr_@largo_n 0059               ___fltol@exp1 007A  
                     l2000 0F86                       l2010 0F9D                       l2002 0F8A  
                     l2100 0992                       l2020 0FDB                       l2012 0FAB  
                     l2004 0F90                       l2102 0994                       l2110 15D9  
                     l2030 0FEF                       l2022 0FE3                       l2014 0FAF  
                     l2200 0A0A                       l2040 16AF                       l2032 0FFA  
                     l2024 0FE8                       l2016 0FCD                       l2008 0F98  
                     l2120 179A                       l2210 0A21                       l2042 16B3  
                     l2106 15CF                       l2034 0FFE                       l2026 0FE9  
                     l2018 0FD6                       l2130 17BE                       l2122 17AF  
                     l2114 1786                       l2050 1711                       l2220 0A4D  
                     l2212 0A33                       l2204 0A13                       l2044 16C2  
                     l2036 16A6                       l2300 0458                       l2108 15D7  
                     l2028 0FED                       l2124 17B0                       l2116 1791  
                     l2060 175B                       l2052 1719                       l2070 164D  
                     l2222 0A52                       l2230 0A72                       l2214 0A3B  
                     l2206 0A18                       l2046 16C7                       l2038 16A8  
                     l2310 046D                       l2302 045E                       l2150 1681  
                     l2126 17B8                       l2062 1761                       l2054 171B  
                     l2072 1650                       l2080 1606                       l2240 0AA3  
                     l2232 0A84                       l2224 0A64                       l2216 0A43  
                     l2160 09A3                       l2400 0706                       l2320 048A  
                     l2312 0475                       l2304 0462                       l2152 1685  
                     l2144 17DF                       l2136 17C6                       l2128 17BA  
                     l2056 1746                       l2074 1659                       l2066 1644  
                     l2082 1609                       l2250 0ABB                       l2242 0AAB  
                     l2234 0A85                       l2226 0A68                       l2218 0A4B  
                     l2170 09BA                       l2162 09A7                       l2090 0924  
                     l2410 0735                       l2402 071A                       l2330 04A1  
                     l2322 048E                       l2314 0477                       l2306 0463  
                     l2146 17EF                       l2138 17D8                       l2058 1755  
                     l2068 1647                       l2084 160E                       l2076 15FD  
                     l2260 0AD3                       l2252 0AC4                       l2244 0AAD  
                     l2236 0A99                       l2228 0A69                       l2180 09D0  
                     l2172 09BB                       l2164 09A8                       l2156 0996  
                     l2092 092C                       l2420 0770                       l2412 0739  
                     l2332 04A3                       l2324 048F                       l2316 047F  
                     l2308 0468                       l2148 17F4                       l2078 1600  
                     l2270 0B02                       l2262 0AE7                       l2246 0AB6  
                     l2254 0ACA                       l2238 0A9D                       l2190 09E7  
                     l2182 09D4                       l2166 09AD                       l2174 09BD  
                     l2158 099D                       l2094 0930                       l2086 08F4  
                     l2430 079D                       l2422 077F                       l2414 0752  
                     l2406 0722                       l2350 0514                       l2342 04BE  
                     l2334 04AB                       l2326 0494                       l2318 0484  
                     l1800 15C2                       l2600 0830                       l2280 0B40  
                     l2272 0B06                       l2256 0ACE                       l2248 0ABA  
                     l2192 09E8                       l2184 09D5                       l2176 09C5  
                     l2168 09B2                       l2096 0954                       l2088 0908  
                     l2432 079E                       l2424 0789                       l2408 0727  
                     l2416 0758                       l2360 0591                       l2352 0540  
                     l2344 04CE                       l2336 04B0                       l2328 0499  
                     l2440 000E                       l2602 0836                       l2610 1668  
                     l2290 0B66                       l2282 0B4F                       l2274 0B1F  
                     l2266 0AEF                       l2258 0ACF                       l2186 09DA  
                     l2194 09EA                       l2178 09CA                       l2098 0958  
                     l2434 07A9                       l2426 078B                       l2418 0765  
                     l2370 0611                       l2362 05AE                       l2354 055C  
                     l2346 04DB                       l2338 04B5                       l2450 003B  
                     l2442 0012                       l1810 087A                       l1802 0857  
                     l2604 15DA                       l2612 166F                       l2620 16CF  
                     l2292 0B68                       l2284 0B53                       l2268 0AF4  
                     l2276 0B25                       l2196 09FA                       l2188 09DF  
                     l2428 0799                       l2380 06C9                       l2372 063E  
                     l2364 05BE                       l2356 0578                       l2348 04F8  
                     l1900 0DFD                       l2460 0066                       l2452 0040  
                     l2444 0022                       l2700 01FD                       l1820 089E  
                     l1812 087E                       l1804 085A                       l1740 080F  
                     l2614 1675                       l2606 165E                       l2622 16EB  
                     l2286 0B5B                       l2278 0B32                       l2198 0A06  
                     l2390 06EE                       l2382 06D2                       l2374 064E  
                     l2366 05DB                       l2358 0581                       l1910 0E11  
                     l1902 0E01                       l2470 0099                       l2462 0076  
                     l2454 004D                       l2446 0032                       l2438 0009  
                     l2702 021E                       l2710 0267                       l1830 08CC  
                     l1822 08A2                       l1814 0886                       l1806 085E  
                     l1742 0810                       l1734 0804                       l1750 00D5  
                     l2616 167A                       l2608 1663                       l2624 16F1  
                     l2288 0B62                       l2392 06F7                       l2384 06E0  
                     l2376 067B                       l2368 05F4                       l1912 0E15  
                     l1904 0E05                       l1920 0E25                       l2472 00AF  
                     l2464 0081                       l2456 0054                       l2720 02D1  
                     l2712 0282                       l2704 0224                       l1832 08D5  
                     l1824 08AB                       l1816 088E                       l1808 086F  
                     l1736 0808                       l2800 0C6E                       l2618 16CC  
                     l2386 06E9                       l2394 06FD                       l2378 06A1  
                     l2298 0451                       l1930 0E68                       l1922 0E26  
                     l1914 0E19                       l1906 0E09                       l1850 0D8A  
                     l1842 0D78                       l2474 00B4                       l2466 0085  
                     l2458 0058                       l2730 0346                       l2722 02DF  
                     l2714 028C                       l2706 0240                       l1826 08BD  
                     l1818 0891                       l1834 08DB                       l1738 080E  
                     l1770 013C                       l1762 0123                       l1754 00DA  
                     l1746 00C5                       l2626 1615                       l2810 0CA6  
                     l2802 0C78                       l2396 0701                       l2388 06ED  
                     l1940 0E86                       l1932 0E6C                       l1924 0E3D  
                     l1916 0E1D                       l1908 0E0D                       l1852 0D8F  
                     l1860 0D9F                       l1844 0D7F                       l2476 00B8  
                     l2468 008F                       l2740 0370                       l2732 034F  
                     l2724 0317                       l2716 02AA                       l2708 0261  
                     l2580 1633                       l2572 162A                       l1836 08E0  
                     l1828 08CB                       l1780 0152                       l1772 0141  
                     l1764 0128                       l1756 00E4                       l1748 00D1  
                     l2820 0D01                       l2812 0CAF                       l2804 0C8D  
                     l2398 0702                       l1950 0EAF                       l1942 0E8B  
                     l1934 0E6D                       l1926 0E5D                       l1918 0E21  
                     l1870 0DB9                       l1862 0DA7                       l1854 0D94  
                     l1846 0D85                       l2478 00B9                       l2742 0375  
                     l2734 0355                       l2750 039A                       l2726 0330  
                     l2718 02CB                       l2590 15E7                       l2582 163C  
                     l2574 162E                       l1838 08EB                       l1790 017C  
                     l1782 0157                       l1766 0130                       l1758 011A  
                     l2822 0D07                       l2814 0CB5                       l2806 0C95  
                     l1960 0EC3                       l1952 0EB3                       l1936 0E76  
                     l1928 0E66                       l1880 0DD0                       l1872 0DBD  
                     l1864 0DAC                       l1856 0D9C                       l1848 0D89  
                     l2760 03CE                       l2752 039F                       l2744 0380  
                     l2736 0364                       l2728 0340                       l2592 15EE  
                     l2584 163F                       l2576 1631                       l1776 0147  
                     l1768 0136                       l2824 0D55                       l2816 0CD9  
                     l2808 0C9E                       l2594 0812                       l1970 0F2B  
                     l1962 0ECC                       l1954 0EBC                       l1946 0E94  
                     l1938 0E7A                       l1890 0DE9                       l1882 0DD1  
                     l1874 0DBE                       l1866 0DB2                       l1858 0D9D  
                     l2762 03D7                       l2754 03B4                       l2770 043A  
                     l2746 0386                       l2738 0368                       l2690 01B9  
                     l2586 1640                       l2578 1632                       l1778 014D  
                     l1786 0162                       l2818 0CEC                       l2596 0818  
                     l1972 0F30                       l1956 0EBE                       l1948 0EAB  
                     l1964 0ED1                       l1892 0DED                       l1876 0DC3  
                     l1884 0DD3                       l1868 0DB3                       l2772 0448  
                     l2764 03DD                       l2756 03BE                       l2748 038C  
                     l2692 01C4                       l2684 0195                       l2588 1641  
                     l1788 0168                       l1796 018C                       l2780 0B9D  
                     l2598 0821                       l1990 0F78                       l1982 0F63  
                     l1966 0EE7                       l1974 0F3F                       l1958 0EC2  
                     l1894 0DF1                       l1886 0DE1                       l1878 0DC8  
                     l2766 0415                       l2758 03C4                       l2694 01CA  
                     l2686 019E                       l2790 0BCF                       l2782 0BB0  
                     l2774 0B79                       l1992 0F7A                       l1984 0F6C  
                     l1976 0F55                       l1968 0F25                       l1896 0DF5  
                     l1888 0DE5                       l2768 0434                       l2696 01E1  
                     l2688 01A0                       l2792 0BDB                       l2784 0BB5  
                     l2776 0B7E                       l1994 0F7F                       l1986 0F70  
                     l1978 0F5A                       l1898 0DF9                       l2794 0BE4  
                     l2786 0BBA                       l2778 0B83                       l1988 0F75  
                     l1996 0F81                       l2796 0C26                       l2788 0BC6  
                     l1998 0F85                       l2798 0C55                       STR_1 1022  
                     STR_2 101C                       u2000 086F                       u2001 086E  
                     u2010 088E                       u2011 088D                       u2100 0D8F  
                     u2101 0D8E                       u2110 0D94                       u2030 08A2  
                     u2111 0D93                       u2031 08A1                       u3000 0AEE  
                     u2200 0E49                       u2120 0DB2                       u3001 0AED  
                     u2121 0DB1                       u2025 0893                       u3010 0AF4  
                     u2210 0E5D                       u2130 0DBD                       u2050 08BD  
                     u3011 0AF3                       u2211 0E5C                       u2131 0DBC  
                     u2051 08BC                       u3020 0B06                       u3100 048E  
                     u2300 0EC2                       u2220 0E6C                       u2140 0DC3  
                     u3021 0B05                       u3101 048D                       u2301 0EC1  
                     u2221 0E6B                       u2141 0DC2                       u2045 08A4  
                     u3030 0B15                       u3110 0494                       u2150 0DC8  
                     u2070 08DB                       u3111 0493                       u2151 0DC7  
                     u2071 08DA                       u2055 08B9                       u3040 0B32  
                     u3120 0499                       u2400 0F75                       u2320 0EE7  
                     u2240 0E82                       u2160 0DE1                       u2080 08E0  
                     u3041 0B31                       u3201 05A0                       u3121 0498  
                     u2401 0F74                       u2321 0EE6                       u2241 0E81  
                     u2161 0DE0                       u2081 08DF                       u2065 08CD  
                     u3050 0B4F                       u3202 05A7                       u3130 04B0  
                     u2410 0F7F                       u2250 0E86                       u2170 0DE5  
                     u2090 0D89                       u3051 0B4E                       u3035 0B10  
                     u3211 05CD                       u3203 05AE                       u3131 04AF  
                     u2411 0F7E                       u2331 0EFE                       u2323 0EE3  
                     u2315 0EC5                       u2251 0E85                       u2235 0E6F  
                     u2171 0DE4                       u2091 0D88                       u3060 0B66  
                     u3212 05D4                       u3140 04B5                       u2500 0FD6  
                     u2420 0F85                       u2340 0F12                       u2332 0EFF  
                     u2260 0E8B                       u2180 0E3D                       u3061 0B65  
                     u3045 0B2E                       u3213 05DB                       u3141 04B4  
                     u2501 0FD5                       u2421 0F84                       u2341 0F13  
                     u2333 0F04                       u2261 0E8A                       u2181 0E3C  
                     u3070 0462                       u2510 0FDB                       u2430 0F8A  
                     u2350 0F30                       u2342 0F18                       u2334 0F05  
                     u2190 0E48                       u3055 0B4B                       u3231 0603  
                     u3151 0506                       u3071 0461                       u2511 0FDA  
                     u2431 0F89                       u2351 0F2F                       u2343 0F19  
                     u2335 0F0A                       u2271 0E9D                       u2191 0E46  
                     u4007 15F4                       u2600 0924                       u3400 0748  
                     u3320 06ED                       u3232 060A                       u3152 050D  
                     u3080 0468                       u2520 0FE8                       u2440 0F90  
                     u2360 0F55                       u2336 0F0B                       u2280 0EAF  
                     u2272 0EA4                       u4017 160B                       u2601 0923  
                     u3321 06EC                       u3305 06CB                       u3241 0630  
                     u3233 0611                       u3225 05DD                       u3161 0522  
                     u3153 0514                       u3081 0467                       u2521 0FE7  
                     u2441 0F8F                       u2361 0F54                       u2281 0EAE  
                     u2273 0EAB                       u2185 0E39                       u2610 0930  
                     u3410 0765                       u3242 0637                       u3162 0529  
                     u3090 046D                       u2530 0FED                       u2450 0F97  
                     u2370 0F5A                       u2290 0EB3                       u4027 081C  
                     u2611 092F                       u3411 0764                       u3315 06E2  
                     u3251 065D                       u3243 063E                       u3171 054E  
                     u3163 0530                       u3091 046C                       u2531 0FEC  
                     u2451 0F96                       u2371 0F59                       u2291 0EB2  
          ?_hx711_promedio 0027                       u3420 077F                       u3340 0701  
                     u3260 0687                       u3252 0664                       u3172 0555  
                     u2540 0FFE                       u2460 0F9D                       u2700 17C5  
                     u3500 0075                       u1900 00D1                       u4037 082B  
                     u2621 093F                       u3421 077E                       u3405 0743  
                     u3341 0700                       u3253 066B                       u3181 056A  
                     u3173 055C                       u2541 0FFD                       u2461 0F9C  
                     u2701 17C4                       u3501 0074                       u1901 00D0  
                     u2630 0958                       u2622 0940                       u2550 16B3  
                     u3430 079D                       u3350 0706                       u3182 0571  
                     u2470 0FAF                       u2390 0F70                       u1910 00D9  
                     u4047 083A                       u2631 0957                       u2623 0945  
                     u2551 16B2                       u3431 079C                       u3415 0761  
                     u3351 0705                       u3335 06F0                       u3271 0693  
                     u3183 0578                       u2471 0FAE                       u2391 0F6F  
                     u1911 00D8                       u2800 09D4                       u2624 0946  
                     u3360 071A                       u3280 06AF                       u3272 069A  
                     u2480 0FBE                       u2720 17D7                       u3520 0085  
                     u3440 000E                       u1920 00E4                       u4057 1654  
                     u2801 09D3                       u2641 0967                       u2625 094B  
                     u3425 077B                       u3361 0719                       u3273 06A1  
                     u3265 0682                       u2385 0F65                       u2721 17D6  
                     u3521 0084                       u3441 000D                       u1921 00E3  
                     u2810 09DA                       u2650 0992                       u2642 0968  
                     u2626 094C                       u2570 16C7                       u3370 0721  
                     u2490 0FCD                       u2730 17DE                       u3530 008B  
                     u3450 0012                       u1930 00FD                       u2811 09D9  
                     u2651 0991                       u2643 096D                       u2571 16C6  
                     u3371 0720                       u3291 06BB                       u3195 057A  
                     u2491 0FCC                       u2731 17DD                       u2715 17C7  
                     u3531 008A                       u3515 007A                       u3451 0011  
                     u3700 1675                       u2900 0A84                       u2820 09DF  
                     u2644 096E                       u3380 0727                       u3292 06C2  
                     u2660 15D7                       u3540 008F                       u3460 0032  
                     u1940 0107                       u2580 1761                       u3701 1674  
                     u2901 0A83                       u2821 09DE                       u2645 0973  
                     u2565 16BA                       u3381 0726                       u3293 06C9  
                     u3285 06AA                       u2661 15D6                       u2485 0FB9  
                     u3541 008E                       u3461 0031                       u1941 0108  
                     u2581 1760                       u3710 16D9                       u2910 0A99  
                     u2830 09FA                       u2646 0974                       u2590 0908  
                     u3390 0739                       u2750 17EF                       u2670 1791  
                     u3550 00A4                       u1950 0130                       u1942 010D  
                     u2831 09F9                       u2655 098E                       u2591 0907  
                     u3391 0738                       u2751 17EE                       u2671 1790  
                     u1951 012F                       u1943 010E                       u1935 00F8  
                     u3720 16FB                       u2920 0AA3                       u2840 0A18  
                     u2760 17F4                       u2680 17A8                       u3560 00B4  
                     u3480 0053                       u3800 01FC                       u1960 013C  
                     u2921 0AA2                       u2905 0A80                       u2841 0A17  
                     u2761 17F3                       u2745 17E1                       u3561 00B3  
                     u3481 0052                       u3801 01FB                       u1961 013B  
                     u3730 170D                       u2930 0AAB                       u2850 0A52  
                     u2770 09A7                       u2690 17BE                       u3570 00B8  
                     u3810 023F                       u1970 014D                       u3731 170C  
                     u2931 0AAA                       u2915 0A8C                       u2851 0A51  
                     u2771 09A6                       u2691 17BD                       u3571 00B7  
                     u3555 009F                       u3475 0045                       u3811 023E  
                     u1971 014C                       u2916 0A8D                       u2780 09AD  
                     u3820 0282                       u1980 0168                       u2917 0A92  
                     u2781 09AC                       u2685 17A3                       u3821 0281  
                     u1981 0167                       u3901 0C01                       u2950 0ABA  
                     u2918 0A93                       u2790 09B2                       u3830 02DF  
                     u1990 085E                       u3910 0C6E                       u3902 0C02  
                     u2951 0AB9                       u2919 0A98                       u2791 09B1  
                     u3495 0067                       u3831 02DE                       u1991 085D  
                     u3911 0C6D                       u3903 0C07                       u2880 0A68  
                     u3840 0330                       u3920 0CB5                       u3904 0C08  
                     u2945 0AAF                       u2881 0A67                       u2865 0A54  
                     u3841 032F                       u3921 0CB4                       u3905 0C0D  
                     u3690 1663                       u2970 0ACE                       u3850 0346  
                     u3930 0D07                       u3906 0C0E                       u3691 1662  
                     u2971 0ACD                       u2875 0A5D                       u3851 0345  
                     u3835 02DB                       u3931 0D06                       u2980 0AD3  
                     u3860 0368                       u2981 0AD2                       u2965 0ABD  
                     u3861 0367                       u3941 0D22                       u2990 0AE7  
                     u3870 039A                       u3790 01B9                       u3942 0D23  
                     u2991 0AE6                       u2895 0A6B                       u3871 0399  
                     u3791 01B8                       u3943 0D28                       u3880 03CE  
                     u3944 0D29                       u3881 03CD                       u3945 0D2E  
                     u3890 0448                       u3946 0D2F                       u3891 0447  
                     u3875 0396                       u3885 03CA                       u3957 174E  
                     u3895 0444                       u3967 0125                       u3977 0143  
                     u3987 0154                       u3997 015E         hx711_promedio@cont 0034  
       hx711_promedio@prom 0030          ?_Lcd_Write_String 0073         floattostr_@numero_ 004B  
                     _main 0B79                       _peso 0068                       btemp 007E  
                     start 0000         ??_Lcd_Write_String 0075            ___fldiv@new_exp 0025  
          __end_of_Lcd_Cmd 165D        floattostr_@cont_for 005B              ___fltol@sign1 0079  
          __end_of___aldiv 08F4            __end_of___fladd 1000                      ?_main 0070  
          __end_of___fldiv 0B79            __end_of___flneg 15DA            __end_of___flmul 07B2  
          __end_of___flsub 16A5            __end_of___fltol 1800                      _ANSEL 0188  
                    _PORTA 0005                      _PORTB 0006                      _PORTD 0008  
                    _PORTE 0009            __end_of_calibra 1014    __size_of_Lcd_Set_Cursor 0024  
                    _TRISB 0086                      _TRISE 0089        hx711_promedio@veces 002F  
                    _celda 00A0                      _tarar 1612                      _setup 162A  
                    _texto 00BD                      pclath 000A                      status 0003  
                    wtemp0 007E           __end_of_Lcd_Init 0857           __end_of_Lcd_Port 15C7  
          __initialization 07B2            ??_hx711_lectura 0075               __end_of_main 0D78  
    hx711_lectura@ganancia 0020                     ??_main 005F         __size_of_Lcd_Clear 000D  
                   ?_tarar 0035                     ?_setup 0070                     _ANSELH 0189  
                ??_Lcd_Cmd 0071    __size_of_Lcd_Write_Char 0016           __end_of___xxtofl 00C2  
                   ___flge 08F4                  ??___aldiv 0078                  ??___fladd 0035  
                ??___fldiv 0078                  ??___flneg 0074       floattostr_@tempo_int 0053  
                ??___flmul 0079                  ??___flsub 007D                  ??___fltol 0074  
                   _factor 00DA                     _offset 006C                     _tarart 0190  
                   _prueba 1014         __size_of__Umul8_16 0027            Lcd_Set_Cursor@a 0076  
          Lcd_Set_Cursor@b 0074                 _hx711_init 15E7                 ___flge@ff1 0070  
               ___flge@ff2 0074               ___xxtofl@arg 003F               ___xxtofl@exp 003E  
             ___xxtofl@val 0035      floattostr_@decimales_ 0051       __size_of_floattostr_ 02BC  
  __end_of__initialization 07FC                 ___flneg@f1 0070          __end_of_Lcd_Clear 15E7  
               ___fltol@f1 0070             __pcstackCOMMON 0070               __pidataBANK0 0800  
             __pidataBANK1 15BD              __end_of_tarar 162A              __end_of_setup 1643  
            ??_hx711_pulso 0070             _Lcd_Set_Cursor 165D           ??_hx711_promedio 002B  
                ?_Lcd_Init 0070                  ?_Lcd_Port 0070                    ??_tarar 007D  
                  ??_setup 0070                 __pbssBANK0 0068                 __pbssBANK1 00A0  
               __pbssBANK3 0190    floattostr_@largo_entera 005D          __end_of__Umul8_16 16CC  
               __pmaintext 0B79                    ?___flge 0070  __size_of_Lcd_Write_String 0042  
   __end_of_Lcd_Set_Cursor 1681                  ?___xxtofl 0035                 ??_Lcd_Init 0074  
               ??_Lcd_Port 0070        __end_of_hx711_pulso 0812                ?_hx711_init 0070  
               __stringtab 1000             hx711_pulso@lei 0070             _Lcd_Write_Char 15FC  
                  _Lcd_Cmd 1643                    ___aldiv 0857            __size_of___flge 00A2  
                  ___fladd 0D78                    ___fldiv 0996                    ___flneg 15CF  
                  ___flmul 0451                    ___flsub 1681                    ___fltol 1786  
                  _calibra 1010            ?_Lcd_Set_Cursor 0074                    __ptext1 1612  
                  __ptext2 170E                    __ptext3 00C2                    __ptext4 0804  
                  __ptext5 0857                    __ptext6 162A                    __ptext7 15E7  
                  __ptext8 0195                    __ptext9 0006              _offset_manual 1018  
               ??___xxtofl 0039                    _offsett 00A4           ___aldiv@dividend 0074  
                  clrloop0 15C8     __end_of_Lcd_Write_Char 1612       end_of_initialization 07FC  
            tarar@ganancia 0035           ___aldiv@quotient 0022    hx711_lectura@hx711_dato 0023  
  hx711_lectura@hx711_cont 0021                  Lcd_Port@a 0070      __end_of_hx711_lectura 0195  
      __size_of_hx711_init 0015                  _PORTDbits 0008                  _PORTEbits 0009  
              _hx711_pulso 0804                ___fladd@grs 0040              ___xxtofl@sign 003D  
                _TRISDbits 0088                ___fldiv@grs 0027                ___fldiv@rem 0020  
          ?_Lcd_Write_Char 0070          Lcd_Write_String@a 0073          Lcd_Write_String@i 0078  
              ___flmul@grs 0029                  _Lcd_Clear 15DA             __end_of___flge 0996  
         _Lcd_Write_String 16CC             __end_of_prueba 1018        start_initialization 07B2  
            ??_floattostr_ 0052          __size_of_Lcd_Init 0045          __size_of_Lcd_Port 0006  
               ?_Lcd_Clear 0070                   ??___flge 0078                  __Umul8_16 16A5  
              __pdataBANK0 006C                __pdataBANK1 00DA            Lcd_Write_Char@a 0072  
                ___fladd@a 0031                  ___fladd@b 002D                  ___fldiv@a 0070  
                ___fldiv@b 0074                  ___flmul@a 0024                  ___flmul@b 0020  
                ___flsub@a 0043                  ___flsub@b 0047                  ___latbits 0002  
            __pcstackBANK0 0020          __size_of___xxtofl 00BC               ??_hx711_init 0070  
                 ?_Lcd_Cmd 0070        __end_of_floattostr_ 0451           ??_Lcd_Set_Cursor 0075  
                 ?___aldiv 0070                   ?___fladd 002D                   ?___fldiv 0070  
                 ?___flneg 0070                   ?___flmul 0020                   ?___flsub 0043  
                 ?___fltol 0070                 ?__Umul8_16 0070                  __pstrings 1000  
               tarar@veces 0036         __end_of_hx711_init 15FC             __size_of_tarar 0018  
           __size_of_setup 0019            ___aldiv@divisor 0070            ___aldiv@counter 0020  
  __size_of_hx711_promedio 0078                  clear_ram0 15C7                   Lcd_Cmd@a 0073  
              ??_Lcd_Clear 0074                __stringbase 100F               ?_hx711_pulso 0070  
         ??_Lcd_Write_Char 0071                   _Lcd_Init 0812                   _Lcd_Port 15C1  
              _floattostr_ 0195     hx711_promedio@ganancia 0027   __end_of_Lcd_Write_String 170E  
         __size_of_Lcd_Cmd 001A                ??__Umul8_16 0072           __size_of___aldiv 009D  
         __size_of___fladd 0288           __size_of___fldiv 01E3           __size_of___flneg 000B  
         __size_of___flmul 0361           __size_of___flsub 0024           __size_of___fltol 007A  
       __end_of__stringtab 1010     floattostr_@tempo_float 0055                   ___xxtofl 0006  
                 _main$897 0064                   __ptext10 1786                   __ptext11 1681  
                 __ptext20 165D                   __ptext12 0D78                   __ptext21 0812  
                 __ptext13 15CF                   __ptext22 15DA                   __ptext14 0451  
                 __ptext23 1643                   __ptext15 16A5                   __ptext24 15C1  
                 __ptext16 08F4                   __ptext17 0996                   __ptext18 16CC  
                 __ptext19 15FC     __size_of_hx711_lectura 00D3              __size_of_main 01FF  
           _hx711_promedio 170E                  stringcode 100A                 _OSCCONbits 008F  
       Lcd_Set_Cursor@temp 0077              _hx711_lectura 00C2      __end_of_offset_manual 101C  
   __Umul8_16@multiplicand 0070                   stringdir 100A                   stringtab 1000  
     __size_of_hx711_pulso 000E               ___aldiv@sign 0021              ___fladd@signs 003D  
   __end_of_hx711_promedio 1786               ___fladd@aexp 003E               ___fladd@bexp 003F  
     __Umul8_16@multiplier 0078          __Umul8_16@product 0074  
