

Microchip MPLAB XC8 Assembler V2.32 build 20210201212658 
                                                                                               Sun Sep 05 20:04:24 2021

Microchip MPLAB XC8 C Compiler v2.32 (Free license) build 20210201212658 Og1 
     1                           	processor	16F887
     2                           	pagewidth 120
     3                           	opt	flic
     4                           	psect	idataBANK1,global,class=CODE,delta=2,noexec
     5                           	psect	strings,global,class=STRING,delta=2,noexec
     6                           	psect	cinit,global,class=CODE,merge=1,delta=2
     7                           	psect	bssBANK1,global,class=BANK1,space=1,delta=1,noexec
     8                           	psect	dataBANK1,global,class=BANK1,space=1,delta=1,noexec
     9                           	psect	bssBANK3,global,class=BANK3,space=1,delta=1,noexec
    10                           	psect	inittext,global,class=CODE,delta=2
    11                           	psect	clrtext,global,class=CODE,delta=2
    12                           	psect	cstackCOMMON,global,class=COMMON,space=1,delta=1,noexec
    13                           	psect	cstackBANK0,global,class=BANK0,space=1,delta=1,noexec
    14                           	psect	maintext,global,class=CODE,split=1,delta=2
    15                           	psect	text1,local,class=CODE,merge=1,delta=2
    16                           	psect	text2,local,class=CODE,merge=1,delta=2
    17                           	psect	text3,local,class=CODE,merge=1,delta=2
    18                           	psect	text4,local,class=CODE,merge=1,delta=2
    19                           	psect	text5,local,class=CODE,merge=1,delta=2,group=1
    20                           	psect	text6,local,class=CODE,merge=1,delta=2
    21                           	psect	text7,local,class=CODE,merge=1,delta=2
    22                           	psect	text8,local,class=CODE,merge=1,delta=2
    23                           	psect	text9,local,class=CODE,merge=1,delta=2,group=1
    24                           	psect	text10,local,class=CODE,merge=1,delta=2,group=1
    25                           	psect	text11,local,class=CODE,merge=1,delta=2,group=1
    26                           	psect	text12,local,class=CODE,merge=1,delta=2,group=1
    27                           	psect	text13,local,class=CODE,merge=1,delta=2,group=1
    28                           	psect	text14,local,class=CODE,merge=1,delta=2,group=1
    29                           	psect	text15,local,class=CODE,merge=1,delta=2,group=1
    30                           	psect	text16,local,class=CODE,merge=1,delta=2,group=1
    31                           	psect	text17,local,class=CODE,merge=1,delta=2,group=1
    32                           	psect	text18,local,class=CODE,merge=1,delta=2
    33                           	psect	text19,local,class=CODE,merge=1,delta=2
    34                           	psect	text20,local,class=CODE,merge=1,delta=2
    35                           	psect	text21,local,class=CODE,merge=1,delta=2
    36                           	psect	text22,local,class=CODE,merge=1,delta=2
    37                           	psect	text23,local,class=CODE,merge=1,delta=2
    38                           	psect	text24,local,class=CODE,merge=1,delta=2
    39                           	psect	text25,local,class=CODE,merge=1,delta=2
    40                           	psect	intentry,global,class=CODE,delta=2
    41                           	psect	config,global,abs,ovrld,class=CONFIG,space=4,delta=2,noexec
    42                           	dabs	1,0x7E,2
    43  0000                     
    44                           ; Version 2.20
    45                           ; Generated 12/02/2020 GMT
    46                           ; 
    47                           ; Copyright © 2020, Microchip Technology Inc. and its subsidiaries ("Microchip")
    48                           ; All rights reserved.
    49                           ; 
    50                           ; This software is developed by Microchip Technology Inc. and its subsidiaries ("Microch
      +                          ip").
    51                           ; 
    52                           ; Redistribution and use in source and binary forms, with or without modification, are
    53                           ; permitted provided that the following conditions are met:
    54                           ; 
    55                           ;     1. Redistributions of source code must retain the above copyright notice, this lis
      +                          t of
    56                           ;        conditions and the following disclaimer.
    57                           ; 
    58                           ;     2. Redistributions in binary form must reproduce the above copyright notice, this 
      +                          list
    59                           ;        of conditions and the following disclaimer in the documentation and/or other
    60                           ;        materials provided with the distribution.
    61                           ; 
    62                           ;     3. Microchip's name may not be used to endorse or promote products derived from th
      +                          is
    63                           ;        software without specific prior written permission.
    64                           ; 
    65                           ; THIS SOFTWARE IS PROVIDED BY MICROCHIP "AS IS" AND ANY EXPRESS OR IMPLIED WARRANTIES,
    66                           ; INCLUDING, BUT NOT LIMITED TO, THE IMPLIED WARRANTIES OF MERCHANTABILITY AND FITNESS F
      +                          OR
    67                           ; PURPOSE ARE DISCLAIMED.  IN NO EVENT SHALL MICROCHIP BE LIABLE FOR ANY DIRECT, INDIREC
      +                          T,
    68                           ; INCIDENTAL, SPECIAL, EXEMPLARY, OR CONSEQUENTIAL DAMAGES (INCLUDING BUT NOT LIMITED TO
    69                           ; PROCUREMENT OF SUBSTITUTE GOODS OR SERVICES; LOSS OF USE, DATA OR PROFITS; OR BUSINESS
    70                           ; INTERRUPTION) HOWSOEVER CAUSED AND ON ANY THEORY OF LIABILITY, WHETHER IN CONTRACT, ST
      +                          RICT
    71                           ; LIABILITY, OR TORT (INCLUDING NEGLIGENCE OR OTHERWISE) ARISING IN ANY WAY OUT OF THE U
      +                          SE OF
    72                           ; THIS SOFTWARE, EVEN IF ADVISED OF THE POSSIBILITY OF SUCH DAMAGE.
    73                           ; 
    74                           ; 
    75                           ; Code-generator required, PIC16F887 Definitions
    76                           ; 
    77                           ; SFR Addresses
    78  0000                     	;# 
    79  0001                     	;# 
    80  0002                     	;# 
    81  0003                     	;# 
    82  0004                     	;# 
    83  0005                     	;# 
    84  0006                     	;# 
    85  0007                     	;# 
    86  0008                     	;# 
    87  0009                     	;# 
    88  000A                     	;# 
    89  000B                     	;# 
    90  000C                     	;# 
    91  000D                     	;# 
    92  000E                     	;# 
    93  000E                     	;# 
    94  000F                     	;# 
    95  0010                     	;# 
    96  0011                     	;# 
    97  0012                     	;# 
    98  0013                     	;# 
    99  0014                     	;# 
   100  0015                     	;# 
   101  0015                     	;# 
   102  0016                     	;# 
   103  0017                     	;# 
   104  0018                     	;# 
   105  0019                     	;# 
   106  001A                     	;# 
   107  001B                     	;# 
   108  001B                     	;# 
   109  001C                     	;# 
   110  001D                     	;# 
   111  001E                     	;# 
   112  001F                     	;# 
   113  0081                     	;# 
   114  0085                     	;# 
   115  0086                     	;# 
   116  0087                     	;# 
   117  0088                     	;# 
   118  0089                     	;# 
   119  008C                     	;# 
   120  008D                     	;# 
   121  008E                     	;# 
   122  008F                     	;# 
   123  0090                     	;# 
   124  0091                     	;# 
   125  0092                     	;# 
   126  0093                     	;# 
   127  0093                     	;# 
   128  0093                     	;# 
   129  0094                     	;# 
   130  0095                     	;# 
   131  0096                     	;# 
   132  0097                     	;# 
   133  0098                     	;# 
   134  0099                     	;# 
   135  009A                     	;# 
   136  009B                     	;# 
   137  009C                     	;# 
   138  009D                     	;# 
   139  009E                     	;# 
   140  009F                     	;# 
   141  0105                     	;# 
   142  0107                     	;# 
   143  0108                     	;# 
   144  0109                     	;# 
   145  010C                     	;# 
   146  010C                     	;# 
   147  010D                     	;# 
   148  010E                     	;# 
   149  010F                     	;# 
   150  0185                     	;# 
   151  0187                     	;# 
   152  0188                     	;# 
   153  0189                     	;# 
   154  018C                     	;# 
   155  018D                     	;# 
   156  0000                     	;# 
   157  0001                     	;# 
   158  0002                     	;# 
   159  0003                     	;# 
   160  0004                     	;# 
   161  0005                     	;# 
   162  0006                     	;# 
   163  0007                     	;# 
   164  0008                     	;# 
   165  0009                     	;# 
   166  000A                     	;# 
   167  000B                     	;# 
   168  000C                     	;# 
   169  000D                     	;# 
   170  000E                     	;# 
   171  000E                     	;# 
   172  000F                     	;# 
   173  0010                     	;# 
   174  0011                     	;# 
   175  0012                     	;# 
   176  0013                     	;# 
   177  0014                     	;# 
   178  0015                     	;# 
   179  0015                     	;# 
   180  0016                     	;# 
   181  0017                     	;# 
   182  0018                     	;# 
   183  0019                     	;# 
   184  001A                     	;# 
   185  001B                     	;# 
   186  001B                     	;# 
   187  001C                     	;# 
   188  001D                     	;# 
   189  001E                     	;# 
   190  001F                     	;# 
   191  0081                     	;# 
   192  0085                     	;# 
   193  0086                     	;# 
   194  0087                     	;# 
   195  0088                     	;# 
   196  0089                     	;# 
   197  008C                     	;# 
   198  008D                     	;# 
   199  008E                     	;# 
   200  008F                     	;# 
   201  0090                     	;# 
   202  0091                     	;# 
   203  0092                     	;# 
   204  0093                     	;# 
   205  0093                     	;# 
   206  0093                     	;# 
   207  0094                     	;# 
   208  0095                     	;# 
   209  0096                     	;# 
   210  0097                     	;# 
   211  0098                     	;# 
   212  0099                     	;# 
   213  009A                     	;# 
   214  009B                     	;# 
   215  009C                     	;# 
   216  009D                     	;# 
   217  009E                     	;# 
   218  009F                     	;# 
   219  0105                     	;# 
   220  0107                     	;# 
   221  0108                     	;# 
   222  0109                     	;# 
   223  010C                     	;# 
   224  010C                     	;# 
   225  010D                     	;# 
   226  010E                     	;# 
   227  010F                     	;# 
   228  0185                     	;# 
   229  0187                     	;# 
   230  0188                     	;# 
   231  0189                     	;# 
   232  018C                     	;# 
   233  018D                     	;# 
   234  0000                     	;# 
   235  0001                     	;# 
   236  0002                     	;# 
   237  0003                     	;# 
   238  0004                     	;# 
   239  0005                     	;# 
   240  0006                     	;# 
   241  0007                     	;# 
   242  0008                     	;# 
   243  0009                     	;# 
   244  000A                     	;# 
   245  000B                     	;# 
   246  000C                     	;# 
   247  000D                     	;# 
   248  000E                     	;# 
   249  000E                     	;# 
   250  000F                     	;# 
   251  0010                     	;# 
   252  0011                     	;# 
   253  0012                     	;# 
   254  0013                     	;# 
   255  0014                     	;# 
   256  0015                     	;# 
   257  0015                     	;# 
   258  0016                     	;# 
   259  0017                     	;# 
   260  0018                     	;# 
   261  0019                     	;# 
   262  001A                     	;# 
   263  001B                     	;# 
   264  001B                     	;# 
   265  001C                     	;# 
   266  001D                     	;# 
   267  001E                     	;# 
   268  001F                     	;# 
   269  0081                     	;# 
   270  0085                     	;# 
   271  0086                     	;# 
   272  0087                     	;# 
   273  0088                     	;# 
   274  0089                     	;# 
   275  008C                     	;# 
   276  008D                     	;# 
   277  008E                     	;# 
   278  008F                     	;# 
   279  0090                     	;# 
   280  0091                     	;# 
   281  0092                     	;# 
   282  0093                     	;# 
   283  0093                     	;# 
   284  0093                     	;# 
   285  0094                     	;# 
   286  0095                     	;# 
   287  0096                     	;# 
   288  0097                     	;# 
   289  0098                     	;# 
   290  0099                     	;# 
   291  009A                     	;# 
   292  009B                     	;# 
   293  009C                     	;# 
   294  009D                     	;# 
   295  009E                     	;# 
   296  009F                     	;# 
   297  0105                     	;# 
   298  0107                     	;# 
   299  0108                     	;# 
   300  0109                     	;# 
   301  010C                     	;# 
   302  010C                     	;# 
   303  010D                     	;# 
   304  010E                     	;# 
   305  010F                     	;# 
   306  0185                     	;# 
   307  0187                     	;# 
   308  0188                     	;# 
   309  0189                     	;# 
   310  018C                     	;# 
   311  018D                     	;# 
   312  0000                     	;# 
   313  0001                     	;# 
   314  0002                     	;# 
   315  0003                     	;# 
   316  0004                     	;# 
   317  0005                     	;# 
   318  0006                     	;# 
   319  0007                     	;# 
   320  0008                     	;# 
   321  0009                     	;# 
   322  000A                     	;# 
   323  000B                     	;# 
   324  000C                     	;# 
   325  000D                     	;# 
   326  000E                     	;# 
   327  000E                     	;# 
   328  000F                     	;# 
   329  0010                     	;# 
   330  0011                     	;# 
   331  0012                     	;# 
   332  0013                     	;# 
   333  0014                     	;# 
   334  0015                     	;# 
   335  0015                     	;# 
   336  0016                     	;# 
   337  0017                     	;# 
   338  0018                     	;# 
   339  0019                     	;# 
   340  001A                     	;# 
   341  001B                     	;# 
   342  001B                     	;# 
   343  001C                     	;# 
   344  001D                     	;# 
   345  001E                     	;# 
   346  001F                     	;# 
   347  0081                     	;# 
   348  0085                     	;# 
   349  0086                     	;# 
   350  0087                     	;# 
   351  0088                     	;# 
   352  0089                     	;# 
   353  008C                     	;# 
   354  008D                     	;# 
   355  008E                     	;# 
   356  008F                     	;# 
   357  0090                     	;# 
   358  0091                     	;# 
   359  0092                     	;# 
   360  0093                     	;# 
   361  0093                     	;# 
   362  0093                     	;# 
   363  0094                     	;# 
   364  0095                     	;# 
   365  0096                     	;# 
   366  0097                     	;# 
   367  0098                     	;# 
   368  0099                     	;# 
   369  009A                     	;# 
   370  009B                     	;# 
   371  009C                     	;# 
   372  009D                     	;# 
   373  009E                     	;# 
   374  009F                     	;# 
   375  0105                     	;# 
   376  0107                     	;# 
   377  0108                     	;# 
   378  0109                     	;# 
   379  010C                     	;# 
   380  010C                     	;# 
   381  010D                     	;# 
   382  010E                     	;# 
   383  010F                     	;# 
   384  0185                     	;# 
   385  0187                     	;# 
   386  0188                     	;# 
   387  0189                     	;# 
   388  018C                     	;# 
   389  018D                     	;# 
   390  0000                     	;# 
   391  0001                     	;# 
   392  0002                     	;# 
   393  0003                     	;# 
   394  0004                     	;# 
   395  0005                     	;# 
   396  0006                     	;# 
   397  0007                     	;# 
   398  0008                     	;# 
   399  0009                     	;# 
   400  000A                     	;# 
   401  000B                     	;# 
   402  000C                     	;# 
   403  000D                     	;# 
   404  000E                     	;# 
   405  000E                     	;# 
   406  000F                     	;# 
   407  0010                     	;# 
   408  0011                     	;# 
   409  0012                     	;# 
   410  0013                     	;# 
   411  0014                     	;# 
   412  0015                     	;# 
   413  0015                     	;# 
   414  0016                     	;# 
   415  0017                     	;# 
   416  0018                     	;# 
   417  0019                     	;# 
   418  001A                     	;# 
   419  001B                     	;# 
   420  001B                     	;# 
   421  001C                     	;# 
   422  001D                     	;# 
   423  001E                     	;# 
   424  001F                     	;# 
   425  0081                     	;# 
   426  0085                     	;# 
   427  0086                     	;# 
   428  0087                     	;# 
   429  0088                     	;# 
   430  0089                     	;# 
   431  008C                     	;# 
   432  008D                     	;# 
   433  008E                     	;# 
   434  008F                     	;# 
   435  0090                     	;# 
   436  0091                     	;# 
   437  0092                     	;# 
   438  0093                     	;# 
   439  0093                     	;# 
   440  0093                     	;# 
   441  0094                     	;# 
   442  0095                     	;# 
   443  0096                     	;# 
   444  0097                     	;# 
   445  0098                     	;# 
   446  0099                     	;# 
   447  009A                     	;# 
   448  009B                     	;# 
   449  009C                     	;# 
   450  009D                     	;# 
   451  009E                     	;# 
   452  009F                     	;# 
   453  0105                     	;# 
   454  0107                     	;# 
   455  0108                     	;# 
   456  0109                     	;# 
   457  010C                     	;# 
   458  010C                     	;# 
   459  010D                     	;# 
   460  010E                     	;# 
   461  010F                     	;# 
   462  0185                     	;# 
   463  0187                     	;# 
   464  0188                     	;# 
   465  0189                     	;# 
   466  018C                     	;# 
   467  018D                     	;# 
   468                           
   469                           	psect	idataBANK1
   470  14A8                     __pidataBANK1:
   471                           
   472                           ;initializer for _offset
   473  14A8  34A5               	retlw	165
   474  14A9  3447               	retlw	71
   475  14AA  3401               	retlw	1
   476  14AB  3400               	retlw	0
   477                           
   478                           ;initializer for _factor
   479  14AC  3421               	retlw	33
   480  14AD  3455               	retlw	85
   481  14AE  3443               	retlw	67
   482  14AF  343B               	retlw	59
   483                           
   484                           	psect	strings
   485  1000                     __pstrings:
   486  1000                     stringtab:
   487  1000                     __stringtab:
   488                           
   489                           ;	String table - string pointers are 1 byte each
   490  1000  1BFF               	btfsc	btemp+1,7
   491  1001  280A               	ljmp	stringcode
   492  1002  1383               	bcf	3,7
   493  1003  187F               	btfsc	btemp+1,0
   494  1004  1783               	bsf	3,7
   495  1005  0800               	movf	0,w
   496  1006  0A84               	incf	4,f
   497  1007  1903               	skipnz
   498  1008  0AFF               	incf	btemp+1,f
   499  1009  0008               	return
   500  100A                     stringcode:
   501  100A                     stringdir:
   502  100A  3010               	movlw	high stringdir
   503  100B  008A               	movwf	10
   504  100C  0804               	movf	4,w
   505  100D  0A84               	incf	4,f
   506  100E  0782               	addwf	2,f
   507  100F                     __stringbase:
   508  100F  3400               	retlw	0
   509  1010                     __end_of__stringtab:
   510  1010                     _calibra:
   511  1010  34BD               	retlw	189
   512  1011  34D2               	retlw	210
   513  1012  34A3               	retlw	163
   514  1013  3448               	retlw	72
   515  1014                     __end_of_calibra:
   516  1014                     _prueba:
   517  1014  3400               	retlw	0
   518  1015  3400               	retlw	0
   519  1016  347A               	retlw	122
   520  1017  3444               	retlw	68
   521  1018                     __end_of_prueba:
   522  1018                     _offset_manual:
   523  1018  3480               	retlw	128
   524  1019  34D2               	retlw	210
   525  101A  34A3               	retlw	163
   526  101B  3447               	retlw	71
   527  101C                     __end_of_offset_manual:
   528  0013                     _SSPBUF	set	19
   529  0014                     _SSPCON	set	20
   530  0009                     _PORTEbits	set	9
   531  000B                     _INTCONbits	set	11
   532  0012                     _T2CONbits	set	18
   533  001D                     _CCP2CONbits	set	29
   534  0017                     _CCP1CONbits	set	23
   535  0009                     _PORTE	set	9
   536  0008                     _PORTD	set	8
   537  0006                     _PORTB	set	6
   538  0005                     _PORTA	set	5
   539  0008                     _PORTDbits	set	8
   540  001B                     _CCPR2L	set	27
   541  0007                     _PORTC	set	7
   542  001E                     _ADRESH	set	30
   543  0015                     _CCPR1L	set	21
   544  001F                     _ADCON0bits	set	31
   545  000C                     _PIR1bits	set	12
   546  0063                     _SSPIF	set	99
   547  005E                     _PEIE	set	94
   548  005F                     _GIE	set	95
   549  0091                     _SSPCON2bits	set	145
   550  0094                     _SSPSTAT	set	148
   551  0093                     _SSPADD	set	147
   552  0091                     _SSPCON2	set	145
   553  008C                     _PIE1bits	set	140
   554  0092                     _PR2	set	146
   555  0087                     _TRISCbits	set	135
   556  009F                     _ADCON1bits	set	159
   557  008F                     _OSCCONbits	set	143
   558  0089                     _TRISE	set	137
   559  0086                     _TRISB	set	134
   560  0088                     _TRISDbits	set	136
   561  0085                     _TRISA	set	133
   562  0463                     _SSPIE	set	1123
   563  043C                     _TRISC4	set	1084
   564  043B                     _TRISC3	set	1083
   565  0189                     _ANSELH	set	393
   566  0188                     _ANSEL	set	392
   567  101C                     STR_2:
   568  101C  3450               	retlw	80	;'P'
   569  101D  3445               	retlw	69	;'E'
   570  101E  3453               	retlw	83	;'S'
   571  101F  344F               	retlw	79	;'O'
   572  1020  343A               	retlw	58	;':'
   573  1021  3400               	retlw	0
   574  1022                     STR_1:
   575  1022  344F               	retlw	79	;'O'
   576  1023  3466               	retlw	102	;'f'
   577  1024  3466               	retlw	102	;'f'
   578  1025  343A               	retlw	58	;':'
   579  1026  3400               	retlw	0
   580                           
   581                           	psect	cinit
   582  000F                     start_initialization:	
   583                           ; #config settings
   584                           
   585  000F                     __initialization:
   586                           
   587                           ; Initialize objects allocated to BANK1
   588  000F  1383               	bcf	3,7	;select IRP bank0
   589  0010  30E6               	movlw	low (__pdataBANK1+8)
   590  0011  00FD               	movwf	btemp+-1
   591  0012  3014               	movlw	high __pidataBANK1
   592  0013  00FE               	movwf	btemp
   593  0014  30A8               	movlw	low __pidataBANK1
   594  0015  00FF               	movwf	btemp+1
   595  0016  30DE               	movlw	low __pdataBANK1
   596  0017  0084               	movwf	4
   597  0018  160A  118A  24CC  120A  118A  	fcall	init_ram0
   598                           
   599                           ; Clear objects allocated to BANK3
   600  001D  1783               	bsf	3,7	;select IRP bank2
   601  001E  3090               	movlw	low __pbssBANK3
   602  001F  0084               	movwf	4
   603  0020  30A9               	movlw	low (__pbssBANK3+25)
   604  0021  160A  118A  24A0  120A  118A  	fcall	clear_ram0
   605                           
   606                           ; Clear objects allocated to BANK1
   607  0026  1383               	bcf	3,7	;select IRP bank0
   608  0027  30A0               	movlw	low __pbssBANK1
   609  0028  0084               	movwf	4
   610  0029  30DE               	movlw	low (__pbssBANK1+62)
   611  002A  160A  118A  24A0  120A  118A  	fcall	clear_ram0
   612  002F                     end_of_initialization:	
   613                           ;End of C runtime variable initialization code
   614                           
   615  002F                     __end_of__initialization:
   616  002F  0183               	clrf	3
   617  0030  120A  158A  2D65   	ljmp	_main	;jump to C main() function
   618                           
   619                           	psect	bssBANK1
   620  00A0                     __pbssBANK1:
   621  00A0                     _peso:
   622  00A0                     	ds	4
   623  00A4                     _celda:
   624  00A4                     	ds	4
   625  00A8                     _offsett:
   626  00A8                     	ds	25
   627  00C1                     _texto:
   628  00C1                     	ds	25
   629  00DA                     _cal:
   630  00DA                     	ds	4
   631                           
   632                           	psect	dataBANK1
   633  00DE                     __pdataBANK1:
   634  00DE                     _offset:
   635  00DE                     	ds	4
   636  00E2                     _factor:
   637  00E2                     	ds	4
   638                           
   639                           	psect	bssBANK3
   640  0190                     __pbssBANK3:
   641  0190                     _tarart:
   642  0190                     	ds	25
   643                           
   644                           	psect	inittext
   645  14C8                     init_fetch0:	
   646                           ;	Called with low address in FSR and high address in W
   647                           
   648  14C8  087E               	movf	btemp,w
   649  14C9  008A               	movwf	10
   650  14CA  087F               	movf	btemp+1,w
   651  14CB  0082               	movwf	2
   652  14CC                     init_ram0:	
   653                           ;Called with:
   654                           ;	high address of idata address in btemp 
   655                           ;	low address of idata address in btemp+1 
   656                           ;	low address of data in FSR
   657                           ;	high address + 1 of data in btemp-1
   658                           
   659  14CC  160A  118A  24C8  160A  118A  	fcall	init_fetch0
   660  14D1  0080               	movwf	0
   661  14D2  0A84               	incf	4,f
   662  14D3  0804               	movf	4,w
   663  14D4  067D               	xorwf	btemp+-1,w
   664  14D5  1903               	btfsc	3,2
   665  14D6  3400               	retlw	0
   666  14D7  0AFF               	incf	btemp+1,f
   667  14D8  1903               	btfsc	3,2
   668  14D9  0AFE               	incf	btemp,f
   669  14DA  2CCC               	goto	init_ram0
   670                           
   671                           	psect	clrtext
   672  14A0                     clear_ram0:	
   673                           ;	Called with FSR containing the base address, and
   674                           ;	W with the last address+1
   675                           
   676  14A0  0064               	clrwdt	;clear the watchdog before getting into this loop
   677  14A1                     clrloop0:
   678  14A1  0180               	clrf	0	;clear RAM location pointed to by FSR
   679  14A2  0A84               	incf	4,f	;increment pointer
   680  14A3  0604               	xorwf	4,w	;XOR with final address
   681  14A4  1903               	btfsc	3,2	;have we reached the end yet?
   682  14A5  3400               	retlw	0	;all done for this memory range, return
   683  14A6  0604               	xorwf	4,w	;XOR again to restore value
   684  14A7  2CA1               	goto	clrloop0	;do the next byte
   685                           
   686                           	psect	cstackCOMMON
   687  0070                     __pcstackCOMMON:
   688  0070                     ?_setup:
   689  0070                     ?_hx711_init:	
   690                           ; 1 bytes @ 0x0
   691                           
   692  0070                     ?_Lcd_Init:	
   693                           ; 1 bytes @ 0x0
   694                           
   695  0070                     ?_Lcd_Clear:	
   696                           ; 1 bytes @ 0x0
   697                           
   698  0070                     ?_ISR:	
   699                           ; 1 bytes @ 0x0
   700                           
   701  0070                     ??_ISR:	
   702                           ; 1 bytes @ 0x0
   703                           
   704  0070                     ?_main:	
   705                           ; 1 bytes @ 0x0
   706                           
   707  0070                     ?_hx711_pulso:	
   708                           ; 1 bytes @ 0x0
   709                           
   710  0070                     ?_Lcd_Port:	
   711                           ; 1 bytes @ 0x0
   712                           
   713  0070                     ?_Lcd_Cmd:	
   714                           ; 1 bytes @ 0x0
   715                           
   716  0070                     ?_Lcd_Write_Char:	
   717                           ; 1 bytes @ 0x0
   718                           
   719                           
   720                           ; 1 bytes @ 0x0
   721  0070                     	ds	3
   722  0073                     ?___flge:
   723  0073                     ??_setup:	
   724                           ; 1 bit 
   725                           
   726  0073                     ??_hx711_init:	
   727                           ; 1 bytes @ 0x3
   728                           
   729  0073                     ??_hx711_pulso:	
   730                           ; 1 bytes @ 0x3
   731                           
   732  0073                     ??_Lcd_Port:	
   733                           ; 1 bytes @ 0x3
   734                           
   735  0073                     ?__Umul8_16:	
   736                           ; 1 bytes @ 0x3
   737                           
   738  0073                     ?___aldiv:	
   739                           ; 2 bytes @ 0x3
   740                           
   741  0073                     ?___flneg:	
   742                           ; 4 bytes @ 0x3
   743                           
   744  0073                     ?___fltol:	
   745                           ; 4 bytes @ 0x3
   746                           
   747  0073                     ?___fldiv:	
   748                           ; 4 bytes @ 0x3
   749                           
   750  0073                     hx711_pulso@lei:	
   751                           ; 4 bytes @ 0x3
   752                           
   753  0073                     Lcd_Port@a:	
   754                           ; 1 bytes @ 0x3
   755                           
   756  0073                     __Umul8_16@multiplicand:	
   757                           ; 1 bytes @ 0x3
   758                           
   759  0073                     ___aldiv@divisor:	
   760                           ; 1 bytes @ 0x3
   761                           
   762  0073                     ___flge@ff1:	
   763                           ; 4 bytes @ 0x3
   764                           
   765  0073                     ___flneg@f1:	
   766                           ; 4 bytes @ 0x3
   767                           
   768  0073                     ___fltol@f1:	
   769                           ; 4 bytes @ 0x3
   770                           
   771  0073                     ___fldiv@a:	
   772                           ; 4 bytes @ 0x3
   773                           
   774                           
   775                           ; 4 bytes @ 0x3
   776  0073                     	ds	1
   777  0074                     ??_Lcd_Cmd:
   778  0074                     ??_Lcd_Write_Char:	
   779                           ; 1 bytes @ 0x4
   780                           
   781  0074                     ?_hx711_lectura:	
   782                           ; 1 bytes @ 0x4
   783                           
   784                           
   785                           ; 4 bytes @ 0x4
   786  0074                     	ds	1
   787  0075                     ??__Umul8_16:
   788  0075                     Lcd_Write_Char@a:	
   789                           ; 1 bytes @ 0x5
   790                           
   791                           
   792                           ; 1 bytes @ 0x5
   793  0075                     	ds	1
   794  0076                     ?_Lcd_Write_String:
   795  0076                     Lcd_Cmd@a:	
   796                           ; 1 bytes @ 0x6
   797                           
   798  0076                     Lcd_Write_String@a:	
   799                           ; 1 bytes @ 0x6
   800                           
   801                           
   802                           ; 2 bytes @ 0x6
   803  0076                     	ds	1
   804  0077                     ??_Lcd_Init:
   805  0077                     ??_Lcd_Clear:	
   806                           ; 1 bytes @ 0x7
   807                           
   808  0077                     ?_Lcd_Set_Cursor:	
   809                           ; 1 bytes @ 0x7
   810                           
   811  0077                     ??___flneg:	
   812                           ; 1 bytes @ 0x7
   813                           
   814  0077                     Lcd_Set_Cursor@b:	
   815                           ; 1 bytes @ 0x7
   816                           
   817  0077                     ___fltol@sign1:	
   818                           ; 1 bytes @ 0x7
   819                           
   820  0077                     ___aldiv@dividend:	
   821                           ; 1 bytes @ 0x7
   822                           
   823  0077                     ___flge@ff2:	
   824                           ; 4 bytes @ 0x7
   825                           
   826  0077                     ___fldiv@b:	
   827                           ; 4 bytes @ 0x7
   828                           
   829                           
   830                           ; 4 bytes @ 0x7
   831  0077                     	ds	1
   832  0078                     ??_Lcd_Set_Cursor:
   833  0078                     ??_Lcd_Write_String:	
   834                           ; 1 bytes @ 0x8
   835                           
   836  0078                     ___fltol@exp1:	
   837                           ; 1 bytes @ 0x8
   838                           
   839                           
   840                           ; 1 bytes @ 0x8
   841  0078                     	ds	1
   842  0079                     Lcd_Set_Cursor@a:
   843                           
   844                           ; 1 bytes @ 0x9
   845  0079                     	ds	1
   846  007A                     Lcd_Set_Cursor@temp:
   847                           
   848                           ; 1 bytes @ 0xA
   849  007A                     	ds	1
   850  007B                     ??___flsub:
   851                           
   852                           	psect	cstackBANK0
   853  0020                     __pcstackBANK0:	
   854                           ; 1 bytes @ 0xB
   855                           
   856  0020                     ??_hx711_lectura:
   857  0020                     ??___aldiv:	
   858                           ; 1 bytes @ 0x0
   859                           
   860  0020                     ??___flge:	
   861                           ; 1 bytes @ 0x0
   862                           
   863  0020                     ??___fltol:	
   864                           ; 1 bytes @ 0x0
   865                           
   866  0020                     ??___fldiv:	
   867                           ; 1 bytes @ 0x0
   868                           
   869  0020                     Lcd_Write_String@i:	
   870                           ; 1 bytes @ 0x0
   871                           
   872  0020                     __Umul8_16@product:	
   873                           ; 2 bytes @ 0x0
   874                           
   875                           
   876                           ; 2 bytes @ 0x0
   877  0020                     	ds	1
   878  0021                     ___aldiv@counter:
   879                           
   880                           ; 1 bytes @ 0x1
   881  0021                     	ds	1
   882  0022                     ___aldiv@sign:
   883  0022                     __Umul8_16@word_mpld:	
   884                           ; 1 bytes @ 0x2
   885                           
   886                           
   887                           ; 2 bytes @ 0x2
   888  0022                     	ds	1
   889  0023                     ___aldiv@quotient:
   890                           
   891                           ; 4 bytes @ 0x3
   892  0023                     	ds	1
   893  0024                     __Umul8_16@multiplier:
   894                           
   895                           ; 1 bytes @ 0x4
   896  0024                     	ds	1
   897  0025                     ?___flmul:
   898  0025                     ___fldiv@rem:	
   899                           ; 4 bytes @ 0x5
   900                           
   901  0025                     ___flmul@b:	
   902                           ; 4 bytes @ 0x5
   903                           
   904                           
   905                           ; 4 bytes @ 0x5
   906  0025                     	ds	3
   907  0028                     hx711_lectura@ganancia:
   908                           
   909                           ; 1 bytes @ 0x8
   910  0028                     	ds	1
   911  0029                     ___fldiv@sign:
   912  0029                     hx711_lectura@hx711_cont:	
   913                           ; 1 bytes @ 0x9
   914                           
   915  0029                     ___flmul@a:	
   916                           ; 2 bytes @ 0x9
   917                           
   918                           
   919                           ; 4 bytes @ 0x9
   920  0029                     	ds	1
   921  002A                     ___fldiv@new_exp:
   922                           
   923                           ; 2 bytes @ 0xA
   924  002A                     	ds	1
   925  002B                     hx711_lectura@hx711_dato:
   926                           
   927                           ; 4 bytes @ 0xB
   928  002B                     	ds	1
   929  002C                     ___fldiv@grs:
   930                           
   931                           ; 4 bytes @ 0xC
   932  002C                     	ds	1
   933  002D                     ??___flmul:
   934                           
   935                           ; 1 bytes @ 0xD
   936  002D                     	ds	2
   937  002F                     ?_hx711_promedio:
   938  002F                     hx711_promedio@ganancia:	
   939                           ; 4 bytes @ 0xF
   940                           
   941                           
   942                           ; 1 bytes @ 0xF
   943  002F                     	ds	1
   944  0030                     ___fldiv@bexp:
   945                           
   946                           ; 1 bytes @ 0x10
   947  0030                     	ds	1
   948  0031                     ___fldiv@aexp:
   949                           
   950                           ; 1 bytes @ 0x11
   951  0031                     	ds	1
   952  0032                     ?___fladd:
   953  0032                     ___flmul@sign:	
   954                           ; 4 bytes @ 0x12
   955                           
   956  0032                     ___fladd@b:	
   957                           ; 1 bytes @ 0x12
   958                           
   959                           
   960                           ; 4 bytes @ 0x12
   961  0032                     	ds	1
   962  0033                     ??_hx711_promedio:
   963  0033                     ___flmul@grs:	
   964                           ; 1 bytes @ 0x13
   965                           
   966                           
   967                           ; 4 bytes @ 0x13
   968  0033                     	ds	3
   969  0036                     ___fladd@a:
   970                           
   971                           ; 4 bytes @ 0x16
   972  0036                     	ds	1
   973  0037                     hx711_promedio@veces:
   974  0037                     ___flmul@aexp:	
   975                           ; 1 bytes @ 0x17
   976                           
   977                           
   978                           ; 1 bytes @ 0x17
   979  0037                     	ds	1
   980  0038                     ___flmul@bexp:
   981  0038                     hx711_promedio@prom:	
   982                           ; 1 bytes @ 0x18
   983                           
   984                           
   985                           ; 4 bytes @ 0x18
   986  0038                     	ds	1
   987  0039                     ___flmul@prod:
   988                           
   989                           ; 4 bytes @ 0x19
   990  0039                     	ds	1
   991  003A                     ??___fladd:
   992                           
   993                           ; 1 bytes @ 0x1A
   994  003A                     	ds	2
   995  003C                     hx711_promedio@cont:
   996                           
   997                           ; 1 bytes @ 0x1C
   998  003C                     	ds	1
   999  003D                     ?_tarar:
  1000  003D                     ?___xxtofl:	
  1001                           ; 1 bytes @ 0x1D
  1002                           
  1003  003D                     tarar@ganancia:	
  1004                           ; 4 bytes @ 0x1D
  1005                           
  1006  003D                     ___flmul@temp:	
  1007                           ; 1 bytes @ 0x1D
  1008                           
  1009  003D                     ___xxtofl@val:	
  1010                           ; 2 bytes @ 0x1D
  1011                           
  1012                           
  1013                           ; 4 bytes @ 0x1D
  1014  003D                     	ds	1
  1015  003E                     ??_tarar:
  1016                           
  1017                           ; 1 bytes @ 0x1E
  1018  003E                     	ds	1
  1019  003F                     tarar@veces:
  1020                           
  1021                           ; 1 bytes @ 0x1F
  1022  003F                     	ds	2
  1023  0041                     ??___xxtofl:
  1024                           
  1025                           ; 1 bytes @ 0x21
  1026  0041                     	ds	1
  1027  0042                     ___fladd@signs:
  1028                           
  1029                           ; 1 bytes @ 0x22
  1030  0042                     	ds	1
  1031  0043                     ___fladd@aexp:
  1032                           
  1033                           ; 1 bytes @ 0x23
  1034  0043                     	ds	1
  1035  0044                     ___fladd@bexp:
  1036                           
  1037                           ; 1 bytes @ 0x24
  1038  0044                     	ds	1
  1039  0045                     ___fladd@grs:
  1040  0045                     ___xxtofl@sign:	
  1041                           ; 1 bytes @ 0x25
  1042                           
  1043                           
  1044                           ; 1 bytes @ 0x25
  1045  0045                     	ds	1
  1046  0046                     ___xxtofl@exp:
  1047                           
  1048                           ; 1 bytes @ 0x26
  1049  0046                     	ds	1
  1050  0047                     ___xxtofl@arg:
  1051                           
  1052                           ; 4 bytes @ 0x27
  1053  0047                     	ds	4
  1054  004B                     ?___flsub:
  1055  004B                     ___flsub@a:	
  1056                           ; 4 bytes @ 0x2B
  1057                           
  1058                           
  1059                           ; 4 bytes @ 0x2B
  1060  004B                     	ds	4
  1061  004F                     ___flsub@b:
  1062                           
  1063                           ; 4 bytes @ 0x2F
  1064  004F                     	ds	4
  1065  0053                     ?_floattostr_:
  1066  0053                     floattostr_@numero_:	
  1067                           ; 1 bytes @ 0x33
  1068                           
  1069                           
  1070                           ; 4 bytes @ 0x33
  1071  0053                     	ds	4
  1072  0057                     floattostr_@cadena_:
  1073                           
  1074                           ; 2 bytes @ 0x37
  1075  0057                     	ds	2
  1076  0059                     floattostr_@decimales_:
  1077                           
  1078                           ; 1 bytes @ 0x39
  1079  0059                     	ds	1
  1080  005A                     ??_floattostr_:
  1081                           
  1082                           ; 1 bytes @ 0x3A
  1083  005A                     	ds	1
  1084  005B                     floattostr_@tempo_int:
  1085                           
  1086                           ; 2 bytes @ 0x3B
  1087  005B                     	ds	2
  1088  005D                     floattostr_@tempo_float:
  1089                           
  1090                           ; 4 bytes @ 0x3D
  1091  005D                     	ds	4
  1092  0061                     floattostr_@largo_n:
  1093                           
  1094                           ; 2 bytes @ 0x41
  1095  0061                     	ds	2
  1096  0063                     floattostr_@cont_for:
  1097                           
  1098                           ; 2 bytes @ 0x43
  1099  0063                     	ds	2
  1100  0065                     floattostr_@largo_entera:
  1101                           
  1102                           ; 2 bytes @ 0x45
  1103  0065                     	ds	2
  1104  0067                     ??_main:
  1105                           
  1106                           ; 1 bytes @ 0x47
  1107  0067                     	ds	5
  1108  006C                     _main$1281:
  1109                           
  1110                           ; 4 bytes @ 0x4C
  1111  006C                     	ds	4
  1112                           
  1113                           	psect	maintext
  1114  0D65                     __pmaintext:	
  1115 ;;
  1116 ;;Main: autosize = 0, tempsize = 5, incstack = 0, save=0
  1117 ;;
  1118 ;; *************** function _main *****************
  1119 ;; Defined at:
  1120 ;;		line 136 in file "Slave2.c"
  1121 ;; Parameters:    Size  Location     Type
  1122 ;;		None
  1123 ;; Auto vars:     Size  Location     Type
  1124 ;;		None
  1125 ;; Return value:  Size  Location     Type
  1126 ;;                  1    wreg      void 
  1127 ;; Registers used:
  1128 ;;		wreg, fsr0l, fsr0h, status,2, status,0, btemp+1, pclath, cstack
  1129 ;; Tracked objects:
  1130 ;;		On entry : B00/0
  1131 ;;		On exit  : 0/0
  1132 ;;		Unchanged: 0/0
  1133 ;; Data sizes:     COMMON   BANK0   BANK1   BANK3   BANK2
  1134 ;;      Params:         0       0       0       0       0
  1135 ;;      Locals:         0       4       0       0       0
  1136 ;;      Temps:          0       5       0       0       0
  1137 ;;      Totals:         0       9       0       0       0
  1138 ;;Total ram usage:        9 bytes
  1139 ;; Hardware stack levels required when called: 5
  1140 ;; This function calls:
  1141 ;;		_Lcd_Clear
  1142 ;;		_Lcd_Init
  1143 ;;		_Lcd_Set_Cursor
  1144 ;;		_Lcd_Write_String
  1145 ;;		___fldiv
  1146 ;;		___flge
  1147 ;;		___flmul
  1148 ;;		___xxtofl
  1149 ;;		_floattostr_
  1150 ;;		_hx711_init
  1151 ;;		_hx711_promedio
  1152 ;;		_setup
  1153 ;;		_tarar
  1154 ;; This function is called by:
  1155 ;;		Startup code after reset
  1156 ;; This function uses a non-reentrant model
  1157 ;;
  1158                           
  1159                           
  1160                           ;psect for function _main
  1161  0D65                     _main:
  1162  0D65                     l3057:	
  1163                           ;incstack = 0
  1164                           ; Regs used in _main: [wreg-fsr0h+status,2+status,0+btemp+1+pclath+cstack]
  1165                           
  1166                           
  1167                           ;Slave2.c: 138:     setup();
  1168  0D65  160A  118A  260E  120A  158A  	fcall	_setup
  1169                           
  1170                           ;Slave2.c: 139:     hx711_init();
  1171  0D6A  160A  118A  24DB  120A  158A  	fcall	_hx711_init
  1172                           
  1173                           ;Slave2.c: 140:     floattostr_(offset,offsett,1);
  1174  0D6F  1683               	bsf	3,5	;RP0=1, select bank1
  1175  0D70  1303               	bcf	3,6	;RP1=0, select bank1
  1176  0D71  0861               	movf	(_offset+3)^(0+128),w
  1177  0D72  1283               	bcf	3,5	;RP0=0, select bank0
  1178  0D73  1303               	bcf	3,6	;RP1=0, select bank0
  1179  0D74  00C0               	movwf	___xxtofl@val+3
  1180  0D75  1683               	bsf	3,5	;RP0=1, select bank1
  1181  0D76  1303               	bcf	3,6	;RP1=0, select bank1
  1182  0D77  0860               	movf	(_offset+2)^(0+128),w
  1183  0D78  1283               	bcf	3,5	;RP0=0, select bank0
  1184  0D79  1303               	bcf	3,6	;RP1=0, select bank0
  1185  0D7A  00BF               	movwf	___xxtofl@val+2
  1186  0D7B  1683               	bsf	3,5	;RP0=1, select bank1
  1187  0D7C  1303               	bcf	3,6	;RP1=0, select bank1
  1188  0D7D  085F               	movf	(_offset+1)^(0+128),w
  1189  0D7E  1283               	bcf	3,5	;RP0=0, select bank0
  1190  0D7F  1303               	bcf	3,6	;RP1=0, select bank0
  1191  0D80  00BE               	movwf	___xxtofl@val+1
  1192  0D81  1683               	bsf	3,5	;RP0=1, select bank1
  1193  0D82  1303               	bcf	3,6	;RP1=0, select bank1
  1194  0D83  085E               	movf	_offset^(0+128),w
  1195  0D84  1283               	bcf	3,5	;RP0=0, select bank0
  1196  0D85  1303               	bcf	3,6	;RP1=0, select bank0
  1197  0D86  00BD               	movwf	___xxtofl@val
  1198  0D87  3001               	movlw	1
  1199  0D88  120A  118A  272B  120A  158A  	fcall	___xxtofl
  1200  0D8D  1283               	bcf	3,5	;RP0=0, select bank0
  1201  0D8E  1303               	bcf	3,6	;RP1=0, select bank0
  1202  0D8F  0840               	movf	?___xxtofl+3,w
  1203  0D90  00EF               	movwf	_main$1281+3
  1204  0D91  083F               	movf	?___xxtofl+2,w
  1205  0D92  00EE               	movwf	_main$1281+2
  1206  0D93  083E               	movf	?___xxtofl+1,w
  1207  0D94  00ED               	movwf	_main$1281+1
  1208  0D95  083D               	movf	?___xxtofl,w
  1209  0D96  00EC               	movwf	_main$1281
  1210  0D97                     l3059:
  1211                           
  1212                           ;Slave2.c: 140:     floattostr_(offset,offsett,1);
  1213  0D97  086F               	movf	_main$1281+3,w
  1214  0D98  00D6               	movwf	floattostr_@numero_+3
  1215  0D99  086E               	movf	_main$1281+2,w
  1216  0D9A  00D5               	movwf	floattostr_@numero_+2
  1217  0D9B  086D               	movf	_main$1281+1,w
  1218  0D9C  00D4               	movwf	floattostr_@numero_+1
  1219  0D9D  086C               	movf	_main$1281,w
  1220  0D9E  00D3               	movwf	floattostr_@numero_
  1221  0D9F  30A8               	movlw	(low (_offsett| 0))& (0+255)
  1222  0DA0  00D7               	movwf	floattostr_@cadena_
  1223  0DA1  3000               	movlw	0
  1224  0DA2  00D8               	movwf	floattostr_@cadena_+1
  1225  0DA3  01D9               	clrf	floattostr_@decimales_
  1226  0DA4  0AD9               	incf	floattostr_@decimales_,f
  1227  0DA5  120A  118A  2394  120A  158A  	fcall	_floattostr_
  1228  0DAA                     l3061:
  1229                           
  1230                           ;Slave2.c: 141:     Lcd_Init();
  1231  0DAA  160A  118A  25C9  120A  158A  	fcall	_Lcd_Init
  1232  0DAF                     l3063:
  1233                           
  1234                           ;Slave2.c: 142:     Lcd_Clear();
  1235  0DAF  160A  118A  24BB  120A  158A  	fcall	_Lcd_Clear
  1236  0DB4                     l3065:
  1237                           
  1238                           ;Slave2.c: 143:      Lcd_Set_Cursor(1, 8);
  1239  0DB4  3008               	movlw	8
  1240  0DB5  1283               	bcf	3,5	;RP0=0, select bank0
  1241  0DB6  1303               	bcf	3,6	;RP1=0, select bank0
  1242  0DB7  00E7               	movwf	??_main
  1243  0DB8  0867               	movf	??_main,w
  1244  0DB9  00F7               	movwf	Lcd_Set_Cursor@b
  1245  0DBA  3001               	movlw	1
  1246  0DBB  160A  118A  250A  120A  158A  	fcall	_Lcd_Set_Cursor
  1247                           
  1248                           ;Slave2.c: 144:      Lcd_Write_String("Off:");
  1249  0DC0  3013               	movlw	(low ((STR_1-__stringbase)| (0+32768)))& (0+255)
  1250  0DC1  00F6               	movwf	Lcd_Write_String@a
  1251  0DC2  3080               	movlw	128
  1252  0DC3  00F7               	movwf	Lcd_Write_String@a+1
  1253  0DC4  120A  158A  2010  120A  158A  	fcall	_Lcd_Write_String
  1254  0DC9                     l3067:
  1255                           
  1256                           ;Slave2.c: 145:      Lcd_Set_Cursor(2, 8);
  1257  0DC9  3008               	movlw	8
  1258  0DCA  1283               	bcf	3,5	;RP0=0, select bank0
  1259  0DCB  1303               	bcf	3,6	;RP1=0, select bank0
  1260  0DCC  00E7               	movwf	??_main
  1261  0DCD  0867               	movf	??_main,w
  1262  0DCE  00F7               	movwf	Lcd_Set_Cursor@b
  1263  0DCF  3002               	movlw	2
  1264  0DD0  160A  118A  250A  120A  158A  	fcall	_Lcd_Set_Cursor
  1265  0DD5                     l3069:
  1266                           
  1267                           ;Slave2.c: 146:      Lcd_Write_String(offsett);
  1268  0DD5  30A8               	movlw	(low (_offsett| 0))& (0+255)
  1269  0DD6  00F6               	movwf	Lcd_Write_String@a
  1270  0DD7  3000               	movlw	0
  1271  0DD8  00F7               	movwf	Lcd_Write_String@a+1
  1272  0DD9  120A  158A  2010  120A  158A  	fcall	_Lcd_Write_String
  1273  0DDE                     l3071:
  1274                           
  1275                           ;Slave2.c: 147:      ADCON0bits.GO = 1;
  1276  0DDE  1283               	bcf	3,5	;RP0=0, select bank0
  1277  0DDF  1303               	bcf	3,6	;RP1=0, select bank0
  1278  0DE0  149F               	bsf	31,1	;volatile
  1279  0DE1                     l3073:
  1280                           
  1281                           ;Slave2.c: 149:         if(ADCON0bits.GO == 0){
  1282  0DE1  1283               	bcf	3,5	;RP0=0, select bank0
  1283  0DE2  189F               	btfsc	31,1	;volatile
  1284  0DE3  2DE5               	goto	u4021
  1285  0DE4  2DE6               	goto	u4020
  1286  0DE5                     u4021:
  1287  0DE5  2E00               	goto	l3085
  1288  0DE6                     u4020:
  1289  0DE6                     l3075:
  1290                           
  1291                           ;Slave2.c: 150:             if (ADCON0bits.CHS == 0){
  1292  0DE6  0C1F               	rrf	31,w	;volatile
  1293  0DE7  00E7               	movwf	??_main
  1294  0DE8  0C67               	rrf	??_main,w
  1295  0DE9  390F               	andlw	15
  1296  0DEA  3A00               	xorlw	0
  1297  0DEB  1D03               	skipz
  1298  0DEC  2DEE               	goto	u4031
  1299  0DED  2DEF               	goto	u4030
  1300  0DEE                     u4031:
  1301  0DEE  2DF4               	goto	l3079
  1302  0DEF                     u4030:
  1303  0DEF                     l3077:
  1304                           
  1305                           ;Slave2.c: 151:                 ADCON0bits.CHS = 1;
  1306  0DEF  081F               	movf	31,w	;volatile
  1307  0DF0  39C3               	andlw	-61
  1308  0DF1  3804               	iorlw	4
  1309  0DF2  009F               	movwf	31	;volatile
  1310                           
  1311                           ;Slave2.c: 152:             }
  1312  0DF3  2DF6               	goto	l3081
  1313  0DF4                     l3079:
  1314                           
  1315                           ;Slave2.c: 154:                 ADCON0bits.CHS = 0;
  1316  0DF4  30C3               	movlw	-61
  1317  0DF5  059F               	andwf	31,f	;volatile
  1318  0DF6                     l3081:
  1319                           
  1320                           ;Slave2.c: 157:             _delay((unsigned long)((200)*(8000000/4000000.0)));
  1321  0DF6  3084               	movlw	132
  1322  0DF7  1283               	bcf	3,5	;RP0=0, select bank0
  1323  0DF8  1303               	bcf	3,6	;RP1=0, select bank0
  1324  0DF9  00E7               	movwf	??_main
  1325  0DFA                     u4097:
  1326  0DFA  0BE7               	decfsz	??_main,f
  1327  0DFB  2DFA               	goto	u4097
  1328  0DFC  0000               	nop
  1329  0DFD                     l3083:
  1330                           
  1331                           ;Slave2.c: 158:             ADCON0bits.GO = 1;
  1332  0DFD  1283               	bcf	3,5	;RP0=0, select bank0
  1333  0DFE  1303               	bcf	3,6	;RP1=0, select bank0
  1334  0DFF  149F               	bsf	31,1	;volatile
  1335  0E00                     l3085:
  1336                           
  1337                           ;Slave2.c: 161:     peso=hx711_promedio(10,128)-(float)offset;
  1338  0E00  3080               	movlw	128
  1339  0E01  00E7               	movwf	??_main
  1340  0E02  0867               	movf	??_main,w
  1341  0E03  00AF               	movwf	hx711_promedio@ganancia
  1342  0E04  300A               	movlw	10
  1343  0E05  160A  118A  266F  120A  158A  	fcall	_hx711_promedio
  1344  0E0A  1283               	bcf	3,5	;RP0=0, select bank0
  1345  0E0B  1303               	bcf	3,6	;RP1=0, select bank0
  1346  0E0C  082F               	movf	?_hx711_promedio,w
  1347  0E0D  00E8               	movwf	??_main+1
  1348  0E0E  0830               	movf	?_hx711_promedio+1,w
  1349  0E0F  00E9               	movwf	??_main+2
  1350  0E10  0831               	movf	?_hx711_promedio+2,w
  1351  0E11  00EA               	movwf	??_main+3
  1352  0E12  0832               	movf	?_hx711_promedio+3,w
  1353  0E13  00EB               	movwf	??_main+4
  1354  0E14  1683               	bsf	3,5	;RP0=1, select bank1
  1355  0E15  1303               	bcf	3,6	;RP1=0, select bank1
  1356  0E16  085E               	movf	_offset^(0+128),w
  1357  0E17  1283               	bcf	3,5	;RP0=0, select bank0
  1358  0E18  1303               	bcf	3,6	;RP1=0, select bank0
  1359  0E19  02E8               	subwf	??_main+1,f
  1360  0E1A  1683               	bsf	3,5	;RP0=1, select bank1
  1361  0E1B  1303               	bcf	3,6	;RP1=0, select bank1
  1362  0E1C  085F               	movf	(_offset+1)^(0+128),w
  1363  0E1D  1C03               	skipc
  1364  0E1E  0F5F               	incfsz	(_offset+1)^(0+128),w
  1365  0E1F  2E21               	goto	u4041
  1366  0E20  2E24               	goto	u4042
  1367  0E21                     u4041:
  1368  0E21  1283               	bcf	3,5	;RP0=0, select bank0
  1369  0E22  1303               	bcf	3,6	;RP1=0, select bank0
  1370  0E23  02E9               	subwf	??_main+2,f
  1371  0E24                     u4042:
  1372  0E24  1683               	bsf	3,5	;RP0=1, select bank1
  1373  0E25  1303               	bcf	3,6	;RP1=0, select bank1
  1374  0E26  0860               	movf	(_offset+2)^(0+128),w
  1375  0E27  1C03               	skipc
  1376  0E28  0F60               	incfsz	(_offset+2)^(0+128),w
  1377  0E29  2E2B               	goto	u4043
  1378  0E2A  2E2E               	goto	u4044
  1379  0E2B                     u4043:
  1380  0E2B  1283               	bcf	3,5	;RP0=0, select bank0
  1381  0E2C  1303               	bcf	3,6	;RP1=0, select bank0
  1382  0E2D  02EA               	subwf	??_main+3,f
  1383  0E2E                     u4044:
  1384  0E2E  1683               	bsf	3,5	;RP0=1, select bank1
  1385  0E2F  1303               	bcf	3,6	;RP1=0, select bank1
  1386  0E30  0861               	movf	(_offset+3)^(0+128),w
  1387  0E31  1C03               	skipc
  1388  0E32  0F61               	incfsz	(_offset+3)^(0+128),w
  1389  0E33  2E35               	goto	u4045
  1390  0E34  2E38               	goto	u4046
  1391  0E35                     u4045:
  1392  0E35  1283               	bcf	3,5	;RP0=0, select bank0
  1393  0E36  1303               	bcf	3,6	;RP1=0, select bank0
  1394  0E37  02EB               	subwf	??_main+4,f
  1395  0E38                     u4046:
  1396  0E38  1683               	bsf	3,5	;RP0=1, select bank1
  1397  0E39  1303               	bcf	3,6	;RP1=0, select bank1
  1398  0E3A  1283               	bcf	3,5	;RP0=0, select bank0
  1399  0E3B  1303               	bcf	3,6	;RP1=0, select bank0
  1400  0E3C  086B               	movf	??_main+4,w
  1401  0E3D  00C0               	movwf	___xxtofl@val+3
  1402  0E3E  086A               	movf	??_main+3,w
  1403  0E3F  00BF               	movwf	___xxtofl@val+2
  1404  0E40  0869               	movf	??_main+2,w
  1405  0E41  00BE               	movwf	___xxtofl@val+1
  1406  0E42  0868               	movf	??_main+1,w
  1407  0E43  00BD               	movwf	___xxtofl@val
  1408  0E44  3001               	movlw	1
  1409  0E45  120A  118A  272B  120A  158A  	fcall	___xxtofl
  1410  0E4A  1283               	bcf	3,5	;RP0=0, select bank0
  1411  0E4B  1303               	bcf	3,6	;RP1=0, select bank0
  1412  0E4C  0840               	movf	?___xxtofl+3,w
  1413  0E4D  1683               	bsf	3,5	;RP0=1, select bank1
  1414  0E4E  1303               	bcf	3,6	;RP1=0, select bank1
  1415  0E4F  00A3               	movwf	(_peso+3)^(0+128)
  1416  0E50  1283               	bcf	3,5	;RP0=0, select bank0
  1417  0E51  1303               	bcf	3,6	;RP1=0, select bank0
  1418  0E52  083F               	movf	?___xxtofl+2,w
  1419  0E53  1683               	bsf	3,5	;RP0=1, select bank1
  1420  0E54  1303               	bcf	3,6	;RP1=0, select bank1
  1421  0E55  00A2               	movwf	(_peso+2)^(0+128)
  1422  0E56  1283               	bcf	3,5	;RP0=0, select bank0
  1423  0E57  1303               	bcf	3,6	;RP1=0, select bank0
  1424  0E58  083E               	movf	?___xxtofl+1,w
  1425  0E59  1683               	bsf	3,5	;RP0=1, select bank1
  1426  0E5A  1303               	bcf	3,6	;RP1=0, select bank1
  1427  0E5B  00A1               	movwf	(_peso+1)^(0+128)
  1428  0E5C  1283               	bcf	3,5	;RP0=0, select bank0
  1429  0E5D  1303               	bcf	3,6	;RP1=0, select bank0
  1430  0E5E  083D               	movf	?___xxtofl,w
  1431  0E5F  1683               	bsf	3,5	;RP0=1, select bank1
  1432  0E60  1303               	bcf	3,6	;RP1=0, select bank1
  1433  0E61  00A0               	movwf	_peso^(0+128)
  1434  0E62                     l3087:
  1435                           
  1436                           ;Slave2.c: 162:     peso=peso*factor;
  1437  0E62  0865               	movf	(_factor+3)^(0+128),w
  1438  0E63  1283               	bcf	3,5	;RP0=0, select bank0
  1439  0E64  1303               	bcf	3,6	;RP1=0, select bank0
  1440  0E65  00A8               	movwf	___flmul@b+3
  1441  0E66  1683               	bsf	3,5	;RP0=1, select bank1
  1442  0E67  1303               	bcf	3,6	;RP1=0, select bank1
  1443  0E68  0864               	movf	(_factor+2)^(0+128),w
  1444  0E69  1283               	bcf	3,5	;RP0=0, select bank0
  1445  0E6A  1303               	bcf	3,6	;RP1=0, select bank0
  1446  0E6B  00A7               	movwf	___flmul@b+2
  1447  0E6C  1683               	bsf	3,5	;RP0=1, select bank1
  1448  0E6D  1303               	bcf	3,6	;RP1=0, select bank1
  1449  0E6E  0863               	movf	(_factor+1)^(0+128),w
  1450  0E6F  1283               	bcf	3,5	;RP0=0, select bank0
  1451  0E70  1303               	bcf	3,6	;RP1=0, select bank0
  1452  0E71  00A6               	movwf	___flmul@b+1
  1453  0E72  1683               	bsf	3,5	;RP0=1, select bank1
  1454  0E73  1303               	bcf	3,6	;RP1=0, select bank1
  1455  0E74  0862               	movf	_factor^(0+128),w
  1456  0E75  1283               	bcf	3,5	;RP0=0, select bank0
  1457  0E76  1303               	bcf	3,6	;RP1=0, select bank0
  1458  0E77  00A5               	movwf	___flmul@b
  1459  0E78  1683               	bsf	3,5	;RP0=1, select bank1
  1460  0E79  1303               	bcf	3,6	;RP1=0, select bank1
  1461  0E7A  0823               	movf	(_peso+3)^(0+128),w
  1462  0E7B  1283               	bcf	3,5	;RP0=0, select bank0
  1463  0E7C  1303               	bcf	3,6	;RP1=0, select bank0
  1464  0E7D  00AC               	movwf	___flmul@a+3
  1465  0E7E  1683               	bsf	3,5	;RP0=1, select bank1
  1466  0E7F  1303               	bcf	3,6	;RP1=0, select bank1
  1467  0E80  0822               	movf	(_peso+2)^(0+128),w
  1468  0E81  1283               	bcf	3,5	;RP0=0, select bank0
  1469  0E82  1303               	bcf	3,6	;RP1=0, select bank0
  1470  0E83  00AB               	movwf	___flmul@a+2
  1471  0E84  1683               	bsf	3,5	;RP0=1, select bank1
  1472  0E85  1303               	bcf	3,6	;RP1=0, select bank1
  1473  0E86  0821               	movf	(_peso+1)^(0+128),w
  1474  0E87  1283               	bcf	3,5	;RP0=0, select bank0
  1475  0E88  1303               	bcf	3,6	;RP1=0, select bank0
  1476  0E89  00AA               	movwf	___flmul@a+1
  1477  0E8A  1683               	bsf	3,5	;RP0=1, select bank1
  1478  0E8B  1303               	bcf	3,6	;RP1=0, select bank1
  1479  0E8C  0820               	movf	_peso^(0+128),w
  1480  0E8D  1283               	bcf	3,5	;RP0=0, select bank0
  1481  0E8E  1303               	bcf	3,6	;RP1=0, select bank0
  1482  0E8F  00A9               	movwf	___flmul@a
  1483  0E90  120A  118A  2033  120A  158A  	fcall	___flmul
  1484  0E95  1283               	bcf	3,5	;RP0=0, select bank0
  1485  0E96  1303               	bcf	3,6	;RP1=0, select bank0
  1486  0E97  0828               	movf	?___flmul+3,w
  1487  0E98  1683               	bsf	3,5	;RP0=1, select bank1
  1488  0E99  1303               	bcf	3,6	;RP1=0, select bank1
  1489  0E9A  00A3               	movwf	(_peso+3)^(0+128)
  1490  0E9B  1283               	bcf	3,5	;RP0=0, select bank0
  1491  0E9C  1303               	bcf	3,6	;RP1=0, select bank0
  1492  0E9D  0827               	movf	?___flmul+2,w
  1493  0E9E  1683               	bsf	3,5	;RP0=1, select bank1
  1494  0E9F  1303               	bcf	3,6	;RP1=0, select bank1
  1495  0EA0  00A2               	movwf	(_peso+2)^(0+128)
  1496  0EA1  1283               	bcf	3,5	;RP0=0, select bank0
  1497  0EA2  1303               	bcf	3,6	;RP1=0, select bank0
  1498  0EA3  0826               	movf	?___flmul+1,w
  1499  0EA4  1683               	bsf	3,5	;RP0=1, select bank1
  1500  0EA5  1303               	bcf	3,6	;RP1=0, select bank1
  1501  0EA6  00A1               	movwf	(_peso+1)^(0+128)
  1502  0EA7  1283               	bcf	3,5	;RP0=0, select bank0
  1503  0EA8  1303               	bcf	3,6	;RP1=0, select bank0
  1504  0EA9  0825               	movf	?___flmul,w
  1505  0EAA  1683               	bsf	3,5	;RP0=1, select bank1
  1506  0EAB  1303               	bcf	3,6	;RP1=0, select bank1
  1507  0EAC  00A0               	movwf	_peso^(0+128)
  1508  0EAD                     l3089:
  1509                           
  1510                           ;Slave2.c: 163:    if (peso<=0) peso=0;
  1511  0EAD  3000               	movlw	0
  1512  0EAE  00F6               	movwf	___flge@ff1+3
  1513  0EAF  3000               	movlw	0
  1514  0EB0  00F5               	movwf	___flge@ff1+2
  1515  0EB1  3000               	movlw	0
  1516  0EB2  00F4               	movwf	___flge@ff1+1
  1517  0EB3  3000               	movlw	0
  1518  0EB4  00F3               	movwf	___flge@ff1
  1519  0EB5  0823               	movf	(_peso+3)^(0+128),w
  1520  0EB6  00FA               	movwf	___flge@ff2+3
  1521  0EB7  0822               	movf	(_peso+2)^(0+128),w
  1522  0EB8  00F9               	movwf	___flge@ff2+2
  1523  0EB9  0821               	movf	(_peso+1)^(0+128),w
  1524  0EBA  00F8               	movwf	___flge@ff2+1
  1525  0EBB  0820               	movf	_peso^(0+128),w
  1526  0EBC  00F7               	movwf	___flge@ff2
  1527  0EBD  120A  158A  2056  120A  158A  	fcall	___flge
  1528  0EC2  1C03               	btfss	3,0
  1529  0EC3  2EC5               	goto	u4051
  1530  0EC4  2EC6               	goto	u4050
  1531  0EC5                     u4051:
  1532  0EC5  2ED0               	goto	l3093
  1533  0EC6                     u4050:
  1534  0EC6                     l3091:
  1535  0EC6  3000               	movlw	0
  1536  0EC7  1683               	bsf	3,5	;RP0=1, select bank1
  1537  0EC8  1303               	bcf	3,6	;RP1=0, select bank1
  1538  0EC9  00A3               	movwf	(_peso+3)^(0+128)
  1539  0ECA  3000               	movlw	0
  1540  0ECB  00A2               	movwf	(_peso+2)^(0+128)
  1541  0ECC  3000               	movlw	0
  1542  0ECD  00A1               	movwf	(_peso+1)^(0+128)
  1543  0ECE  3000               	movlw	0
  1544  0ECF  00A0               	movwf	_peso^(0+128)
  1545  0ED0                     l3093:
  1546                           
  1547                           ;Slave2.c: 164:      floattostr_(peso,texto,1);
  1548  0ED0  1683               	bsf	3,5	;RP0=1, select bank1
  1549  0ED1  1303               	bcf	3,6	;RP1=0, select bank1
  1550  0ED2  0823               	movf	(_peso+3)^(0+128),w
  1551  0ED3  1283               	bcf	3,5	;RP0=0, select bank0
  1552  0ED4  1303               	bcf	3,6	;RP1=0, select bank0
  1553  0ED5  00D6               	movwf	floattostr_@numero_+3
  1554  0ED6  1683               	bsf	3,5	;RP0=1, select bank1
  1555  0ED7  1303               	bcf	3,6	;RP1=0, select bank1
  1556  0ED8  0822               	movf	(_peso+2)^(0+128),w
  1557  0ED9  1283               	bcf	3,5	;RP0=0, select bank0
  1558  0EDA  1303               	bcf	3,6	;RP1=0, select bank0
  1559  0EDB  00D5               	movwf	floattostr_@numero_+2
  1560  0EDC  1683               	bsf	3,5	;RP0=1, select bank1
  1561  0EDD  1303               	bcf	3,6	;RP1=0, select bank1
  1562  0EDE  0821               	movf	(_peso+1)^(0+128),w
  1563  0EDF  1283               	bcf	3,5	;RP0=0, select bank0
  1564  0EE0  1303               	bcf	3,6	;RP1=0, select bank0
  1565  0EE1  00D4               	movwf	floattostr_@numero_+1
  1566  0EE2  1683               	bsf	3,5	;RP0=1, select bank1
  1567  0EE3  1303               	bcf	3,6	;RP1=0, select bank1
  1568  0EE4  0820               	movf	_peso^(0+128),w
  1569  0EE5  1283               	bcf	3,5	;RP0=0, select bank0
  1570  0EE6  1303               	bcf	3,6	;RP1=0, select bank0
  1571  0EE7  00D3               	movwf	floattostr_@numero_
  1572  0EE8  30C1               	movlw	(low (_texto| 0))& (0+255)
  1573  0EE9  00D7               	movwf	floattostr_@cadena_
  1574  0EEA  3000               	movlw	0
  1575  0EEB  00D8               	movwf	floattostr_@cadena_+1
  1576  0EEC  01D9               	clrf	floattostr_@decimales_
  1577  0EED  0AD9               	incf	floattostr_@decimales_,f
  1578  0EEE  120A  118A  2394  120A  158A  	fcall	_floattostr_
  1579  0EF3                     l3095:
  1580                           
  1581                           ;Slave2.c: 165:      Lcd_Set_Cursor(1, 1);
  1582  0EF3  01F7               	clrf	Lcd_Set_Cursor@b
  1583  0EF4  0AF7               	incf	Lcd_Set_Cursor@b,f
  1584  0EF5  3001               	movlw	1
  1585  0EF6  160A  118A  250A  120A  158A  	fcall	_Lcd_Set_Cursor
  1586  0EFB                     l3097:
  1587                           
  1588                           ;Slave2.c: 166:      Lcd_Write_String("PESO:");
  1589  0EFB  300D               	movlw	(low ((STR_2-__stringbase)| (0+32768)))& (0+255)
  1590  0EFC  00F6               	movwf	Lcd_Write_String@a
  1591  0EFD  3080               	movlw	128
  1592  0EFE  00F7               	movwf	Lcd_Write_String@a+1
  1593  0EFF  120A  158A  2010  120A  158A  	fcall	_Lcd_Write_String
  1594  0F04                     l3099:
  1595                           
  1596                           ;Slave2.c: 167:      Lcd_Set_Cursor(2, 1);
  1597  0F04  01F7               	clrf	Lcd_Set_Cursor@b
  1598  0F05  0AF7               	incf	Lcd_Set_Cursor@b,f
  1599  0F06  3002               	movlw	2
  1600  0F07  160A  118A  250A  120A  158A  	fcall	_Lcd_Set_Cursor
  1601  0F0C                     l3101:
  1602                           
  1603                           ;Slave2.c: 168:      Lcd_Write_String(texto);
  1604  0F0C  30C1               	movlw	(low (_texto| 0))& (0+255)
  1605  0F0D  00F6               	movwf	Lcd_Write_String@a
  1606  0F0E  3000               	movlw	0
  1607  0F0F  00F7               	movwf	Lcd_Write_String@a+1
  1608  0F10  120A  158A  2010  120A  158A  	fcall	_Lcd_Write_String
  1609  0F15                     l3103:
  1610                           
  1611                           ;Slave2.c: 170:     if(PORTDbits.RD5==1)
  1612  0F15  1283               	bcf	3,5	;RP0=0, select bank0
  1613  0F16  1303               	bcf	3,6	;RP1=0, select bank0
  1614  0F17  1E88               	btfss	8,5	;volatile
  1615  0F18  2F1A               	goto	u4061
  1616  0F19  2F1B               	goto	u4060
  1617  0F1A                     u4061:
  1618  0F1A  2F75               	goto	l3111
  1619  0F1B                     u4060:
  1620  0F1B                     l3105:
  1621                           
  1622                           ;Slave2.c: 171:    {;Slave2.c: 172:     tarar(10,128);
  1623  0F1B  3080               	movlw	128
  1624  0F1C  00E7               	movwf	??_main
  1625  0F1D  0867               	movf	??_main,w
  1626  0F1E  00BD               	movwf	tarar@ganancia
  1627  0F1F  300A               	movlw	10
  1628  0F20  160A  118A  2552  120A  158A  	fcall	_tarar
  1629                           
  1630                           ;Slave2.c: 173:     floattostr_(offset,tarart,1);
  1631  0F25  1683               	bsf	3,5	;RP0=1, select bank1
  1632  0F26  1303               	bcf	3,6	;RP1=0, select bank1
  1633  0F27  0861               	movf	(_offset+3)^(0+128),w
  1634  0F28  1283               	bcf	3,5	;RP0=0, select bank0
  1635  0F29  1303               	bcf	3,6	;RP1=0, select bank0
  1636  0F2A  00C0               	movwf	___xxtofl@val+3
  1637  0F2B  1683               	bsf	3,5	;RP0=1, select bank1
  1638  0F2C  1303               	bcf	3,6	;RP1=0, select bank1
  1639  0F2D  0860               	movf	(_offset+2)^(0+128),w
  1640  0F2E  1283               	bcf	3,5	;RP0=0, select bank0
  1641  0F2F  1303               	bcf	3,6	;RP1=0, select bank0
  1642  0F30  00BF               	movwf	___xxtofl@val+2
  1643  0F31  1683               	bsf	3,5	;RP0=1, select bank1
  1644  0F32  1303               	bcf	3,6	;RP1=0, select bank1
  1645  0F33  085F               	movf	(_offset+1)^(0+128),w
  1646  0F34  1283               	bcf	3,5	;RP0=0, select bank0
  1647  0F35  1303               	bcf	3,6	;RP1=0, select bank0
  1648  0F36  00BE               	movwf	___xxtofl@val+1
  1649  0F37  1683               	bsf	3,5	;RP0=1, select bank1
  1650  0F38  1303               	bcf	3,6	;RP1=0, select bank1
  1651  0F39  085E               	movf	_offset^(0+128),w
  1652  0F3A  1283               	bcf	3,5	;RP0=0, select bank0
  1653  0F3B  1303               	bcf	3,6	;RP1=0, select bank0
  1654  0F3C  00BD               	movwf	___xxtofl@val
  1655  0F3D  3001               	movlw	1
  1656  0F3E  120A  118A  272B  120A  158A  	fcall	___xxtofl
  1657  0F43  1283               	bcf	3,5	;RP0=0, select bank0
  1658  0F44  1303               	bcf	3,6	;RP1=0, select bank0
  1659  0F45  0840               	movf	?___xxtofl+3,w
  1660  0F46  00EF               	movwf	_main$1281+3
  1661  0F47  083F               	movf	?___xxtofl+2,w
  1662  0F48  00EE               	movwf	_main$1281+2
  1663  0F49  083E               	movf	?___xxtofl+1,w
  1664  0F4A  00ED               	movwf	_main$1281+1
  1665  0F4B  083D               	movf	?___xxtofl,w
  1666  0F4C  00EC               	movwf	_main$1281
  1667  0F4D                     l3107:
  1668                           
  1669                           ;Slave2.c: 173:     floattostr_(offset,tarart,1);
  1670  0F4D  086F               	movf	_main$1281+3,w
  1671  0F4E  00D6               	movwf	floattostr_@numero_+3
  1672  0F4F  086E               	movf	_main$1281+2,w
  1673  0F50  00D5               	movwf	floattostr_@numero_+2
  1674  0F51  086D               	movf	_main$1281+1,w
  1675  0F52  00D4               	movwf	floattostr_@numero_+1
  1676  0F53  086C               	movf	_main$1281,w
  1677  0F54  00D3               	movwf	floattostr_@numero_
  1678  0F55  3090               	movlw	(low (_tarart| (0+256)))& (0+255)
  1679  0F56  00D7               	movwf	floattostr_@cadena_
  1680  0F57  3001               	movlw	1
  1681  0F58  00D8               	movwf	floattostr_@cadena_+1
  1682  0F59  01D9               	clrf	floattostr_@decimales_
  1683  0F5A  0AD9               	incf	floattostr_@decimales_,f
  1684  0F5B  120A  118A  2394  120A  158A  	fcall	_floattostr_
  1685  0F60                     l3109:
  1686                           
  1687                           ;Slave2.c: 174:     Lcd_Set_Cursor(2, 8);
  1688  0F60  3008               	movlw	8
  1689  0F61  1283               	bcf	3,5	;RP0=0, select bank0
  1690  0F62  1303               	bcf	3,6	;RP1=0, select bank0
  1691  0F63  00E7               	movwf	??_main
  1692  0F64  0867               	movf	??_main,w
  1693  0F65  00F7               	movwf	Lcd_Set_Cursor@b
  1694  0F66  3002               	movlw	2
  1695  0F67  160A  118A  250A  120A  158A  	fcall	_Lcd_Set_Cursor
  1696                           
  1697                           ;Slave2.c: 175:     Lcd_Write_String(tarart);
  1698  0F6C  3090               	movlw	(low (_tarart| (0+256)))& (0+255)
  1699  0F6D  00F6               	movwf	Lcd_Write_String@a
  1700  0F6E  3001               	movlw	1
  1701  0F6F  00F7               	movwf	Lcd_Write_String@a+1
  1702  0F70  120A  158A  2010  120A  158A  	fcall	_Lcd_Write_String
  1703  0F75                     l3111:
  1704                           
  1705                           ;Slave2.c: 179:      if (PORTDbits.RD4==1)
  1706  0F75  1283               	bcf	3,5	;RP0=0, select bank0
  1707  0F76  1303               	bcf	3,6	;RP1=0, select bank0
  1708  0F77  1E08               	btfss	8,4	;volatile
  1709  0F78  2F7A               	goto	u4071
  1710  0F79  2F7B               	goto	u4070
  1711  0F7A                     u4071:
  1712  0F7A  2DE1               	goto	l3073
  1713  0F7B                     u4070:
  1714  0F7B                     l3113:
  1715                           
  1716                           ;Slave2.c: 180:    {;Slave2.c: 181:    cal=hx711_promedio(50,128)-(float)offset;
  1717  0F7B  3080               	movlw	128
  1718  0F7C  00E7               	movwf	??_main
  1719  0F7D  0867               	movf	??_main,w
  1720  0F7E  00AF               	movwf	hx711_promedio@ganancia
  1721  0F7F  3032               	movlw	50
  1722  0F80  160A  118A  266F  120A  158A  	fcall	_hx711_promedio
  1723  0F85  1283               	bcf	3,5	;RP0=0, select bank0
  1724  0F86  1303               	bcf	3,6	;RP1=0, select bank0
  1725  0F87  082F               	movf	?_hx711_promedio,w
  1726  0F88  00E8               	movwf	??_main+1
  1727  0F89  0830               	movf	?_hx711_promedio+1,w
  1728  0F8A  00E9               	movwf	??_main+2
  1729  0F8B  0831               	movf	?_hx711_promedio+2,w
  1730  0F8C  00EA               	movwf	??_main+3
  1731  0F8D  0832               	movf	?_hx711_promedio+3,w
  1732  0F8E  00EB               	movwf	??_main+4
  1733  0F8F  1683               	bsf	3,5	;RP0=1, select bank1
  1734  0F90  1303               	bcf	3,6	;RP1=0, select bank1
  1735  0F91  085E               	movf	_offset^(0+128),w
  1736  0F92  1283               	bcf	3,5	;RP0=0, select bank0
  1737  0F93  1303               	bcf	3,6	;RP1=0, select bank0
  1738  0F94  02E8               	subwf	??_main+1,f
  1739  0F95  1683               	bsf	3,5	;RP0=1, select bank1
  1740  0F96  1303               	bcf	3,6	;RP1=0, select bank1
  1741  0F97  085F               	movf	(_offset+1)^(0+128),w
  1742  0F98  1C03               	skipc
  1743  0F99  0F5F               	incfsz	(_offset+1)^(0+128),w
  1744  0F9A  2F9C               	goto	u4081
  1745  0F9B  2F9F               	goto	u4082
  1746  0F9C                     u4081:
  1747  0F9C  1283               	bcf	3,5	;RP0=0, select bank0
  1748  0F9D  1303               	bcf	3,6	;RP1=0, select bank0
  1749  0F9E  02E9               	subwf	??_main+2,f
  1750  0F9F                     u4082:
  1751  0F9F  1683               	bsf	3,5	;RP0=1, select bank1
  1752  0FA0  1303               	bcf	3,6	;RP1=0, select bank1
  1753  0FA1  0860               	movf	(_offset+2)^(0+128),w
  1754  0FA2  1C03               	skipc
  1755  0FA3  0F60               	incfsz	(_offset+2)^(0+128),w
  1756  0FA4  2FA6               	goto	u4083
  1757  0FA5  2FA9               	goto	u4084
  1758  0FA6                     u4083:
  1759  0FA6  1283               	bcf	3,5	;RP0=0, select bank0
  1760  0FA7  1303               	bcf	3,6	;RP1=0, select bank0
  1761  0FA8  02EA               	subwf	??_main+3,f
  1762  0FA9                     u4084:
  1763  0FA9  1683               	bsf	3,5	;RP0=1, select bank1
  1764  0FAA  1303               	bcf	3,6	;RP1=0, select bank1
  1765  0FAB  0861               	movf	(_offset+3)^(0+128),w
  1766  0FAC  1C03               	skipc
  1767  0FAD  0F61               	incfsz	(_offset+3)^(0+128),w
  1768  0FAE  2FB0               	goto	u4085
  1769  0FAF  2FB3               	goto	u4086
  1770  0FB0                     u4085:
  1771  0FB0  1283               	bcf	3,5	;RP0=0, select bank0
  1772  0FB1  1303               	bcf	3,6	;RP1=0, select bank0
  1773  0FB2  02EB               	subwf	??_main+4,f
  1774  0FB3                     u4086:
  1775  0FB3  1683               	bsf	3,5	;RP0=1, select bank1
  1776  0FB4  1303               	bcf	3,6	;RP1=0, select bank1
  1777  0FB5  1283               	bcf	3,5	;RP0=0, select bank0
  1778  0FB6  1303               	bcf	3,6	;RP1=0, select bank0
  1779  0FB7  086B               	movf	??_main+4,w
  1780  0FB8  00C0               	movwf	___xxtofl@val+3
  1781  0FB9  086A               	movf	??_main+3,w
  1782  0FBA  00BF               	movwf	___xxtofl@val+2
  1783  0FBB  0869               	movf	??_main+2,w
  1784  0FBC  00BE               	movwf	___xxtofl@val+1
  1785  0FBD  0868               	movf	??_main+1,w
  1786  0FBE  00BD               	movwf	___xxtofl@val
  1787  0FBF  3001               	movlw	1
  1788  0FC0  120A  118A  272B  120A  158A  	fcall	___xxtofl
  1789  0FC5  1283               	bcf	3,5	;RP0=0, select bank0
  1790  0FC6  1303               	bcf	3,6	;RP1=0, select bank0
  1791  0FC7  0840               	movf	?___xxtofl+3,w
  1792  0FC8  1683               	bsf	3,5	;RP0=1, select bank1
  1793  0FC9  1303               	bcf	3,6	;RP1=0, select bank1
  1794  0FCA  00DD               	movwf	(_cal+3)^(0+128)
  1795  0FCB  1283               	bcf	3,5	;RP0=0, select bank0
  1796  0FCC  1303               	bcf	3,6	;RP1=0, select bank0
  1797  0FCD  083F               	movf	?___xxtofl+2,w
  1798  0FCE  1683               	bsf	3,5	;RP0=1, select bank1
  1799  0FCF  1303               	bcf	3,6	;RP1=0, select bank1
  1800  0FD0  00DC               	movwf	(_cal+2)^(0+128)
  1801  0FD1  1283               	bcf	3,5	;RP0=0, select bank0
  1802  0FD2  1303               	bcf	3,6	;RP1=0, select bank0
  1803  0FD3  083E               	movf	?___xxtofl+1,w
  1804  0FD4  1683               	bsf	3,5	;RP0=1, select bank1
  1805  0FD5  1303               	bcf	3,6	;RP1=0, select bank1
  1806  0FD6  00DB               	movwf	(_cal+1)^(0+128)
  1807  0FD7  1283               	bcf	3,5	;RP0=0, select bank0
  1808  0FD8  1303               	bcf	3,6	;RP1=0, select bank0
  1809  0FD9  083D               	movf	?___xxtofl,w
  1810  0FDA  1683               	bsf	3,5	;RP0=1, select bank1
  1811  0FDB  1303               	bcf	3,6	;RP1=0, select bank1
  1812  0FDC  00DA               	movwf	_cal^(0+128)
  1813  0FDD                     l3115:
  1814                           
  1815                           ;Slave2.c: 182:    factor= prueba/cal;
  1816  0FDD  085D               	movf	(_cal+3)^(0+128),w
  1817  0FDE  00F6               	movwf	___fldiv@a+3
  1818  0FDF  085C               	movf	(_cal+2)^(0+128),w
  1819  0FE0  00F5               	movwf	___fldiv@a+2
  1820  0FE1  085B               	movf	(_cal+1)^(0+128),w
  1821  0FE2  00F4               	movwf	___fldiv@a+1
  1822  0FE3  085A               	movf	_cal^(0+128),w
  1823  0FE4  00F3               	movwf	___fldiv@a
  1824  0FE5  3044               	movlw	68
  1825  0FE6  00FA               	movwf	___fldiv@b+3
  1826  0FE7  307A               	movlw	122
  1827  0FE8  00F9               	movwf	___fldiv@b+2
  1828  0FE9  3000               	movlw	0
  1829  0FEA  00F8               	movwf	___fldiv@b+1
  1830  0FEB  3000               	movlw	0
  1831  0FEC  00F7               	movwf	___fldiv@b
  1832  0FED  120A  158A  20FA  120A  158A  	fcall	___fldiv
  1833  0FF2  0876               	movf	?___fldiv+3,w
  1834  0FF3  1683               	bsf	3,5	;RP0=1, select bank1
  1835  0FF4  1303               	bcf	3,6	;RP1=0, select bank1
  1836  0FF5  00E5               	movwf	(_factor+3)^(0+128)
  1837  0FF6  0875               	movf	?___fldiv+2,w
  1838  0FF7  00E4               	movwf	(_factor+2)^(0+128)
  1839  0FF8  0874               	movf	?___fldiv+1,w
  1840  0FF9  00E3               	movwf	(_factor+1)^(0+128)
  1841  0FFA  0873               	movf	?___fldiv,w
  1842  0FFB  00E2               	movwf	_factor^(0+128)
  1843  0FFC  2DE1               	goto	l3073
  1844  0FFD  120A  118A  280C   	ljmp	start
  1845  1000                     __end_of_main:
  1846                           
  1847                           	psect	text1
  1848  1552                     __ptext1:	
  1849 ;; *************** function _tarar *****************
  1850 ;; Defined at:
  1851 ;;		line 104 in file "hx711.c"
  1852 ;; Parameters:    Size  Location     Type
  1853 ;;  veces           1    wreg     unsigned char 
  1854 ;;  ganancia        1   29[BANK0 ] unsigned char 
  1855 ;; Auto vars:     Size  Location     Type
  1856 ;;  veces           1   31[BANK0 ] unsigned char 
  1857 ;; Return value:  Size  Location     Type
  1858 ;;                  1    wreg      void 
  1859 ;; Registers used:
  1860 ;;		wreg, status,2, status,0, pclath, cstack
  1861 ;; Tracked objects:
  1862 ;;		On entry : 0/0
  1863 ;;		On exit  : 0/0
  1864 ;;		Unchanged: 0/0
  1865 ;; Data sizes:     COMMON   BANK0   BANK1   BANK3   BANK2
  1866 ;;      Params:         0       1       0       0       0
  1867 ;;      Locals:         0       1       0       0       0
  1868 ;;      Temps:          0       1       0       0       0
  1869 ;;      Totals:         0       3       0       0       0
  1870 ;;Total ram usage:        3 bytes
  1871 ;; Hardware stack levels used: 1
  1872 ;; Hardware stack levels required when called: 4
  1873 ;; This function calls:
  1874 ;;		_hx711_promedio
  1875 ;; This function is called by:
  1876 ;;		_main
  1877 ;; This function uses a non-reentrant model
  1878 ;;
  1879                           
  1880                           
  1881                           ;psect for function _tarar
  1882  1552                     _tarar:
  1883                           
  1884                           ;incstack = 0
  1885                           ; Regs used in _tarar: [wreg+status,2+status,0+pclath+cstack]
  1886                           ;tarar@veces stored from wreg
  1887  1552  1283               	bcf	3,5	;RP0=0, select bank0
  1888  1553  1303               	bcf	3,6	;RP1=0, select bank0
  1889  1554  00BF               	movwf	tarar@veces
  1890  1555                     l2901:
  1891                           
  1892                           ;hx711.c: 104: void tarar(unsigned char veces,unsigned char ganancia);hx711.c: 105:  {;h
      +                          x711.c: 106:          offset=hx711_promedio(veces,ganancia);
  1893  1555  083D               	movf	tarar@ganancia,w
  1894  1556  00BE               	movwf	??_tarar
  1895  1557  083E               	movf	??_tarar,w
  1896  1558  00AF               	movwf	hx711_promedio@ganancia
  1897  1559  083F               	movf	tarar@veces,w
  1898  155A  160A  118A  266F  160A  118A  	fcall	_hx711_promedio
  1899  155F  1283               	bcf	3,5	;RP0=0, select bank0
  1900  1560  1303               	bcf	3,6	;RP1=0, select bank0
  1901  1561  0832               	movf	?_hx711_promedio+3,w
  1902  1562  1683               	bsf	3,5	;RP0=1, select bank1
  1903  1563  1303               	bcf	3,6	;RP1=0, select bank1
  1904  1564  00E1               	movwf	(_offset+3)^(0+128)
  1905  1565  1283               	bcf	3,5	;RP0=0, select bank0
  1906  1566  1303               	bcf	3,6	;RP1=0, select bank0
  1907  1567  0831               	movf	?_hx711_promedio+2,w
  1908  1568  1683               	bsf	3,5	;RP0=1, select bank1
  1909  1569  1303               	bcf	3,6	;RP1=0, select bank1
  1910  156A  00E0               	movwf	(_offset+2)^(0+128)
  1911  156B  1283               	bcf	3,5	;RP0=0, select bank0
  1912  156C  1303               	bcf	3,6	;RP1=0, select bank0
  1913  156D  0830               	movf	?_hx711_promedio+1,w
  1914  156E  1683               	bsf	3,5	;RP0=1, select bank1
  1915  156F  1303               	bcf	3,6	;RP1=0, select bank1
  1916  1570  00DF               	movwf	(_offset+1)^(0+128)
  1917  1571  1283               	bcf	3,5	;RP0=0, select bank0
  1918  1572  1303               	bcf	3,6	;RP1=0, select bank0
  1919  1573  082F               	movf	?_hx711_promedio,w
  1920  1574  1683               	bsf	3,5	;RP0=1, select bank1
  1921  1575  1303               	bcf	3,6	;RP1=0, select bank1
  1922  1576  00DE               	movwf	_offset^(0+128)
  1923  1577                     l183:
  1924  1577  0008               	return
  1925  1578                     __end_of_tarar:
  1926                           
  1927                           	psect	text2
  1928  166F                     __ptext2:	
  1929 ;; *************** function _hx711_promedio *****************
  1930 ;; Defined at:
  1931 ;;		line 91 in file "hx711.c"
  1932 ;; Parameters:    Size  Location     Type
  1933 ;;  veces           1    wreg     unsigned char 
  1934 ;;  ganancia        1   15[BANK0 ] unsigned char 
  1935 ;; Auto vars:     Size  Location     Type
  1936 ;;  veces           1   23[BANK0 ] unsigned char 
  1937 ;;  prom            4   24[BANK0 ] long 
  1938 ;;  cont            1   28[BANK0 ] unsigned char 
  1939 ;; Return value:  Size  Location     Type
  1940 ;;                  4   15[BANK0 ] long 
  1941 ;; Registers used:
  1942 ;;		wreg, status,2, status,0, pclath, cstack
  1943 ;; Tracked objects:
  1944 ;;		On entry : 0/0
  1945 ;;		On exit  : 0/0
  1946 ;;		Unchanged: 0/0
  1947 ;; Data sizes:     COMMON   BANK0   BANK1   BANK3   BANK2
  1948 ;;      Params:         0       4       0       0       0
  1949 ;;      Locals:         0       6       0       0       0
  1950 ;;      Temps:          0       4       0       0       0
  1951 ;;      Totals:         0      14       0       0       0
  1952 ;;Total ram usage:       14 bytes
  1953 ;; Hardware stack levels used: 1
  1954 ;; Hardware stack levels required when called: 3
  1955 ;; This function calls:
  1956 ;;		___aldiv
  1957 ;;		_hx711_lectura
  1958 ;; This function is called by:
  1959 ;;		_main
  1960 ;;		_tarar
  1961 ;; This function uses a non-reentrant model
  1962 ;;
  1963                           
  1964                           
  1965                           ;psect for function _hx711_promedio
  1966  166F                     _hx711_promedio:
  1967                           
  1968                           ;incstack = 0
  1969                           ; Regs used in _hx711_promedio: [wreg+status,2+status,0+pclath+cstack]
  1970                           ;hx711_promedio@veces stored from wreg
  1971  166F  1283               	bcf	3,5	;RP0=0, select bank0
  1972  1670  1303               	bcf	3,6	;RP1=0, select bank0
  1973  1671  00B7               	movwf	hx711_promedio@veces
  1974  1672                     l2277:
  1975                           
  1976                           ;hx711.c: 91: signed long hx711_promedio(unsigned char veces,unsigned char ganancia);hx7
      +                          11.c: 92:  {;hx711.c: 93:         signed long prom = 0;
  1977  1672  3000               	movlw	0
  1978  1673  00BB               	movwf	hx711_promedio@prom+3
  1979  1674  3000               	movlw	0
  1980  1675  00BA               	movwf	hx711_promedio@prom+2
  1981  1676  3000               	movlw	0
  1982  1677  00B9               	movwf	hx711_promedio@prom+1
  1983  1678  3000               	movlw	0
  1984  1679  00B8               	movwf	hx711_promedio@prom
  1985  167A                     l2279:
  1986                           
  1987                           ;hx711.c: 94:         unsigned char cont;;hx711.c: 96:         for (cont = 0; cont < vec
      +                          es; cont++)
  1988  167A  01BC               	clrf	hx711_promedio@cont
  1989  167B  2EBC               	goto	l2287
  1990  167C                     l2281:
  1991                           
  1992                           ;hx711.c: 97:         {;hx711.c: 98:           prom =prom+ hx711_lectura(ganancia);
  1993  167C  082F               	movf	hx711_promedio@ganancia,w
  1994  167D  120A  118A  2650  160A  118A  	fcall	_hx711_lectura
  1995  1682  0874               	movf	?_hx711_lectura,w
  1996  1683  1283               	bcf	3,5	;RP0=0, select bank0
  1997  1684  1303               	bcf	3,6	;RP1=0, select bank0
  1998  1685  0738               	addwf	hx711_promedio@prom,w
  1999  1686  00B3               	movwf	??_hx711_promedio
  2000  1687  3000               	movlw	0
  2001  1688  1803               	skipnc
  2002  1689  3001               	movlw	1
  2003  168A  0775               	addwf	?_hx711_lectura+1,w
  2004  168B  01B5               	clrf	??_hx711_promedio+2
  2005  168C  1803               	skipnc
  2006  168D  0AB5               	incf	??_hx711_promedio+2,f
  2007  168E  0739               	addwf	hx711_promedio@prom+1,w
  2008  168F  00B4               	movwf	??_hx711_promedio+1
  2009  1690  1803               	skipnc
  2010  1691  0AB5               	incf	??_hx711_promedio+2,f
  2011  1692  0876               	movf	?_hx711_lectura+2,w
  2012  1693  0735               	addwf	??_hx711_promedio+2,w
  2013  1694  01B6               	clrf	??_hx711_promedio+3
  2014  1695  1803               	skipnc
  2015  1696  0AB6               	incf	??_hx711_promedio+3,f
  2016  1697  073A               	addwf	hx711_promedio@prom+2,w
  2017  1698  00B5               	movwf	??_hx711_promedio+2
  2018  1699  1803               	skipnc
  2019  169A  0AB6               	incf	??_hx711_promedio+3,f
  2020  169B  0877               	movf	?_hx711_lectura+3,w
  2021  169C  0736               	addwf	??_hx711_promedio+3,w
  2022  169D  073B               	addwf	hx711_promedio@prom+3,w
  2023  169E  00B6               	movwf	??_hx711_promedio+3
  2024  169F  0836               	movf	??_hx711_promedio+3,w
  2025  16A0  00BB               	movwf	hx711_promedio@prom+3
  2026  16A1  0835               	movf	??_hx711_promedio+2,w
  2027  16A2  00BA               	movwf	hx711_promedio@prom+2
  2028  16A3  0834               	movf	??_hx711_promedio+1,w
  2029  16A4  00B9               	movwf	hx711_promedio@prom+1
  2030  16A5  0833               	movf	??_hx711_promedio,w
  2031  16A6  00B8               	movwf	hx711_promedio@prom
  2032  16A7                     l2283:
  2033                           
  2034                           ;hx711.c: 99:            _delay((unsigned long)((100)*(8000000/4000.0)));
  2035  16A7  3002               	movlw	2
  2036  16A8  1283               	bcf	3,5	;RP0=0, select bank0
  2037  16A9  1303               	bcf	3,6	;RP1=0, select bank0
  2038  16AA  00B5               	movwf	??_hx711_promedio+2
  2039  16AB  3004               	movlw	4
  2040  16AC  00B4               	movwf	??_hx711_promedio+1
  2041  16AD  30B9               	movlw	185
  2042  16AE  00B3               	movwf	??_hx711_promedio
  2043  16AF                     u4107:
  2044  16AF  0BB3               	decfsz	??_hx711_promedio,f
  2045  16B0  2EAF               	goto	u4107
  2046  16B1  0BB4               	decfsz	??_hx711_promedio+1,f
  2047  16B2  2EAF               	goto	u4107
  2048  16B3  0BB5               	decfsz	??_hx711_promedio+2,f
  2049  16B4  2EAF               	goto	u4107
  2050  16B5  2EB6               	nop2
  2051  16B6                     l2285:
  2052                           
  2053                           ;hx711.c: 100:         }
  2054  16B6  3001               	movlw	1
  2055  16B7  1283               	bcf	3,5	;RP0=0, select bank0
  2056  16B8  1303               	bcf	3,6	;RP1=0, select bank0
  2057  16B9  00B3               	movwf	??_hx711_promedio
  2058  16BA  0833               	movf	??_hx711_promedio,w
  2059  16BB  07BC               	addwf	hx711_promedio@cont,f
  2060  16BC                     l2287:
  2061  16BC  0837               	movf	hx711_promedio@veces,w
  2062  16BD  023C               	subwf	hx711_promedio@cont,w
  2063  16BE  1C03               	skipc
  2064  16BF  2EC1               	goto	u2671
  2065  16C0  2EC2               	goto	u2670
  2066  16C1                     u2671:
  2067  16C1  2E7C               	goto	l2281
  2068  16C2                     u2670:
  2069  16C2                     l2289:
  2070                           
  2071                           ;hx711.c: 101:         return (prom / cont);
  2072  16C2  083C               	movf	hx711_promedio@cont,w
  2073  16C3  00B3               	movwf	??_hx711_promedio
  2074  16C4  01B4               	clrf	??_hx711_promedio+1
  2075  16C5  01B5               	clrf	??_hx711_promedio+2
  2076  16C6  01B6               	clrf	??_hx711_promedio+3
  2077  16C7  0836               	movf	??_hx711_promedio+3,w
  2078  16C8  00F6               	movwf	___aldiv@divisor+3
  2079  16C9  0835               	movf	??_hx711_promedio+2,w
  2080  16CA  00F5               	movwf	___aldiv@divisor+2
  2081  16CB  0834               	movf	??_hx711_promedio+1,w
  2082  16CC  00F4               	movwf	___aldiv@divisor+1
  2083  16CD  0833               	movf	??_hx711_promedio,w
  2084  16CE  00F3               	movwf	___aldiv@divisor
  2085  16CF  083B               	movf	hx711_promedio@prom+3,w
  2086  16D0  00FA               	movwf	___aldiv@dividend+3
  2087  16D1  083A               	movf	hx711_promedio@prom+2,w
  2088  16D2  00F9               	movwf	___aldiv@dividend+2
  2089  16D3  0839               	movf	hx711_promedio@prom+1,w
  2090  16D4  00F8               	movwf	___aldiv@dividend+1
  2091  16D5  0838               	movf	hx711_promedio@prom,w
  2092  16D6  00F7               	movwf	___aldiv@dividend
  2093  16D7  160A  118A  2763  160A  118A  	fcall	___aldiv
  2094  16DC  0876               	movf	?___aldiv+3,w
  2095  16DD  1283               	bcf	3,5	;RP0=0, select bank0
  2096  16DE  1303               	bcf	3,6	;RP1=0, select bank0
  2097  16DF  00B2               	movwf	?_hx711_promedio+3
  2098  16E0  0875               	movf	?___aldiv+2,w
  2099  16E1  00B1               	movwf	?_hx711_promedio+2
  2100  16E2  0874               	movf	?___aldiv+1,w
  2101  16E3  00B0               	movwf	?_hx711_promedio+1
  2102  16E4  0873               	movf	?___aldiv,w
  2103  16E5  00AF               	movwf	?_hx711_promedio
  2104  16E6                     l180:
  2105  16E6  0008               	return
  2106  16E7                     __end_of_hx711_promedio:
  2107                           
  2108                           	psect	text3
  2109  0650                     __ptext3:	
  2110 ;; *************** function _hx711_lectura *****************
  2111 ;; Defined at:
  2112 ;;		line 45 in file "hx711.c"
  2113 ;; Parameters:    Size  Location     Type
  2114 ;;  ganancia        1    wreg     unsigned char 
  2115 ;; Auto vars:     Size  Location     Type
  2116 ;;  ganancia        1    8[BANK0 ] unsigned char 
  2117 ;;  hx711_dato      4   11[BANK0 ] long 
  2118 ;;  hx711_cont      2    9[BANK0 ] int 
  2119 ;; Return value:  Size  Location     Type
  2120 ;;                  4    4[COMMON] long 
  2121 ;; Registers used:
  2122 ;;		wreg, status,2, status,0, pclath, cstack
  2123 ;; Tracked objects:
  2124 ;;		On entry : 0/0
  2125 ;;		On exit  : 0/0
  2126 ;;		Unchanged: 0/0
  2127 ;; Data sizes:     COMMON   BANK0   BANK1   BANK3   BANK2
  2128 ;;      Params:         4       0       0       0       0
  2129 ;;      Locals:         0       7       0       0       0
  2130 ;;      Temps:          0       8       0       0       0
  2131 ;;      Totals:         4      15       0       0       0
  2132 ;;Total ram usage:       19 bytes
  2133 ;; Hardware stack levels used: 1
  2134 ;; Hardware stack levels required when called: 2
  2135 ;; This function calls:
  2136 ;;		_hx711_pulso
  2137 ;; This function is called by:
  2138 ;;		_hx711_promedio
  2139 ;; This function uses a non-reentrant model
  2140 ;;
  2141                           
  2142                           
  2143                           ;psect for function _hx711_lectura
  2144  0650                     _hx711_lectura:
  2145                           
  2146                           ;incstack = 0
  2147                           ; Regs used in _hx711_lectura: [wreg+status,2+status,0+pclath+cstack]
  2148                           ;hx711_lectura@ganancia stored from wreg
  2149  0650  1283               	bcf	3,5	;RP0=0, select bank0
  2150  0651  1303               	bcf	3,6	;RP1=0, select bank0
  2151  0652  00A8               	movwf	hx711_lectura@ganancia
  2152  0653                     l1973:
  2153                           
  2154                           ;hx711.c: 45: signed long hx711_lectura(unsigned char ganancia);hx711.c: 46: {;hx711.c: 
      +                          47: signed int hx711_cont;;hx711.c: 48: signed long hx711_dato=0;
  2155  0653  3000               	movlw	0
  2156  0654  00AE               	movwf	hx711_lectura@hx711_dato+3
  2157  0655  3000               	movlw	0
  2158  0656  00AD               	movwf	hx711_lectura@hx711_dato+2
  2159  0657  3000               	movlw	0
  2160  0658  00AC               	movwf	hx711_lectura@hx711_dato+1
  2161  0659  3000               	movlw	0
  2162  065A  00AB               	movwf	hx711_lectura@hx711_dato
  2163  065B                     l161:	
  2164                           ;hx711.c: 51:          while (PORTDbits.RD6==1);
  2165                           
  2166  065B  1B08               	btfsc	8,6	;volatile
  2167  065C  2E5E               	goto	u1991
  2168  065D  2E5F               	goto	u1990
  2169  065E                     u1991:
  2170  065E  2E5B               	goto	l161
  2171  065F                     u1990:
  2172  065F                     l1975:
  2173                           
  2174                           ;hx711.c: 54:   for (hx711_cont=23;hx711_cont>=0;hx711_cont--)
  2175  065F  3017               	movlw	23
  2176  0660  00A9               	movwf	hx711_lectura@hx711_cont
  2177  0661  3000               	movlw	0
  2178  0662  00AA               	movwf	hx711_lectura@hx711_cont+1
  2179  0663                     l1977:
  2180  0663  1FAA               	btfss	hx711_lectura@hx711_cont+1,7
  2181  0664  2E66               	goto	u2001
  2182  0665  2E67               	goto	u2000
  2183  0666                     u2001:
  2184  0666  2E68               	goto	l1981
  2185  0667                     u2000:
  2186  0667  2EB1               	goto	l1989
  2187  0668                     l1981:
  2188                           
  2189                           ;hx711.c: 55:   {;hx711.c: 56:      if (hx711_pulso()==1)
  2190  0668  120A  158A  2002  120A  118A  	fcall	_hx711_pulso
  2191  066D  3A01               	xorlw	1
  2192  066E  1D03               	skipz
  2193  066F  2E71               	goto	u2011
  2194  0670  2E72               	goto	u2010
  2195  0671                     u2011:
  2196  0671  2EA8               	goto	l1985
  2197  0672                     u2010:
  2198  0672                     l1983:
  2199                           
  2200                           ;hx711.c: 57:      {;hx711.c: 58:        hx711_dato=hx711_dato +( 1L<<hx711_cont);
  2201  0672  1283               	bcf	3,5	;RP0=0, select bank0
  2202  0673  1303               	bcf	3,6	;RP1=0, select bank0
  2203  0674  082B               	movf	hx711_lectura@hx711_dato,w
  2204  0675  00A0               	movwf	??_hx711_lectura
  2205  0676  082C               	movf	hx711_lectura@hx711_dato+1,w
  2206  0677  00A1               	movwf	??_hx711_lectura+1
  2207  0678  082D               	movf	hx711_lectura@hx711_dato+2,w
  2208  0679  00A2               	movwf	??_hx711_lectura+2
  2209  067A  082E               	movf	hx711_lectura@hx711_dato+3,w
  2210  067B  00A3               	movwf	??_hx711_lectura+3
  2211  067C  3001               	movlw	1
  2212  067D  00A4               	movwf	??_hx711_lectura+4
  2213  067E  3000               	movlw	0
  2214  067F  00A5               	movwf	??_hx711_lectura+5
  2215  0680  3000               	movlw	0
  2216  0681  00A6               	movwf	??_hx711_lectura+6
  2217  0682  3000               	movlw	0
  2218  0683  00A7               	movwf	??_hx711_lectura+7
  2219  0684  0A29               	incf	hx711_lectura@hx711_cont,w
  2220  0685  2E8B               	goto	u2020
  2221  0686                     u2025:
  2222  0686  1003               	clrc
  2223  0687  0DA4               	rlf	??_hx711_lectura+4,f
  2224  0688  0DA5               	rlf	??_hx711_lectura+5,f
  2225  0689  0DA6               	rlf	??_hx711_lectura+6,f
  2226  068A  0DA7               	rlf	??_hx711_lectura+7,f
  2227  068B                     u2020:
  2228  068B  3EFF               	addlw	-1
  2229  068C  1D03               	skipz
  2230  068D  2E86               	goto	u2025
  2231  068E  0824               	movf	??_hx711_lectura+4,w
  2232  068F  07A0               	addwf	??_hx711_lectura,f
  2233  0690  0825               	movf	??_hx711_lectura+5,w
  2234  0691  1803               	skipnc
  2235  0692  0F25               	incfsz	??_hx711_lectura+5,w
  2236  0693  2E95               	goto	u2030
  2237  0694  2E96               	goto	u2031
  2238  0695                     u2030:
  2239  0695  07A1               	addwf	??_hx711_lectura+1,f
  2240  0696                     u2031:
  2241  0696  0826               	movf	??_hx711_lectura+6,w
  2242  0697  1803               	skipnc
  2243  0698  0F26               	incfsz	??_hx711_lectura+6,w
  2244  0699  2E9B               	goto	u2032
  2245  069A  2E9C               	goto	u2033
  2246  069B                     u2032:
  2247  069B  07A2               	addwf	??_hx711_lectura+2,f
  2248  069C                     u2033:
  2249  069C  0827               	movf	??_hx711_lectura+7,w
  2250  069D  1803               	skipnc
  2251  069E  0A27               	incf	??_hx711_lectura+7,w
  2252  069F  07A3               	addwf	??_hx711_lectura+3,f
  2253  06A0  0823               	movf	??_hx711_lectura+3,w
  2254  06A1  00AE               	movwf	hx711_lectura@hx711_dato+3
  2255  06A2  0822               	movf	??_hx711_lectura+2,w
  2256  06A3  00AD               	movwf	hx711_lectura@hx711_dato+2
  2257  06A4  0821               	movf	??_hx711_lectura+1,w
  2258  06A5  00AC               	movwf	hx711_lectura@hx711_dato+1
  2259  06A6  0820               	movf	??_hx711_lectura,w
  2260  06A7  00AB               	movwf	hx711_lectura@hx711_dato
  2261  06A8                     l1985:
  2262                           
  2263                           ;hx711.c: 60:   }
  2264  06A8  30FF               	movlw	255
  2265  06A9  1283               	bcf	3,5	;RP0=0, select bank0
  2266  06AA  1303               	bcf	3,6	;RP1=0, select bank0
  2267  06AB  07A9               	addwf	hx711_lectura@hx711_cont,f
  2268  06AC  1803               	skipnc
  2269  06AD  0AAA               	incf	hx711_lectura@hx711_cont+1,f
  2270  06AE  30FF               	movlw	255
  2271  06AF  07AA               	addwf	hx711_lectura@hx711_cont+1,f
  2272  06B0  2E63               	goto	l1977
  2273  06B1                     l1989:
  2274                           
  2275                           ;hx711.c: 61:       _delay((unsigned long)((100)*(8000000/4000000.0)));
  2276  06B1  3041               	movlw	65
  2277  06B2  1283               	bcf	3,5	;RP0=0, select bank0
  2278  06B3  1303               	bcf	3,6	;RP1=0, select bank0
  2279  06B4  00A0               	movwf	??_hx711_lectura
  2280  06B5                     u4117:
  2281  06B5  0BA0               	decfsz	??_hx711_lectura,f
  2282  06B6  2EB5               	goto	u4117
  2283  06B7  2EB8               	nop2
  2284  06B8                     l1991:
  2285                           
  2286                           ;hx711.c: 63:      if (ganancia==128) hx711_pulso();
  2287  06B8  3080               	movlw	128
  2288  06B9  1283               	bcf	3,5	;RP0=0, select bank0
  2289  06BA  1303               	bcf	3,6	;RP1=0, select bank0
  2290  06BB  0628               	xorwf	hx711_lectura@ganancia,w
  2291  06BC  1D03               	btfss	3,2
  2292  06BD  2EBF               	goto	u2041
  2293  06BE  2EC0               	goto	u2040
  2294  06BF                     u2041:
  2295  06BF  2EC6               	goto	l1995
  2296  06C0                     u2040:
  2297  06C0                     l1993:
  2298  06C0  120A  158A  2002  120A  118A  	fcall	_hx711_pulso
  2299  06C5  2EF8               	goto	l2013
  2300  06C6                     l1995:
  2301  06C6  3020               	movlw	32
  2302  06C7  0628               	xorwf	hx711_lectura@ganancia,w
  2303  06C8  1D03               	btfss	3,2
  2304  06C9  2ECB               	goto	u2051
  2305  06CA  2ECC               	goto	u2050
  2306  06CB                     u2051:
  2307  06CB  2ED9               	goto	l2003
  2308  06CC                     u2050:
  2309  06CC                     l1997:
  2310                           
  2311                           ;hx711.c: 65:      {;hx711.c: 66:       hx711_pulso();
  2312  06CC  120A  158A  2002  120A  118A  	fcall	_hx711_pulso
  2313  06D1                     l1999:
  2314                           
  2315                           ;hx711.c: 67:       _delay((unsigned long)((100)*(8000000/4000000.0)));
  2316  06D1  3041               	movlw	65
  2317  06D2  1283               	bcf	3,5	;RP0=0, select bank0
  2318  06D3  1303               	bcf	3,6	;RP1=0, select bank0
  2319  06D4  00A0               	movwf	??_hx711_lectura
  2320  06D5                     u4127:
  2321  06D5  0BA0               	decfsz	??_hx711_lectura,f
  2322  06D6  2ED5               	goto	u4127
  2323  06D7  2ED8               	nop2
  2324  06D8  2EC0               	goto	l1993
  2325  06D9                     l2003:
  2326  06D9  3040               	movlw	64
  2327  06DA  0628               	xorwf	hx711_lectura@ganancia,w
  2328  06DB  1D03               	btfss	3,2
  2329  06DC  2EDE               	goto	u2061
  2330  06DD  2EDF               	goto	u2060
  2331  06DE                     u2061:
  2332  06DE  2EF8               	goto	l2013
  2333  06DF                     u2060:
  2334  06DF                     l2005:
  2335                           
  2336                           ;hx711.c: 72:      {;hx711.c: 73:       hx711_pulso();
  2337  06DF  120A  158A  2002  120A  118A  	fcall	_hx711_pulso
  2338  06E4                     l2007:
  2339                           
  2340                           ;hx711.c: 74:       _delay((unsigned long)((100)*(8000000/4000000.0)));
  2341  06E4  3041               	movlw	65
  2342  06E5  1283               	bcf	3,5	;RP0=0, select bank0
  2343  06E6  1303               	bcf	3,6	;RP1=0, select bank0
  2344  06E7  00A0               	movwf	??_hx711_lectura
  2345  06E8                     u4137:
  2346  06E8  0BA0               	decfsz	??_hx711_lectura,f
  2347  06E9  2EE8               	goto	u4137
  2348  06EA  2EEB               	nop2
  2349  06EB                     l2009:
  2350                           
  2351                           ;hx711.c: 75:       hx711_pulso();
  2352  06EB  120A  158A  2002  120A  118A  	fcall	_hx711_pulso
  2353                           
  2354                           ;hx711.c: 76:       _delay((unsigned long)((100)*(8000000/4000000.0)));
  2355  06F0  3041               	movlw	65
  2356  06F1  1283               	bcf	3,5	;RP0=0, select bank0
  2357  06F2  1303               	bcf	3,6	;RP1=0, select bank0
  2358  06F3  00A0               	movwf	??_hx711_lectura
  2359  06F4                     u4147:
  2360  06F4  0BA0               	decfsz	??_hx711_lectura,f
  2361  06F5  2EF4               	goto	u4147
  2362  06F6  2EF7               	nop2
  2363  06F7  2EC0               	goto	l1993
  2364  06F8                     l2013:
  2365                           
  2366                           ;hx711.c: 82:     if ((hx711_dato & 0x800000)!=0)
  2367  06F8  1283               	bcf	3,5	;RP0=0, select bank0
  2368  06F9  1303               	bcf	3,6	;RP1=0, select bank0
  2369  06FA  1FAD               	btfss	hx711_lectura@hx711_dato+2,7
  2370  06FB  2EFD               	goto	u2071
  2371  06FC  2EFE               	goto	u2070
  2372  06FD                     u2071:
  2373  06FD  2F22               	goto	l2023
  2374  06FE                     u2070:
  2375  06FE                     l2015:
  2376                           
  2377                           ;hx711.c: 83:     {;hx711.c: 84:     hx711_dato=hx711_dato | 0xff000000;
  2378  06FE  3000               	movlw	0
  2379  06FF  042B               	iorwf	hx711_lectura@hx711_dato,w
  2380  0700  00A0               	movwf	??_hx711_lectura
  2381  0701  3000               	movlw	0
  2382  0702  042C               	iorwf	hx711_lectura@hx711_dato+1,w
  2383  0703  00A1               	movwf	??_hx711_lectura+1
  2384  0704  3000               	movlw	0
  2385  0705  042D               	iorwf	hx711_lectura@hx711_dato+2,w
  2386  0706  00A2               	movwf	??_hx711_lectura+2
  2387  0707  30FF               	movlw	255
  2388  0708  042E               	iorwf	hx711_lectura@hx711_dato+3,w
  2389  0709  00A3               	movwf	??_hx711_lectura+3
  2390  070A  0823               	movf	??_hx711_lectura+3,w
  2391  070B  00AE               	movwf	hx711_lectura@hx711_dato+3
  2392  070C  0822               	movf	??_hx711_lectura+2,w
  2393  070D  00AD               	movwf	hx711_lectura@hx711_dato+2
  2394  070E  0821               	movf	??_hx711_lectura+1,w
  2395  070F  00AC               	movwf	hx711_lectura@hx711_dato+1
  2396  0710  0820               	movf	??_hx711_lectura,w
  2397  0711  00AB               	movwf	hx711_lectura@hx711_dato
  2398  0712                     l2017:
  2399                           
  2400                           ;hx711.c: 85:     return (-hx711_dato);
  2401  0712  092B               	comf	hx711_lectura@hx711_dato,w
  2402  0713  00F4               	movwf	?_hx711_lectura
  2403  0714  092C               	comf	hx711_lectura@hx711_dato+1,w
  2404  0715  00F5               	movwf	?_hx711_lectura+1
  2405  0716  092D               	comf	hx711_lectura@hx711_dato+2,w
  2406  0717  00F6               	movwf	?_hx711_lectura+2
  2407  0718  092E               	comf	hx711_lectura@hx711_dato+3,w
  2408  0719  00F7               	movwf	?_hx711_lectura+3
  2409  071A  0AF4               	incf	?_hx711_lectura,f
  2410  071B  1903               	skipnz
  2411  071C  0AF5               	incf	?_hx711_lectura+1,f
  2412  071D  1903               	skipnz
  2413  071E  0AF6               	incf	?_hx711_lectura+2,f
  2414  071F  1903               	skipnz
  2415  0720  0AF7               	incf	?_hx711_lectura+3,f
  2416  0721  2F2A               	goto	l173
  2417  0722                     l2023:
  2418  0722  082E               	movf	hx711_lectura@hx711_dato+3,w
  2419  0723  00F7               	movwf	?_hx711_lectura+3
  2420  0724  082D               	movf	hx711_lectura@hx711_dato+2,w
  2421  0725  00F6               	movwf	?_hx711_lectura+2
  2422  0726  082C               	movf	hx711_lectura@hx711_dato+1,w
  2423  0727  00F5               	movwf	?_hx711_lectura+1
  2424  0728  082B               	movf	hx711_lectura@hx711_dato,w
  2425  0729  00F4               	movwf	?_hx711_lectura
  2426  072A                     l173:
  2427  072A  0008               	return
  2428  072B                     __end_of_hx711_lectura:
  2429                           
  2430                           	psect	text4
  2431  0802                     __ptext4:	
  2432 ;; *************** function _hx711_pulso *****************
  2433 ;; Defined at:
  2434 ;;		line 33 in file "hx711.c"
  2435 ;; Parameters:    Size  Location     Type
  2436 ;;		None
  2437 ;; Auto vars:     Size  Location     Type
  2438 ;;  lei             1    3[COMMON] unsigned char 
  2439 ;; Return value:  Size  Location     Type
  2440 ;;                  1    wreg      unsigned char 
  2441 ;; Registers used:
  2442 ;;		wreg, status,2
  2443 ;; Tracked objects:
  2444 ;;		On entry : 0/0
  2445 ;;		On exit  : 0/0
  2446 ;;		Unchanged: 0/0
  2447 ;; Data sizes:     COMMON   BANK0   BANK1   BANK3   BANK2
  2448 ;;      Params:         0       0       0       0       0
  2449 ;;      Locals:         1       0       0       0       0
  2450 ;;      Temps:          0       0       0       0       0
  2451 ;;      Totals:         1       0       0       0       0
  2452 ;;Total ram usage:        1 bytes
  2453 ;; Hardware stack levels used: 1
  2454 ;; Hardware stack levels required when called: 1
  2455 ;; This function calls:
  2456 ;;		Nothing
  2457 ;; This function is called by:
  2458 ;;		_hx711_lectura
  2459 ;; This function uses a non-reentrant model
  2460 ;;
  2461                           
  2462                           
  2463                           ;psect for function _hx711_pulso
  2464  0802                     _hx711_pulso:
  2465  0802                     l1961:	
  2466                           ;incstack = 0
  2467                           ; Regs used in _hx711_pulso: [wreg+status,2]
  2468                           
  2469                           
  2470                           ;hx711.c: 35: char lei;;hx711.c: 37:   PORTDbits.RD7=1;
  2471  0802  1283               	bcf	3,5	;RP0=0, select bank0
  2472  0803  1303               	bcf	3,6	;RP1=0, select bank0
  2473  0804  1788               	bsf	8,7	;volatile
  2474                           
  2475                           ;hx711.c: 38:    _delay((unsigned long)((1)*(8000000/4000000.0)));
  2476  0805  2806               	nop2	;2 cycle nop
  2477  0806                     l1963:
  2478                           
  2479                           ;hx711.c: 39:   lei=PORTDbits.RD6;
  2480  0806  3000               	movlw	0
  2481  0807  1283               	bcf	3,5	;RP0=0, select bank0
  2482  0808  1303               	bcf	3,6	;RP1=0, select bank0
  2483  0809  1B08               	btfsc	8,6	;volatile
  2484  080A  3001               	movlw	1
  2485  080B  00F3               	movwf	hx711_pulso@lei
  2486  080C                     l1965:
  2487                           
  2488                           ;hx711.c: 40:  PORTDbits.RD7=0;
  2489  080C  1388               	bcf	8,7	;volatile
  2490  080D                     l1967:
  2491                           
  2492                           ;hx711.c: 41:   _delay((unsigned long)((1)*(8000000/4000000.0)));
  2493  080D  280E               	nop2	;2 cycle nop
  2494  080E                     l1969:
  2495                           
  2496                           ;hx711.c: 42:   return lei;
  2497  080E  0873               	movf	hx711_pulso@lei,w
  2498  080F                     l158:
  2499  080F  0008               	return
  2500  0810                     __end_of_hx711_pulso:
  2501                           
  2502                           	psect	text5
  2503  1763                     __ptext5:	
  2504 ;; *************** function ___aldiv *****************
  2505 ;; Defined at:
  2506 ;;		line 5 in file "C:\Program Files\Microchip\xc8\v2.32\pic\sources\c90\common\aldiv.c"
  2507 ;; Parameters:    Size  Location     Type
  2508 ;;  divisor         4    3[COMMON] long 
  2509 ;;  dividend        4    7[COMMON] long 
  2510 ;; Auto vars:     Size  Location     Type
  2511 ;;  quotient        4    3[BANK0 ] long 
  2512 ;;  sign            1    2[BANK0 ] unsigned char 
  2513 ;;  counter         1    1[BANK0 ] unsigned char 
  2514 ;; Return value:  Size  Location     Type
  2515 ;;                  4    3[COMMON] long 
  2516 ;; Registers used:
  2517 ;;		wreg, status,2, status,0
  2518 ;; Tracked objects:
  2519 ;;		On entry : 0/0
  2520 ;;		On exit  : 0/0
  2521 ;;		Unchanged: 0/0
  2522 ;; Data sizes:     COMMON   BANK0   BANK1   BANK3   BANK2
  2523 ;;      Params:         8       0       0       0       0
  2524 ;;      Locals:         0       6       0       0       0
  2525 ;;      Temps:          0       1       0       0       0
  2526 ;;      Totals:         8       7       0       0       0
  2527 ;;Total ram usage:       15 bytes
  2528 ;; Hardware stack levels used: 1
  2529 ;; Hardware stack levels required when called: 1
  2530 ;; This function calls:
  2531 ;;		Nothing
  2532 ;; This function is called by:
  2533 ;;		_hx711_promedio
  2534 ;; This function uses a non-reentrant model
  2535 ;;
  2536                           
  2537                           
  2538                           ;psect for function ___aldiv
  2539  1763                     ___aldiv:
  2540  1763                     l2029:	
  2541                           ;incstack = 0
  2542                           ; Regs used in ___aldiv: [wreg+status,2+status,0]
  2543                           
  2544  1763  1283               	bcf	3,5	;RP0=0, select bank0
  2545  1764  1303               	bcf	3,6	;RP1=0, select bank0
  2546  1765  01A2               	clrf	___aldiv@sign
  2547  1766                     l2031:
  2548  1766  1FF6               	btfss	___aldiv@divisor+3,7
  2549  1767  2F69               	goto	u2081
  2550  1768  2F6A               	goto	u2080
  2551  1769                     u2081:
  2552  1769  2F77               	goto	l428
  2553  176A                     u2080:
  2554  176A                     l2033:
  2555  176A  09F3               	comf	___aldiv@divisor,f
  2556  176B  09F4               	comf	___aldiv@divisor+1,f
  2557  176C  09F5               	comf	___aldiv@divisor+2,f
  2558  176D  09F6               	comf	___aldiv@divisor+3,f
  2559  176E  0AF3               	incf	___aldiv@divisor,f
  2560  176F  1903               	skipnz
  2561  1770  0AF4               	incf	___aldiv@divisor+1,f
  2562  1771  1903               	skipnz
  2563  1772  0AF5               	incf	___aldiv@divisor+2,f
  2564  1773  1903               	skipnz
  2565  1774  0AF6               	incf	___aldiv@divisor+3,f
  2566  1775  01A2               	clrf	___aldiv@sign
  2567  1776  0AA2               	incf	___aldiv@sign,f
  2568  1777                     l428:
  2569  1777  1FFA               	btfss	___aldiv@dividend+3,7
  2570  1778  2F7A               	goto	u2091
  2571  1779  2F7B               	goto	u2090
  2572  177A                     u2091:
  2573  177A  2F8A               	goto	l2039
  2574  177B                     u2090:
  2575  177B                     l2035:
  2576  177B  09F7               	comf	___aldiv@dividend,f
  2577  177C  09F8               	comf	___aldiv@dividend+1,f
  2578  177D  09F9               	comf	___aldiv@dividend+2,f
  2579  177E  09FA               	comf	___aldiv@dividend+3,f
  2580  177F  0AF7               	incf	___aldiv@dividend,f
  2581  1780  1903               	skipnz
  2582  1781  0AF8               	incf	___aldiv@dividend+1,f
  2583  1782  1903               	skipnz
  2584  1783  0AF9               	incf	___aldiv@dividend+2,f
  2585  1784  1903               	skipnz
  2586  1785  0AFA               	incf	___aldiv@dividend+3,f
  2587  1786                     l2037:
  2588  1786  3001               	movlw	1
  2589  1787  00A0               	movwf	??___aldiv
  2590  1788  0820               	movf	??___aldiv,w
  2591  1789  06A2               	xorwf	___aldiv@sign,f
  2592  178A                     l2039:
  2593  178A  3000               	movlw	0
  2594  178B  00A6               	movwf	___aldiv@quotient+3
  2595  178C  3000               	movlw	0
  2596  178D  00A5               	movwf	___aldiv@quotient+2
  2597  178E  3000               	movlw	0
  2598  178F  00A4               	movwf	___aldiv@quotient+1
  2599  1790  3000               	movlw	0
  2600  1791  00A3               	movwf	___aldiv@quotient
  2601  1792                     l2041:
  2602  1792  0876               	movf	___aldiv@divisor+3,w
  2603  1793  0475               	iorwf	___aldiv@divisor+2,w
  2604  1794  0474               	iorwf	___aldiv@divisor+1,w
  2605  1795  0473               	iorwf	___aldiv@divisor,w
  2606  1796  1903               	skipnz
  2607  1797  2F99               	goto	u2101
  2608  1798  2F9A               	goto	u2100
  2609  1799                     u2101:
  2610  1799  2FE7               	goto	l2061
  2611  179A                     u2100:
  2612  179A                     l2043:
  2613  179A  01A1               	clrf	___aldiv@counter
  2614  179B  0AA1               	incf	___aldiv@counter,f
  2615  179C  2FAA               	goto	l2047
  2616  179D                     l2045:
  2617  179D  3001               	movlw	1
  2618  179E  00A0               	movwf	??___aldiv
  2619  179F                     u2115:
  2620  179F  1003               	clrc
  2621  17A0  0DF3               	rlf	___aldiv@divisor,f
  2622  17A1  0DF4               	rlf	___aldiv@divisor+1,f
  2623  17A2  0DF5               	rlf	___aldiv@divisor+2,f
  2624  17A3  0DF6               	rlf	___aldiv@divisor+3,f
  2625  17A4  0BA0               	decfsz	??___aldiv,f
  2626  17A5  2F9F               	goto	u2115
  2627  17A6  3001               	movlw	1
  2628  17A7  00A0               	movwf	??___aldiv
  2629  17A8  0820               	movf	??___aldiv,w
  2630  17A9  07A1               	addwf	___aldiv@counter,f
  2631  17AA                     l2047:
  2632  17AA  1FF6               	btfss	___aldiv@divisor+3,7
  2633  17AB  2FAD               	goto	u2121
  2634  17AC  2FAE               	goto	u2120
  2635  17AD                     u2121:
  2636  17AD  2F9D               	goto	l2045
  2637  17AE                     u2120:
  2638  17AE                     l2049:
  2639  17AE  3001               	movlw	1
  2640  17AF  00A0               	movwf	??___aldiv
  2641  17B0                     u2135:
  2642  17B0  1003               	clrc
  2643  17B1  0DA3               	rlf	___aldiv@quotient,f
  2644  17B2  0DA4               	rlf	___aldiv@quotient+1,f
  2645  17B3  0DA5               	rlf	___aldiv@quotient+2,f
  2646  17B4  0DA6               	rlf	___aldiv@quotient+3,f
  2647  17B5  0BA0               	decfsz	??___aldiv,f
  2648  17B6  2FB0               	goto	u2135
  2649  17B7                     l2051:
  2650  17B7  0876               	movf	___aldiv@divisor+3,w
  2651  17B8  027A               	subwf	___aldiv@dividend+3,w
  2652  17B9  1D03               	skipz
  2653  17BA  2FC5               	goto	u2145
  2654  17BB  0875               	movf	___aldiv@divisor+2,w
  2655  17BC  0279               	subwf	___aldiv@dividend+2,w
  2656  17BD  1D03               	skipz
  2657  17BE  2FC5               	goto	u2145
  2658  17BF  0874               	movf	___aldiv@divisor+1,w
  2659  17C0  0278               	subwf	___aldiv@dividend+1,w
  2660  17C1  1D03               	skipz
  2661  17C2  2FC5               	goto	u2145
  2662  17C3  0873               	movf	___aldiv@divisor,w
  2663  17C4  0277               	subwf	___aldiv@dividend,w
  2664  17C5                     u2145:
  2665  17C5  1C03               	skipc
  2666  17C6  2FC8               	goto	u2141
  2667  17C7  2FC9               	goto	u2140
  2668  17C8                     u2141:
  2669  17C8  2FD8               	goto	l2057
  2670  17C9                     u2140:
  2671  17C9                     l2053:
  2672  17C9  0873               	movf	___aldiv@divisor,w
  2673  17CA  02F7               	subwf	___aldiv@dividend,f
  2674  17CB  0874               	movf	___aldiv@divisor+1,w
  2675  17CC  1C03               	skipc
  2676  17CD  0F74               	incfsz	___aldiv@divisor+1,w
  2677  17CE  02F8               	subwf	___aldiv@dividend+1,f
  2678  17CF  0875               	movf	___aldiv@divisor+2,w
  2679  17D0  1C03               	skipc
  2680  17D1  0F75               	incfsz	___aldiv@divisor+2,w
  2681  17D2  02F9               	subwf	___aldiv@dividend+2,f
  2682  17D3  0876               	movf	___aldiv@divisor+3,w
  2683  17D4  1C03               	skipc
  2684  17D5  0F76               	incfsz	___aldiv@divisor+3,w
  2685  17D6  02FA               	subwf	___aldiv@dividend+3,f
  2686  17D7                     l2055:
  2687  17D7  1423               	bsf	___aldiv@quotient,0
  2688  17D8                     l2057:
  2689  17D8  3001               	movlw	1
  2690  17D9                     u2155:
  2691  17D9  1003               	clrc
  2692  17DA  0CF6               	rrf	___aldiv@divisor+3,f
  2693  17DB  0CF5               	rrf	___aldiv@divisor+2,f
  2694  17DC  0CF4               	rrf	___aldiv@divisor+1,f
  2695  17DD  0CF3               	rrf	___aldiv@divisor,f
  2696  17DE  3EFF               	addlw	-1
  2697  17DF  1D03               	skipz
  2698  17E0  2FD9               	goto	u2155
  2699  17E1                     l2059:
  2700  17E1  3001               	movlw	1
  2701  17E2  02A1               	subwf	___aldiv@counter,f
  2702  17E3  1D03               	btfss	3,2
  2703  17E4  2FE6               	goto	u2161
  2704  17E5  2FE7               	goto	u2160
  2705  17E6                     u2161:
  2706  17E6  2FAE               	goto	l2049
  2707  17E7                     u2160:
  2708  17E7                     l2061:
  2709  17E7  0822               	movf	___aldiv@sign,w
  2710  17E8  1903               	btfsc	3,2
  2711  17E9  2FEB               	goto	u2171
  2712  17EA  2FEC               	goto	u2170
  2713  17EB                     u2171:
  2714  17EB  2FF7               	goto	l2065
  2715  17EC                     u2170:
  2716  17EC                     l2063:
  2717  17EC  09A3               	comf	___aldiv@quotient,f
  2718  17ED  09A4               	comf	___aldiv@quotient+1,f
  2719  17EE  09A5               	comf	___aldiv@quotient+2,f
  2720  17EF  09A6               	comf	___aldiv@quotient+3,f
  2721  17F0  0AA3               	incf	___aldiv@quotient,f
  2722  17F1  1903               	skipnz
  2723  17F2  0AA4               	incf	___aldiv@quotient+1,f
  2724  17F3  1903               	skipnz
  2725  17F4  0AA5               	incf	___aldiv@quotient+2,f
  2726  17F5  1903               	skipnz
  2727  17F6  0AA6               	incf	___aldiv@quotient+3,f
  2728  17F7                     l2065:
  2729  17F7  0826               	movf	___aldiv@quotient+3,w
  2730  17F8  00F6               	movwf	?___aldiv+3
  2731  17F9  0825               	movf	___aldiv@quotient+2,w
  2732  17FA  00F5               	movwf	?___aldiv+2
  2733  17FB  0824               	movf	___aldiv@quotient+1,w
  2734  17FC  00F4               	movwf	?___aldiv+1
  2735  17FD  0823               	movf	___aldiv@quotient,w
  2736  17FE  00F3               	movwf	?___aldiv
  2737  17FF                     l438:
  2738  17FF  0008               	return
  2739  1800                     __end_of___aldiv:
  2740                           
  2741                           	psect	text6
  2742  160E                     __ptext6:	
  2743 ;; *************** function _setup *****************
  2744 ;; Defined at:
  2745 ;;		line 192 in file "Slave2.c"
  2746 ;; Parameters:    Size  Location     Type
  2747 ;;		None
  2748 ;; Auto vars:     Size  Location     Type
  2749 ;;		None
  2750 ;; Return value:  Size  Location     Type
  2751 ;;                  1    wreg      void 
  2752 ;; Registers used:
  2753 ;;		wreg, status,2, status,0
  2754 ;; Tracked objects:
  2755 ;;		On entry : 0/0
  2756 ;;		On exit  : 0/0
  2757 ;;		Unchanged: 0/0
  2758 ;; Data sizes:     COMMON   BANK0   BANK1   BANK3   BANK2
  2759 ;;      Params:         0       0       0       0       0
  2760 ;;      Locals:         0       0       0       0       0
  2761 ;;      Temps:          1       0       0       0       0
  2762 ;;      Totals:         1       0       0       0       0
  2763 ;;Total ram usage:        1 bytes
  2764 ;; Hardware stack levels used: 1
  2765 ;; Hardware stack levels required when called: 1
  2766 ;; This function calls:
  2767 ;;		Nothing
  2768 ;; This function is called by:
  2769 ;;		_main
  2770 ;; This function uses a non-reentrant model
  2771 ;;
  2772                           
  2773                           
  2774                           ;psect for function _setup
  2775  160E                     _setup:
  2776  160E                     l2799:	
  2777                           ;incstack = 0
  2778                           ; Regs used in _setup: [wreg+status,2+status,0]
  2779                           
  2780                           
  2781                           ;Slave2.c: 193:     ANSEL = 0b00000011;
  2782  160E  3003               	movlw	3
  2783  160F  1683               	bsf	3,5	;RP0=1, select bank3
  2784  1610  1703               	bsf	3,6	;RP1=1, select bank3
  2785  1611  0088               	movwf	8	;volatile
  2786  1612                     l2801:
  2787                           
  2788                           ;Slave2.c: 194:     ANSELH = 0;
  2789  1612  0189               	clrf	9	;volatile
  2790  1613                     l2803:
  2791                           
  2792                           ;Slave2.c: 195:     TRISA = 0X03;
  2793  1613  3003               	movlw	3
  2794  1614  1683               	bsf	3,5	;RP0=1, select bank1
  2795  1615  1303               	bcf	3,6	;RP1=0, select bank1
  2796  1616  0085               	movwf	5	;volatile
  2797  1617                     l2805:
  2798                           
  2799                           ;Slave2.c: 196:     TRISDbits.TRISD4 = 1;
  2800  1617  1608               	bsf	8,4	;volatile
  2801  1618                     l2807:
  2802                           
  2803                           ;Slave2.c: 197:     TRISDbits.TRISD5 = 1;
  2804  1618  1688               	bsf	8,5	;volatile
  2805  1619                     l2809:
  2806                           
  2807                           ;Slave2.c: 198:     TRISDbits.TRISD6 = 1;
  2808  1619  1708               	bsf	8,6	;volatile
  2809  161A                     l2811:
  2810                           
  2811                           ;Slave2.c: 199:     TRISDbits.TRISD7 = 1;
  2812  161A  1788               	bsf	8,7	;volatile
  2813                           
  2814                           ;Slave2.c: 200:     TRISB = 0;
  2815  161B  0186               	clrf	6	;volatile
  2816                           
  2817                           ;Slave2.c: 201:     TRISE = 0;
  2818  161C  0189               	clrf	9	;volatile
  2819                           
  2820                           ;Slave2.c: 203:     PORTA = 0;
  2821  161D  1283               	bcf	3,5	;RP0=0, select bank0
  2822  161E  1303               	bcf	3,6	;RP1=0, select bank0
  2823  161F  0185               	clrf	5	;volatile
  2824                           
  2825                           ;Slave2.c: 204:     PORTB = 0;
  2826  1620  0186               	clrf	6	;volatile
  2827                           
  2828                           ;Slave2.c: 205:     PORTD = 0;
  2829  1621  0188               	clrf	8	;volatile
  2830                           
  2831                           ;Slave2.c: 206:     PORTE = 0;
  2832  1622  0189               	clrf	9	;volatile
  2833  1623                     l2813:
  2834                           
  2835                           ;Slave2.c: 209:     OSCCONbits.IRCF2 = 1;
  2836  1623  1683               	bsf	3,5	;RP0=1, select bank1
  2837  1624  1303               	bcf	3,6	;RP1=0, select bank1
  2838  1625  170F               	bsf	15,6	;volatile
  2839  1626                     l2815:
  2840                           
  2841                           ;Slave2.c: 210:     OSCCONbits.IRCF1 = 1;
  2842  1626  168F               	bsf	15,5	;volatile
  2843  1627                     l2817:
  2844                           
  2845                           ;Slave2.c: 211:     OSCCONbits.IRCF0 = 1;
  2846  1627  160F               	bsf	15,4	;volatile
  2847  1628                     l2819:
  2848                           
  2849                           ;Slave2.c: 212:     OSCCONbits.SCS = 1;
  2850  1628  140F               	bsf	15,0	;volatile
  2851  1629                     l2821:
  2852                           
  2853                           ;Slave2.c: 214:   ADCON1bits.ADFM = 0;
  2854  1629  139F               	bcf	31,7	;volatile
  2855  162A                     l2823:
  2856                           
  2857                           ;Slave2.c: 215:   ADCON1bits.VCFG0 = 0;
  2858  162A  121F               	bcf	31,4	;volatile
  2859  162B                     l2825:
  2860                           
  2861                           ;Slave2.c: 216:   ADCON1bits.VCFG1 = 0;
  2862  162B  129F               	bcf	31,5	;volatile
  2863  162C                     l2827:
  2864                           
  2865                           ;Slave2.c: 218:   ADCON0bits.ADCS = 0b10;
  2866  162C  1283               	bcf	3,5	;RP0=0, select bank0
  2867  162D  1303               	bcf	3,6	;RP1=0, select bank0
  2868  162E  081F               	movf	31,w	;volatile
  2869  162F  393F               	andlw	-193
  2870  1630  3880               	iorlw	128
  2871  1631  009F               	movwf	31	;volatile
  2872  1632                     l2829:
  2873                           
  2874                           ;Slave2.c: 219:   ADCON0bits.CHS = 0;
  2875  1632  30C3               	movlw	-61
  2876  1633  059F               	andwf	31,f	;volatile
  2877  1634                     l2831:
  2878                           
  2879                           ;Slave2.c: 220:   _delay((unsigned long)((200)*(8000000/4000000.0)));
  2880  1634  3085               	movlw	133
  2881  1635  00F3               	movwf	??_setup
  2882  1636                     u4157:
  2883  1636  0BF3               	decfsz	??_setup,f
  2884  1637  2E36               	goto	u4157
  2885  1638                     l2833:
  2886                           
  2887                           ;Slave2.c: 221:   ADCON0bits.ADON = 1;
  2888  1638  1283               	bcf	3,5	;RP0=0, select bank0
  2889  1639  1303               	bcf	3,6	;RP1=0, select bank0
  2890  163A  141F               	bsf	31,0	;volatile
  2891  163B                     l2835:
  2892                           
  2893                           ;Slave2.c: 222:   _delay((unsigned long)((200)*(8000000/4000000.0)));
  2894  163B  3085               	movlw	133
  2895  163C  00F3               	movwf	??_setup
  2896  163D                     u4167:
  2897  163D  0BF3               	decfsz	??_setup,f
  2898  163E  2E3D               	goto	u4167
  2899  163F                     l2837:
  2900                           
  2901                           ;Slave2.c: 224:   TRISCbits.TRISC2 = 1;
  2902  163F  1683               	bsf	3,5	;RP0=1, select bank1
  2903  1640  1303               	bcf	3,6	;RP1=0, select bank1
  2904  1641  1507               	bsf	7,2	;volatile
  2905  1642                     l2839:
  2906                           
  2907                           ;Slave2.c: 225:   TRISCbits.TRISC1 = 1;
  2908  1642  1487               	bsf	7,1	;volatile
  2909  1643                     l2841:
  2910                           
  2911                           ;Slave2.c: 226:   PR2 = 250;
  2912  1643  30FA               	movlw	250
  2913  1644  0092               	movwf	18	;volatile
  2914  1645                     l2843:
  2915                           
  2916                           ;Slave2.c: 227:   CCP1CONbits.P1M = 0;
  2917  1645  303F               	movlw	-193
  2918  1646  1283               	bcf	3,5	;RP0=0, select bank0
  2919  1647  1303               	bcf	3,6	;RP1=0, select bank0
  2920  1648  0597               	andwf	23,f	;volatile
  2921  1649                     l2845:
  2922                           
  2923                           ;Slave2.c: 228:   CCP2CONbits.CCP2M = 0b1100;
  2924  1649  081D               	movf	29,w	;volatile
  2925  164A  39F0               	andlw	-16
  2926  164B  380C               	iorlw	12
  2927  164C  009D               	movwf	29	;volatile
  2928  164D                     l2847:
  2929                           
  2930                           ;Slave2.c: 229:   CCP1CONbits.CCP1M = 0b1100;
  2931  164D  0817               	movf	23,w	;volatile
  2932  164E  39F0               	andlw	-16
  2933  164F  380C               	iorlw	12
  2934  1650  0097               	movwf	23	;volatile
  2935  1651                     l2849:
  2936                           
  2937                           ;Slave2.c: 231:   CCPR1L = 0X0F;
  2938  1651  300F               	movlw	15
  2939  1652  0095               	movwf	21	;volatile
  2940  1653                     l2851:
  2941                           
  2942                           ;Slave2.c: 232:   CCPR2L = 0X0F;
  2943  1653  300F               	movlw	15
  2944  1654  009B               	movwf	27	;volatile
  2945  1655                     l2853:
  2946                           
  2947                           ;Slave2.c: 233:   CCP1CONbits.DC1B = 0;
  2948  1655  30CF               	movlw	-49
  2949  1656  0597               	andwf	23,f	;volatile
  2950  1657                     l2855:
  2951                           
  2952                           ;Slave2.c: 234:   CCP2CONbits.DC2B0 = 0;
  2953  1657  121D               	bcf	29,4	;volatile
  2954  1658                     l2857:
  2955                           
  2956                           ;Slave2.c: 235:   CCP2CONbits.DC2B1 = 0;
  2957  1658  129D               	bcf	29,5	;volatile
  2958  1659                     l2859:
  2959                           
  2960                           ;Slave2.c: 238:   PIR1bits.TMR2IF = 0;
  2961  1659  108C               	bcf	12,1	;volatile
  2962  165A                     l2861:
  2963                           
  2964                           ;Slave2.c: 239:   T2CONbits.T2CKPS = 0b11;
  2965  165A  3003               	movlw	3
  2966  165B  0492               	iorwf	18,f	;volatile
  2967  165C                     l2863:
  2968                           
  2969                           ;Slave2.c: 240:   T2CONbits.TMR2ON = 1;
  2970  165C  1512               	bsf	18,2	;volatile
  2971  165D                     l141:	
  2972                           ;Slave2.c: 242:   while(PIR1bits.TMR2IF == 0);
  2973                           
  2974  165D  1C8C               	btfss	12,1	;volatile
  2975  165E  2E60               	goto	u3781
  2976  165F  2E61               	goto	u3780
  2977  1660                     u3781:
  2978  1660  2E5D               	goto	l141
  2979  1661                     u3780:
  2980  1661                     l143:
  2981                           
  2982                           ;Slave2.c: 243:   PIR1bits.TMR2IF = 0;
  2983  1661  108C               	bcf	12,1	;volatile
  2984                           
  2985                           ;Slave2.c: 244:   TRISCbits.TRISC2 = 0;
  2986  1662  1683               	bsf	3,5	;RP0=1, select bank1
  2987  1663  1303               	bcf	3,6	;RP1=0, select bank1
  2988  1664  1107               	bcf	7,2	;volatile
  2989                           
  2990                           ;Slave2.c: 245:   TRISCbits.TRISC1 = 0;
  2991  1665  1087               	bcf	7,1	;volatile
  2992                           
  2993                           ;Slave2.c: 248:   PIR1bits.ADIF = 0;
  2994  1666  1283               	bcf	3,5	;RP0=0, select bank0
  2995  1667  1303               	bcf	3,6	;RP1=0, select bank0
  2996  1668  130C               	bcf	12,6	;volatile
  2997                           
  2998                           ;Slave2.c: 249:   PIE1bits.ADIE = 1;
  2999  1669  1683               	bsf	3,5	;RP0=1, select bank1
  3000  166A  1303               	bcf	3,6	;RP1=0, select bank1
  3001  166B  170C               	bsf	12,6	;volatile
  3002                           
  3003                           ;Slave2.c: 250:   INTCONbits.PEIE = 1;
  3004  166C  170B               	bsf	11,6	;volatile
  3005                           
  3006                           ;Slave2.c: 251:   INTCONbits.GIE = 1;
  3007  166D  178B               	bsf	11,7	;volatile
  3008  166E                     l144:	
  3009                           ;Slave2.c: 252:   return;
  3010                           
  3011  166E  0008               	return
  3012  166F                     __end_of_setup:
  3013                           
  3014                           	psect	text7
  3015  14DB                     __ptext7:	
  3016 ;; *************** function _hx711_init *****************
  3017 ;; Defined at:
  3018 ;;		line 26 in file "hx711.c"
  3019 ;; Parameters:    Size  Location     Type
  3020 ;;		None
  3021 ;; Auto vars:     Size  Location     Type
  3022 ;;		None
  3023 ;; Return value:  Size  Location     Type
  3024 ;;                  1    wreg      void 
  3025 ;; Registers used:
  3026 ;;		wreg
  3027 ;; Tracked objects:
  3028 ;;		On entry : 0/0
  3029 ;;		On exit  : 0/0
  3030 ;;		Unchanged: 0/0
  3031 ;; Data sizes:     COMMON   BANK0   BANK1   BANK3   BANK2
  3032 ;;      Params:         0       0       0       0       0
  3033 ;;      Locals:         0       0       0       0       0
  3034 ;;      Temps:          3       0       0       0       0
  3035 ;;      Totals:         3       0       0       0       0
  3036 ;;Total ram usage:        3 bytes
  3037 ;; Hardware stack levels used: 1
  3038 ;; Hardware stack levels required when called: 1
  3039 ;; This function calls:
  3040 ;;		Nothing
  3041 ;; This function is called by:
  3042 ;;		_main
  3043 ;; This function uses a non-reentrant model
  3044 ;;
  3045                           
  3046                           
  3047                           ;psect for function _hx711_init
  3048  14DB                     _hx711_init:
  3049  14DB                     l2865:	
  3050                           ;incstack = 0
  3051                           ; Regs used in _hx711_init: [wreg]
  3052                           
  3053  14DB  1683               	bsf	3,5	;RP0=1, select bank1
  3054  14DC  1303               	bcf	3,6	;RP1=0, select bank1
  3055  14DD  1388               	bcf	8,7	;volatile
  3056                           
  3057                           ;hx711.c: 28:    TRISDbits.TRISD6=1;
  3058  14DE  1708               	bsf	8,6	;volatile
  3059                           
  3060                           ;hx711.c: 29:    PORTDbits.RD7=0;
  3061  14DF  1283               	bcf	3,5	;RP0=0, select bank0
  3062  14E0  1303               	bcf	3,6	;RP1=0, select bank0
  3063  14E1  1388               	bcf	8,7	;volatile
  3064  14E2                     l2867:
  3065                           
  3066                           ;hx711.c: 30:    _delay((unsigned long)((500)*(8000000/4000.0)));
  3067  14E2  3006               	movlw	6
  3068  14E3  00F5               	movwf	??_hx711_init+2
  3069  14E4  3013               	movlw	19
  3070  14E5  00F4               	movwf	??_hx711_init+1
  3071  14E6  30AD               	movlw	173
  3072  14E7  00F3               	movwf	??_hx711_init
  3073  14E8                     u4177:
  3074  14E8  0BF3               	decfsz	??_hx711_init,f
  3075  14E9  2CE8               	goto	u4177
  3076  14EA  0BF4               	decfsz	??_hx711_init+1,f
  3077  14EB  2CE8               	goto	u4177
  3078  14EC  0BF5               	decfsz	??_hx711_init+2,f
  3079  14ED  2CE8               	goto	u4177
  3080  14EE  2CEF               	nop2
  3081  14EF                     l155:
  3082  14EF  0008               	return
  3083  14F0                     __end_of_hx711_init:
  3084                           
  3085                           	psect	text8
  3086  0394                     __ptext8:	
  3087 ;; *************** function _floattostr_ *****************
  3088 ;; Defined at:
  3089 ;;		line 69 in file "Slave2.c"
  3090 ;; Parameters:    Size  Location     Type
  3091 ;;  numero_         4   51[BANK0 ] float 
  3092 ;;  cadena_         2   55[BANK0 ] PTR unsigned char 
  3093 ;;		 -> tarart(25), texto(25), offsett(25), 
  3094 ;;  decimales_      1   57[BANK0 ] unsigned char 
  3095 ;; Auto vars:     Size  Location     Type
  3096 ;;  tempo_float     4   61[BANK0 ] unsigned char 
  3097 ;;  largo_entera    2   69[BANK0 ] int 
  3098 ;;  cont_for        2   67[BANK0 ] int 
  3099 ;;  largo_n         2   65[BANK0 ] int 
  3100 ;;  tempo_int       2   59[BANK0 ] int 
  3101 ;; Return value:  Size  Location     Type
  3102 ;;                  1    wreg      void 
  3103 ;; Registers used:
  3104 ;;		wreg, fsr0l, fsr0h, status,2, status,0, btemp+1, pclath, cstack
  3105 ;; Tracked objects:
  3106 ;;		On entry : 0/0
  3107 ;;		On exit  : 0/0
  3108 ;;		Unchanged: 0/0
  3109 ;; Data sizes:     COMMON   BANK0   BANK1   BANK3   BANK2
  3110 ;;      Params:         0       7       0       0       0
  3111 ;;      Locals:         0      12       0       0       0
  3112 ;;      Temps:          0       1       0       0       0
  3113 ;;      Totals:         0      20       0       0       0
  3114 ;;Total ram usage:       20 bytes
  3115 ;; Hardware stack levels used: 1
  3116 ;; Hardware stack levels required when called: 3
  3117 ;; This function calls:
  3118 ;;		___fladd
  3119 ;;		___fldiv
  3120 ;;		___flge
  3121 ;;		___flmul
  3122 ;;		___flneg
  3123 ;;		___flsub
  3124 ;;		___fltol
  3125 ;;		___xxtofl
  3126 ;; This function is called by:
  3127 ;;		_main
  3128 ;; This function uses a non-reentrant model
  3129 ;;
  3130                           
  3131                           
  3132                           ;psect for function _floattostr_
  3133  0394                     _floattostr_:
  3134  0394                     l2967:	
  3135                           ;incstack = 0
  3136                           ; Regs used in _floattostr_: [wreg-fsr0h+status,2+status,0+btemp+1+pclath+cstack]
  3137                           
  3138                           
  3139                           ;Slave2.c: 69:  void floattostr_(float numero_, unsigned char *cadena_,char decimales_);
      +                          Slave2.c: 70: {;Slave2.c: 72: int largo_entera,largo_n,cont_for,tempo_int;;Slave2.c: 73:
      +                           double tempo_float;;Slave2.c: 75: largo_n = decimales_+1;
  3140  0394  1283               	bcf	3,5	;RP0=0, select bank0
  3141  0395  1303               	bcf	3,6	;RP1=0, select bank0
  3142  0396  0859               	movf	floattostr_@decimales_,w
  3143  0397  3E01               	addlw	1
  3144  0398  00E1               	movwf	floattostr_@largo_n
  3145  0399  3000               	movlw	0
  3146  039A  1803               	skipnc
  3147  039B  3001               	movlw	1
  3148  039C  00E2               	movwf	floattostr_@largo_n+1
  3149  039D                     l2969:
  3150                           
  3151                           ;Slave2.c: 76: largo_entera = 0;
  3152  039D  01E5               	clrf	floattostr_@largo_entera
  3153  039E  01E6               	clrf	floattostr_@largo_entera+1
  3154  039F                     l2971:
  3155                           
  3156                           ;Slave2.c: 78: if ( numero_ < 0)
  3157  039F  0856               	movf	floattostr_@numero_+3,w
  3158  03A0  00F6               	movwf	___flge@ff1+3
  3159  03A1  0855               	movf	floattostr_@numero_+2,w
  3160  03A2  00F5               	movwf	___flge@ff1+2
  3161  03A3  0854               	movf	floattostr_@numero_+1,w
  3162  03A4  00F4               	movwf	___flge@ff1+1
  3163  03A5  0853               	movf	floattostr_@numero_,w
  3164  03A6  00F3               	movwf	___flge@ff1
  3165  03A7  3000               	movlw	0
  3166  03A8  00FA               	movwf	___flge@ff2+3
  3167  03A9  3000               	movlw	0
  3168  03AA  00F9               	movwf	___flge@ff2+2
  3169  03AB  3000               	movlw	0
  3170  03AC  00F8               	movwf	___flge@ff2+1
  3171  03AD  3000               	movlw	0
  3172  03AE  00F7               	movwf	___flge@ff2
  3173  03AF  120A  158A  2056  120A  118A  	fcall	___flge
  3174  03B4  1803               	btfsc	3,0
  3175  03B5  2BB7               	goto	u3911
  3176  03B6  2BB8               	goto	u3910
  3177  03B7                     u3911:
  3178  03B7  2BE0               	goto	l2979
  3179  03B8                     u3910:
  3180  03B8                     l2973:
  3181                           
  3182                           ;Slave2.c: 79:   {;Slave2.c: 80:   *cadena_++ = '-';
  3183  03B8  302D               	movlw	45
  3184  03B9  1283               	bcf	3,5	;RP0=0, select bank0
  3185  03BA  1303               	bcf	3,6	;RP1=0, select bank0
  3186  03BB  00DA               	movwf	??_floattostr_
  3187  03BC  0857               	movf	floattostr_@cadena_,w
  3188  03BD  0084               	movwf	4
  3189  03BE  1783               	bsf	3,7
  3190  03BF  1C58               	btfss	floattostr_@cadena_+1,0
  3191  03C0  1383               	bcf	3,7
  3192  03C1  085A               	movf	??_floattostr_,w
  3193  03C2  0080               	movwf	0
  3194  03C3                     l2975:
  3195  03C3  3001               	movlw	1
  3196  03C4  07D7               	addwf	floattostr_@cadena_,f
  3197  03C5  1803               	skipnc
  3198  03C6  0AD8               	incf	floattostr_@cadena_+1,f
  3199  03C7  3000               	movlw	0
  3200  03C8  07D8               	addwf	floattostr_@cadena_+1,f
  3201  03C9                     l2977:
  3202                           
  3203                           ;Slave2.c: 81:   numero_ = -numero_;
  3204  03C9  0856               	movf	floattostr_@numero_+3,w
  3205  03CA  00F6               	movwf	___flneg@f1+3
  3206  03CB  0855               	movf	floattostr_@numero_+2,w
  3207  03CC  00F5               	movwf	___flneg@f1+2
  3208  03CD  0854               	movf	floattostr_@numero_+1,w
  3209  03CE  00F4               	movwf	___flneg@f1+1
  3210  03CF  0853               	movf	floattostr_@numero_,w
  3211  03D0  00F3               	movwf	___flneg@f1
  3212  03D1  160A  118A  24B0  120A  118A  	fcall	___flneg
  3213  03D6  0876               	movf	?___flneg+3,w
  3214  03D7  1283               	bcf	3,5	;RP0=0, select bank0
  3215  03D8  1303               	bcf	3,6	;RP1=0, select bank0
  3216  03D9  00D6               	movwf	floattostr_@numero_+3
  3217  03DA  0875               	movf	?___flneg+2,w
  3218  03DB  00D5               	movwf	floattostr_@numero_+2
  3219  03DC  0874               	movf	?___flneg+1,w
  3220  03DD  00D4               	movwf	floattostr_@numero_+1
  3221  03DE  0873               	movf	?___flneg,w
  3222  03DF  00D3               	movwf	floattostr_@numero_
  3223  03E0                     l2979:
  3224                           
  3225                           ;Slave2.c: 84: if (numero_ > 0.0) while (numero_ < 1.0)
  3226  03E0  3000               	movlw	0
  3227  03E1  00F6               	movwf	___flge@ff1+3
  3228  03E2  3000               	movlw	0
  3229  03E3  00F5               	movwf	___flge@ff1+2
  3230  03E4  3000               	movlw	0
  3231  03E5  00F4               	movwf	___flge@ff1+1
  3232  03E6  3000               	movlw	0
  3233  03E7  00F3               	movwf	___flge@ff1
  3234  03E8  1283               	bcf	3,5	;RP0=0, select bank0
  3235  03E9  1303               	bcf	3,6	;RP1=0, select bank0
  3236  03EA  0856               	movf	floattostr_@numero_+3,w
  3237  03EB  00FA               	movwf	___flge@ff2+3
  3238  03EC  0855               	movf	floattostr_@numero_+2,w
  3239  03ED  00F9               	movwf	___flge@ff2+2
  3240  03EE  0854               	movf	floattostr_@numero_+1,w
  3241  03EF  00F8               	movwf	___flge@ff2+1
  3242  03F0  0853               	movf	floattostr_@numero_,w
  3243  03F1  00F7               	movwf	___flge@ff2
  3244  03F2  120A  158A  2056  120A  118A  	fcall	___flge
  3245  03F7  1803               	btfsc	3,0
  3246  03F8  2BFA               	goto	u3921
  3247  03F9  2BFB               	goto	u3920
  3248  03FA                     u3921:
  3249  03FA  2C66               	goto	l2993
  3250  03FB                     u3920:
  3251  03FB  2C23               	goto	l2987
  3252  03FC                     l2983:
  3253                           
  3254                           ;Slave2.c: 85:   {;Slave2.c: 86:   numero_ =numero_* 10.0;
  3255  03FC  3041               	movlw	65
  3256  03FD  1283               	bcf	3,5	;RP0=0, select bank0
  3257  03FE  1303               	bcf	3,6	;RP1=0, select bank0
  3258  03FF  00A8               	movwf	___flmul@b+3
  3259  0400  3020               	movlw	32
  3260  0401  00A7               	movwf	___flmul@b+2
  3261  0402  3000               	movlw	0
  3262  0403  00A6               	movwf	___flmul@b+1
  3263  0404  3000               	movlw	0
  3264  0405  00A5               	movwf	___flmul@b
  3265  0406  0856               	movf	floattostr_@numero_+3,w
  3266  0407  00AC               	movwf	___flmul@a+3
  3267  0408  0855               	movf	floattostr_@numero_+2,w
  3268  0409  00AB               	movwf	___flmul@a+2
  3269  040A  0854               	movf	floattostr_@numero_+1,w
  3270  040B  00AA               	movwf	___flmul@a+1
  3271  040C  0853               	movf	floattostr_@numero_,w
  3272  040D  00A9               	movwf	___flmul@a
  3273  040E  120A  118A  2033  120A  118A  	fcall	___flmul
  3274  0413  1283               	bcf	3,5	;RP0=0, select bank0
  3275  0414  1303               	bcf	3,6	;RP1=0, select bank0
  3276  0415  0828               	movf	?___flmul+3,w
  3277  0416  00D6               	movwf	floattostr_@numero_+3
  3278  0417  0827               	movf	?___flmul+2,w
  3279  0418  00D5               	movwf	floattostr_@numero_+2
  3280  0419  0826               	movf	?___flmul+1,w
  3281  041A  00D4               	movwf	floattostr_@numero_+1
  3282  041B  0825               	movf	?___flmul,w
  3283  041C  00D3               	movwf	floattostr_@numero_
  3284  041D                     l2985:
  3285                           
  3286                           ;Slave2.c: 87:   largo_entera--;
  3287  041D  30FF               	movlw	255
  3288  041E  07E5               	addwf	floattostr_@largo_entera,f
  3289  041F  1803               	skipnc
  3290  0420  0AE6               	incf	floattostr_@largo_entera+1,f
  3291  0421  30FF               	movlw	255
  3292  0422  07E6               	addwf	floattostr_@largo_entera+1,f
  3293  0423                     l2987:
  3294                           
  3295                           ;Slave2.c: 84: if (numero_ > 0.0) while (numero_ < 1.0)
  3296  0423  1283               	bcf	3,5	;RP0=0, select bank0
  3297  0424  1303               	bcf	3,6	;RP1=0, select bank0
  3298  0425  0856               	movf	floattostr_@numero_+3,w
  3299  0426  00F6               	movwf	___flge@ff1+3
  3300  0427  0855               	movf	floattostr_@numero_+2,w
  3301  0428  00F5               	movwf	___flge@ff1+2
  3302  0429  0854               	movf	floattostr_@numero_+1,w
  3303  042A  00F4               	movwf	___flge@ff1+1
  3304  042B  0853               	movf	floattostr_@numero_,w
  3305  042C  00F3               	movwf	___flge@ff1
  3306  042D  303F               	movlw	63
  3307  042E  00FA               	movwf	___flge@ff2+3
  3308  042F  3080               	movlw	128
  3309  0430  00F9               	movwf	___flge@ff2+2
  3310  0431  3000               	movlw	0
  3311  0432  00F8               	movwf	___flge@ff2+1
  3312  0433  3000               	movlw	0
  3313  0434  00F7               	movwf	___flge@ff2
  3314  0435  120A  158A  2056  120A  118A  	fcall	___flge
  3315  043A  1C03               	btfss	3,0
  3316  043B  2C3D               	goto	u3931
  3317  043C  2C3E               	goto	u3930
  3318  043D                     u3931:
  3319  043D  2BFC               	goto	l2983
  3320  043E                     u3930:
  3321  043E  2C66               	goto	l2993
  3322  043F                     l2989:
  3323                           
  3324                           ;Slave2.c: 92:   {;Slave2.c: 93:   numero_ = numero_/10.0;
  3325  043F  3041               	movlw	65
  3326  0440  00F6               	movwf	___fldiv@a+3
  3327  0441  3020               	movlw	32
  3328  0442  00F5               	movwf	___fldiv@a+2
  3329  0443  3000               	movlw	0
  3330  0444  00F4               	movwf	___fldiv@a+1
  3331  0445  3000               	movlw	0
  3332  0446  00F3               	movwf	___fldiv@a
  3333  0447  1283               	bcf	3,5	;RP0=0, select bank0
  3334  0448  1303               	bcf	3,6	;RP1=0, select bank0
  3335  0449  0856               	movf	floattostr_@numero_+3,w
  3336  044A  00FA               	movwf	___fldiv@b+3
  3337  044B  0855               	movf	floattostr_@numero_+2,w
  3338  044C  00F9               	movwf	___fldiv@b+2
  3339  044D  0854               	movf	floattostr_@numero_+1,w
  3340  044E  00F8               	movwf	___fldiv@b+1
  3341  044F  0853               	movf	floattostr_@numero_,w
  3342  0450  00F7               	movwf	___fldiv@b
  3343  0451  120A  158A  20FA  120A  118A  	fcall	___fldiv
  3344  0456  0876               	movf	?___fldiv+3,w
  3345  0457  1283               	bcf	3,5	;RP0=0, select bank0
  3346  0458  1303               	bcf	3,6	;RP1=0, select bank0
  3347  0459  00D6               	movwf	floattostr_@numero_+3
  3348  045A  0875               	movf	?___fldiv+2,w
  3349  045B  00D5               	movwf	floattostr_@numero_+2
  3350  045C  0874               	movf	?___fldiv+1,w
  3351  045D  00D4               	movwf	floattostr_@numero_+1
  3352  045E  0873               	movf	?___fldiv,w
  3353  045F  00D3               	movwf	floattostr_@numero_
  3354  0460                     l2991:
  3355                           
  3356                           ;Slave2.c: 94:   largo_entera++;
  3357  0460  3001               	movlw	1
  3358  0461  07E5               	addwf	floattostr_@largo_entera,f
  3359  0462  1803               	skipnc
  3360  0463  0AE6               	incf	floattostr_@largo_entera+1,f
  3361  0464  3000               	movlw	0
  3362  0465  07E6               	addwf	floattostr_@largo_entera+1,f
  3363  0466                     l2993:
  3364                           
  3365                           ;Slave2.c: 91: while (numero_ >= 10.0)
  3366  0466  1283               	bcf	3,5	;RP0=0, select bank0
  3367  0467  1303               	bcf	3,6	;RP1=0, select bank0
  3368  0468  0856               	movf	floattostr_@numero_+3,w
  3369  0469  00F6               	movwf	___flge@ff1+3
  3370  046A  0855               	movf	floattostr_@numero_+2,w
  3371  046B  00F5               	movwf	___flge@ff1+2
  3372  046C  0854               	movf	floattostr_@numero_+1,w
  3373  046D  00F4               	movwf	___flge@ff1+1
  3374  046E  0853               	movf	floattostr_@numero_,w
  3375  046F  00F3               	movwf	___flge@ff1
  3376  0470  3041               	movlw	65
  3377  0471  00FA               	movwf	___flge@ff2+3
  3378  0472  3020               	movlw	32
  3379  0473  00F9               	movwf	___flge@ff2+2
  3380  0474  3000               	movlw	0
  3381  0475  00F8               	movwf	___flge@ff2+1
  3382  0476  3000               	movlw	0
  3383  0477  00F7               	movwf	___flge@ff2
  3384  0478  120A  158A  2056  120A  118A  	fcall	___flge
  3385  047D  1803               	btfsc	3,0
  3386  047E  2C80               	goto	u3941
  3387  047F  2C81               	goto	u3940
  3388  0480                     u3941:
  3389  0480  2C3F               	goto	l2989
  3390  0481                     u3940:
  3391  0481                     l2995:
  3392                           
  3393                           ;Slave2.c: 96:  largo_n = largo_n+largo_entera;
  3394  0481  1283               	bcf	3,5	;RP0=0, select bank0
  3395  0482  1303               	bcf	3,6	;RP1=0, select bank0
  3396  0483  0865               	movf	floattostr_@largo_entera,w
  3397  0484  0761               	addwf	floattostr_@largo_n,w
  3398  0485  00E1               	movwf	floattostr_@largo_n
  3399  0486  0866               	movf	floattostr_@largo_entera+1,w
  3400  0487  1803               	skipnc
  3401  0488  0A66               	incf	floattostr_@largo_entera+1,w
  3402  0489  0762               	addwf	floattostr_@largo_n+1,w
  3403  048A  00E2               	movwf	floattostr_@largo_n+1
  3404  048B                     l2997:
  3405                           
  3406                           ;Slave2.c: 100: for (tempo_float = cont_for = 1; cont_for < largo_n; cont_for++)
  3407  048B  3001               	movlw	1
  3408  048C  00E3               	movwf	floattostr_@cont_for
  3409  048D  3000               	movlw	0
  3410  048E  00E4               	movwf	floattostr_@cont_for+1
  3411  048F  0863               	movf	floattostr_@cont_for,w
  3412  0490  00BD               	movwf	___xxtofl@val
  3413  0491  0864               	movf	floattostr_@cont_for+1,w
  3414  0492  00BE               	movwf	___xxtofl@val+1
  3415  0493  3000               	movlw	0
  3416  0494  1BBE               	btfsc	___xxtofl@val+1,7
  3417  0495  30FF               	movlw	255
  3418  0496  00BF               	movwf	___xxtofl@val+2
  3419  0497  00C0               	movwf	___xxtofl@val+3
  3420  0498  3001               	movlw	1
  3421  0499  120A  118A  272B  120A  118A  	fcall	___xxtofl
  3422  049E  1283               	bcf	3,5	;RP0=0, select bank0
  3423  049F  1303               	bcf	3,6	;RP1=0, select bank0
  3424  04A0  0840               	movf	?___xxtofl+3,w
  3425  04A1  00E0               	movwf	floattostr_@tempo_float+3
  3426  04A2  083F               	movf	?___xxtofl+2,w
  3427  04A3  00DF               	movwf	floattostr_@tempo_float+2
  3428  04A4  083E               	movf	?___xxtofl+1,w
  3429  04A5  00DE               	movwf	floattostr_@tempo_float+1
  3430  04A6  083D               	movf	?___xxtofl,w
  3431  04A7  00DD               	movwf	floattostr_@tempo_float
  3432  04A8  2CD0               	goto	l3003
  3433  04A9                     l2999:
  3434                           
  3435                           ;Slave2.c: 101:   tempo_float = tempo_float/10.0;
  3436  04A9  3041               	movlw	65
  3437  04AA  00F6               	movwf	___fldiv@a+3
  3438  04AB  3020               	movlw	32
  3439  04AC  00F5               	movwf	___fldiv@a+2
  3440  04AD  3000               	movlw	0
  3441  04AE  00F4               	movwf	___fldiv@a+1
  3442  04AF  3000               	movlw	0
  3443  04B0  00F3               	movwf	___fldiv@a
  3444  04B1  1283               	bcf	3,5	;RP0=0, select bank0
  3445  04B2  1303               	bcf	3,6	;RP1=0, select bank0
  3446  04B3  0860               	movf	floattostr_@tempo_float+3,w
  3447  04B4  00FA               	movwf	___fldiv@b+3
  3448  04B5  085F               	movf	floattostr_@tempo_float+2,w
  3449  04B6  00F9               	movwf	___fldiv@b+2
  3450  04B7  085E               	movf	floattostr_@tempo_float+1,w
  3451  04B8  00F8               	movwf	___fldiv@b+1
  3452  04B9  085D               	movf	floattostr_@tempo_float,w
  3453  04BA  00F7               	movwf	___fldiv@b
  3454  04BB  120A  158A  20FA  120A  118A  	fcall	___fldiv
  3455  04C0  0876               	movf	?___fldiv+3,w
  3456  04C1  1283               	bcf	3,5	;RP0=0, select bank0
  3457  04C2  1303               	bcf	3,6	;RP1=0, select bank0
  3458  04C3  00E0               	movwf	floattostr_@tempo_float+3
  3459  04C4  0875               	movf	?___fldiv+2,w
  3460  04C5  00DF               	movwf	floattostr_@tempo_float+2
  3461  04C6  0874               	movf	?___fldiv+1,w
  3462  04C7  00DE               	movwf	floattostr_@tempo_float+1
  3463  04C8  0873               	movf	?___fldiv,w
  3464  04C9  00DD               	movwf	floattostr_@tempo_float
  3465  04CA                     l3001:
  3466  04CA  3001               	movlw	1
  3467  04CB  07E3               	addwf	floattostr_@cont_for,f
  3468  04CC  1803               	skipnc
  3469  04CD  0AE4               	incf	floattostr_@cont_for+1,f
  3470  04CE  3000               	movlw	0
  3471  04CF  07E4               	addwf	floattostr_@cont_for+1,f
  3472  04D0                     l3003:
  3473  04D0  0864               	movf	floattostr_@cont_for+1,w
  3474  04D1  3A80               	xorlw	128
  3475  04D2  00DA               	movwf	??_floattostr_
  3476  04D3  0862               	movf	floattostr_@largo_n+1,w
  3477  04D4  3A80               	xorlw	128
  3478  04D5  025A               	subwf	??_floattostr_,w
  3479  04D6  1D03               	skipz
  3480  04D7  2CDA               	goto	u3955
  3481  04D8  0861               	movf	floattostr_@largo_n,w
  3482  04D9  0263               	subwf	floattostr_@cont_for,w
  3483  04DA                     u3955:
  3484  04DA  1C03               	skipc
  3485  04DB  2CDD               	goto	u3951
  3486  04DC  2CDE               	goto	u3950
  3487  04DD                     u3951:
  3488  04DD  2CA9               	goto	l2999
  3489  04DE                     u3950:
  3490  04DE                     l3005:
  3491                           
  3492                           ;Slave2.c: 102: numero_ += tempo_float/2.0;
  3493  04DE  1283               	bcf	3,5	;RP0=0, select bank0
  3494  04DF  1303               	bcf	3,6	;RP1=0, select bank0
  3495  04E0  0860               	movf	floattostr_@tempo_float+3,w
  3496  04E1  00FA               	movwf	___fldiv@b+3
  3497  04E2  085F               	movf	floattostr_@tempo_float+2,w
  3498  04E3  00F9               	movwf	___fldiv@b+2
  3499  04E4  085E               	movf	floattostr_@tempo_float+1,w
  3500  04E5  00F8               	movwf	___fldiv@b+1
  3501  04E6  085D               	movf	floattostr_@tempo_float,w
  3502  04E7  00F7               	movwf	___fldiv@b
  3503  04E8  3040               	movlw	64
  3504  04E9  00F6               	movwf	___fldiv@a+3
  3505  04EA  3000               	movlw	0
  3506  04EB  00F5               	movwf	___fldiv@a+2
  3507  04EC  3000               	movlw	0
  3508  04ED  00F4               	movwf	___fldiv@a+1
  3509  04EE  3000               	movlw	0
  3510  04EF  00F3               	movwf	___fldiv@a
  3511  04F0  120A  158A  20FA  120A  118A  	fcall	___fldiv
  3512  04F5  0876               	movf	?___fldiv+3,w
  3513  04F6  1283               	bcf	3,5	;RP0=0, select bank0
  3514  04F7  1303               	bcf	3,6	;RP1=0, select bank0
  3515  04F8  00B5               	movwf	___fladd@b+3
  3516  04F9  0875               	movf	?___fldiv+2,w
  3517  04FA  00B4               	movwf	___fladd@b+2
  3518  04FB  0874               	movf	?___fldiv+1,w
  3519  04FC  00B3               	movwf	___fladd@b+1
  3520  04FD  0873               	movf	?___fldiv,w
  3521  04FE  00B2               	movwf	___fladd@b
  3522  04FF  0856               	movf	floattostr_@numero_+3,w
  3523  0500  00B9               	movwf	___fladd@a+3
  3524  0501  0855               	movf	floattostr_@numero_+2,w
  3525  0502  00B8               	movwf	___fladd@a+2
  3526  0503  0854               	movf	floattostr_@numero_+1,w
  3527  0504  00B7               	movwf	___fladd@a+1
  3528  0505  0853               	movf	floattostr_@numero_,w
  3529  0506  00B6               	movwf	___fladd@a
  3530  0507  120A  158A  22DD  120A  118A  	fcall	___fladd
  3531  050C  1283               	bcf	3,5	;RP0=0, select bank0
  3532  050D  1303               	bcf	3,6	;RP1=0, select bank0
  3533  050E  0835               	movf	?___fladd+3,w
  3534  050F  00D6               	movwf	floattostr_@numero_+3
  3535  0510  0834               	movf	?___fladd+2,w
  3536  0511  00D5               	movwf	floattostr_@numero_+2
  3537  0512  0833               	movf	?___fladd+1,w
  3538  0513  00D4               	movwf	floattostr_@numero_+1
  3539  0514  0832               	movf	?___fladd,w
  3540  0515  00D3               	movwf	floattostr_@numero_
  3541  0516                     l3007:
  3542                           
  3543                           ;Slave2.c: 103: if (numero_ >= 10.0) {numero_ = 1.0; largo_entera++;}
  3544  0516  0856               	movf	floattostr_@numero_+3,w
  3545  0517  00F6               	movwf	___flge@ff1+3
  3546  0518  0855               	movf	floattostr_@numero_+2,w
  3547  0519  00F5               	movwf	___flge@ff1+2
  3548  051A  0854               	movf	floattostr_@numero_+1,w
  3549  051B  00F4               	movwf	___flge@ff1+1
  3550  051C  0853               	movf	floattostr_@numero_,w
  3551  051D  00F3               	movwf	___flge@ff1
  3552  051E  3041               	movlw	65
  3553  051F  00FA               	movwf	___flge@ff2+3
  3554  0520  3020               	movlw	32
  3555  0521  00F9               	movwf	___flge@ff2+2
  3556  0522  3000               	movlw	0
  3557  0523  00F8               	movwf	___flge@ff2+1
  3558  0524  3000               	movlw	0
  3559  0525  00F7               	movwf	___flge@ff2
  3560  0526  120A  158A  2056  120A  118A  	fcall	___flge
  3561  052B  1C03               	btfss	3,0
  3562  052C  2D2E               	goto	u3961
  3563  052D  2D2F               	goto	u3960
  3564  052E                     u3961:
  3565  052E  2D3F               	goto	l3011
  3566  052F                     u3960:
  3567  052F                     l3009:
  3568  052F  303F               	movlw	63
  3569  0530  1283               	bcf	3,5	;RP0=0, select bank0
  3570  0531  1303               	bcf	3,6	;RP1=0, select bank0
  3571  0532  00D6               	movwf	floattostr_@numero_+3
  3572  0533  3080               	movlw	128
  3573  0534  00D5               	movwf	floattostr_@numero_+2
  3574  0535  3000               	movlw	0
  3575  0536  00D4               	movwf	floattostr_@numero_+1
  3576  0537  3000               	movlw	0
  3577  0538  00D3               	movwf	floattostr_@numero_
  3578  0539  3001               	movlw	1
  3579  053A  07E5               	addwf	floattostr_@largo_entera,f
  3580  053B  1803               	skipnc
  3581  053C  0AE6               	incf	floattostr_@largo_entera+1,f
  3582  053D  3000               	movlw	0
  3583  053E  07E6               	addwf	floattostr_@largo_entera+1,f
  3584  053F                     l3011:
  3585                           
  3586                           ;Slave2.c: 105: if (largo_entera<0)
  3587  053F  1283               	bcf	3,5	;RP0=0, select bank0
  3588  0540  1303               	bcf	3,6	;RP1=0, select bank0
  3589  0541  1FE6               	btfss	floattostr_@largo_entera+1,7
  3590  0542  2D44               	goto	u3971
  3591  0543  2D45               	goto	u3970
  3592  0544                     u3971:
  3593  0544  2D99               	goto	l3033
  3594  0545                     u3970:
  3595  0545                     l3013:
  3596                           
  3597                           ;Slave2.c: 106:   {;Slave2.c: 107:    *cadena_++ = '0'; *cadena_++ = '.';
  3598  0545  3030               	movlw	48
  3599  0546  00DA               	movwf	??_floattostr_
  3600  0547  0857               	movf	floattostr_@cadena_,w
  3601  0548  0084               	movwf	4
  3602  0549  1783               	bsf	3,7
  3603  054A  1C58               	btfss	floattostr_@cadena_+1,0
  3604  054B  1383               	bcf	3,7
  3605  054C  085A               	movf	??_floattostr_,w
  3606  054D  0080               	movwf	0
  3607  054E                     l3015:
  3608  054E  3001               	movlw	1
  3609  054F  07D7               	addwf	floattostr_@cadena_,f
  3610  0550  1803               	skipnc
  3611  0551  0AD8               	incf	floattostr_@cadena_+1,f
  3612  0552  3000               	movlw	0
  3613  0553  07D8               	addwf	floattostr_@cadena_+1,f
  3614  0554                     l3017:
  3615  0554  302E               	movlw	46
  3616  0555  00DA               	movwf	??_floattostr_
  3617  0556  0857               	movf	floattostr_@cadena_,w
  3618  0557  0084               	movwf	4
  3619  0558  1783               	bsf	3,7
  3620  0559  1C58               	btfss	floattostr_@cadena_+1,0
  3621  055A  1383               	bcf	3,7
  3622  055B  085A               	movf	??_floattostr_,w
  3623  055C  0080               	movwf	0
  3624  055D  3001               	movlw	1
  3625  055E  07D7               	addwf	floattostr_@cadena_,f
  3626  055F  1803               	skipnc
  3627  0560  0AD8               	incf	floattostr_@cadena_+1,f
  3628  0561  3000               	movlw	0
  3629  0562  07D8               	addwf	floattostr_@cadena_+1,f
  3630  0563                     l3019:
  3631                           
  3632                           ;Slave2.c: 108:    if (largo_n < 0) largo_entera = largo_entera-largo_n;
  3633  0563  1FE2               	btfss	floattostr_@largo_n+1,7
  3634  0564  2D66               	goto	u3981
  3635  0565  2D67               	goto	u3980
  3636  0566                     u3981:
  3637  0566  2D6F               	goto	l3023
  3638  0567                     u3980:
  3639  0567                     l3021:
  3640  0567  0861               	movf	floattostr_@largo_n,w
  3641  0568  0265               	subwf	floattostr_@largo_entera,w
  3642  0569  00E5               	movwf	floattostr_@largo_entera
  3643  056A  0862               	movf	floattostr_@largo_n+1,w
  3644  056B  1C03               	skipc
  3645  056C  0A62               	incf	floattostr_@largo_n+1,w
  3646  056D  0266               	subwf	floattostr_@largo_entera+1,w
  3647  056E  00E6               	movwf	floattostr_@largo_entera+1
  3648  056F                     l3023:
  3649                           
  3650                           ;Slave2.c: 109:    for (cont_for = -1; cont_for > largo_entera; cont_for--) *cadena_++ =
      +                           '0';
  3651  056F  30FF               	movlw	255
  3652  0570  00E3               	movwf	floattostr_@cont_for
  3653  0571  30FF               	movlw	255
  3654  0572  00E4               	movwf	floattostr_@cont_for+1
  3655  0573  2D8B               	goto	l3031
  3656  0574                     l3025:
  3657  0574  3030               	movlw	48
  3658  0575  1283               	bcf	3,5	;RP0=0, select bank0
  3659  0576  1303               	bcf	3,6	;RP1=0, select bank0
  3660  0577  00DA               	movwf	??_floattostr_
  3661  0578  0857               	movf	floattostr_@cadena_,w
  3662  0579  0084               	movwf	4
  3663  057A  1783               	bsf	3,7
  3664  057B  1C58               	btfss	floattostr_@cadena_+1,0
  3665  057C  1383               	bcf	3,7
  3666  057D  085A               	movf	??_floattostr_,w
  3667  057E  0080               	movwf	0
  3668  057F                     l3027:
  3669  057F  3001               	movlw	1
  3670  0580  07D7               	addwf	floattostr_@cadena_,f
  3671  0581  1803               	skipnc
  3672  0582  0AD8               	incf	floattostr_@cadena_+1,f
  3673  0583  3000               	movlw	0
  3674  0584  07D8               	addwf	floattostr_@cadena_+1,f
  3675  0585                     l3029:
  3676  0585  30FF               	movlw	255
  3677  0586  07E3               	addwf	floattostr_@cont_for,f
  3678  0587  1803               	skipnc
  3679  0588  0AE4               	incf	floattostr_@cont_for+1,f
  3680  0589  30FF               	movlw	255
  3681  058A  07E4               	addwf	floattostr_@cont_for+1,f
  3682  058B                     l3031:
  3683  058B  0866               	movf	floattostr_@largo_entera+1,w
  3684  058C  3A80               	xorlw	128
  3685  058D  00DA               	movwf	??_floattostr_
  3686  058E  0864               	movf	floattostr_@cont_for+1,w
  3687  058F  3A80               	xorlw	128
  3688  0590  025A               	subwf	??_floattostr_,w
  3689  0591  1D03               	skipz
  3690  0592  2D95               	goto	u3995
  3691  0593  0863               	movf	floattostr_@cont_for,w
  3692  0594  0265               	subwf	floattostr_@largo_entera,w
  3693  0595                     u3995:
  3694  0595  1C03               	skipc
  3695  0596  2D98               	goto	u3991
  3696  0597  2D99               	goto	u3990
  3697  0598                     u3991:
  3698  0598  2D74               	goto	l3025
  3699  0599                     u3990:
  3700  0599                     l3033:
  3701                           
  3702                           ;Slave2.c: 111: for (cont_for=0; cont_for < largo_n; cont_for++)
  3703  0599  1283               	bcf	3,5	;RP0=0, select bank0
  3704  059A  1303               	bcf	3,6	;RP1=0, select bank0
  3705  059B  01E3               	clrf	floattostr_@cont_for
  3706  059C  01E4               	clrf	floattostr_@cont_for+1
  3707  059D  2E39               	goto	l3053
  3708  059E                     l3035:
  3709                           
  3710                           ;Slave2.c: 112:   {;Slave2.c: 113:   tempo_int = numero_;
  3711  059E  1283               	bcf	3,5	;RP0=0, select bank0
  3712  059F  1303               	bcf	3,6	;RP1=0, select bank0
  3713  05A0  0856               	movf	floattostr_@numero_+3,w
  3714  05A1  00F6               	movwf	___fltol@f1+3
  3715  05A2  0855               	movf	floattostr_@numero_+2,w
  3716  05A3  00F5               	movwf	___fltol@f1+2
  3717  05A4  0854               	movf	floattostr_@numero_+1,w
  3718  05A5  00F4               	movwf	___fltol@f1+1
  3719  05A6  0853               	movf	floattostr_@numero_,w
  3720  05A7  00F3               	movwf	___fltol@f1
  3721  05A8  160A  118A  26E7  120A  118A  	fcall	___fltol
  3722  05AD  0874               	movf	?___fltol+1,w
  3723  05AE  1283               	bcf	3,5	;RP0=0, select bank0
  3724  05AF  1303               	bcf	3,6	;RP1=0, select bank0
  3725  05B0  00DC               	movwf	floattostr_@tempo_int+1
  3726  05B1  0873               	movf	?___fltol,w
  3727  05B2  00DB               	movwf	floattostr_@tempo_int
  3728  05B3                     l3037:
  3729                           
  3730                           ;Slave2.c: 114:   *cadena_++ = tempo_int + 48;
  3731  05B3  085B               	movf	floattostr_@tempo_int,w
  3732  05B4  3E30               	addlw	48
  3733  05B5  00DA               	movwf	??_floattostr_
  3734  05B6  0857               	movf	floattostr_@cadena_,w
  3735  05B7  0084               	movwf	4
  3736  05B8  1783               	bsf	3,7
  3737  05B9  1C58               	btfss	floattostr_@cadena_+1,0
  3738  05BA  1383               	bcf	3,7
  3739  05BB  085A               	movf	??_floattostr_,w
  3740  05BC  0080               	movwf	0
  3741  05BD                     l3039:
  3742  05BD  3001               	movlw	1
  3743  05BE  07D7               	addwf	floattostr_@cadena_,f
  3744  05BF  1803               	skipnc
  3745  05C0  0AD8               	incf	floattostr_@cadena_+1,f
  3746  05C1  3000               	movlw	0
  3747  05C2  07D8               	addwf	floattostr_@cadena_+1,f
  3748  05C3                     l3041:
  3749                           
  3750                           ;Slave2.c: 115:   if (cont_for == largo_entera ) *cadena_++ = '.';
  3751  05C3  0866               	movf	floattostr_@largo_entera+1,w
  3752  05C4  0664               	xorwf	floattostr_@cont_for+1,w
  3753  05C5  1D03               	skipz
  3754  05C6  2DC9               	goto	u4005
  3755  05C7  0865               	movf	floattostr_@largo_entera,w
  3756  05C8  0663               	xorwf	floattostr_@cont_for,w
  3757  05C9                     u4005:
  3758  05C9  1D03               	skipz
  3759  05CA  2DCC               	goto	u4001
  3760  05CB  2DCD               	goto	u4000
  3761  05CC                     u4001:
  3762  05CC  2DDC               	goto	l3047
  3763  05CD                     u4000:
  3764  05CD                     l3043:
  3765  05CD  302E               	movlw	46
  3766  05CE  00DA               	movwf	??_floattostr_
  3767  05CF  0857               	movf	floattostr_@cadena_,w
  3768  05D0  0084               	movwf	4
  3769  05D1  1783               	bsf	3,7
  3770  05D2  1C58               	btfss	floattostr_@cadena_+1,0
  3771  05D3  1383               	bcf	3,7
  3772  05D4  085A               	movf	??_floattostr_,w
  3773  05D5  0080               	movwf	0
  3774  05D6                     l3045:
  3775  05D6  3001               	movlw	1
  3776  05D7  07D7               	addwf	floattostr_@cadena_,f
  3777  05D8  1803               	skipnc
  3778  05D9  0AD8               	incf	floattostr_@cadena_+1,f
  3779  05DA  3000               	movlw	0
  3780  05DB  07D8               	addwf	floattostr_@cadena_+1,f
  3781  05DC                     l3047:
  3782                           
  3783                           ;Slave2.c: 116:   numero_ -= (tempo_float=tempo_int);
  3784  05DC  085B               	movf	floattostr_@tempo_int,w
  3785  05DD  00BD               	movwf	___xxtofl@val
  3786  05DE  085C               	movf	floattostr_@tempo_int+1,w
  3787  05DF  00BE               	movwf	___xxtofl@val+1
  3788  05E0  3000               	movlw	0
  3789  05E1  1BBE               	btfsc	___xxtofl@val+1,7
  3790  05E2  30FF               	movlw	255
  3791  05E3  00BF               	movwf	___xxtofl@val+2
  3792  05E4  00C0               	movwf	___xxtofl@val+3
  3793  05E5  3001               	movlw	1
  3794  05E6  120A  118A  272B  120A  118A  	fcall	___xxtofl
  3795  05EB  1283               	bcf	3,5	;RP0=0, select bank0
  3796  05EC  1303               	bcf	3,6	;RP1=0, select bank0
  3797  05ED  0840               	movf	?___xxtofl+3,w
  3798  05EE  00E0               	movwf	floattostr_@tempo_float+3
  3799  05EF  083F               	movf	?___xxtofl+2,w
  3800  05F0  00DF               	movwf	floattostr_@tempo_float+2
  3801  05F1  083E               	movf	?___xxtofl+1,w
  3802  05F2  00DE               	movwf	floattostr_@tempo_float+1
  3803  05F3  083D               	movf	?___xxtofl,w
  3804  05F4  00DD               	movwf	floattostr_@tempo_float
  3805  05F5  0860               	movf	floattostr_@tempo_float+3,w
  3806  05F6  00CE               	movwf	___flsub@a+3
  3807  05F7  085F               	movf	floattostr_@tempo_float+2,w
  3808  05F8  00CD               	movwf	___flsub@a+2
  3809  05F9  085E               	movf	floattostr_@tempo_float+1,w
  3810  05FA  00CC               	movwf	___flsub@a+1
  3811  05FB  085D               	movf	floattostr_@tempo_float,w
  3812  05FC  00CB               	movwf	___flsub@a
  3813  05FD  0856               	movf	floattostr_@numero_+3,w
  3814  05FE  00D2               	movwf	___flsub@b+3
  3815  05FF  0855               	movf	floattostr_@numero_+2,w
  3816  0600  00D1               	movwf	___flsub@b+2
  3817  0601  0854               	movf	floattostr_@numero_+1,w
  3818  0602  00D0               	movwf	___flsub@b+1
  3819  0603  0853               	movf	floattostr_@numero_,w
  3820  0604  00CF               	movwf	___flsub@b
  3821  0605  160A  118A  252E  120A  118A  	fcall	___flsub
  3822  060A  1283               	bcf	3,5	;RP0=0, select bank0
  3823  060B  1303               	bcf	3,6	;RP1=0, select bank0
  3824  060C  084E               	movf	?___flsub+3,w
  3825  060D  00D6               	movwf	floattostr_@numero_+3
  3826  060E  084D               	movf	?___flsub+2,w
  3827  060F  00D5               	movwf	floattostr_@numero_+2
  3828  0610  084C               	movf	?___flsub+1,w
  3829  0611  00D4               	movwf	floattostr_@numero_+1
  3830  0612  084B               	movf	?___flsub,w
  3831  0613  00D3               	movwf	floattostr_@numero_
  3832  0614                     l3049:
  3833                           
  3834                           ;Slave2.c: 117:   numero_ = numero_*10.0;
  3835  0614  3041               	movlw	65
  3836  0615  00A8               	movwf	___flmul@b+3
  3837  0616  3020               	movlw	32
  3838  0617  00A7               	movwf	___flmul@b+2
  3839  0618  3000               	movlw	0
  3840  0619  00A6               	movwf	___flmul@b+1
  3841  061A  3000               	movlw	0
  3842  061B  00A5               	movwf	___flmul@b
  3843  061C  0856               	movf	floattostr_@numero_+3,w
  3844  061D  00AC               	movwf	___flmul@a+3
  3845  061E  0855               	movf	floattostr_@numero_+2,w
  3846  061F  00AB               	movwf	___flmul@a+2
  3847  0620  0854               	movf	floattostr_@numero_+1,w
  3848  0621  00AA               	movwf	___flmul@a+1
  3849  0622  0853               	movf	floattostr_@numero_,w
  3850  0623  00A9               	movwf	___flmul@a
  3851  0624  120A  118A  2033  120A  118A  	fcall	___flmul
  3852  0629  1283               	bcf	3,5	;RP0=0, select bank0
  3853  062A  1303               	bcf	3,6	;RP1=0, select bank0
  3854  062B  0828               	movf	?___flmul+3,w
  3855  062C  00D6               	movwf	floattostr_@numero_+3
  3856  062D  0827               	movf	?___flmul+2,w
  3857  062E  00D5               	movwf	floattostr_@numero_+2
  3858  062F  0826               	movf	?___flmul+1,w
  3859  0630  00D4               	movwf	floattostr_@numero_+1
  3860  0631  0825               	movf	?___flmul,w
  3861  0632  00D3               	movwf	floattostr_@numero_
  3862  0633                     l3051:
  3863                           
  3864                           ;Slave2.c: 118:   }
  3865  0633  3001               	movlw	1
  3866  0634  07E3               	addwf	floattostr_@cont_for,f
  3867  0635  1803               	skipnc
  3868  0636  0AE4               	incf	floattostr_@cont_for+1,f
  3869  0637  3000               	movlw	0
  3870  0638  07E4               	addwf	floattostr_@cont_for+1,f
  3871  0639                     l3053:
  3872  0639  0864               	movf	floattostr_@cont_for+1,w
  3873  063A  3A80               	xorlw	128
  3874  063B  00DA               	movwf	??_floattostr_
  3875  063C  0862               	movf	floattostr_@largo_n+1,w
  3876  063D  3A80               	xorlw	128
  3877  063E  025A               	subwf	??_floattostr_,w
  3878  063F  1D03               	skipz
  3879  0640  2E43               	goto	u4015
  3880  0641  0861               	movf	floattostr_@largo_n,w
  3881  0642  0263               	subwf	floattostr_@cont_for,w
  3882  0643                     u4015:
  3883  0643  1C03               	skipc
  3884  0644  2E46               	goto	u4011
  3885  0645  2E47               	goto	u4010
  3886  0646                     u4011:
  3887  0646  2D9E               	goto	l3035
  3888  0647                     u4010:
  3889  0647                     l3055:
  3890                           
  3891                           ;Slave2.c: 119: *cadena_ =0;
  3892  0647  1283               	bcf	3,5	;RP0=0, select bank0
  3893  0648  1303               	bcf	3,6	;RP1=0, select bank0
  3894  0649  0857               	movf	floattostr_@cadena_,w
  3895  064A  0084               	movwf	4
  3896  064B  1783               	bsf	3,7
  3897  064C  1C58               	btfss	floattostr_@cadena_+1,0
  3898  064D  1383               	bcf	3,7
  3899  064E  0180               	clrf	0
  3900  064F                     l116:
  3901  064F  0008               	return
  3902  0650                     __end_of_floattostr_:
  3903                           
  3904                           	psect	text9
  3905  072B                     __ptext9:	
  3906 ;; *************** function ___xxtofl *****************
  3907 ;; Defined at:
  3908 ;;		line 10 in file "C:\Program Files\Microchip\xc8\v2.32\pic\sources\c90\common\xxtofl.c"
  3909 ;; Parameters:    Size  Location     Type
  3910 ;;  sign            1    wreg     unsigned char 
  3911 ;;  val             4   29[BANK0 ] long 
  3912 ;; Auto vars:     Size  Location     Type
  3913 ;;  sign            1   37[BANK0 ] unsigned char 
  3914 ;;  arg             4   39[BANK0 ] unsigned long 
  3915 ;;  exp             1   38[BANK0 ] unsigned char 
  3916 ;; Return value:  Size  Location     Type
  3917 ;;                  4   29[BANK0 ] unsigned char 
  3918 ;; Registers used:
  3919 ;;		wreg, status,2, status,0
  3920 ;; Tracked objects:
  3921 ;;		On entry : 0/0
  3922 ;;		On exit  : 0/0
  3923 ;;		Unchanged: 0/0
  3924 ;; Data sizes:     COMMON   BANK0   BANK1   BANK3   BANK2
  3925 ;;      Params:         0       4       0       0       0
  3926 ;;      Locals:         0       6       0       0       0
  3927 ;;      Temps:          0       4       0       0       0
  3928 ;;      Totals:         0      14       0       0       0
  3929 ;;Total ram usage:       14 bytes
  3930 ;; Hardware stack levels used: 1
  3931 ;; Hardware stack levels required when called: 1
  3932 ;; This function calls:
  3933 ;;		Nothing
  3934 ;; This function is called by:
  3935 ;;		_floattostr_
  3936 ;;		_main
  3937 ;; This function uses a non-reentrant model
  3938 ;;
  3939                           
  3940                           
  3941                           ;psect for function ___xxtofl
  3942  072B                     ___xxtofl:
  3943                           
  3944                           ;incstack = 0
  3945                           ; Regs used in ___xxtofl: [wreg+status,2+status,0]
  3946                           ;___xxtofl@sign stored from wreg
  3947  072B  1283               	bcf	3,5	;RP0=0, select bank0
  3948  072C  1303               	bcf	3,6	;RP1=0, select bank0
  3949  072D  00C5               	movwf	___xxtofl@sign
  3950  072E                     l2665:
  3951  072E  0845               	movf	___xxtofl@sign,w
  3952  072F  1903               	btfsc	3,2
  3953  0730  2F32               	goto	u3531
  3954  0731  2F33               	goto	u3530
  3955  0732                     u3531:
  3956  0732  2F47               	goto	l2671
  3957  0733                     u3530:
  3958  0733                     l2667:
  3959  0733  1FC0               	btfss	___xxtofl@val+3,7
  3960  0734  2F36               	goto	u3541
  3961  0735  2F37               	goto	u3540
  3962  0736                     u3541:
  3963  0736  2F47               	goto	l2671
  3964  0737                     u3540:
  3965  0737                     l2669:
  3966  0737  093D               	comf	___xxtofl@val,w
  3967  0738  00C7               	movwf	___xxtofl@arg
  3968  0739  093E               	comf	___xxtofl@val+1,w
  3969  073A  00C8               	movwf	___xxtofl@arg+1
  3970  073B  093F               	comf	___xxtofl@val+2,w
  3971  073C  00C9               	movwf	___xxtofl@arg+2
  3972  073D  0940               	comf	___xxtofl@val+3,w
  3973  073E  00CA               	movwf	___xxtofl@arg+3
  3974  073F  0AC7               	incf	___xxtofl@arg,f
  3975  0740  1903               	skipnz
  3976  0741  0AC8               	incf	___xxtofl@arg+1,f
  3977  0742  1903               	skipnz
  3978  0743  0AC9               	incf	___xxtofl@arg+2,f
  3979  0744  1903               	skipnz
  3980  0745  0ACA               	incf	___xxtofl@arg+3,f
  3981  0746  2F4F               	goto	l796
  3982  0747                     l2671:
  3983  0747  0840               	movf	___xxtofl@val+3,w
  3984  0748  00CA               	movwf	___xxtofl@arg+3
  3985  0749  083F               	movf	___xxtofl@val+2,w
  3986  074A  00C9               	movwf	___xxtofl@arg+2
  3987  074B  083E               	movf	___xxtofl@val+1,w
  3988  074C  00C8               	movwf	___xxtofl@arg+1
  3989  074D  083D               	movf	___xxtofl@val,w
  3990  074E  00C7               	movwf	___xxtofl@arg
  3991  074F                     l796:
  3992  074F  0840               	movf	___xxtofl@val+3,w
  3993  0750  043F               	iorwf	___xxtofl@val+2,w
  3994  0751  043E               	iorwf	___xxtofl@val+1,w
  3995  0752  043D               	iorwf	___xxtofl@val,w
  3996  0753  1D03               	skipz
  3997  0754  2F56               	goto	u3551
  3998  0755  2F57               	goto	u3550
  3999  0756                     u3551:
  4000  0756  2F60               	goto	l2677
  4001  0757                     u3550:
  4002  0757                     l2673:
  4003  0757  3000               	movlw	0
  4004  0758  00C0               	movwf	?___xxtofl+3
  4005  0759  3000               	movlw	0
  4006  075A  00BF               	movwf	?___xxtofl+2
  4007  075B  3000               	movlw	0
  4008  075C  00BE               	movwf	?___xxtofl+1
  4009  075D  3000               	movlw	0
  4010  075E  00BD               	movwf	?___xxtofl
  4011  075F  2FE6               	goto	l798
  4012  0760                     l2677:
  4013  0760  3096               	movlw	150
  4014  0761  00C1               	movwf	??___xxtofl
  4015  0762  0841               	movf	??___xxtofl,w
  4016  0763  00C6               	movwf	___xxtofl@exp
  4017  0764  2F72               	goto	l2681
  4018  0765                     l2679:
  4019  0765  3001               	movlw	1
  4020  0766  00C1               	movwf	??___xxtofl
  4021  0767  0841               	movf	??___xxtofl,w
  4022  0768  07C6               	addwf	___xxtofl@exp,f
  4023  0769  3001               	movlw	1
  4024  076A                     u3565:
  4025  076A  1003               	clrc
  4026  076B  0CCA               	rrf	___xxtofl@arg+3,f
  4027  076C  0CC9               	rrf	___xxtofl@arg+2,f
  4028  076D  0CC8               	rrf	___xxtofl@arg+1,f
  4029  076E  0CC7               	rrf	___xxtofl@arg,f
  4030  076F  3EFF               	addlw	-1
  4031  0770  1D03               	skipz
  4032  0771  2F6A               	goto	u3565
  4033  0772                     l2681:
  4034  0772  30FE               	movlw	254
  4035  0773  054A               	andwf	___xxtofl@arg+3,w
  4036  0774  1D03               	btfss	3,2
  4037  0775  2F77               	goto	u3571
  4038  0776  2F78               	goto	u3570
  4039  0777                     u3571:
  4040  0777  2F65               	goto	l2679
  4041  0778                     u3570:
  4042  0778  2F94               	goto	l802
  4043  0779                     l2683:
  4044  0779  3001               	movlw	1
  4045  077A  00C1               	movwf	??___xxtofl
  4046  077B  0841               	movf	??___xxtofl,w
  4047  077C  07C6               	addwf	___xxtofl@exp,f
  4048  077D                     l2685:
  4049  077D  3001               	movlw	1
  4050  077E  07C7               	addwf	___xxtofl@arg,f
  4051  077F  3000               	movlw	0
  4052  0780  1803               	skipnc
  4053  0781  3001               	movlw	1
  4054  0782  07C8               	addwf	___xxtofl@arg+1,f
  4055  0783  3000               	movlw	0
  4056  0784  1803               	skipnc
  4057  0785  3001               	movlw	1
  4058  0786  07C9               	addwf	___xxtofl@arg+2,f
  4059  0787  3000               	movlw	0
  4060  0788  1803               	skipnc
  4061  0789  3001               	movlw	1
  4062  078A  07CA               	addwf	___xxtofl@arg+3,f
  4063  078B                     l2687:
  4064  078B  3001               	movlw	1
  4065  078C                     u3585:
  4066  078C  1003               	clrc
  4067  078D  0CCA               	rrf	___xxtofl@arg+3,f
  4068  078E  0CC9               	rrf	___xxtofl@arg+2,f
  4069  078F  0CC8               	rrf	___xxtofl@arg+1,f
  4070  0790  0CC7               	rrf	___xxtofl@arg,f
  4071  0791  3EFF               	addlw	-1
  4072  0792  1D03               	skipz
  4073  0793  2F8C               	goto	u3585
  4074  0794                     l802:
  4075  0794  30FF               	movlw	255
  4076  0795  054A               	andwf	___xxtofl@arg+3,w
  4077  0796  1D03               	btfss	3,2
  4078  0797  2F99               	goto	u3591
  4079  0798  2F9A               	goto	u3590
  4080  0799                     u3591:
  4081  0799  2F79               	goto	l2683
  4082  079A                     u3590:
  4083  079A  2FA6               	goto	l2691
  4084  079B                     l2689:
  4085  079B  3001               	movlw	1
  4086  079C  02C6               	subwf	___xxtofl@exp,f
  4087  079D  3001               	movlw	1
  4088  079E  00C1               	movwf	??___xxtofl
  4089  079F                     u3605:
  4090  079F  1003               	clrc
  4091  07A0  0DC7               	rlf	___xxtofl@arg,f
  4092  07A1  0DC8               	rlf	___xxtofl@arg+1,f
  4093  07A2  0DC9               	rlf	___xxtofl@arg+2,f
  4094  07A3  0DCA               	rlf	___xxtofl@arg+3,f
  4095  07A4  0BC1               	decfsz	??___xxtofl,f
  4096  07A5  2F9F               	goto	u3605
  4097  07A6                     l2691:
  4098  07A6  1BC9               	btfsc	___xxtofl@arg+2,7
  4099  07A7  2FA9               	goto	u3611
  4100  07A8  2FAA               	goto	u3610
  4101  07A9                     u3611:
  4102  07A9  2FB0               	goto	l809
  4103  07AA                     u3610:
  4104  07AA                     l2693:
  4105  07AA  3002               	movlw	2
  4106  07AB  0246               	subwf	___xxtofl@exp,w
  4107  07AC  1803               	skipnc
  4108  07AD  2FAF               	goto	u3621
  4109  07AE  2FB0               	goto	u3620
  4110  07AF                     u3621:
  4111  07AF  2F9B               	goto	l2689
  4112  07B0                     u3620:
  4113  07B0                     l809:
  4114  07B0  1846               	btfsc	___xxtofl@exp,0
  4115  07B1  2FB3               	goto	u3631
  4116  07B2  2FB4               	goto	u3630
  4117  07B3                     u3631:
  4118  07B3  2FBC               	goto	l810
  4119  07B4                     u3630:
  4120  07B4                     l2695:
  4121  07B4  30FF               	movlw	255
  4122  07B5  05C7               	andwf	___xxtofl@arg,f
  4123  07B6  30FF               	movlw	255
  4124  07B7  05C8               	andwf	___xxtofl@arg+1,f
  4125  07B8  307F               	movlw	127
  4126  07B9  05C9               	andwf	___xxtofl@arg+2,f
  4127  07BA  30FF               	movlw	255
  4128  07BB  05CA               	andwf	___xxtofl@arg+3,f
  4129  07BC                     l810:
  4130  07BC  1003               	clrc
  4131  07BD  0CC6               	rrf	___xxtofl@exp,f
  4132  07BE                     l2697:
  4133  07BE  0846               	movf	___xxtofl@exp,w
  4134  07BF  00C1               	movwf	??___xxtofl
  4135  07C0  01C2               	clrf	??___xxtofl+1
  4136  07C1  01C3               	clrf	??___xxtofl+2
  4137  07C2  01C4               	clrf	??___xxtofl+3
  4138  07C3  3018               	movlw	24
  4139  07C4                     u3645:
  4140  07C4  1003               	clrc
  4141  07C5  0DC1               	rlf	??___xxtofl,f
  4142  07C6  0DC2               	rlf	??___xxtofl+1,f
  4143  07C7  0DC3               	rlf	??___xxtofl+2,f
  4144  07C8  0DC4               	rlf	??___xxtofl+3,f
  4145  07C9                     u3640:
  4146  07C9  3EFF               	addlw	-1
  4147  07CA  1D03               	skipz
  4148  07CB  2FC4               	goto	u3645
  4149  07CC  0841               	movf	??___xxtofl,w
  4150  07CD  04C7               	iorwf	___xxtofl@arg,f
  4151  07CE  0842               	movf	??___xxtofl+1,w
  4152  07CF  04C8               	iorwf	___xxtofl@arg+1,f
  4153  07D0  0843               	movf	??___xxtofl+2,w
  4154  07D1  04C9               	iorwf	___xxtofl@arg+2,f
  4155  07D2  0844               	movf	??___xxtofl+3,w
  4156  07D3  04CA               	iorwf	___xxtofl@arg+3,f
  4157  07D4                     l2699:
  4158  07D4  0845               	movf	___xxtofl@sign,w
  4159  07D5  1903               	btfsc	3,2
  4160  07D6  2FD8               	goto	u3651
  4161  07D7  2FD9               	goto	u3650
  4162  07D8                     u3651:
  4163  07D8  2FDE               	goto	l2705
  4164  07D9                     u3650:
  4165  07D9                     l2701:
  4166  07D9  1FC0               	btfss	___xxtofl@val+3,7
  4167  07DA  2FDC               	goto	u3661
  4168  07DB  2FDD               	goto	u3660
  4169  07DC                     u3661:
  4170  07DC  2FDE               	goto	l2705
  4171  07DD                     u3660:
  4172  07DD                     l2703:
  4173  07DD  17CA               	bsf	___xxtofl@arg+3,7
  4174  07DE                     l2705:
  4175  07DE  084A               	movf	___xxtofl@arg+3,w
  4176  07DF  00C0               	movwf	?___xxtofl+3
  4177  07E0  0849               	movf	___xxtofl@arg+2,w
  4178  07E1  00BF               	movwf	?___xxtofl+2
  4179  07E2  0848               	movf	___xxtofl@arg+1,w
  4180  07E3  00BE               	movwf	?___xxtofl+1
  4181  07E4  0847               	movf	___xxtofl@arg,w
  4182  07E5  00BD               	movwf	?___xxtofl
  4183  07E6                     l798:
  4184  07E6  0008               	return
  4185  07E7                     __end_of___xxtofl:
  4186                           
  4187                           	psect	text10
  4188  16E7                     __ptext10:	
  4189 ;; *************** function ___fltol *****************
  4190 ;; Defined at:
  4191 ;;		line 43 in file "C:\Program Files\Microchip\xc8\v2.32\pic\sources\c90\common\fltol.c"
  4192 ;; Parameters:    Size  Location     Type
  4193 ;;  f1              4    3[COMMON] unsigned char 
  4194 ;; Auto vars:     Size  Location     Type
  4195 ;;  exp1            1    8[COMMON] unsigned char 
  4196 ;;  sign1           1    7[COMMON] unsigned char 
  4197 ;; Return value:  Size  Location     Type
  4198 ;;                  4    3[COMMON] long 
  4199 ;; Registers used:
  4200 ;;		wreg, status,2, status,0
  4201 ;; Tracked objects:
  4202 ;;		On entry : 0/0
  4203 ;;		On exit  : 0/0
  4204 ;;		Unchanged: 0/0
  4205 ;; Data sizes:     COMMON   BANK0   BANK1   BANK3   BANK2
  4206 ;;      Params:         4       0       0       0       0
  4207 ;;      Locals:         2       0       0       0       0
  4208 ;;      Temps:          0       5       0       0       0
  4209 ;;      Totals:         6       5       0       0       0
  4210 ;;Total ram usage:       11 bytes
  4211 ;; Hardware stack levels used: 1
  4212 ;; Hardware stack levels required when called: 1
  4213 ;; This function calls:
  4214 ;;		Nothing
  4215 ;; This function is called by:
  4216 ;;		_floattostr_
  4217 ;; This function uses a non-reentrant model
  4218 ;;
  4219                           
  4220                           
  4221                           ;psect for function ___fltol
  4222  16E7                     ___fltol:
  4223  16E7                     l2341:	
  4224                           ;incstack = 0
  4225                           ; Regs used in ___fltol: [wreg+status,2+status,0]
  4226                           
  4227  16E7  1003               	clrc
  4228  16E8  0D75               	rlf	___fltol@f1+2,w
  4229  16E9  0D76               	rlf	___fltol@f1+3,w
  4230  16EA  1283               	bcf	3,5	;RP0=0, select bank0
  4231  16EB  1303               	bcf	3,6	;RP1=0, select bank0
  4232  16EC  00A0               	movwf	??___fltol
  4233  16ED  0820               	movf	??___fltol,w
  4234  16EE  00F8               	movwf	___fltol@exp1
  4235  16EF  0878               	movf	___fltol@exp1,w
  4236  16F0  1D03               	btfss	3,2
  4237  16F1  2EF3               	goto	u2761
  4238  16F2  2EF4               	goto	u2760
  4239  16F3                     u2761:
  4240  16F3  2EFD               	goto	l2347
  4241  16F4                     u2760:
  4242  16F4                     l2343:
  4243  16F4  3000               	movlw	0
  4244  16F5  00F6               	movwf	?___fltol+3
  4245  16F6  3000               	movlw	0
  4246  16F7  00F5               	movwf	?___fltol+2
  4247  16F8  3000               	movlw	0
  4248  16F9  00F4               	movwf	?___fltol+1
  4249  16FA  3000               	movlw	0
  4250  16FB  00F3               	movwf	?___fltol
  4251  16FC  2F62               	goto	l549
  4252  16FD                     l2347:
  4253  16FD  0873               	movf	___fltol@f1,w
  4254  16FE  00A0               	movwf	??___fltol
  4255  16FF  0874               	movf	___fltol@f1+1,w
  4256  1700  00A1               	movwf	??___fltol+1
  4257  1701  0875               	movf	___fltol@f1+2,w
  4258  1702  00A2               	movwf	??___fltol+2
  4259  1703  0876               	movf	___fltol@f1+3,w
  4260  1704  00A3               	movwf	??___fltol+3
  4261  1705  301F               	movlw	31
  4262  1706                     u2775:
  4263  1706  1003               	clrc
  4264  1707  0CA3               	rrf	??___fltol+3,f
  4265  1708  0CA2               	rrf	??___fltol+2,f
  4266  1709  0CA1               	rrf	??___fltol+1,f
  4267  170A  0CA0               	rrf	??___fltol,f
  4268  170B                     u2770:
  4269  170B  3EFF               	addlw	-1
  4270  170C  1D03               	skipz
  4271  170D  2F06               	goto	u2775
  4272  170E  0820               	movf	??___fltol,w
  4273  170F  00A4               	movwf	??___fltol+4
  4274  1710  0824               	movf	??___fltol+4,w
  4275  1711  00F7               	movwf	___fltol@sign1
  4276  1712                     l2349:
  4277  1712  17F5               	bsf	___fltol@f1+2,7
  4278  1713                     l2351:
  4279  1713  30FF               	movlw	255
  4280  1714  05F3               	andwf	___fltol@f1,f
  4281  1715  30FF               	movlw	255
  4282  1716  05F4               	andwf	___fltol@f1+1,f
  4283  1717  30FF               	movlw	255
  4284  1718  05F5               	andwf	___fltol@f1+2,f
  4285  1719  3000               	movlw	0
  4286  171A  05F6               	andwf	___fltol@f1+3,f
  4287  171B                     l2353:
  4288  171B  3096               	movlw	150
  4289  171C  02F8               	subwf	___fltol@exp1,f
  4290  171D                     l2355:
  4291  171D  1FF8               	btfss	___fltol@exp1,7
  4292  171E  2F20               	goto	u2781
  4293  171F  2F21               	goto	u2780
  4294  1720                     u2781:
  4295  1720  2F3B               	goto	l2365
  4296  1721                     u2780:
  4297  1721                     l2357:
  4298  1721  0878               	movf	___fltol@exp1,w
  4299  1722  3A80               	xorlw	128
  4300  1723  3E97               	addlw	151
  4301  1724  1803               	skipnc
  4302  1725  2F27               	goto	u2791
  4303  1726  2F28               	goto	u2790
  4304  1727                     u2791:
  4305  1727  2F29               	goto	l2363
  4306  1728                     u2790:
  4307  1728  2EF4               	goto	l2343
  4308  1729                     l2363:
  4309  1729  3001               	movlw	1
  4310  172A                     u2805:
  4311  172A  1003               	clrc
  4312  172B  0CF6               	rrf	___fltol@f1+3,f
  4313  172C  0CF5               	rrf	___fltol@f1+2,f
  4314  172D  0CF4               	rrf	___fltol@f1+1,f
  4315  172E  0CF3               	rrf	___fltol@f1,f
  4316  172F  3EFF               	addlw	-1
  4317  1730  1D03               	skipz
  4318  1731  2F2A               	goto	u2805
  4319  1732  3001               	movlw	1
  4320  1733  00A0               	movwf	??___fltol
  4321  1734  0820               	movf	??___fltol,w
  4322  1735  07F8               	addwf	___fltol@exp1,f
  4323  1736  1D03               	btfss	3,2
  4324  1737  2F39               	goto	u2811
  4325  1738  2F3A               	goto	u2810
  4326  1739                     u2811:
  4327  1739  2F29               	goto	l2363
  4328  173A                     u2810:
  4329  173A  2F52               	goto	l2373
  4330  173B                     l2365:
  4331  173B  3020               	movlw	32
  4332  173C  0278               	subwf	___fltol@exp1,w
  4333  173D  1C03               	skipc
  4334  173E  2F40               	goto	u2821
  4335  173F  2F41               	goto	u2820
  4336  1740                     u2821:
  4337  1740  2F4D               	goto	l556
  4338  1741                     u2820:
  4339  1741  2EF4               	goto	l2343
  4340  1742                     l2371:
  4341  1742  3001               	movlw	1
  4342  1743  00A0               	movwf	??___fltol
  4343  1744                     u2835:
  4344  1744  1003               	clrc
  4345  1745  0DF3               	rlf	___fltol@f1,f
  4346  1746  0DF4               	rlf	___fltol@f1+1,f
  4347  1747  0DF5               	rlf	___fltol@f1+2,f
  4348  1748  0DF6               	rlf	___fltol@f1+3,f
  4349  1749  0BA0               	decfsz	??___fltol,f
  4350  174A  2F44               	goto	u2835
  4351  174B  3001               	movlw	1
  4352  174C  02F8               	subwf	___fltol@exp1,f
  4353  174D                     l556:
  4354  174D  0878               	movf	___fltol@exp1,w
  4355  174E  1D03               	btfss	3,2
  4356  174F  2F51               	goto	u2841
  4357  1750  2F52               	goto	u2840
  4358  1751                     u2841:
  4359  1751  2F42               	goto	l2371
  4360  1752                     u2840:
  4361  1752                     l2373:
  4362  1752  0877               	movf	___fltol@sign1,w
  4363  1753  1903               	btfsc	3,2
  4364  1754  2F56               	goto	u2851
  4365  1755  2F57               	goto	u2850
  4366  1756                     u2851:
  4367  1756  2F62               	goto	l559
  4368  1757                     u2850:
  4369  1757                     l2375:
  4370  1757  09F3               	comf	___fltol@f1,f
  4371  1758  09F4               	comf	___fltol@f1+1,f
  4372  1759  09F5               	comf	___fltol@f1+2,f
  4373  175A  09F6               	comf	___fltol@f1+3,f
  4374  175B  0AF3               	incf	___fltol@f1,f
  4375  175C  1903               	skipnz
  4376  175D  0AF4               	incf	___fltol@f1+1,f
  4377  175E  1903               	skipnz
  4378  175F  0AF5               	incf	___fltol@f1+2,f
  4379  1760  1903               	skipnz
  4380  1761  0AF6               	incf	___fltol@f1+3,f
  4381  1762                     l559:
  4382  1762                     l549:
  4383  1762  0008               	return
  4384  1763                     __end_of___fltol:
  4385                           
  4386                           	psect	text11
  4387  152E                     __ptext11:	
  4388 ;; *************** function ___flsub *****************
  4389 ;; Defined at:
  4390 ;;		line 242 in file "C:\Program Files\Microchip\xc8\v2.32\pic\sources\c90\common\sprcadd.c"
  4391 ;; Parameters:    Size  Location     Type
  4392 ;;  a               4   43[BANK0 ] long 
  4393 ;;  b               4   47[BANK0 ] long 
  4394 ;; Auto vars:     Size  Location     Type
  4395 ;;		None
  4396 ;; Return value:  Size  Location     Type
  4397 ;;                  4   43[BANK0 ] long 
  4398 ;; Registers used:
  4399 ;;		wreg, status,2, status,0, btemp+1, pclath, cstack
  4400 ;; Tracked objects:
  4401 ;;		On entry : 0/0
  4402 ;;		On exit  : 0/0
  4403 ;;		Unchanged: 0/0
  4404 ;; Data sizes:     COMMON   BANK0   BANK1   BANK3   BANK2
  4405 ;;      Params:         0       8       0       0       0
  4406 ;;      Locals:         0       0       0       0       0
  4407 ;;      Temps:          0       0       0       0       0
  4408 ;;      Totals:         0       8       0       0       0
  4409 ;;Total ram usage:        8 bytes
  4410 ;; Hardware stack levels used: 1
  4411 ;; Hardware stack levels required when called: 2
  4412 ;; This function calls:
  4413 ;;		___fladd
  4414 ;; This function is called by:
  4415 ;;		_floattostr_
  4416 ;; This function uses a non-reentrant model
  4417 ;;
  4418                           
  4419                           
  4420                           ;psect for function ___flsub
  4421  152E                     ___flsub:
  4422  152E                     l2377:	
  4423                           ;incstack = 0
  4424                           ; Regs used in ___flsub: [wreg+status,2+status,0+btemp+1+pclath+cstack]
  4425                           
  4426  152E  3080               	movlw	128
  4427  152F  1283               	bcf	3,5	;RP0=0, select bank0
  4428  1530  1303               	bcf	3,6	;RP1=0, select bank0
  4429  1531  06CE               	xorwf	___flsub@a+3,f
  4430  1532                     l2379:
  4431  1532  0852               	movf	___flsub@b+3,w
  4432  1533  00B5               	movwf	___fladd@b+3
  4433  1534  0851               	movf	___flsub@b+2,w
  4434  1535  00B4               	movwf	___fladd@b+2
  4435  1536  0850               	movf	___flsub@b+1,w
  4436  1537  00B3               	movwf	___fladd@b+1
  4437  1538  084F               	movf	___flsub@b,w
  4438  1539  00B2               	movwf	___fladd@b
  4439  153A  084E               	movf	___flsub@a+3,w
  4440  153B  00B9               	movwf	___fladd@a+3
  4441  153C  084D               	movf	___flsub@a+2,w
  4442  153D  00B8               	movwf	___fladd@a+2
  4443  153E  084C               	movf	___flsub@a+1,w
  4444  153F  00B7               	movwf	___fladd@a+1
  4445  1540  084B               	movf	___flsub@a,w
  4446  1541  00B6               	movwf	___fladd@a
  4447  1542  120A  158A  22DD  160A  118A  	fcall	___fladd
  4448  1547  1283               	bcf	3,5	;RP0=0, select bank0
  4449  1548  1303               	bcf	3,6	;RP1=0, select bank0
  4450  1549  0835               	movf	?___fladd+3,w
  4451  154A  00CE               	movwf	?___flsub+3
  4452  154B  0834               	movf	?___fladd+2,w
  4453  154C  00CD               	movwf	?___flsub+2
  4454  154D  0833               	movf	?___fladd+1,w
  4455  154E  00CC               	movwf	?___flsub+1
  4456  154F  0832               	movf	?___fladd,w
  4457  1550  00CB               	movwf	?___flsub
  4458  1551                     l702:
  4459  1551  0008               	return
  4460  1552                     __end_of___flsub:
  4461                           
  4462                           	psect	text12
  4463  0ADD                     __ptext12:	
  4464 ;; *************** function ___fladd *****************
  4465 ;; Defined at:
  4466 ;;		line 10 in file "C:\Program Files\Microchip\xc8\v2.32\pic\sources\c90\common\sprcadd.c"
  4467 ;; Parameters:    Size  Location     Type
  4468 ;;  b               4   18[BANK0 ] long 
  4469 ;;  a               4   22[BANK0 ] long 
  4470 ;; Auto vars:     Size  Location     Type
  4471 ;;  grs             1   37[BANK0 ] unsigned char 
  4472 ;;  bexp            1   36[BANK0 ] unsigned char 
  4473 ;;  aexp            1   35[BANK0 ] unsigned char 
  4474 ;;  signs           1   34[BANK0 ] unsigned char 
  4475 ;; Return value:  Size  Location     Type
  4476 ;;                  4   18[BANK0 ] unsigned char 
  4477 ;; Registers used:
  4478 ;;		wreg, status,2, status,0, btemp+1
  4479 ;; Tracked objects:
  4480 ;;		On entry : 0/0
  4481 ;;		On exit  : 0/0
  4482 ;;		Unchanged: 0/0
  4483 ;; Data sizes:     COMMON   BANK0   BANK1   BANK3   BANK2
  4484 ;;      Params:         0       8       0       0       0
  4485 ;;      Locals:         0       4       0       0       0
  4486 ;;      Temps:          0       8       0       0       0
  4487 ;;      Totals:         0      20       0       0       0
  4488 ;;Total ram usage:       20 bytes
  4489 ;; Hardware stack levels used: 1
  4490 ;; Hardware stack levels required when called: 1
  4491 ;; This function calls:
  4492 ;;		Nothing
  4493 ;; This function is called by:
  4494 ;;		_floattostr_
  4495 ;;		___flsub
  4496 ;; This function uses a non-reentrant model
  4497 ;;
  4498                           
  4499                           
  4500                           ;psect for function ___fladd
  4501  0ADD                     ___fladd:
  4502  0ADD                     l2069:	
  4503                           ;incstack = 0
  4504                           ; Regs used in ___fladd: [wreg+status,2+status,0+btemp+1]
  4505                           
  4506  0ADD  1283               	bcf	3,5	;RP0=0, select bank0
  4507  0ADE  1303               	bcf	3,6	;RP1=0, select bank0
  4508  0ADF  0835               	movf	___fladd@b+3,w
  4509  0AE0  3980               	andlw	128
  4510  0AE1  00BA               	movwf	??___fladd
  4511  0AE2  083A               	movf	??___fladd,w
  4512  0AE3  00C2               	movwf	___fladd@signs
  4513  0AE4                     l2071:
  4514  0AE4  0835               	movf	___fladd@b+3,w
  4515  0AE5  00BA               	movwf	??___fladd
  4516  0AE6  073A               	addwf	??___fladd,w
  4517  0AE7  00BB               	movwf	??___fladd+1
  4518  0AE8  083B               	movf	??___fladd+1,w
  4519  0AE9  00C4               	movwf	___fladd@bexp
  4520  0AEA                     l2073:
  4521  0AEA  1FB4               	btfss	___fladd@b+2,7
  4522  0AEB  2AED               	goto	u2181
  4523  0AEC  2AEE               	goto	u2180
  4524  0AED                     u2181:
  4525  0AED  2AEF               	goto	l2077
  4526  0AEE                     u2180:
  4527  0AEE                     l2075:
  4528  0AEE  1444               	bsf	___fladd@bexp,0
  4529  0AEF                     l2077:
  4530  0AEF  0844               	movf	___fladd@bexp,w
  4531  0AF0  1903               	btfsc	3,2
  4532  0AF1  2AF3               	goto	u2191
  4533  0AF2  2AF4               	goto	u2190
  4534  0AF3                     u2191:
  4535  0AF3  2B04               	goto	l2087
  4536  0AF4                     u2190:
  4537  0AF4                     l2079:
  4538  0AF4  0A44               	incf	___fladd@bexp,w
  4539  0AF5  1D03               	btfss	3,2
  4540  0AF6  2AF8               	goto	u2201
  4541  0AF7  2AF9               	goto	u2200
  4542  0AF8                     u2201:
  4543  0AF8  2B01               	goto	l2083
  4544  0AF9                     u2200:
  4545  0AF9                     l2081:
  4546  0AF9  3000               	movlw	0
  4547  0AFA  00B5               	movwf	___fladd@b+3
  4548  0AFB  3000               	movlw	0
  4549  0AFC  00B4               	movwf	___fladd@b+2
  4550  0AFD  3000               	movlw	0
  4551  0AFE  00B3               	movwf	___fladd@b+1
  4552  0AFF  3000               	movlw	0
  4553  0B00  00B2               	movwf	___fladd@b
  4554  0B01                     l2083:
  4555  0B01  17B4               	bsf	___fladd@b+2,7
  4556  0B02                     l2085:
  4557  0B02  01B5               	clrf	___fladd@b+3
  4558  0B03  2B0C               	goto	l2089
  4559  0B04                     l2087:
  4560  0B04  3000               	movlw	0
  4561  0B05  00B5               	movwf	___fladd@b+3
  4562  0B06  3000               	movlw	0
  4563  0B07  00B4               	movwf	___fladd@b+2
  4564  0B08  3000               	movlw	0
  4565  0B09  00B3               	movwf	___fladd@b+1
  4566  0B0A  3000               	movlw	0
  4567  0B0B  00B2               	movwf	___fladd@b
  4568  0B0C                     l2089:
  4569  0B0C  0839               	movf	___fladd@a+3,w
  4570  0B0D  3980               	andlw	128
  4571  0B0E  00BA               	movwf	??___fladd
  4572  0B0F  083A               	movf	??___fladd,w
  4573  0B10  00C3               	movwf	___fladd@aexp
  4574  0B11                     l2091:
  4575  0B11  0843               	movf	___fladd@aexp,w
  4576  0B12  0642               	xorwf	___fladd@signs,w
  4577  0B13  1903               	skipnz
  4578  0B14  2B16               	goto	u2211
  4579  0B15  2B17               	goto	u2210
  4580  0B16                     u2211:
  4581  0B16  2B18               	goto	l2095
  4582  0B17                     u2210:
  4583  0B17                     l2093:
  4584  0B17  1742               	bsf	___fladd@signs,6
  4585  0B18                     l2095:
  4586  0B18  0839               	movf	___fladd@a+3,w
  4587  0B19  00BA               	movwf	??___fladd
  4588  0B1A  073A               	addwf	??___fladd,w
  4589  0B1B  00BB               	movwf	??___fladd+1
  4590  0B1C  083B               	movf	??___fladd+1,w
  4591  0B1D  00C3               	movwf	___fladd@aexp
  4592  0B1E                     l2097:
  4593  0B1E  1FB8               	btfss	___fladd@a+2,7
  4594  0B1F  2B21               	goto	u2221
  4595  0B20  2B22               	goto	u2220
  4596  0B21                     u2221:
  4597  0B21  2B23               	goto	l2101
  4598  0B22                     u2220:
  4599  0B22                     l2099:
  4600  0B22  1443               	bsf	___fladd@aexp,0
  4601  0B23                     l2101:
  4602  0B23  0843               	movf	___fladd@aexp,w
  4603  0B24  1903               	btfsc	3,2
  4604  0B25  2B27               	goto	u2231
  4605  0B26  2B28               	goto	u2230
  4606  0B27                     u2231:
  4607  0B27  2B38               	goto	l2111
  4608  0B28                     u2230:
  4609  0B28                     l2103:
  4610  0B28  0A43               	incf	___fladd@aexp,w
  4611  0B29  1D03               	btfss	3,2
  4612  0B2A  2B2C               	goto	u2241
  4613  0B2B  2B2D               	goto	u2240
  4614  0B2C                     u2241:
  4615  0B2C  2B35               	goto	l2107
  4616  0B2D                     u2240:
  4617  0B2D                     l2105:
  4618  0B2D  3000               	movlw	0
  4619  0B2E  00B9               	movwf	___fladd@a+3
  4620  0B2F  3000               	movlw	0
  4621  0B30  00B8               	movwf	___fladd@a+2
  4622  0B31  3000               	movlw	0
  4623  0B32  00B7               	movwf	___fladd@a+1
  4624  0B33  3000               	movlw	0
  4625  0B34  00B6               	movwf	___fladd@a
  4626  0B35                     l2107:
  4627  0B35  17B8               	bsf	___fladd@a+2,7
  4628  0B36                     l2109:
  4629  0B36  01B9               	clrf	___fladd@a+3
  4630  0B37  2B40               	goto	l656
  4631  0B38                     l2111:
  4632  0B38  3000               	movlw	0
  4633  0B39  00B9               	movwf	___fladd@a+3
  4634  0B3A  3000               	movlw	0
  4635  0B3B  00B8               	movwf	___fladd@a+2
  4636  0B3C  3000               	movlw	0
  4637  0B3D  00B7               	movwf	___fladd@a+1
  4638  0B3E  3000               	movlw	0
  4639  0B3F  00B6               	movwf	___fladd@a
  4640  0B40                     l656:
  4641  0B40  0844               	movf	___fladd@bexp,w
  4642  0B41  0243               	subwf	___fladd@aexp,w
  4643  0B42  1803               	skipnc
  4644  0B43  2B45               	goto	u2251
  4645  0B44  2B46               	goto	u2250
  4646  0B45                     u2251:
  4647  0B45  2B8A               	goto	l2147
  4648  0B46                     u2250:
  4649  0B46                     l2113:
  4650  0B46  1F42               	btfss	___fladd@signs,6
  4651  0B47  2B49               	goto	u2261
  4652  0B48  2B4A               	goto	u2260
  4653  0B49                     u2261:
  4654  0B49  2B4E               	goto	l2117
  4655  0B4A                     u2260:
  4656  0B4A                     l2115:
  4657  0B4A  3080               	movlw	128
  4658  0B4B  00BA               	movwf	??___fladd
  4659  0B4C  083A               	movf	??___fladd,w
  4660  0B4D  06C2               	xorwf	___fladd@signs,f
  4661  0B4E                     l2117:
  4662  0B4E  0844               	movf	___fladd@bexp,w
  4663  0B4F  00BA               	movwf	??___fladd
  4664  0B50  083A               	movf	??___fladd,w
  4665  0B51  00C5               	movwf	___fladd@grs
  4666  0B52                     l2119:
  4667  0B52  0843               	movf	___fladd@aexp,w
  4668  0B53  00BA               	movwf	??___fladd
  4669  0B54  083A               	movf	??___fladd,w
  4670  0B55  00C4               	movwf	___fladd@bexp
  4671  0B56                     l2121:
  4672  0B56  0845               	movf	___fladd@grs,w
  4673  0B57  00BA               	movwf	??___fladd
  4674  0B58  083A               	movf	??___fladd,w
  4675  0B59  00C3               	movwf	___fladd@aexp
  4676  0B5A                     l2123:
  4677  0B5A  0832               	movf	___fladd@b,w
  4678  0B5B  00BA               	movwf	??___fladd
  4679  0B5C  083A               	movf	??___fladd,w
  4680  0B5D  00C5               	movwf	___fladd@grs
  4681  0B5E                     l2125:
  4682  0B5E  0836               	movf	___fladd@a,w
  4683  0B5F  00BA               	movwf	??___fladd
  4684  0B60  083A               	movf	??___fladd,w
  4685  0B61  00B2               	movwf	___fladd@b
  4686  0B62                     l2127:
  4687  0B62  0845               	movf	___fladd@grs,w
  4688  0B63  00BA               	movwf	??___fladd
  4689  0B64  083A               	movf	??___fladd,w
  4690  0B65  00B6               	movwf	___fladd@a
  4691  0B66                     l2129:
  4692  0B66  0833               	movf	___fladd@b+1,w
  4693  0B67  00BA               	movwf	??___fladd
  4694  0B68  083A               	movf	??___fladd,w
  4695  0B69  00C5               	movwf	___fladd@grs
  4696  0B6A                     l2131:
  4697  0B6A  0837               	movf	___fladd@a+1,w
  4698  0B6B  00BA               	movwf	??___fladd
  4699  0B6C  083A               	movf	??___fladd,w
  4700  0B6D  00B3               	movwf	___fladd@b+1
  4701  0B6E                     l2133:
  4702  0B6E  0845               	movf	___fladd@grs,w
  4703  0B6F  00BA               	movwf	??___fladd
  4704  0B70  083A               	movf	??___fladd,w
  4705  0B71  00B7               	movwf	___fladd@a+1
  4706  0B72                     l2135:
  4707  0B72  0834               	movf	___fladd@b+2,w
  4708  0B73  00BA               	movwf	??___fladd
  4709  0B74  083A               	movf	??___fladd,w
  4710  0B75  00C5               	movwf	___fladd@grs
  4711  0B76                     l2137:
  4712  0B76  0838               	movf	___fladd@a+2,w
  4713  0B77  00BA               	movwf	??___fladd
  4714  0B78  083A               	movf	??___fladd,w
  4715  0B79  00B4               	movwf	___fladd@b+2
  4716  0B7A                     l2139:
  4717  0B7A  0845               	movf	___fladd@grs,w
  4718  0B7B  00BA               	movwf	??___fladd
  4719  0B7C  083A               	movf	??___fladd,w
  4720  0B7D  00B8               	movwf	___fladd@a+2
  4721  0B7E                     l2141:
  4722  0B7E  0835               	movf	___fladd@b+3,w
  4723  0B7F  00BA               	movwf	??___fladd
  4724  0B80  083A               	movf	??___fladd,w
  4725  0B81  00C5               	movwf	___fladd@grs
  4726  0B82                     l2143:
  4727  0B82  0839               	movf	___fladd@a+3,w
  4728  0B83  00BA               	movwf	??___fladd
  4729  0B84  083A               	movf	??___fladd,w
  4730  0B85  00B5               	movwf	___fladd@b+3
  4731  0B86                     l2145:
  4732  0B86  0845               	movf	___fladd@grs,w
  4733  0B87  00BA               	movwf	??___fladd
  4734  0B88  083A               	movf	??___fladd,w
  4735  0B89  00B9               	movwf	___fladd@a+3
  4736  0B8A                     l2147:
  4737  0B8A  01C5               	clrf	___fladd@grs
  4738  0B8B                     l2149:
  4739  0B8B  0843               	movf	___fladd@aexp,w
  4740  0B8C  00BA               	movwf	??___fladd
  4741  0B8D  01BB               	clrf	??___fladd+1
  4742  0B8E  083B               	movf	??___fladd+1,w
  4743  0B8F  00BD               	movwf	??___fladd+3
  4744  0B90  0844               	movf	___fladd@bexp,w
  4745  0B91  023A               	subwf	??___fladd,w
  4746  0B92  00BC               	movwf	??___fladd+2
  4747  0B93  1C03               	skipc
  4748  0B94  03BD               	decf	??___fladd+3,f
  4749  0B95  083D               	movf	??___fladd+3,w
  4750  0B96  3A80               	xorlw	128
  4751  0B97  00FF               	movwf	btemp+1
  4752  0B98  3080               	movlw	128
  4753  0B99  027F               	subwf	btemp+1,w
  4754  0B9A  1D03               	skipz
  4755  0B9B  2B9E               	goto	u2275
  4756  0B9C  301A               	movlw	26
  4757  0B9D  023C               	subwf	??___fladd+2,w
  4758  0B9E                     u2275:
  4759  0B9E  1C03               	skipc
  4760  0B9F  2BA1               	goto	u2271
  4761  0BA0  2BA2               	goto	u2270
  4762  0BA1                     u2271:
  4763  0BA1  2BDF               	goto	l2165
  4764  0BA2                     u2270:
  4765  0BA2                     l2151:
  4766  0BA2  1283               	bcf	3,5	;RP0=0, select bank0
  4767  0BA3  1303               	bcf	3,6	;RP1=0, select bank0
  4768  0BA4  0835               	movf	___fladd@b+3,w
  4769  0BA5  0434               	iorwf	___fladd@b+2,w
  4770  0BA6  0433               	iorwf	___fladd@b+1,w
  4771  0BA7  0432               	iorwf	___fladd@b,w
  4772  0BA8  1D03               	skipz
  4773  0BA9  2BAB               	goto	u2281
  4774  0BAA  2BAD               	goto	u2280
  4775  0BAB                     u2281:
  4776  0BAB  3001               	movlw	1
  4777  0BAC  2BAE               	goto	u2290
  4778  0BAD                     u2280:
  4779  0BAD  3000               	movlw	0
  4780  0BAE                     u2290:
  4781  0BAE  00BA               	movwf	??___fladd
  4782  0BAF  083A               	movf	??___fladd,w
  4783  0BB0  00C5               	movwf	___fladd@grs
  4784  0BB1  3000               	movlw	0
  4785  0BB2  00B5               	movwf	___fladd@b+3
  4786  0BB3  3000               	movlw	0
  4787  0BB4  00B4               	movwf	___fladd@b+2
  4788  0BB5  3000               	movlw	0
  4789  0BB6  00B3               	movwf	___fladd@b+1
  4790  0BB7  3000               	movlw	0
  4791  0BB8  00B2               	movwf	___fladd@b
  4792  0BB9  0843               	movf	___fladd@aexp,w
  4793  0BBA  00BA               	movwf	??___fladd
  4794  0BBB  083A               	movf	??___fladd,w
  4795  0BBC  00C4               	movwf	___fladd@bexp
  4796  0BBD  2BE7               	goto	l660
  4797  0BBE                     l662:
  4798  0BBE  1C45               	btfss	___fladd@grs,0
  4799  0BBF  2BC1               	goto	u2301
  4800  0BC0  2BC2               	goto	u2300
  4801  0BC1                     u2301:
  4802  0BC1  2BCB               	goto	l2155
  4803  0BC2                     u2300:
  4804  0BC2                     l2153:
  4805  0BC2  0845               	movf	___fladd@grs,w
  4806  0BC3  00BA               	movwf	??___fladd
  4807  0BC4  1003               	clrc
  4808  0BC5  0C3A               	rrf	??___fladd,w
  4809  0BC6  3801               	iorlw	1
  4810  0BC7  00BB               	movwf	??___fladd+1
  4811  0BC8  083B               	movf	??___fladd+1,w
  4812  0BC9  00C5               	movwf	___fladd@grs
  4813  0BCA  2BCD               	goto	l2157
  4814  0BCB                     l2155:
  4815  0BCB  1003               	clrc
  4816  0BCC  0CC5               	rrf	___fladd@grs,f
  4817  0BCD                     l2157:
  4818  0BCD  1C32               	btfss	___fladd@b,0
  4819  0BCE  2BD0               	goto	u2311
  4820  0BCF  2BD1               	goto	u2310
  4821  0BD0                     u2311:
  4822  0BD0  2BD2               	goto	l2161
  4823  0BD1                     u2310:
  4824  0BD1                     l2159:
  4825  0BD1  17C5               	bsf	___fladd@grs,7
  4826  0BD2                     l2161:
  4827  0BD2  3001               	movlw	1
  4828  0BD3  00BA               	movwf	??___fladd
  4829  0BD4                     u2325:
  4830  0BD4  0D35               	rlf	___fladd@b+3,w
  4831  0BD5  0CB5               	rrf	___fladd@b+3,f
  4832  0BD6  0CB4               	rrf	___fladd@b+2,f
  4833  0BD7  0CB3               	rrf	___fladd@b+1,f
  4834  0BD8  0CB2               	rrf	___fladd@b,f
  4835  0BD9  0BBA               	decfsz	??___fladd& (0+127),f
  4836  0BDA  2BD4               	goto	u2325
  4837  0BDB                     l2163:
  4838  0BDB  3001               	movlw	1
  4839  0BDC  00BA               	movwf	??___fladd
  4840  0BDD  083A               	movf	??___fladd,w
  4841  0BDE  07C4               	addwf	___fladd@bexp,f
  4842  0BDF                     l2165:
  4843  0BDF  1283               	bcf	3,5	;RP0=0, select bank0
  4844  0BE0  1303               	bcf	3,6	;RP1=0, select bank0
  4845  0BE1  0843               	movf	___fladd@aexp,w
  4846  0BE2  0244               	subwf	___fladd@bexp,w
  4847  0BE3  1C03               	skipc
  4848  0BE4  2BE6               	goto	u2331
  4849  0BE5  2BE7               	goto	u2330
  4850  0BE6                     u2331:
  4851  0BE6  2BBE               	goto	l662
  4852  0BE7                     u2330:
  4853  0BE7                     l660:
  4854  0BE7  1B42               	btfsc	___fladd@signs,6
  4855  0BE8  2BEA               	goto	u2341
  4856  0BE9  2BEB               	goto	u2340
  4857  0BEA                     u2341:
  4858  0BEA  2C36               	goto	l2191
  4859  0BEB                     u2340:
  4860  0BEB                     l2167:
  4861  0BEB  0844               	movf	___fladd@bexp,w
  4862  0BEC  1D03               	btfss	3,2
  4863  0BED  2BEF               	goto	u2351
  4864  0BEE  2BF0               	goto	u2350
  4865  0BEF                     u2351:
  4866  0BEF  2BF9               	goto	l2173
  4867  0BF0                     u2350:
  4868  0BF0                     l2169:
  4869  0BF0  3000               	movlw	0
  4870  0BF1  00B5               	movwf	?___fladd+3
  4871  0BF2  3000               	movlw	0
  4872  0BF3  00B4               	movwf	?___fladd+2
  4873  0BF4  3000               	movlw	0
  4874  0BF5  00B3               	movwf	?___fladd+1
  4875  0BF6  3000               	movlw	0
  4876  0BF7  00B2               	movwf	?___fladd
  4877  0BF8  2D64               	goto	l669
  4878  0BF9                     l2173:
  4879  0BF9  0836               	movf	___fladd@a,w
  4880  0BFA  07B2               	addwf	___fladd@b,f
  4881  0BFB  0837               	movf	___fladd@a+1,w
  4882  0BFC  1103               	clrz
  4883  0BFD  1803               	skipnc
  4884  0BFE  3E01               	addlw	1
  4885  0BFF  1903               	skipnz
  4886  0C00  2C02               	goto	u2361
  4887  0C01  07B3               	addwf	___fladd@b+1,f
  4888  0C02                     u2361:
  4889  0C02  0838               	movf	___fladd@a+2,w
  4890  0C03  1103               	clrz
  4891  0C04  1803               	skipnc
  4892  0C05  3E01               	addlw	1
  4893  0C06  1903               	skipnz
  4894  0C07  2C09               	goto	u2362
  4895  0C08  07B4               	addwf	___fladd@b+2,f
  4896  0C09                     u2362:
  4897  0C09  0839               	movf	___fladd@a+3,w
  4898  0C0A  1103               	clrz
  4899  0C0B  1803               	skipnc
  4900  0C0C  3E01               	addlw	1
  4901  0C0D  1903               	skipnz
  4902  0C0E  2C10               	goto	u2363
  4903  0C0F  07B5               	addwf	___fladd@b+3,f
  4904  0C10                     u2363:
  4905  0C10                     l2175:
  4906  0C10  1C35               	btfss	___fladd@b+3,0
  4907  0C11  2C13               	goto	u2371
  4908  0C12  2C14               	goto	u2370
  4909  0C13                     u2371:
  4910  0C13  2CEA               	goto	l2225
  4911  0C14                     u2370:
  4912  0C14                     l2177:
  4913  0C14  1C45               	btfss	___fladd@grs,0
  4914  0C15  2C17               	goto	u2381
  4915  0C16  2C18               	goto	u2380
  4916  0C17                     u2381:
  4917  0C17  2C21               	goto	l2181
  4918  0C18                     u2380:
  4919  0C18                     l2179:
  4920  0C18  0845               	movf	___fladd@grs,w
  4921  0C19  00BA               	movwf	??___fladd
  4922  0C1A  1003               	clrc
  4923  0C1B  0C3A               	rrf	??___fladd,w
  4924  0C1C  3801               	iorlw	1
  4925  0C1D  00BB               	movwf	??___fladd+1
  4926  0C1E  083B               	movf	??___fladd+1,w
  4927  0C1F  00C5               	movwf	___fladd@grs
  4928  0C20  2C23               	goto	l2183
  4929  0C21                     l2181:
  4930  0C21  1003               	clrc
  4931  0C22  0CC5               	rrf	___fladd@grs,f
  4932  0C23                     l2183:
  4933  0C23  1C32               	btfss	___fladd@b,0
  4934  0C24  2C26               	goto	u2391
  4935  0C25  2C27               	goto	u2390
  4936  0C26                     u2391:
  4937  0C26  2C28               	goto	l2187
  4938  0C27                     u2390:
  4939  0C27                     l2185:
  4940  0C27  17C5               	bsf	___fladd@grs,7
  4941  0C28                     l2187:
  4942  0C28  3001               	movlw	1
  4943  0C29  00BA               	movwf	??___fladd
  4944  0C2A                     u2405:
  4945  0C2A  0D35               	rlf	___fladd@b+3,w
  4946  0C2B  0CB5               	rrf	___fladd@b+3,f
  4947  0C2C  0CB4               	rrf	___fladd@b+2,f
  4948  0C2D  0CB3               	rrf	___fladd@b+1,f
  4949  0C2E  0CB2               	rrf	___fladd@b,f
  4950  0C2F  0BBA               	decfsz	??___fladd& (0+127),f
  4951  0C30  2C2A               	goto	u2405
  4952  0C31                     l2189:
  4953  0C31  3001               	movlw	1
  4954  0C32  00BA               	movwf	??___fladd
  4955  0C33  083A               	movf	??___fladd,w
  4956  0C34  07C4               	addwf	___fladd@bexp,f
  4957  0C35  2CEA               	goto	l2225
  4958  0C36                     l2191:
  4959  0C36  0835               	movf	___fladd@b+3,w
  4960  0C37  3A80               	xorlw	128
  4961  0C38  00FF               	movwf	btemp+1
  4962  0C39  0839               	movf	___fladd@a+3,w
  4963  0C3A  3A80               	xorlw	128
  4964  0C3B  027F               	subwf	btemp+1,w
  4965  0C3C  1D03               	skipz
  4966  0C3D  2C48               	goto	u2413
  4967  0C3E  0838               	movf	___fladd@a+2,w
  4968  0C3F  0234               	subwf	___fladd@b+2,w
  4969  0C40  1D03               	skipz
  4970  0C41  2C48               	goto	u2413
  4971  0C42  0837               	movf	___fladd@a+1,w
  4972  0C43  0233               	subwf	___fladd@b+1,w
  4973  0C44  1D03               	skipz
  4974  0C45  2C48               	goto	u2413
  4975  0C46  0836               	movf	___fladd@a,w
  4976  0C47  0232               	subwf	___fladd@b,w
  4977  0C48                     u2413:
  4978  0C48  1803               	skipnc
  4979  0C49  2C4B               	goto	u2411
  4980  0C4A  2C4C               	goto	u2410
  4981  0C4B                     u2411:
  4982  0C4B  2CA4               	goto	l2201
  4983  0C4C                     u2410:
  4984  0C4C                     l2193:
  4985  0C4C  30FF               	movlw	255
  4986  0C4D  00BA               	movwf	??___fladd
  4987  0C4E  30FF               	movlw	255
  4988  0C4F  00BB               	movwf	??___fladd+1
  4989  0C50  30FF               	movlw	255
  4990  0C51  00BC               	movwf	??___fladd+2
  4991  0C52  30FF               	movlw	255
  4992  0C53  00BD               	movwf	??___fladd+3
  4993  0C54  0836               	movf	___fladd@a,w
  4994  0C55  00BE               	movwf	??___fladd+4
  4995  0C56  0837               	movf	___fladd@a+1,w
  4996  0C57  00BF               	movwf	??___fladd+5
  4997  0C58  0838               	movf	___fladd@a+2,w
  4998  0C59  00C0               	movwf	??___fladd+6
  4999  0C5A  0839               	movf	___fladd@a+3,w
  5000  0C5B  00C1               	movwf	??___fladd+7
  5001  0C5C  0832               	movf	___fladd@b,w
  5002  0C5D  02BE               	subwf	??___fladd+4,f
  5003  0C5E  0833               	movf	___fladd@b+1,w
  5004  0C5F  1C03               	skipc
  5005  0C60  0F33               	incfsz	___fladd@b+1,w
  5006  0C61  2C63               	goto	u2421
  5007  0C62  2C64               	goto	u2422
  5008  0C63                     u2421:
  5009  0C63  02BF               	subwf	??___fladd+5,f
  5010  0C64                     u2422:
  5011  0C64  0834               	movf	___fladd@b+2,w
  5012  0C65  1C03               	skipc
  5013  0C66  0F34               	incfsz	___fladd@b+2,w
  5014  0C67  2C69               	goto	u2423
  5015  0C68  2C6A               	goto	u2424
  5016  0C69                     u2423:
  5017  0C69  02C0               	subwf	??___fladd+6,f
  5018  0C6A                     u2424:
  5019  0C6A  0835               	movf	___fladd@b+3,w
  5020  0C6B  1C03               	skipc
  5021  0C6C  0F35               	incfsz	___fladd@b+3,w
  5022  0C6D  2C6F               	goto	u2425
  5023  0C6E  2C70               	goto	u2426
  5024  0C6F                     u2425:
  5025  0C6F  02C1               	subwf	??___fladd+7,f
  5026  0C70                     u2426:
  5027  0C70  083E               	movf	??___fladd+4,w
  5028  0C71  07BA               	addwf	??___fladd,f
  5029  0C72  083F               	movf	??___fladd+5,w
  5030  0C73  1803               	skipnc
  5031  0C74  0F3F               	incfsz	??___fladd+5,w
  5032  0C75  2C77               	goto	u2430
  5033  0C76  2C78               	goto	u2431
  5034  0C77                     u2430:
  5035  0C77  07BB               	addwf	??___fladd+1,f
  5036  0C78                     u2431:
  5037  0C78  0840               	movf	??___fladd+6,w
  5038  0C79  1803               	skipnc
  5039  0C7A  0F40               	incfsz	??___fladd+6,w
  5040  0C7B  2C7D               	goto	u2432
  5041  0C7C  2C7E               	goto	u2433
  5042  0C7D                     u2432:
  5043  0C7D  07BC               	addwf	??___fladd+2,f
  5044  0C7E                     u2433:
  5045  0C7E  0841               	movf	??___fladd+7,w
  5046  0C7F  1803               	skipnc
  5047  0C80  0A41               	incf	??___fladd+7,w
  5048  0C81  07BD               	addwf	??___fladd+3,f
  5049  0C82  083D               	movf	??___fladd+3,w
  5050  0C83  00B5               	movwf	___fladd@b+3
  5051  0C84  083C               	movf	??___fladd+2,w
  5052  0C85  00B4               	movwf	___fladd@b+2
  5053  0C86  083B               	movf	??___fladd+1,w
  5054  0C87  00B3               	movwf	___fladd@b+1
  5055  0C88  083A               	movf	??___fladd,w
  5056  0C89  00B2               	movwf	___fladd@b
  5057  0C8A                     l2195:
  5058  0C8A  3080               	movlw	128
  5059  0C8B  00BA               	movwf	??___fladd
  5060  0C8C  083A               	movf	??___fladd,w
  5061  0C8D  06C2               	xorwf	___fladd@signs,f
  5062  0C8E  09C5               	comf	___fladd@grs,f
  5063  0C8F  0AC5               	incf	___fladd@grs,f
  5064  0C90                     l2197:
  5065  0C90  0845               	movf	___fladd@grs,w
  5066  0C91  1D03               	btfss	3,2
  5067  0C92  2C94               	goto	u2441
  5068  0C93  2C95               	goto	u2440
  5069  0C94                     u2441:
  5070  0C94  2CB2               	goto	l677
  5071  0C95                     u2440:
  5072  0C95                     l2199:
  5073  0C95  3001               	movlw	1
  5074  0C96  07B2               	addwf	___fladd@b,f
  5075  0C97  3000               	movlw	0
  5076  0C98  1803               	skipnc
  5077  0C99  3001               	movlw	1
  5078  0C9A  07B3               	addwf	___fladd@b+1,f
  5079  0C9B  3000               	movlw	0
  5080  0C9C  1803               	skipnc
  5081  0C9D  3001               	movlw	1
  5082  0C9E  07B4               	addwf	___fladd@b+2,f
  5083  0C9F  3000               	movlw	0
  5084  0CA0  1803               	skipnc
  5085  0CA1  3001               	movlw	1
  5086  0CA2  07B5               	addwf	___fladd@b+3,f
  5087  0CA3  2CB2               	goto	l677
  5088  0CA4                     l2201:
  5089  0CA4  0836               	movf	___fladd@a,w
  5090  0CA5  02B2               	subwf	___fladd@b,f
  5091  0CA6  0837               	movf	___fladd@a+1,w
  5092  0CA7  1C03               	skipc
  5093  0CA8  0F37               	incfsz	___fladd@a+1,w
  5094  0CA9  02B3               	subwf	___fladd@b+1,f
  5095  0CAA  0838               	movf	___fladd@a+2,w
  5096  0CAB  1C03               	skipc
  5097  0CAC  0F38               	incfsz	___fladd@a+2,w
  5098  0CAD  02B4               	subwf	___fladd@b+2,f
  5099  0CAE  0839               	movf	___fladd@a+3,w
  5100  0CAF  1C03               	skipc
  5101  0CB0  0F39               	incfsz	___fladd@a+3,w
  5102  0CB1  02B5               	subwf	___fladd@b+3,f
  5103  0CB2                     l677:
  5104  0CB2  0835               	movf	___fladd@b+3,w
  5105  0CB3  0434               	iorwf	___fladd@b+2,w
  5106  0CB4  0433               	iorwf	___fladd@b+1,w
  5107  0CB5  0432               	iorwf	___fladd@b,w
  5108  0CB6  1D03               	skipz
  5109  0CB7  2CB9               	goto	u2451
  5110  0CB8  2CBA               	goto	u2450
  5111  0CB9                     u2451:
  5112  0CB9  2CE6               	goto	l2223
  5113  0CBA                     u2450:
  5114  0CBA                     l2203:
  5115  0CBA  0845               	movf	___fladd@grs,w
  5116  0CBB  1D03               	btfss	3,2
  5117  0CBC  2CBE               	goto	u2461
  5118  0CBD  2CBF               	goto	u2460
  5119  0CBE                     u2461:
  5120  0CBE  2CE6               	goto	l2223
  5121  0CBF                     u2460:
  5122  0CBF                     l2205:
  5123  0CBF  3000               	movlw	0
  5124  0CC0  00B5               	movwf	?___fladd+3
  5125  0CC1  3000               	movlw	0
  5126  0CC2  00B4               	movwf	?___fladd+2
  5127  0CC3  3000               	movlw	0
  5128  0CC4  00B3               	movwf	?___fladd+1
  5129  0CC5  3000               	movlw	0
  5130  0CC6  00B2               	movwf	?___fladd
  5131  0CC7  2D64               	goto	l669
  5132  0CC8                     l2209:
  5133  0CC8  3001               	movlw	1
  5134  0CC9  00BA               	movwf	??___fladd
  5135  0CCA                     u2475:
  5136  0CCA  1003               	clrc
  5137  0CCB  0DB2               	rlf	___fladd@b,f
  5138  0CCC  0DB3               	rlf	___fladd@b+1,f
  5139  0CCD  0DB4               	rlf	___fladd@b+2,f
  5140  0CCE  0DB5               	rlf	___fladd@b+3,f
  5141  0CCF  0BBA               	decfsz	??___fladd,f
  5142  0CD0  2CCA               	goto	u2475
  5143  0CD1                     l2211:
  5144  0CD1  1FC5               	btfss	___fladd@grs,7
  5145  0CD2  2CD4               	goto	u2481
  5146  0CD3  2CD5               	goto	u2480
  5147  0CD4                     u2481:
  5148  0CD4  2CD6               	goto	l681
  5149  0CD5                     u2480:
  5150  0CD5                     l2213:
  5151  0CD5  1432               	bsf	___fladd@b,0
  5152  0CD6                     l681:
  5153  0CD6  1C45               	btfss	___fladd@grs,0
  5154  0CD7  2CD9               	goto	u2491
  5155  0CD8  2CDA               	goto	u2490
  5156  0CD9                     u2491:
  5157  0CD9  2CDD               	goto	l2217
  5158  0CDA                     u2490:
  5159  0CDA                     l2215:
  5160  0CDA  1403               	setc
  5161  0CDB  0DC5               	rlf	___fladd@grs,f
  5162  0CDC  2CDF               	goto	l2219
  5163  0CDD                     l2217:
  5164  0CDD  1003               	clrc
  5165  0CDE  0DC5               	rlf	___fladd@grs,f
  5166  0CDF                     l2219:
  5167  0CDF  0844               	movf	___fladd@bexp,w
  5168  0CE0  1903               	btfsc	3,2
  5169  0CE1  2CE3               	goto	u2501
  5170  0CE2  2CE4               	goto	u2500
  5171  0CE3                     u2501:
  5172  0CE3  2CE6               	goto	l2223
  5173  0CE4                     u2500:
  5174  0CE4                     l2221:
  5175  0CE4  3001               	movlw	1
  5176  0CE5  02C4               	subwf	___fladd@bexp,f
  5177  0CE6                     l2223:
  5178  0CE6  1FB4               	btfss	___fladd@b+2,7
  5179  0CE7  2CE9               	goto	u2511
  5180  0CE8  2CEA               	goto	u2510
  5181  0CE9                     u2511:
  5182  0CE9  2CC8               	goto	l2209
  5183  0CEA                     u2510:
  5184  0CEA                     l2225:
  5185  0CEA  01C3               	clrf	___fladd@aexp
  5186  0CEB                     l2227:
  5187  0CEB  1FC5               	btfss	___fladd@grs,7
  5188  0CEC  2CEE               	goto	u2521
  5189  0CED  2CEF               	goto	u2520
  5190  0CEE                     u2521:
  5191  0CEE  2CFD               	goto	l2235
  5192  0CEF                     u2520:
  5193  0CEF                     l2229:
  5194  0CEF  0845               	movf	___fladd@grs,w
  5195  0CF0  397F               	andlw	127
  5196  0CF1  1903               	btfsc	3,2
  5197  0CF2  2CF4               	goto	u2531
  5198  0CF3  2CF5               	goto	u2530
  5199  0CF4                     u2531:
  5200  0CF4  2CF8               	goto	l687
  5201  0CF5                     u2530:
  5202  0CF5                     l2231:
  5203  0CF5  01C3               	clrf	___fladd@aexp
  5204  0CF6  0AC3               	incf	___fladd@aexp,f
  5205  0CF7  2CFD               	goto	l2235
  5206  0CF8                     l687:
  5207  0CF8  1C32               	btfss	___fladd@b,0
  5208  0CF9  2CFB               	goto	u2541
  5209  0CFA  2CFC               	goto	u2540
  5210  0CFB                     u2541:
  5211  0CFB  2CFD               	goto	l2235
  5212  0CFC                     u2540:
  5213  0CFC  2CF5               	goto	l2231
  5214  0CFD                     l2235:
  5215  0CFD  0843               	movf	___fladd@aexp,w
  5216  0CFE  1903               	btfsc	3,2
  5217  0CFF  2D01               	goto	u2551
  5218  0D00  2D02               	goto	u2550
  5219  0D01                     u2551:
  5220  0D01  2D36               	goto	l690
  5221  0D02                     u2550:
  5222  0D02                     l2237:
  5223  0D02  3001               	movlw	1
  5224  0D03  07B2               	addwf	___fladd@b,f
  5225  0D04  3000               	movlw	0
  5226  0D05  1803               	skipnc
  5227  0D06  3001               	movlw	1
  5228  0D07  07B3               	addwf	___fladd@b+1,f
  5229  0D08  3000               	movlw	0
  5230  0D09  1803               	skipnc
  5231  0D0A  3001               	movlw	1
  5232  0D0B  07B4               	addwf	___fladd@b+2,f
  5233  0D0C  3000               	movlw	0
  5234  0D0D  1803               	skipnc
  5235  0D0E  3001               	movlw	1
  5236  0D0F  07B5               	addwf	___fladd@b+3,f
  5237  0D10                     l2239:
  5238  0D10  1C35               	btfss	___fladd@b+3,0
  5239  0D11  2D13               	goto	u2561
  5240  0D12  2D14               	goto	u2560
  5241  0D13                     u2561:
  5242  0D13  2D36               	goto	l690
  5243  0D14                     u2560:
  5244  0D14                     l2241:
  5245  0D14  0832               	movf	___fladd@b,w
  5246  0D15  00BA               	movwf	??___fladd
  5247  0D16  0833               	movf	___fladd@b+1,w
  5248  0D17  00BB               	movwf	??___fladd+1
  5249  0D18  0834               	movf	___fladd@b+2,w
  5250  0D19  00BC               	movwf	??___fladd+2
  5251  0D1A  0835               	movf	___fladd@b+3,w
  5252  0D1B  00BD               	movwf	??___fladd+3
  5253  0D1C  3001               	movlw	1
  5254  0D1D  00BE               	movwf	??___fladd+4
  5255  0D1E                     u2575:
  5256  0D1E  0D3D               	rlf	??___fladd+3,w
  5257  0D1F  0CBD               	rrf	??___fladd+3,f
  5258  0D20  0CBC               	rrf	??___fladd+2,f
  5259  0D21  0CBB               	rrf	??___fladd+1,f
  5260  0D22  0CBA               	rrf	??___fladd,f
  5261  0D23                     u2570:
  5262  0D23  0BBE               	decfsz	??___fladd+4,f
  5263  0D24  2D1E               	goto	u2575
  5264  0D25  083D               	movf	??___fladd+3,w
  5265  0D26  00B5               	movwf	___fladd@b+3
  5266  0D27  083C               	movf	??___fladd+2,w
  5267  0D28  00B4               	movwf	___fladd@b+2
  5268  0D29  083B               	movf	??___fladd+1,w
  5269  0D2A  00B3               	movwf	___fladd@b+1
  5270  0D2B  083A               	movf	??___fladd,w
  5271  0D2C  00B2               	movwf	___fladd@b
  5272  0D2D  0A44               	incf	___fladd@bexp,w
  5273  0D2E  1903               	btfsc	3,2
  5274  0D2F  2D31               	goto	u2581
  5275  0D30  2D32               	goto	u2580
  5276  0D31                     u2581:
  5277  0D31  2D36               	goto	l690
  5278  0D32                     u2580:
  5279  0D32                     l2243:
  5280  0D32  3001               	movlw	1
  5281  0D33  00BA               	movwf	??___fladd
  5282  0D34  083A               	movf	??___fladd,w
  5283  0D35  07C4               	addwf	___fladd@bexp,f
  5284  0D36                     l690:
  5285  0D36  0A44               	incf	___fladd@bexp,w
  5286  0D37  1903               	btfsc	3,2
  5287  0D38  2D3A               	goto	u2591
  5288  0D39  2D3B               	goto	u2590
  5289  0D3A                     u2591:
  5290  0D3A  2D40               	goto	l2247
  5291  0D3B                     u2590:
  5292  0D3B                     l2245:
  5293  0D3B  0844               	movf	___fladd@bexp,w
  5294  0D3C  1D03               	btfss	3,2
  5295  0D3D  2D3F               	goto	u2601
  5296  0D3E  2D40               	goto	u2600
  5297  0D3F                     u2601:
  5298  0D3F  2D4E               	goto	l2253
  5299  0D40                     u2600:
  5300  0D40                     l2247:
  5301  0D40  3000               	movlw	0
  5302  0D41  00B5               	movwf	___fladd@b+3
  5303  0D42  3000               	movlw	0
  5304  0D43  00B4               	movwf	___fladd@b+2
  5305  0D44  3000               	movlw	0
  5306  0D45  00B3               	movwf	___fladd@b+1
  5307  0D46  3000               	movlw	0
  5308  0D47  00B2               	movwf	___fladd@b
  5309  0D48                     l2249:
  5310  0D48  0844               	movf	___fladd@bexp,w
  5311  0D49  1D03               	btfss	3,2
  5312  0D4A  2D4C               	goto	u2611
  5313  0D4B  2D4D               	goto	u2610
  5314  0D4C                     u2611:
  5315  0D4C  2D4E               	goto	l2253
  5316  0D4D                     u2610:
  5317  0D4D                     l2251:
  5318  0D4D  01C2               	clrf	___fladd@signs
  5319  0D4E                     l2253:
  5320  0D4E  1C44               	btfss	___fladd@bexp,0
  5321  0D4F  2D51               	goto	u2621
  5322  0D50  2D52               	goto	u2620
  5323  0D51                     u2621:
  5324  0D51  2D54               	goto	l2257
  5325  0D52                     u2620:
  5326  0D52                     l2255:
  5327  0D52  17B4               	bsf	___fladd@b+2,7
  5328  0D53  2D58               	goto	l698
  5329  0D54                     l2257:
  5330  0D54  307F               	movlw	127
  5331  0D55  00BA               	movwf	??___fladd
  5332  0D56  083A               	movf	??___fladd,w
  5333  0D57  05B4               	andwf	___fladd@b+2,f
  5334  0D58                     l698:
  5335  0D58  0844               	movf	___fladd@bexp,w
  5336  0D59  00BA               	movwf	??___fladd
  5337  0D5A  1003               	clrc
  5338  0D5B  0C3A               	rrf	??___fladd,w
  5339  0D5C  00BB               	movwf	??___fladd+1
  5340  0D5D  083B               	movf	??___fladd+1,w
  5341  0D5E  00B5               	movwf	___fladd@b+3
  5342  0D5F                     l2259:
  5343  0D5F  1FC2               	btfss	___fladd@signs,7
  5344  0D60  2D62               	goto	u2631
  5345  0D61  2D63               	goto	u2630
  5346  0D62                     u2631:
  5347  0D62  2D64               	goto	l699
  5348  0D63                     u2630:
  5349  0D63                     l2261:
  5350  0D63  17B5               	bsf	___fladd@b+3,7
  5351  0D64                     l699:
  5352  0D64                     l669:
  5353  0D64  0008               	return
  5354  0D65                     __end_of___fladd:
  5355                           
  5356                           	psect	text13
  5357  14B0                     __ptext13:	
  5358 ;; *************** function ___flneg *****************
  5359 ;; Defined at:
  5360 ;;		line 15 in file "C:\Program Files\Microchip\xc8\v2.32\pic\sources\c90\common\flneg.c"
  5361 ;; Parameters:    Size  Location     Type
  5362 ;;  f1              4    3[COMMON] unsigned char 
  5363 ;; Auto vars:     Size  Location     Type
  5364 ;;		None
  5365 ;; Return value:  Size  Location     Type
  5366 ;;                  4    3[COMMON] unsigned char 
  5367 ;; Registers used:
  5368 ;;		wreg
  5369 ;; Tracked objects:
  5370 ;;		On entry : 0/0
  5371 ;;		On exit  : 0/0
  5372 ;;		Unchanged: 0/0
  5373 ;; Data sizes:     COMMON   BANK0   BANK1   BANK3   BANK2
  5374 ;;      Params:         4       0       0       0       0
  5375 ;;      Locals:         0       0       0       0       0
  5376 ;;      Temps:          0       0       0       0       0
  5377 ;;      Totals:         4       0       0       0       0
  5378 ;;Total ram usage:        4 bytes
  5379 ;; Hardware stack levels used: 1
  5380 ;; Hardware stack levels required when called: 1
  5381 ;; This function calls:
  5382 ;;		Nothing
  5383 ;; This function is called by:
  5384 ;;		_floattostr_
  5385 ;; This function uses a non-reentrant model
  5386 ;;
  5387                           
  5388                           
  5389                           ;psect for function ___flneg
  5390  14B0                     ___flneg:
  5391  14B0                     l2333:	
  5392                           ;incstack = 0
  5393                           ; Regs used in ___flneg: [wreg]
  5394                           
  5395  14B0  0876               	movf	___flneg@f1+3,w
  5396  14B1  0475               	iorwf	___flneg@f1+2,w
  5397  14B2  0474               	iorwf	___flneg@f1+1,w
  5398  14B3  0473               	iorwf	___flneg@f1,w
  5399  14B4  1903               	skipnz
  5400  14B5  2CB7               	goto	u2751
  5401  14B6  2CB8               	goto	u2750
  5402  14B7                     u2751:
  5403  14B7  2CBA               	goto	l2337
  5404  14B8                     u2750:
  5405  14B8                     l2335:
  5406  14B8  3080               	movlw	128
  5407  14B9  06F6               	xorwf	___flneg@f1+3,f
  5408  14BA                     l2337:
  5409  14BA                     l545:
  5410  14BA  0008               	return
  5411  14BB                     __end_of___flneg:
  5412                           
  5413                           	psect	text14
  5414  0033                     __ptext14:	
  5415 ;; *************** function ___flmul *****************
  5416 ;; Defined at:
  5417 ;;		line 8 in file "C:\Program Files\Microchip\xc8\v2.32\pic\sources\c90\common\sprcmul.c"
  5418 ;; Parameters:    Size  Location     Type
  5419 ;;  b               4    5[BANK0 ] unsigned char 
  5420 ;;  a               4    9[BANK0 ] unsigned char 
  5421 ;; Auto vars:     Size  Location     Type
  5422 ;;  prod            4   25[BANK0 ] struct .
  5423 ;;  grs             4   19[BANK0 ] unsigned long 
  5424 ;;  temp            2   29[BANK0 ] struct .
  5425 ;;  bexp            1   24[BANK0 ] unsigned char 
  5426 ;;  aexp            1   23[BANK0 ] unsigned char 
  5427 ;;  sign            1   18[BANK0 ] unsigned char 
  5428 ;; Return value:  Size  Location     Type
  5429 ;;                  4    5[BANK0 ] unsigned char 
  5430 ;; Registers used:
  5431 ;;		wreg, status,2, status,0, btemp+1, pclath, cstack
  5432 ;; Tracked objects:
  5433 ;;		On entry : 0/0
  5434 ;;		On exit  : 0/0
  5435 ;;		Unchanged: 0/0
  5436 ;; Data sizes:     COMMON   BANK0   BANK1   BANK3   BANK2
  5437 ;;      Params:         0       8       0       0       0
  5438 ;;      Locals:         0      13       0       0       0
  5439 ;;      Temps:          0       5       0       0       0
  5440 ;;      Totals:         0      26       0       0       0
  5441 ;;Total ram usage:       26 bytes
  5442 ;; Hardware stack levels used: 1
  5443 ;; Hardware stack levels required when called: 2
  5444 ;; This function calls:
  5445 ;;		__Umul8_16
  5446 ;; This function is called by:
  5447 ;;		_floattostr_
  5448 ;;		_main
  5449 ;; This function uses a non-reentrant model
  5450 ;;
  5451                           
  5452                           
  5453                           ;psect for function ___flmul
  5454  0033                     ___flmul:
  5455  0033                     l2525:	
  5456                           ;incstack = 0
  5457                           ; Regs used in ___flmul: [wreg+status,2+status,0+btemp+1+pclath+cstack]
  5458                           
  5459  0033  1283               	bcf	3,5	;RP0=0, select bank0
  5460  0034  1303               	bcf	3,6	;RP1=0, select bank0
  5461  0035  0828               	movf	___flmul@b+3,w
  5462  0036  3980               	andlw	128
  5463  0037  00AD               	movwf	??___flmul
  5464  0038  082D               	movf	??___flmul,w
  5465  0039  00B2               	movwf	___flmul@sign
  5466  003A                     l2527:
  5467  003A  0828               	movf	___flmul@b+3,w
  5468  003B  00AD               	movwf	??___flmul
  5469  003C  072D               	addwf	??___flmul,w
  5470  003D  00AE               	movwf	??___flmul+1
  5471  003E  082E               	movf	??___flmul+1,w
  5472  003F  00B8               	movwf	___flmul@bexp
  5473  0040                     l2529:
  5474  0040  1FA7               	btfss	___flmul@b+2,7
  5475  0041  2843               	goto	u3161
  5476  0042  2844               	goto	u3160
  5477  0043                     u3161:
  5478  0043  2845               	goto	l2533
  5479  0044                     u3160:
  5480  0044                     l2531:
  5481  0044  1438               	bsf	___flmul@bexp,0
  5482  0045                     l2533:
  5483  0045  0838               	movf	___flmul@bexp,w
  5484  0046  1903               	btfsc	3,2
  5485  0047  2849               	goto	u3171
  5486  0048  284A               	goto	u3170
  5487  0049                     u3171:
  5488  0049  2859               	goto	l2541
  5489  004A                     u3170:
  5490  004A                     l2535:
  5491  004A  0A38               	incf	___flmul@bexp,w
  5492  004B  1D03               	btfss	3,2
  5493  004C  284E               	goto	u3181
  5494  004D  284F               	goto	u3180
  5495  004E                     u3181:
  5496  004E  2857               	goto	l2539
  5497  004F                     u3180:
  5498  004F                     l2537:
  5499  004F  3000               	movlw	0
  5500  0050  00A8               	movwf	___flmul@b+3
  5501  0051  3000               	movlw	0
  5502  0052  00A7               	movwf	___flmul@b+2
  5503  0053  3000               	movlw	0
  5504  0054  00A6               	movwf	___flmul@b+1
  5505  0055  3000               	movlw	0
  5506  0056  00A5               	movwf	___flmul@b
  5507  0057                     l2539:
  5508  0057  17A7               	bsf	___flmul@b+2,7
  5509  0058  2861               	goto	l2543
  5510  0059                     l2541:
  5511  0059  3000               	movlw	0
  5512  005A  00A8               	movwf	___flmul@b+3
  5513  005B  3000               	movlw	0
  5514  005C  00A7               	movwf	___flmul@b+2
  5515  005D  3000               	movlw	0
  5516  005E  00A6               	movwf	___flmul@b+1
  5517  005F  3000               	movlw	0
  5518  0060  00A5               	movwf	___flmul@b
  5519  0061                     l2543:
  5520  0061  082C               	movf	___flmul@a+3,w
  5521  0062  3980               	andlw	128
  5522  0063  00AD               	movwf	??___flmul
  5523  0064  082D               	movf	??___flmul,w
  5524  0065  06B2               	xorwf	___flmul@sign,f
  5525  0066                     l2545:
  5526  0066  082C               	movf	___flmul@a+3,w
  5527  0067  00AD               	movwf	??___flmul
  5528  0068  072D               	addwf	??___flmul,w
  5529  0069  00AE               	movwf	??___flmul+1
  5530  006A  082E               	movf	??___flmul+1,w
  5531  006B  00B7               	movwf	___flmul@aexp
  5532  006C                     l2547:
  5533  006C  1FAB               	btfss	___flmul@a+2,7
  5534  006D  286F               	goto	u3191
  5535  006E  2870               	goto	u3190
  5536  006F                     u3191:
  5537  006F  2871               	goto	l2551
  5538  0070                     u3190:
  5539  0070                     l2549:
  5540  0070  1437               	bsf	___flmul@aexp,0
  5541  0071                     l2551:
  5542  0071  0837               	movf	___flmul@aexp,w
  5543  0072  1903               	btfsc	3,2
  5544  0073  2875               	goto	u3201
  5545  0074  2876               	goto	u3200
  5546  0075                     u3201:
  5547  0075  2885               	goto	l2559
  5548  0076                     u3200:
  5549  0076                     l2553:
  5550  0076  0A37               	incf	___flmul@aexp,w
  5551  0077  1D03               	btfss	3,2
  5552  0078  287A               	goto	u3211
  5553  0079  287B               	goto	u3210
  5554  007A                     u3211:
  5555  007A  2883               	goto	l2557
  5556  007B                     u3210:
  5557  007B                     l2555:
  5558  007B  3000               	movlw	0
  5559  007C  00AC               	movwf	___flmul@a+3
  5560  007D  3000               	movlw	0
  5561  007E  00AB               	movwf	___flmul@a+2
  5562  007F  3000               	movlw	0
  5563  0080  00AA               	movwf	___flmul@a+1
  5564  0081  3000               	movlw	0
  5565  0082  00A9               	movwf	___flmul@a
  5566  0083                     l2557:
  5567  0083  17AB               	bsf	___flmul@a+2,7
  5568  0084  288D               	goto	l2561
  5569  0085                     l2559:
  5570  0085  3000               	movlw	0
  5571  0086  00AC               	movwf	___flmul@a+3
  5572  0087  3000               	movlw	0
  5573  0088  00AB               	movwf	___flmul@a+2
  5574  0089  3000               	movlw	0
  5575  008A  00AA               	movwf	___flmul@a+1
  5576  008B  3000               	movlw	0
  5577  008C  00A9               	movwf	___flmul@a
  5578  008D                     l2561:
  5579  008D  0837               	movf	___flmul@aexp,w
  5580  008E  1903               	btfsc	3,2
  5581  008F  2891               	goto	u3221
  5582  0090  2892               	goto	u3220
  5583  0091                     u3221:
  5584  0091  2897               	goto	l2565
  5585  0092                     u3220:
  5586  0092                     l2563:
  5587  0092  0838               	movf	___flmul@bexp,w
  5588  0093  1D03               	btfss	3,2
  5589  0094  2896               	goto	u3231
  5590  0095  2897               	goto	u3230
  5591  0096                     u3231:
  5592  0096  28A0               	goto	l2569
  5593  0097                     u3230:
  5594  0097                     l2565:
  5595  0097  3000               	movlw	0
  5596  0098  00A8               	movwf	?___flmul+3
  5597  0099  3000               	movlw	0
  5598  009A  00A7               	movwf	?___flmul+2
  5599  009B  3000               	movlw	0
  5600  009C  00A6               	movwf	?___flmul+1
  5601  009D  3000               	movlw	0
  5602  009E  00A5               	movwf	?___flmul
  5603  009F  2B93               	goto	l752
  5604  00A0                     l2569:
  5605  00A0  0825               	movf	___flmul@b,w
  5606  00A1  00AD               	movwf	??___flmul
  5607  00A2  082D               	movf	??___flmul,w
  5608  00A3  00F3               	movwf	__Umul8_16@multiplicand
  5609  00A4  082B               	movf	___flmul@a+2,w
  5610  00A5  160A  118A  25A0  120A  118A  	fcall	__Umul8_16
  5611  00AA  0874               	movf	?__Umul8_16+1,w
  5612  00AB  1283               	bcf	3,5	;RP0=0, select bank0
  5613  00AC  1303               	bcf	3,6	;RP1=0, select bank0
  5614  00AD  00BE               	movwf	___flmul@temp+1
  5615  00AE  0873               	movf	?__Umul8_16,w
  5616  00AF  00BD               	movwf	___flmul@temp
  5617  00B0                     l2571:
  5618  00B0  083D               	movf	___flmul@temp,w
  5619  00B1  00AD               	movwf	??___flmul
  5620  00B2  01AE               	clrf	??___flmul+1
  5621  00B3  01AF               	clrf	??___flmul+2
  5622  00B4  01B0               	clrf	??___flmul+3
  5623  00B5  0830               	movf	??___flmul+3,w
  5624  00B6  00B6               	movwf	___flmul@grs+3
  5625  00B7  082F               	movf	??___flmul+2,w
  5626  00B8  00B5               	movwf	___flmul@grs+2
  5627  00B9  082E               	movf	??___flmul+1,w
  5628  00BA  00B4               	movwf	___flmul@grs+1
  5629  00BB  082D               	movf	??___flmul,w
  5630  00BC  00B3               	movwf	___flmul@grs
  5631  00BD                     l2573:
  5632  00BD  083E               	movf	___flmul@temp+1,w
  5633  00BE  00AD               	movwf	??___flmul
  5634  00BF  01AE               	clrf	??___flmul+1
  5635  00C0  01AF               	clrf	??___flmul+2
  5636  00C1  01B0               	clrf	??___flmul+3
  5637  00C2  0830               	movf	??___flmul+3,w
  5638  00C3  00BC               	movwf	___flmul@prod+3
  5639  00C4  082F               	movf	??___flmul+2,w
  5640  00C5  00BB               	movwf	___flmul@prod+2
  5641  00C6  082E               	movf	??___flmul+1,w
  5642  00C7  00BA               	movwf	___flmul@prod+1
  5643  00C8  082D               	movf	??___flmul,w
  5644  00C9  00B9               	movwf	___flmul@prod
  5645  00CA  0826               	movf	___flmul@b+1,w
  5646  00CB  00AD               	movwf	??___flmul
  5647  00CC  082D               	movf	??___flmul,w
  5648  00CD  00F3               	movwf	__Umul8_16@multiplicand
  5649  00CE  082A               	movf	___flmul@a+1,w
  5650  00CF  160A  118A  25A0  120A  118A  	fcall	__Umul8_16
  5651  00D4  0874               	movf	?__Umul8_16+1,w
  5652  00D5  1283               	bcf	3,5	;RP0=0, select bank0
  5653  00D6  1303               	bcf	3,6	;RP1=0, select bank0
  5654  00D7  00BE               	movwf	___flmul@temp+1
  5655  00D8  0873               	movf	?__Umul8_16,w
  5656  00D9  00BD               	movwf	___flmul@temp
  5657  00DA                     l2575:
  5658  00DA  083D               	movf	___flmul@temp,w
  5659  00DB  00AD               	movwf	??___flmul
  5660  00DC  01AE               	clrf	??___flmul+1
  5661  00DD  01AF               	clrf	??___flmul+2
  5662  00DE  01B0               	clrf	??___flmul+3
  5663  00DF  082D               	movf	??___flmul,w
  5664  00E0  07B3               	addwf	___flmul@grs,f
  5665  00E1  082E               	movf	??___flmul+1,w
  5666  00E2  1103               	clrz
  5667  00E3  1803               	skipnc
  5668  00E4  3E01               	addlw	1
  5669  00E5  1903               	skipnz
  5670  00E6  28E8               	goto	u3241
  5671  00E7  07B4               	addwf	___flmul@grs+1,f
  5672  00E8                     u3241:
  5673  00E8  082F               	movf	??___flmul+2,w
  5674  00E9  1103               	clrz
  5675  00EA  1803               	skipnc
  5676  00EB  3E01               	addlw	1
  5677  00EC  1903               	skipnz
  5678  00ED  28EF               	goto	u3242
  5679  00EE  07B5               	addwf	___flmul@grs+2,f
  5680  00EF                     u3242:
  5681  00EF  0830               	movf	??___flmul+3,w
  5682  00F0  1103               	clrz
  5683  00F1  1803               	skipnc
  5684  00F2  3E01               	addlw	1
  5685  00F3  1903               	skipnz
  5686  00F4  28F6               	goto	u3243
  5687  00F5  07B6               	addwf	___flmul@grs+3,f
  5688  00F6                     u3243:
  5689  00F6                     l2577:
  5690  00F6  083E               	movf	___flmul@temp+1,w
  5691  00F7  00AD               	movwf	??___flmul
  5692  00F8  01AE               	clrf	??___flmul+1
  5693  00F9  01AF               	clrf	??___flmul+2
  5694  00FA  01B0               	clrf	??___flmul+3
  5695  00FB  082D               	movf	??___flmul,w
  5696  00FC  07B9               	addwf	___flmul@prod,f
  5697  00FD  082E               	movf	??___flmul+1,w
  5698  00FE  1103               	clrz
  5699  00FF  1803               	skipnc
  5700  0100  3E01               	addlw	1
  5701  0101  1903               	skipnz
  5702  0102  2904               	goto	u3251
  5703  0103  07BA               	addwf	___flmul@prod+1,f
  5704  0104                     u3251:
  5705  0104  082F               	movf	??___flmul+2,w
  5706  0105  1103               	clrz
  5707  0106  1803               	skipnc
  5708  0107  3E01               	addlw	1
  5709  0108  1903               	skipnz
  5710  0109  290B               	goto	u3252
  5711  010A  07BB               	addwf	___flmul@prod+2,f
  5712  010B                     u3252:
  5713  010B  0830               	movf	??___flmul+3,w
  5714  010C  1103               	clrz
  5715  010D  1803               	skipnc
  5716  010E  3E01               	addlw	1
  5717  010F  1903               	skipnz
  5718  0110  2912               	goto	u3253
  5719  0111  07BC               	addwf	___flmul@prod+3,f
  5720  0112                     u3253:
  5721  0112  0827               	movf	___flmul@b+2,w
  5722  0113  00AD               	movwf	??___flmul
  5723  0114  082D               	movf	??___flmul,w
  5724  0115  00F3               	movwf	__Umul8_16@multiplicand
  5725  0116  0829               	movf	___flmul@a,w
  5726  0117  160A  118A  25A0  120A  118A  	fcall	__Umul8_16
  5727  011C  0874               	movf	?__Umul8_16+1,w
  5728  011D  1283               	bcf	3,5	;RP0=0, select bank0
  5729  011E  1303               	bcf	3,6	;RP1=0, select bank0
  5730  011F  00BE               	movwf	___flmul@temp+1
  5731  0120  0873               	movf	?__Umul8_16,w
  5732  0121  00BD               	movwf	___flmul@temp
  5733  0122                     l2579:
  5734  0122  083D               	movf	___flmul@temp,w
  5735  0123  00AD               	movwf	??___flmul
  5736  0124  01AE               	clrf	??___flmul+1
  5737  0125  01AF               	clrf	??___flmul+2
  5738  0126  01B0               	clrf	??___flmul+3
  5739  0127  082D               	movf	??___flmul,w
  5740  0128  07B3               	addwf	___flmul@grs,f
  5741  0129  082E               	movf	??___flmul+1,w
  5742  012A  1103               	clrz
  5743  012B  1803               	skipnc
  5744  012C  3E01               	addlw	1
  5745  012D  1903               	skipnz
  5746  012E  2930               	goto	u3261
  5747  012F  07B4               	addwf	___flmul@grs+1,f
  5748  0130                     u3261:
  5749  0130  082F               	movf	??___flmul+2,w
  5750  0131  1103               	clrz
  5751  0132  1803               	skipnc
  5752  0133  3E01               	addlw	1
  5753  0134  1903               	skipnz
  5754  0135  2937               	goto	u3262
  5755  0136  07B5               	addwf	___flmul@grs+2,f
  5756  0137                     u3262:
  5757  0137  0830               	movf	??___flmul+3,w
  5758  0138  1103               	clrz
  5759  0139  1803               	skipnc
  5760  013A  3E01               	addlw	1
  5761  013B  1903               	skipnz
  5762  013C  293E               	goto	u3263
  5763  013D  07B6               	addwf	___flmul@grs+3,f
  5764  013E                     u3263:
  5765  013E                     l2581:
  5766  013E  083E               	movf	___flmul@temp+1,w
  5767  013F  00AD               	movwf	??___flmul
  5768  0140  01AE               	clrf	??___flmul+1
  5769  0141  01AF               	clrf	??___flmul+2
  5770  0142  01B0               	clrf	??___flmul+3
  5771  0143  082D               	movf	??___flmul,w
  5772  0144  07B9               	addwf	___flmul@prod,f
  5773  0145  082E               	movf	??___flmul+1,w
  5774  0146  1103               	clrz
  5775  0147  1803               	skipnc
  5776  0148  3E01               	addlw	1
  5777  0149  1903               	skipnz
  5778  014A  294C               	goto	u3271
  5779  014B  07BA               	addwf	___flmul@prod+1,f
  5780  014C                     u3271:
  5781  014C  082F               	movf	??___flmul+2,w
  5782  014D  1103               	clrz
  5783  014E  1803               	skipnc
  5784  014F  3E01               	addlw	1
  5785  0150  1903               	skipnz
  5786  0151  2953               	goto	u3272
  5787  0152  07BB               	addwf	___flmul@prod+2,f
  5788  0153                     u3272:
  5789  0153  0830               	movf	??___flmul+3,w
  5790  0154  1103               	clrz
  5791  0155  1803               	skipnc
  5792  0156  3E01               	addlw	1
  5793  0157  1903               	skipnz
  5794  0158  295A               	goto	u3273
  5795  0159  07BC               	addwf	___flmul@prod+3,f
  5796  015A                     u3273:
  5797  015A                     l2583:
  5798  015A  3008               	movlw	8
  5799  015B  00AD               	movwf	??___flmul
  5800  015C                     u3285:
  5801  015C  1003               	clrc
  5802  015D  0DB3               	rlf	___flmul@grs,f
  5803  015E  0DB4               	rlf	___flmul@grs+1,f
  5804  015F  0DB5               	rlf	___flmul@grs+2,f
  5805  0160  0DB6               	rlf	___flmul@grs+3,f
  5806  0161  0BAD               	decfsz	??___flmul,f
  5807  0162  295C               	goto	u3285
  5808  0163                     l2585:
  5809  0163  0826               	movf	___flmul@b+1,w
  5810  0164  00AD               	movwf	??___flmul
  5811  0165  082D               	movf	??___flmul,w
  5812  0166  00F3               	movwf	__Umul8_16@multiplicand
  5813  0167  0829               	movf	___flmul@a,w
  5814  0168  160A  118A  25A0  120A  118A  	fcall	__Umul8_16
  5815  016D  0874               	movf	?__Umul8_16+1,w
  5816  016E  1283               	bcf	3,5	;RP0=0, select bank0
  5817  016F  1303               	bcf	3,6	;RP1=0, select bank0
  5818  0170  00BE               	movwf	___flmul@temp+1
  5819  0171  0873               	movf	?__Umul8_16,w
  5820  0172  00BD               	movwf	___flmul@temp
  5821  0173                     l2587:
  5822  0173  083D               	movf	___flmul@temp,w
  5823  0174  00AD               	movwf	??___flmul
  5824  0175  083E               	movf	___flmul@temp+1,w
  5825  0176  00AE               	movwf	??___flmul+1
  5826  0177  01AF               	clrf	??___flmul+2
  5827  0178  01B0               	clrf	??___flmul+3
  5828  0179  082D               	movf	??___flmul,w
  5829  017A  07B3               	addwf	___flmul@grs,f
  5830  017B  082E               	movf	??___flmul+1,w
  5831  017C  1103               	clrz
  5832  017D  1803               	skipnc
  5833  017E  3E01               	addlw	1
  5834  017F  1903               	skipnz
  5835  0180  2982               	goto	u3291
  5836  0181  07B4               	addwf	___flmul@grs+1,f
  5837  0182                     u3291:
  5838  0182  082F               	movf	??___flmul+2,w
  5839  0183  1103               	clrz
  5840  0184  1803               	skipnc
  5841  0185  3E01               	addlw	1
  5842  0186  1903               	skipnz
  5843  0187  2989               	goto	u3292
  5844  0188  07B5               	addwf	___flmul@grs+2,f
  5845  0189                     u3292:
  5846  0189  0830               	movf	??___flmul+3,w
  5847  018A  1103               	clrz
  5848  018B  1803               	skipnc
  5849  018C  3E01               	addlw	1
  5850  018D  1903               	skipnz
  5851  018E  2990               	goto	u3293
  5852  018F  07B6               	addwf	___flmul@grs+3,f
  5853  0190                     u3293:
  5854  0190                     l2589:
  5855  0190  0825               	movf	___flmul@b,w
  5856  0191  00AD               	movwf	??___flmul
  5857  0192  082D               	movf	??___flmul,w
  5858  0193  00F3               	movwf	__Umul8_16@multiplicand
  5859  0194  082A               	movf	___flmul@a+1,w
  5860  0195  160A  118A  25A0  120A  118A  	fcall	__Umul8_16
  5861  019A  0874               	movf	?__Umul8_16+1,w
  5862  019B  1283               	bcf	3,5	;RP0=0, select bank0
  5863  019C  1303               	bcf	3,6	;RP1=0, select bank0
  5864  019D  00BE               	movwf	___flmul@temp+1
  5865  019E  0873               	movf	?__Umul8_16,w
  5866  019F  00BD               	movwf	___flmul@temp
  5867  01A0                     l2591:
  5868  01A0  083D               	movf	___flmul@temp,w
  5869  01A1  00AD               	movwf	??___flmul
  5870  01A2  083E               	movf	___flmul@temp+1,w
  5871  01A3  00AE               	movwf	??___flmul+1
  5872  01A4  01AF               	clrf	??___flmul+2
  5873  01A5  01B0               	clrf	??___flmul+3
  5874  01A6  082D               	movf	??___flmul,w
  5875  01A7  07B3               	addwf	___flmul@grs,f
  5876  01A8  082E               	movf	??___flmul+1,w
  5877  01A9  1103               	clrz
  5878  01AA  1803               	skipnc
  5879  01AB  3E01               	addlw	1
  5880  01AC  1903               	skipnz
  5881  01AD  29AF               	goto	u3301
  5882  01AE  07B4               	addwf	___flmul@grs+1,f
  5883  01AF                     u3301:
  5884  01AF  082F               	movf	??___flmul+2,w
  5885  01B0  1103               	clrz
  5886  01B1  1803               	skipnc
  5887  01B2  3E01               	addlw	1
  5888  01B3  1903               	skipnz
  5889  01B4  29B6               	goto	u3302
  5890  01B5  07B5               	addwf	___flmul@grs+2,f
  5891  01B6                     u3302:
  5892  01B6  0830               	movf	??___flmul+3,w
  5893  01B7  1103               	clrz
  5894  01B8  1803               	skipnc
  5895  01B9  3E01               	addlw	1
  5896  01BA  1903               	skipnz
  5897  01BB  29BD               	goto	u3303
  5898  01BC  07B6               	addwf	___flmul@grs+3,f
  5899  01BD                     u3303:
  5900  01BD                     l2593:
  5901  01BD  3008               	movlw	8
  5902  01BE  00AD               	movwf	??___flmul
  5903  01BF                     u3315:
  5904  01BF  1003               	clrc
  5905  01C0  0DB3               	rlf	___flmul@grs,f
  5906  01C1  0DB4               	rlf	___flmul@grs+1,f
  5907  01C2  0DB5               	rlf	___flmul@grs+2,f
  5908  01C3  0DB6               	rlf	___flmul@grs+3,f
  5909  01C4  0BAD               	decfsz	??___flmul,f
  5910  01C5  29BF               	goto	u3315
  5911  01C6  0825               	movf	___flmul@b,w
  5912  01C7  00AD               	movwf	??___flmul
  5913  01C8  082D               	movf	??___flmul,w
  5914  01C9  00F3               	movwf	__Umul8_16@multiplicand
  5915  01CA  0829               	movf	___flmul@a,w
  5916  01CB  160A  118A  25A0  120A  118A  	fcall	__Umul8_16
  5917  01D0  0874               	movf	?__Umul8_16+1,w
  5918  01D1  1283               	bcf	3,5	;RP0=0, select bank0
  5919  01D2  1303               	bcf	3,6	;RP1=0, select bank0
  5920  01D3  00BE               	movwf	___flmul@temp+1
  5921  01D4  0873               	movf	?__Umul8_16,w
  5922  01D5  00BD               	movwf	___flmul@temp
  5923  01D6                     l2595:
  5924  01D6  083D               	movf	___flmul@temp,w
  5925  01D7  00AD               	movwf	??___flmul
  5926  01D8  083E               	movf	___flmul@temp+1,w
  5927  01D9  00AE               	movwf	??___flmul+1
  5928  01DA  01AF               	clrf	??___flmul+2
  5929  01DB  01B0               	clrf	??___flmul+3
  5930  01DC  082D               	movf	??___flmul,w
  5931  01DD  07B3               	addwf	___flmul@grs,f
  5932  01DE  082E               	movf	??___flmul+1,w
  5933  01DF  1103               	clrz
  5934  01E0  1803               	skipnc
  5935  01E1  3E01               	addlw	1
  5936  01E2  1903               	skipnz
  5937  01E3  29E5               	goto	u3321
  5938  01E4  07B4               	addwf	___flmul@grs+1,f
  5939  01E5                     u3321:
  5940  01E5  082F               	movf	??___flmul+2,w
  5941  01E6  1103               	clrz
  5942  01E7  1803               	skipnc
  5943  01E8  3E01               	addlw	1
  5944  01E9  1903               	skipnz
  5945  01EA  29EC               	goto	u3322
  5946  01EB  07B5               	addwf	___flmul@grs+2,f
  5947  01EC                     u3322:
  5948  01EC  0830               	movf	??___flmul+3,w
  5949  01ED  1103               	clrz
  5950  01EE  1803               	skipnc
  5951  01EF  3E01               	addlw	1
  5952  01F0  1903               	skipnz
  5953  01F1  29F3               	goto	u3323
  5954  01F2  07B6               	addwf	___flmul@grs+3,f
  5955  01F3                     u3323:
  5956  01F3                     l2597:
  5957  01F3  0826               	movf	___flmul@b+1,w
  5958  01F4  00AD               	movwf	??___flmul
  5959  01F5  082D               	movf	??___flmul,w
  5960  01F6  00F3               	movwf	__Umul8_16@multiplicand
  5961  01F7  082B               	movf	___flmul@a+2,w
  5962  01F8  160A  118A  25A0  120A  118A  	fcall	__Umul8_16
  5963  01FD  0874               	movf	?__Umul8_16+1,w
  5964  01FE  1283               	bcf	3,5	;RP0=0, select bank0
  5965  01FF  1303               	bcf	3,6	;RP1=0, select bank0
  5966  0200  00BE               	movwf	___flmul@temp+1
  5967  0201  0873               	movf	?__Umul8_16,w
  5968  0202  00BD               	movwf	___flmul@temp
  5969  0203  083D               	movf	___flmul@temp,w
  5970  0204  00AD               	movwf	??___flmul
  5971  0205  083E               	movf	___flmul@temp+1,w
  5972  0206  00AE               	movwf	??___flmul+1
  5973  0207  01AF               	clrf	??___flmul+2
  5974  0208  01B0               	clrf	??___flmul+3
  5975  0209  082D               	movf	??___flmul,w
  5976  020A  07B9               	addwf	___flmul@prod,f
  5977  020B  082E               	movf	??___flmul+1,w
  5978  020C  1103               	clrz
  5979  020D  1803               	skipnc
  5980  020E  3E01               	addlw	1
  5981  020F  1903               	skipnz
  5982  0210  2A12               	goto	u3331
  5983  0211  07BA               	addwf	___flmul@prod+1,f
  5984  0212                     u3331:
  5985  0212  082F               	movf	??___flmul+2,w
  5986  0213  1103               	clrz
  5987  0214  1803               	skipnc
  5988  0215  3E01               	addlw	1
  5989  0216  1903               	skipnz
  5990  0217  2A19               	goto	u3332
  5991  0218  07BB               	addwf	___flmul@prod+2,f
  5992  0219                     u3332:
  5993  0219  0830               	movf	??___flmul+3,w
  5994  021A  1103               	clrz
  5995  021B  1803               	skipnc
  5996  021C  3E01               	addlw	1
  5997  021D  1903               	skipnz
  5998  021E  2A20               	goto	u3333
  5999  021F  07BC               	addwf	___flmul@prod+3,f
  6000  0220                     u3333:
  6001  0220                     l2599:
  6002  0220  0827               	movf	___flmul@b+2,w
  6003  0221  00AD               	movwf	??___flmul
  6004  0222  082D               	movf	??___flmul,w
  6005  0223  00F3               	movwf	__Umul8_16@multiplicand
  6006  0224  082A               	movf	___flmul@a+1,w
  6007  0225  160A  118A  25A0  120A  118A  	fcall	__Umul8_16
  6008  022A  0874               	movf	?__Umul8_16+1,w
  6009  022B  1283               	bcf	3,5	;RP0=0, select bank0
  6010  022C  1303               	bcf	3,6	;RP1=0, select bank0
  6011  022D  00BE               	movwf	___flmul@temp+1
  6012  022E  0873               	movf	?__Umul8_16,w
  6013  022F  00BD               	movwf	___flmul@temp
  6014  0230                     l2601:
  6015  0230  083D               	movf	___flmul@temp,w
  6016  0231  00AD               	movwf	??___flmul
  6017  0232  083E               	movf	___flmul@temp+1,w
  6018  0233  00AE               	movwf	??___flmul+1
  6019  0234  01AF               	clrf	??___flmul+2
  6020  0235  01B0               	clrf	??___flmul+3
  6021  0236  082D               	movf	??___flmul,w
  6022  0237  07B9               	addwf	___flmul@prod,f
  6023  0238  082E               	movf	??___flmul+1,w
  6024  0239  1103               	clrz
  6025  023A  1803               	skipnc
  6026  023B  3E01               	addlw	1
  6027  023C  1903               	skipnz
  6028  023D  2A3F               	goto	u3341
  6029  023E  07BA               	addwf	___flmul@prod+1,f
  6030  023F                     u3341:
  6031  023F  082F               	movf	??___flmul+2,w
  6032  0240  1103               	clrz
  6033  0241  1803               	skipnc
  6034  0242  3E01               	addlw	1
  6035  0243  1903               	skipnz
  6036  0244  2A46               	goto	u3342
  6037  0245  07BB               	addwf	___flmul@prod+2,f
  6038  0246                     u3342:
  6039  0246  0830               	movf	??___flmul+3,w
  6040  0247  1103               	clrz
  6041  0248  1803               	skipnc
  6042  0249  3E01               	addlw	1
  6043  024A  1903               	skipnz
  6044  024B  2A4D               	goto	u3343
  6045  024C  07BC               	addwf	___flmul@prod+3,f
  6046  024D                     u3343:
  6047  024D  0827               	movf	___flmul@b+2,w
  6048  024E  00AD               	movwf	??___flmul
  6049  024F  082D               	movf	??___flmul,w
  6050  0250  00F3               	movwf	__Umul8_16@multiplicand
  6051  0251  082B               	movf	___flmul@a+2,w
  6052  0252  160A  118A  25A0  120A  118A  	fcall	__Umul8_16
  6053  0257  0874               	movf	?__Umul8_16+1,w
  6054  0258  1283               	bcf	3,5	;RP0=0, select bank0
  6055  0259  1303               	bcf	3,6	;RP1=0, select bank0
  6056  025A  00BE               	movwf	___flmul@temp+1
  6057  025B  0873               	movf	?__Umul8_16,w
  6058  025C  00BD               	movwf	___flmul@temp
  6059  025D                     l2603:
  6060  025D  083D               	movf	___flmul@temp,w
  6061  025E  00AD               	movwf	??___flmul
  6062  025F  083E               	movf	___flmul@temp+1,w
  6063  0260  00AE               	movwf	??___flmul+1
  6064  0261  01AF               	clrf	??___flmul+2
  6065  0262  01B0               	clrf	??___flmul+3
  6066  0263  3008               	movlw	8
  6067  0264                     u3355:
  6068  0264  1003               	clrc
  6069  0265  0DAD               	rlf	??___flmul,f
  6070  0266  0DAE               	rlf	??___flmul+1,f
  6071  0267  0DAF               	rlf	??___flmul+2,f
  6072  0268  0DB0               	rlf	??___flmul+3,f
  6073  0269                     u3350:
  6074  0269  3EFF               	addlw	-1
  6075  026A  1D03               	skipz
  6076  026B  2A64               	goto	u3355
  6077  026C  082D               	movf	??___flmul,w
  6078  026D  07B9               	addwf	___flmul@prod,f
  6079  026E  082E               	movf	??___flmul+1,w
  6080  026F  1103               	clrz
  6081  0270  1803               	skipnc
  6082  0271  3E01               	addlw	1
  6083  0272  1903               	skipnz
  6084  0273  2A75               	goto	u3361
  6085  0274  07BA               	addwf	___flmul@prod+1,f
  6086  0275                     u3361:
  6087  0275  082F               	movf	??___flmul+2,w
  6088  0276  1103               	clrz
  6089  0277  1803               	skipnc
  6090  0278  3E01               	addlw	1
  6091  0279  1903               	skipnz
  6092  027A  2A7C               	goto	u3362
  6093  027B  07BB               	addwf	___flmul@prod+2,f
  6094  027C                     u3362:
  6095  027C  0830               	movf	??___flmul+3,w
  6096  027D  1103               	clrz
  6097  027E  1803               	skipnc
  6098  027F  3E01               	addlw	1
  6099  0280  1903               	skipnz
  6100  0281  2A83               	goto	u3363
  6101  0282  07BC               	addwf	___flmul@prod+3,f
  6102  0283                     u3363:
  6103  0283                     l2605:
  6104  0283  0833               	movf	___flmul@grs,w
  6105  0284  00AD               	movwf	??___flmul
  6106  0285  0834               	movf	___flmul@grs+1,w
  6107  0286  00AE               	movwf	??___flmul+1
  6108  0287  0835               	movf	___flmul@grs+2,w
  6109  0288  00AF               	movwf	??___flmul+2
  6110  0289  0836               	movf	___flmul@grs+3,w
  6111  028A  00B0               	movwf	??___flmul+3
  6112  028B  3018               	movlw	24
  6113  028C                     u3375:
  6114  028C  1003               	clrc
  6115  028D  0CB0               	rrf	??___flmul+3,f
  6116  028E  0CAF               	rrf	??___flmul+2,f
  6117  028F  0CAE               	rrf	??___flmul+1,f
  6118  0290  0CAD               	rrf	??___flmul,f
  6119  0291                     u3370:
  6120  0291  3EFF               	addlw	-1
  6121  0292  1D03               	skipz
  6122  0293  2A8C               	goto	u3375
  6123  0294  082D               	movf	??___flmul,w
  6124  0295  07B9               	addwf	___flmul@prod,f
  6125  0296  082E               	movf	??___flmul+1,w
  6126  0297  1103               	clrz
  6127  0298  1803               	skipnc
  6128  0299  3E01               	addlw	1
  6129  029A  1903               	skipnz
  6130  029B  2A9D               	goto	u3381
  6131  029C  07BA               	addwf	___flmul@prod+1,f
  6132  029D                     u3381:
  6133  029D  082F               	movf	??___flmul+2,w
  6134  029E  1103               	clrz
  6135  029F  1803               	skipnc
  6136  02A0  3E01               	addlw	1
  6137  02A1  1903               	skipnz
  6138  02A2  2AA4               	goto	u3382
  6139  02A3  07BB               	addwf	___flmul@prod+2,f
  6140  02A4                     u3382:
  6141  02A4  0830               	movf	??___flmul+3,w
  6142  02A5  1103               	clrz
  6143  02A6  1803               	skipnc
  6144  02A7  3E01               	addlw	1
  6145  02A8  1903               	skipnz
  6146  02A9  2AAB               	goto	u3383
  6147  02AA  07BC               	addwf	___flmul@prod+3,f
  6148  02AB                     u3383:
  6149  02AB                     l2607:
  6150  02AB  3008               	movlw	8
  6151  02AC  00AD               	movwf	??___flmul
  6152  02AD                     u3395:
  6153  02AD  1003               	clrc
  6154  02AE  0DB3               	rlf	___flmul@grs,f
  6155  02AF  0DB4               	rlf	___flmul@grs+1,f
  6156  02B0  0DB5               	rlf	___flmul@grs+2,f
  6157  02B1  0DB6               	rlf	___flmul@grs+3,f
  6158  02B2  0BAD               	decfsz	??___flmul,f
  6159  02B3  2AAD               	goto	u3395
  6160  02B4                     l2609:
  6161  02B4  0838               	movf	___flmul@bexp,w
  6162  02B5  0737               	addwf	___flmul@aexp,w
  6163  02B6  00AD               	movwf	??___flmul
  6164  02B7  01AE               	clrf	??___flmul+1
  6165  02B8  0DAE               	rlf	??___flmul+1,f
  6166  02B9  082D               	movf	??___flmul,w
  6167  02BA  3E82               	addlw	130
  6168  02BB  00BD               	movwf	___flmul@temp
  6169  02BC  082E               	movf	??___flmul+1,w
  6170  02BD  1803               	skipnc
  6171  02BE  3E01               	addlw	1
  6172  02BF  3EFF               	addlw	255
  6173  02C0  00BE               	movwf	___flmul@temp+1
  6174  02C1  2ADF               	goto	l2621
  6175  02C2                     l2611:
  6176  02C2  3001               	movlw	1
  6177  02C3  00AD               	movwf	??___flmul
  6178  02C4                     u3405:
  6179  02C4  1003               	clrc
  6180  02C5  0DB9               	rlf	___flmul@prod,f
  6181  02C6  0DBA               	rlf	___flmul@prod+1,f
  6182  02C7  0DBB               	rlf	___flmul@prod+2,f
  6183  02C8  0DBC               	rlf	___flmul@prod+3,f
  6184  02C9  0BAD               	decfsz	??___flmul,f
  6185  02CA  2AC4               	goto	u3405
  6186  02CB                     l2613:
  6187  02CB  1FB6               	btfss	___flmul@grs+3,7
  6188  02CC  2ACE               	goto	u3411
  6189  02CD  2ACF               	goto	u3410
  6190  02CE                     u3411:
  6191  02CE  2AD0               	goto	l2617
  6192  02CF                     u3410:
  6193  02CF                     l2615:
  6194  02CF  1439               	bsf	___flmul@prod,0
  6195  02D0                     l2617:
  6196  02D0  3001               	movlw	1
  6197  02D1  00AD               	movwf	??___flmul
  6198  02D2                     u3425:
  6199  02D2  1003               	clrc
  6200  02D3  0DB3               	rlf	___flmul@grs,f
  6201  02D4  0DB4               	rlf	___flmul@grs+1,f
  6202  02D5  0DB5               	rlf	___flmul@grs+2,f
  6203  02D6  0DB6               	rlf	___flmul@grs+3,f
  6204  02D7  0BAD               	decfsz	??___flmul,f
  6205  02D8  2AD2               	goto	u3425
  6206  02D9                     l2619:
  6207  02D9  30FF               	movlw	255
  6208  02DA  07BD               	addwf	___flmul@temp,f
  6209  02DB  1803               	skipnc
  6210  02DC  0ABE               	incf	___flmul@temp+1,f
  6211  02DD  30FF               	movlw	255
  6212  02DE  07BE               	addwf	___flmul@temp+1,f
  6213  02DF                     l2621:
  6214  02DF  1FBB               	btfss	___flmul@prod+2,7
  6215  02E0  2AE2               	goto	u3431
  6216  02E1  2AE3               	goto	u3430
  6217  02E2                     u3431:
  6218  02E2  2AC2               	goto	l2611
  6219  02E3                     u3430:
  6220  02E3                     l2623:
  6221  02E3  01B7               	clrf	___flmul@aexp
  6222  02E4                     l2625:
  6223  02E4  1FB6               	btfss	___flmul@grs+3,7
  6224  02E5  2AE7               	goto	u3441
  6225  02E6  2AE8               	goto	u3440
  6226  02E7                     u3441:
  6227  02E7  2B04               	goto	l2633
  6228  02E8                     u3440:
  6229  02E8                     l2627:
  6230  02E8  30FF               	movlw	255
  6231  02E9  0533               	andwf	___flmul@grs,w
  6232  02EA  00AD               	movwf	??___flmul
  6233  02EB  30FF               	movlw	255
  6234  02EC  0534               	andwf	___flmul@grs+1,w
  6235  02ED  00AE               	movwf	??___flmul+1
  6236  02EE  30FF               	movlw	255
  6237  02EF  0535               	andwf	___flmul@grs+2,w
  6238  02F0  00AF               	movwf	??___flmul+2
  6239  02F1  307F               	movlw	127
  6240  02F2  0536               	andwf	___flmul@grs+3,w
  6241  02F3  00B0               	movwf	??___flmul+3
  6242  02F4  0830               	movf	??___flmul+3,w
  6243  02F5  042F               	iorwf	??___flmul+2,w
  6244  02F6  042E               	iorwf	??___flmul+1,w
  6245  02F7  042D               	iorwf	??___flmul,w
  6246  02F8  1903               	skipnz
  6247  02F9  2AFB               	goto	u3451
  6248  02FA  2AFC               	goto	u3450
  6249  02FB                     u3451:
  6250  02FB  2AFF               	goto	l758
  6251  02FC                     u3450:
  6252  02FC                     l2629:
  6253  02FC  01B7               	clrf	___flmul@aexp
  6254  02FD  0AB7               	incf	___flmul@aexp,f
  6255  02FE  2B04               	goto	l2633
  6256  02FF                     l758:
  6257  02FF  1C39               	btfss	___flmul@prod,0
  6258  0300  2B02               	goto	u3461
  6259  0301  2B03               	goto	u3460
  6260  0302                     u3461:
  6261  0302  2B04               	goto	l2633
  6262  0303                     u3460:
  6263  0303  2AFC               	goto	l2629
  6264  0304                     l2633:
  6265  0304  0837               	movf	___flmul@aexp,w
  6266  0305  1903               	btfsc	3,2
  6267  0306  2B08               	goto	u3471
  6268  0307  2B09               	goto	u3470
  6269  0308                     u3471:
  6270  0308  2B3A               	goto	l2643
  6271  0309                     u3470:
  6272  0309                     l2635:
  6273  0309  3001               	movlw	1
  6274  030A  07B9               	addwf	___flmul@prod,f
  6275  030B  3000               	movlw	0
  6276  030C  1803               	skipnc
  6277  030D  3001               	movlw	1
  6278  030E  07BA               	addwf	___flmul@prod+1,f
  6279  030F  3000               	movlw	0
  6280  0310  1803               	skipnc
  6281  0311  3001               	movlw	1
  6282  0312  07BB               	addwf	___flmul@prod+2,f
  6283  0313  3000               	movlw	0
  6284  0314  1803               	skipnc
  6285  0315  3001               	movlw	1
  6286  0316  07BC               	addwf	___flmul@prod+3,f
  6287  0317                     l2637:
  6288  0317  1C3C               	btfss	___flmul@prod+3,0
  6289  0318  2B1A               	goto	u3481
  6290  0319  2B1B               	goto	u3480
  6291  031A                     u3481:
  6292  031A  2B3A               	goto	l2643
  6293  031B                     u3480:
  6294  031B                     l2639:
  6295  031B  0839               	movf	___flmul@prod,w
  6296  031C  00AD               	movwf	??___flmul
  6297  031D  083A               	movf	___flmul@prod+1,w
  6298  031E  00AE               	movwf	??___flmul+1
  6299  031F  083B               	movf	___flmul@prod+2,w
  6300  0320  00AF               	movwf	??___flmul+2
  6301  0321  083C               	movf	___flmul@prod+3,w
  6302  0322  00B0               	movwf	??___flmul+3
  6303  0323  3001               	movlw	1
  6304  0324  00B1               	movwf	??___flmul+4
  6305  0325                     u3495:
  6306  0325  0D30               	rlf	??___flmul+3,w
  6307  0326  0CB0               	rrf	??___flmul+3,f
  6308  0327  0CAF               	rrf	??___flmul+2,f
  6309  0328  0CAE               	rrf	??___flmul+1,f
  6310  0329  0CAD               	rrf	??___flmul,f
  6311  032A                     u3490:
  6312  032A  0BB1               	decfsz	??___flmul+4,f
  6313  032B  2B25               	goto	u3495
  6314  032C  0830               	movf	??___flmul+3,w
  6315  032D  00BC               	movwf	___flmul@prod+3
  6316  032E  082F               	movf	??___flmul+2,w
  6317  032F  00BB               	movwf	___flmul@prod+2
  6318  0330  082E               	movf	??___flmul+1,w
  6319  0331  00BA               	movwf	___flmul@prod+1
  6320  0332  082D               	movf	??___flmul,w
  6321  0333  00B9               	movwf	___flmul@prod
  6322  0334                     l2641:
  6323  0334  3001               	movlw	1
  6324  0335  07BD               	addwf	___flmul@temp,f
  6325  0336  1803               	skipnc
  6326  0337  0ABE               	incf	___flmul@temp+1,f
  6327  0338  3000               	movlw	0
  6328  0339  07BE               	addwf	___flmul@temp+1,f
  6329  033A                     l2643:
  6330  033A  083E               	movf	___flmul@temp+1,w
  6331  033B  3A80               	xorlw	128
  6332  033C  00FF               	movwf	btemp+1
  6333  033D  3080               	movlw	128
  6334  033E  027F               	subwf	btemp+1,w
  6335  033F  1D03               	skipz
  6336  0340  2B43               	goto	u3505
  6337  0341  30FF               	movlw	255
  6338  0342  023D               	subwf	___flmul@temp,w
  6339  0343                     u3505:
  6340  0343  1C03               	skipc
  6341  0344  2B46               	goto	u3501
  6342  0345  2B47               	goto	u3500
  6343  0346                     u3501:
  6344  0346  2B52               	goto	l2647
  6345  0347                     u3500:
  6346  0347                     l2645:
  6347  0347  307F               	movlw	127
  6348  0348  1283               	bcf	3,5	;RP0=0, select bank0
  6349  0349  1303               	bcf	3,6	;RP1=0, select bank0
  6350  034A  00BC               	movwf	___flmul@prod+3
  6351  034B  3080               	movlw	128
  6352  034C  00BB               	movwf	___flmul@prod+2
  6353  034D  3000               	movlw	0
  6354  034E  00BA               	movwf	___flmul@prod+1
  6355  034F  3000               	movlw	0
  6356  0350  00B9               	movwf	___flmul@prod
  6357  0351  2B87               	goto	l764
  6358  0352                     l2647:
  6359  0352  1283               	bcf	3,5	;RP0=0, select bank0
  6360  0353  1303               	bcf	3,6	;RP1=0, select bank0
  6361  0354  083E               	movf	___flmul@temp+1,w
  6362  0355  3A80               	xorlw	128
  6363  0356  00FF               	movwf	btemp+1
  6364  0357  3080               	movlw	128
  6365  0358  027F               	subwf	btemp+1,w
  6366  0359  1D03               	skipz
  6367  035A  2B5D               	goto	u3515
  6368  035B  3001               	movlw	1
  6369  035C  023D               	subwf	___flmul@temp,w
  6370  035D                     u3515:
  6371  035D  1803               	skipnc
  6372  035E  2B60               	goto	u3511
  6373  035F  2B61               	goto	u3510
  6374  0360                     u3511:
  6375  0360  2B6D               	goto	l2653
  6376  0361                     u3510:
  6377  0361                     l2649:
  6378  0361  3000               	movlw	0
  6379  0362  1283               	bcf	3,5	;RP0=0, select bank0
  6380  0363  1303               	bcf	3,6	;RP1=0, select bank0
  6381  0364  00BC               	movwf	___flmul@prod+3
  6382  0365  3000               	movlw	0
  6383  0366  00BB               	movwf	___flmul@prod+2
  6384  0367  3000               	movlw	0
  6385  0368  00BA               	movwf	___flmul@prod+1
  6386  0369  3000               	movlw	0
  6387  036A  00B9               	movwf	___flmul@prod
  6388  036B                     l2651:
  6389  036B  01B2               	clrf	___flmul@sign
  6390  036C  2B87               	goto	l764
  6391  036D                     l2653:
  6392  036D  1283               	bcf	3,5	;RP0=0, select bank0
  6393  036E  1303               	bcf	3,6	;RP1=0, select bank0
  6394  036F  083D               	movf	___flmul@temp,w
  6395  0370  00AD               	movwf	??___flmul
  6396  0371  082D               	movf	??___flmul,w
  6397  0372  00B8               	movwf	___flmul@bexp
  6398  0373  30FF               	movlw	255
  6399  0374  05B9               	andwf	___flmul@prod,f
  6400  0375  30FF               	movlw	255
  6401  0376  05BA               	andwf	___flmul@prod+1,f
  6402  0377  307F               	movlw	127
  6403  0378  05BB               	andwf	___flmul@prod+2,f
  6404  0379  3000               	movlw	0
  6405  037A  05BC               	andwf	___flmul@prod+3,f
  6406  037B                     l2655:
  6407  037B  1C38               	btfss	___flmul@bexp,0
  6408  037C  2B7E               	goto	u3521
  6409  037D  2B7F               	goto	u3520
  6410  037E                     u3521:
  6411  037E  2B80               	goto	l2659
  6412  037F                     u3520:
  6413  037F                     l2657:
  6414  037F  17BB               	bsf	___flmul@prod+2,7
  6415  0380                     l2659:
  6416  0380  0838               	movf	___flmul@bexp,w
  6417  0381  00AD               	movwf	??___flmul
  6418  0382  1003               	clrc
  6419  0383  0C2D               	rrf	??___flmul,w
  6420  0384  00AE               	movwf	??___flmul+1
  6421  0385  082E               	movf	??___flmul+1,w
  6422  0386  00BC               	movwf	___flmul@prod+3
  6423  0387                     l764:
  6424  0387  0832               	movf	___flmul@sign,w
  6425  0388  00AD               	movwf	??___flmul
  6426  0389  082D               	movf	??___flmul,w
  6427  038A  04BC               	iorwf	___flmul@prod+3,f
  6428  038B                     l2661:
  6429  038B  083C               	movf	___flmul@prod+3,w
  6430  038C  00A8               	movwf	?___flmul+3
  6431  038D  083B               	movf	___flmul@prod+2,w
  6432  038E  00A7               	movwf	?___flmul+2
  6433  038F  083A               	movf	___flmul@prod+1,w
  6434  0390  00A6               	movwf	?___flmul+1
  6435  0391  0839               	movf	___flmul@prod,w
  6436  0392  00A5               	movwf	?___flmul
  6437  0393                     l752:
  6438  0393  0008               	return
  6439  0394                     __end_of___flmul:
  6440                           
  6441                           	psect	text15
  6442  15A0                     __ptext15:	
  6443 ;; *************** function __Umul8_16 *****************
  6444 ;; Defined at:
  6445 ;;		line 4 in file "C:\Program Files\Microchip\xc8\v2.32\pic\sources\c90\common\Umul8_16.c"
  6446 ;; Parameters:    Size  Location     Type
  6447 ;;  multiplier      1    wreg     unsigned char 
  6448 ;;  multiplicand    1    3[COMMON] unsigned char 
  6449 ;; Auto vars:     Size  Location     Type
  6450 ;;  multiplier      1    4[BANK0 ] unsigned char 
  6451 ;;  word_mpld       2    2[BANK0 ] unsigned int 
  6452 ;;  product         2    0[BANK0 ] unsigned int 
  6453 ;; Return value:  Size  Location     Type
  6454 ;;                  2    3[COMMON] unsigned int 
  6455 ;; Registers used:
  6456 ;;		wreg, status,2, status,0
  6457 ;; Tracked objects:
  6458 ;;		On entry : 0/0
  6459 ;;		On exit  : 0/0
  6460 ;;		Unchanged: 0/0
  6461 ;; Data sizes:     COMMON   BANK0   BANK1   BANK3   BANK2
  6462 ;;      Params:         2       0       0       0       0
  6463 ;;      Locals:         0       5       0       0       0
  6464 ;;      Temps:          2       0       0       0       0
  6465 ;;      Totals:         4       5       0       0       0
  6466 ;;Total ram usage:        9 bytes
  6467 ;; Hardware stack levels used: 1
  6468 ;; Hardware stack levels required when called: 1
  6469 ;; This function calls:
  6470 ;;		Nothing
  6471 ;; This function is called by:
  6472 ;;		___flmul
  6473 ;; This function uses a non-reentrant model
  6474 ;;
  6475                           
  6476                           
  6477                           ;psect for function __Umul8_16
  6478  15A0                     __Umul8_16:
  6479                           
  6480                           ;incstack = 0
  6481                           ; Regs used in __Umul8_16: [wreg+status,2+status,0]
  6482                           ;__Umul8_16@multiplier stored from wreg
  6483  15A0  1283               	bcf	3,5	;RP0=0, select bank0
  6484  15A1  1303               	bcf	3,6	;RP1=0, select bank0
  6485  15A2  00A4               	movwf	__Umul8_16@multiplier
  6486  15A3                     l2263:
  6487  15A3  01A0               	clrf	__Umul8_16@product
  6488  15A4  01A1               	clrf	__Umul8_16@product+1
  6489  15A5                     l2265:
  6490  15A5  0873               	movf	__Umul8_16@multiplicand,w
  6491  15A6  00F5               	movwf	??__Umul8_16
  6492  15A7  01F6               	clrf	??__Umul8_16+1
  6493  15A8  0875               	movf	??__Umul8_16,w
  6494  15A9  00A2               	movwf	__Umul8_16@word_mpld
  6495  15AA  0876               	movf	??__Umul8_16+1,w
  6496  15AB  00A3               	movwf	__Umul8_16@word_mpld+1
  6497  15AC                     l2267:
  6498  15AC  1C24               	btfss	__Umul8_16@multiplier,0
  6499  15AD  2DAF               	goto	u2641
  6500  15AE  2DB0               	goto	u2640
  6501  15AF                     u2641:
  6502  15AF  2DB6               	goto	l771
  6503  15B0                     u2640:
  6504  15B0                     l2269:
  6505  15B0  0822               	movf	__Umul8_16@word_mpld,w
  6506  15B1  07A0               	addwf	__Umul8_16@product,f
  6507  15B2  1803               	skipnc
  6508  15B3  0AA1               	incf	__Umul8_16@product+1,f
  6509  15B4  0823               	movf	__Umul8_16@word_mpld+1,w
  6510  15B5  07A1               	addwf	__Umul8_16@product+1,f
  6511  15B6                     l771:
  6512  15B6  3001               	movlw	1
  6513  15B7                     u2655:
  6514  15B7  1003               	clrc
  6515  15B8  0DA2               	rlf	__Umul8_16@word_mpld,f
  6516  15B9  0DA3               	rlf	__Umul8_16@word_mpld+1,f
  6517  15BA  3EFF               	addlw	-1
  6518  15BB  1D03               	skipz
  6519  15BC  2DB7               	goto	u2655
  6520  15BD  1003               	clrc
  6521  15BE  0CA4               	rrf	__Umul8_16@multiplier,f
  6522  15BF                     l2271:
  6523  15BF  0824               	movf	__Umul8_16@multiplier,w
  6524  15C0  1D03               	btfss	3,2
  6525  15C1  2DC3               	goto	u2661
  6526  15C2  2DC4               	goto	u2660
  6527  15C3                     u2661:
  6528  15C3  2DAC               	goto	l2267
  6529  15C4                     u2660:
  6530  15C4                     l2273:
  6531  15C4  0821               	movf	__Umul8_16@product+1,w
  6532  15C5  00F4               	movwf	?__Umul8_16+1
  6533  15C6  0820               	movf	__Umul8_16@product,w
  6534  15C7  00F3               	movwf	?__Umul8_16
  6535  15C8                     l773:
  6536  15C8  0008               	return
  6537  15C9                     __end_of__Umul8_16:
  6538                           
  6539                           	psect	text16
  6540  0856                     __ptext16:	
  6541 ;; *************** function ___flge *****************
  6542 ;; Defined at:
  6543 ;;		line 4 in file "C:\Program Files\Microchip\xc8\v2.32\pic\sources\c90\common\flge.c"
  6544 ;; Parameters:    Size  Location     Type
  6545 ;;  ff1             4    3[COMMON] unsigned int 
  6546 ;;  ff2             4    7[COMMON] unsigned int 
  6547 ;; Auto vars:     Size  Location     Type
  6548 ;;		None
  6549 ;; Return value:  Size  Location     Type
  6550 ;;		None               void
  6551 ;; Registers used:
  6552 ;;		wreg, status,2, status,0
  6553 ;; Tracked objects:
  6554 ;;		On entry : 0/0
  6555 ;;		On exit  : 0/0
  6556 ;;		Unchanged: 0/0
  6557 ;; Data sizes:     COMMON   BANK0   BANK1   BANK3   BANK2
  6558 ;;      Params:         8       0       0       0       0
  6559 ;;      Locals:         0       0       0       0       0
  6560 ;;      Temps:          0       4       0       0       0
  6561 ;;      Totals:         8       4       0       0       0
  6562 ;;Total ram usage:       12 bytes
  6563 ;; Hardware stack levels used: 1
  6564 ;; Hardware stack levels required when called: 1
  6565 ;; This function calls:
  6566 ;;		Nothing
  6567 ;; This function is called by:
  6568 ;;		_floattostr_
  6569 ;;		_main
  6570 ;; This function uses a non-reentrant model
  6571 ;;
  6572                           
  6573                           
  6574                           ;psect for function ___flge
  6575  0856                     ___flge:
  6576  0856                     l2313:	
  6577                           ;incstack = 0
  6578                           ; Regs used in ___flge: [wreg+status,2+status,0]
  6579                           
  6580  0856  3000               	movlw	0
  6581  0857  0573               	andwf	___flge@ff1,w
  6582  0858  1283               	bcf	3,5	;RP0=0, select bank0
  6583  0859  1303               	bcf	3,6	;RP1=0, select bank0
  6584  085A  00A0               	movwf	??___flge
  6585  085B  3000               	movlw	0
  6586  085C  0574               	andwf	___flge@ff1+1,w
  6587  085D  00A1               	movwf	??___flge+1
  6588  085E  3080               	movlw	128
  6589  085F  0575               	andwf	___flge@ff1+2,w
  6590  0860  00A2               	movwf	??___flge+2
  6591  0861  307F               	movlw	127
  6592  0862  0576               	andwf	___flge@ff1+3,w
  6593  0863  00A3               	movwf	??___flge+3
  6594  0864  0823               	movf	??___flge+3,w
  6595  0865  0422               	iorwf	??___flge+2,w
  6596  0866  0421               	iorwf	??___flge+1,w
  6597  0867  0420               	iorwf	??___flge,w
  6598  0868  1D03               	skipz
  6599  0869  286B               	goto	u2681
  6600  086A  286C               	goto	u2680
  6601  086B                     u2681:
  6602  086B  2874               	goto	l537
  6603  086C                     u2680:
  6604  086C                     l2315:
  6605  086C  3000               	movlw	0
  6606  086D  00F6               	movwf	___flge@ff1+3
  6607  086E  3000               	movlw	0
  6608  086F  00F5               	movwf	___flge@ff1+2
  6609  0870  3000               	movlw	0
  6610  0871  00F4               	movwf	___flge@ff1+1
  6611  0872  3000               	movlw	0
  6612  0873  00F3               	movwf	___flge@ff1
  6613  0874                     l537:
  6614  0874  3000               	movlw	0
  6615  0875  0577               	andwf	___flge@ff2,w
  6616  0876  00A0               	movwf	??___flge
  6617  0877  3000               	movlw	0
  6618  0878  0578               	andwf	___flge@ff2+1,w
  6619  0879  00A1               	movwf	??___flge+1
  6620  087A  3080               	movlw	128
  6621  087B  0579               	andwf	___flge@ff2+2,w
  6622  087C  00A2               	movwf	??___flge+2
  6623  087D  307F               	movlw	127
  6624  087E  057A               	andwf	___flge@ff2+3,w
  6625  087F  00A3               	movwf	??___flge+3
  6626  0880  0823               	movf	??___flge+3,w
  6627  0881  0422               	iorwf	??___flge+2,w
  6628  0882  0421               	iorwf	??___flge+1,w
  6629  0883  0420               	iorwf	??___flge,w
  6630  0884  1D03               	skipz
  6631  0885  2887               	goto	u2691
  6632  0886  2888               	goto	u2690
  6633  0887                     u2691:
  6634  0887  2890               	goto	l2319
  6635  0888                     u2690:
  6636  0888                     l2317:
  6637  0888  3000               	movlw	0
  6638  0889  00FA               	movwf	___flge@ff2+3
  6639  088A  3000               	movlw	0
  6640  088B  00F9               	movwf	___flge@ff2+2
  6641  088C  3000               	movlw	0
  6642  088D  00F8               	movwf	___flge@ff2+1
  6643  088E  3000               	movlw	0
  6644  088F  00F7               	movwf	___flge@ff2
  6645  0890                     l2319:
  6646  0890  1FF6               	btfss	___flge@ff1+3,7
  6647  0891  2893               	goto	u2701
  6648  0892  2894               	goto	u2700
  6649  0893                     u2701:
  6650  0893  28B8               	goto	l2323
  6651  0894                     u2700:
  6652  0894                     l2321:
  6653  0894  3000               	movlw	0
  6654  0895  00A0               	movwf	??___flge
  6655  0896  3000               	movlw	0
  6656  0897  00A1               	movwf	??___flge+1
  6657  0898  3000               	movlw	0
  6658  0899  00A2               	movwf	??___flge+2
  6659  089A  3080               	movlw	128
  6660  089B  00A3               	movwf	??___flge+3
  6661  089C  0873               	movf	___flge@ff1,w
  6662  089D  02A0               	subwf	??___flge,f
  6663  089E  0874               	movf	___flge@ff1+1,w
  6664  089F  1C03               	skipc
  6665  08A0  0F74               	incfsz	___flge@ff1+1,w
  6666  08A1  28A3               	goto	u2711
  6667  08A2  28A4               	goto	u2712
  6668  08A3                     u2711:
  6669  08A3  02A1               	subwf	??___flge+1,f
  6670  08A4                     u2712:
  6671  08A4  0875               	movf	___flge@ff1+2,w
  6672  08A5  1C03               	skipc
  6673  08A6  0F75               	incfsz	___flge@ff1+2,w
  6674  08A7  28A9               	goto	u2713
  6675  08A8  28AA               	goto	u2714
  6676  08A9                     u2713:
  6677  08A9  02A2               	subwf	??___flge+2,f
  6678  08AA                     u2714:
  6679  08AA  0876               	movf	___flge@ff1+3,w
  6680  08AB  1C03               	skipc
  6681  08AC  0F76               	incfsz	___flge@ff1+3,w
  6682  08AD  28AF               	goto	u2715
  6683  08AE  28B0               	goto	u2716
  6684  08AF                     u2715:
  6685  08AF  02A3               	subwf	??___flge+3,f
  6686  08B0                     u2716:
  6687  08B0  0823               	movf	??___flge+3,w
  6688  08B1  00F6               	movwf	___flge@ff1+3
  6689  08B2  0822               	movf	??___flge+2,w
  6690  08B3  00F5               	movwf	___flge@ff1+2
  6691  08B4  0821               	movf	??___flge+1,w
  6692  08B5  00F4               	movwf	___flge@ff1+1
  6693  08B6  0820               	movf	??___flge,w
  6694  08B7  00F3               	movwf	___flge@ff1
  6695  08B8                     l2323:
  6696  08B8  1FFA               	btfss	___flge@ff2+3,7
  6697  08B9  28BB               	goto	u2721
  6698  08BA  28BC               	goto	u2720
  6699  08BB                     u2721:
  6700  08BB  28E0               	goto	l540
  6701  08BC                     u2720:
  6702  08BC                     l2325:
  6703  08BC  3000               	movlw	0
  6704  08BD  00A0               	movwf	??___flge
  6705  08BE  3000               	movlw	0
  6706  08BF  00A1               	movwf	??___flge+1
  6707  08C0  3000               	movlw	0
  6708  08C1  00A2               	movwf	??___flge+2
  6709  08C2  3080               	movlw	128
  6710  08C3  00A3               	movwf	??___flge+3
  6711  08C4  0877               	movf	___flge@ff2,w
  6712  08C5  02A0               	subwf	??___flge,f
  6713  08C6  0878               	movf	___flge@ff2+1,w
  6714  08C7  1C03               	skipc
  6715  08C8  0F78               	incfsz	___flge@ff2+1,w
  6716  08C9  28CB               	goto	u2731
  6717  08CA  28CC               	goto	u2732
  6718  08CB                     u2731:
  6719  08CB  02A1               	subwf	??___flge+1,f
  6720  08CC                     u2732:
  6721  08CC  0879               	movf	___flge@ff2+2,w
  6722  08CD  1C03               	skipc
  6723  08CE  0F79               	incfsz	___flge@ff2+2,w
  6724  08CF  28D1               	goto	u2733
  6725  08D0  28D2               	goto	u2734
  6726  08D1                     u2733:
  6727  08D1  02A2               	subwf	??___flge+2,f
  6728  08D2                     u2734:
  6729  08D2  087A               	movf	___flge@ff2+3,w
  6730  08D3  1C03               	skipc
  6731  08D4  0F7A               	incfsz	___flge@ff2+3,w
  6732  08D5  28D7               	goto	u2735
  6733  08D6  28D8               	goto	u2736
  6734  08D7                     u2735:
  6735  08D7  02A3               	subwf	??___flge+3,f
  6736  08D8                     u2736:
  6737  08D8  0823               	movf	??___flge+3,w
  6738  08D9  00FA               	movwf	___flge@ff2+3
  6739  08DA  0822               	movf	??___flge+2,w
  6740  08DB  00F9               	movwf	___flge@ff2+2
  6741  08DC  0821               	movf	??___flge+1,w
  6742  08DD  00F8               	movwf	___flge@ff2+1
  6743  08DE  0820               	movf	??___flge,w
  6744  08DF  00F7               	movwf	___flge@ff2
  6745  08E0                     l540:
  6746  08E0  3080               	movlw	128
  6747  08E1  06F6               	xorwf	___flge@ff1+3,f
  6748  08E2  3080               	movlw	128
  6749  08E3  06FA               	xorwf	___flge@ff2+3,f
  6750  08E4  087A               	movf	___flge@ff2+3,w
  6751  08E5  0276               	subwf	___flge@ff1+3,w
  6752  08E6  1D03               	skipz
  6753  08E7  28F2               	goto	u2745
  6754  08E8  0879               	movf	___flge@ff2+2,w
  6755  08E9  0275               	subwf	___flge@ff1+2,w
  6756  08EA  1D03               	skipz
  6757  08EB  28F2               	goto	u2745
  6758  08EC  0878               	movf	___flge@ff2+1,w
  6759  08ED  0274               	subwf	___flge@ff1+1,w
  6760  08EE  1D03               	skipz
  6761  08EF  28F2               	goto	u2745
  6762  08F0  0877               	movf	___flge@ff2,w
  6763  08F1  0273               	subwf	___flge@ff1,w
  6764  08F2                     u2745:
  6765  08F2  1803               	skipnc
  6766  08F3  28F5               	goto	u2741
  6767  08F4  28F6               	goto	u2740
  6768  08F5                     u2741:
  6769  08F5  28F8               	goto	l2329
  6770  08F6                     u2740:
  6771  08F6                     l2327:
  6772  08F6  1003               	clrc
  6773  08F7  28F9               	goto	l541
  6774  08F8                     l2329:
  6775  08F8  1403               	setc
  6776  08F9                     l541:
  6777  08F9  0008               	return
  6778  08FA                     __end_of___flge:
  6779                           
  6780                           	psect	text17
  6781  08FA                     __ptext17:	
  6782 ;; *************** function ___fldiv *****************
  6783 ;; Defined at:
  6784 ;;		line 8 in file "C:\Program Files\Microchip\xc8\v2.32\pic\sources\c90\common\sprcdiv.c"
  6785 ;; Parameters:    Size  Location     Type
  6786 ;;  a               4    3[COMMON] unsigned int 
  6787 ;;  b               4    7[COMMON] unsigned int 
  6788 ;; Auto vars:     Size  Location     Type
  6789 ;;  grs             4   12[BANK0 ] unsigned long 
  6790 ;;  rem             4    5[BANK0 ] unsigned long 
  6791 ;;  new_exp         2   10[BANK0 ] int 
  6792 ;;  aexp            1   17[BANK0 ] unsigned char 
  6793 ;;  bexp            1   16[BANK0 ] unsigned char 
  6794 ;;  sign            1    9[BANK0 ] unsigned char 
  6795 ;; Return value:  Size  Location     Type
  6796 ;;                  4    3[COMMON] unsigned char 
  6797 ;; Registers used:
  6798 ;;		wreg, status,2, status,0, btemp+1
  6799 ;; Tracked objects:
  6800 ;;		On entry : 0/0
  6801 ;;		On exit  : 0/0
  6802 ;;		Unchanged: 0/0
  6803 ;; Data sizes:     COMMON   BANK0   BANK1   BANK3   BANK2
  6804 ;;      Params:         8       0       0       0       0
  6805 ;;      Locals:         0      13       0       0       0
  6806 ;;      Temps:          0       5       0       0       0
  6807 ;;      Totals:         8      18       0       0       0
  6808 ;;Total ram usage:       26 bytes
  6809 ;; Hardware stack levels used: 1
  6810 ;; Hardware stack levels required when called: 1
  6811 ;; This function calls:
  6812 ;;		Nothing
  6813 ;; This function is called by:
  6814 ;;		_floattostr_
  6815 ;;		_main
  6816 ;; This function uses a non-reentrant model
  6817 ;;
  6818                           
  6819                           
  6820                           ;psect for function ___fldiv
  6821  08FA                     ___fldiv:
  6822  08FA                     l2383:	
  6823                           ;incstack = 0
  6824                           ; Regs used in ___fldiv: [wreg+status,2+status,0+btemp+1]
  6825                           
  6826  08FA  087A               	movf	___fldiv@b+3,w
  6827  08FB  3980               	andlw	128
  6828  08FC  1283               	bcf	3,5	;RP0=0, select bank0
  6829  08FD  1303               	bcf	3,6	;RP1=0, select bank0
  6830  08FE  00A0               	movwf	??___fldiv
  6831  08FF  0820               	movf	??___fldiv,w
  6832  0900  00A9               	movwf	___fldiv@sign
  6833  0901                     l2385:
  6834  0901  087A               	movf	___fldiv@b+3,w
  6835  0902  00A0               	movwf	??___fldiv
  6836  0903  0720               	addwf	??___fldiv,w
  6837  0904  00A1               	movwf	??___fldiv+1
  6838  0905  0821               	movf	??___fldiv+1,w
  6839  0906  00B0               	movwf	___fldiv@bexp
  6840  0907                     l2387:
  6841  0907  1FF9               	btfss	___fldiv@b+2,7
  6842  0908  290A               	goto	u2861
  6843  0909  290B               	goto	u2860
  6844  090A                     u2861:
  6845  090A  290C               	goto	l2391
  6846  090B                     u2860:
  6847  090B                     l2389:
  6848  090B  1430               	bsf	___fldiv@bexp,0
  6849  090C                     l2391:
  6850  090C  0830               	movf	___fldiv@bexp,w
  6851  090D  1903               	btfsc	3,2
  6852  090E  2910               	goto	u2871
  6853  090F  2911               	goto	u2870
  6854  0910                     u2871:
  6855  0910  2921               	goto	l2401
  6856  0911                     u2870:
  6857  0911                     l2393:
  6858  0911  0A30               	incf	___fldiv@bexp,w
  6859  0912  1D03               	btfss	3,2
  6860  0913  2915               	goto	u2881
  6861  0914  2916               	goto	u2880
  6862  0915                     u2881:
  6863  0915  291E               	goto	l2397
  6864  0916                     u2880:
  6865  0916                     l2395:
  6866  0916  3000               	movlw	0
  6867  0917  00FA               	movwf	___fldiv@b+3
  6868  0918  3000               	movlw	0
  6869  0919  00F9               	movwf	___fldiv@b+2
  6870  091A  3000               	movlw	0
  6871  091B  00F8               	movwf	___fldiv@b+1
  6872  091C  3000               	movlw	0
  6873  091D  00F7               	movwf	___fldiv@b
  6874  091E                     l2397:
  6875  091E  17F9               	bsf	___fldiv@b+2,7
  6876  091F                     l2399:
  6877  091F  01FA               	clrf	___fldiv@b+3
  6878  0920  2929               	goto	l2403
  6879  0921                     l2401:
  6880  0921  3000               	movlw	0
  6881  0922  00FA               	movwf	___fldiv@b+3
  6882  0923  3000               	movlw	0
  6883  0924  00F9               	movwf	___fldiv@b+2
  6884  0925  3000               	movlw	0
  6885  0926  00F8               	movwf	___fldiv@b+1
  6886  0927  3000               	movlw	0
  6887  0928  00F7               	movwf	___fldiv@b
  6888  0929                     l2403:
  6889  0929  0876               	movf	___fldiv@a+3,w
  6890  092A  3980               	andlw	128
  6891  092B  00A0               	movwf	??___fldiv
  6892  092C  0820               	movf	??___fldiv,w
  6893  092D  06A9               	xorwf	___fldiv@sign,f
  6894  092E                     l2405:
  6895  092E  0876               	movf	___fldiv@a+3,w
  6896  092F  00A0               	movwf	??___fldiv
  6897  0930  0720               	addwf	??___fldiv,w
  6898  0931  00A1               	movwf	??___fldiv+1
  6899  0932  0821               	movf	??___fldiv+1,w
  6900  0933  00B1               	movwf	___fldiv@aexp
  6901  0934                     l2407:
  6902  0934  1FF5               	btfss	___fldiv@a+2,7
  6903  0935  2937               	goto	u2891
  6904  0936  2938               	goto	u2890
  6905  0937                     u2891:
  6906  0937  2939               	goto	l2411
  6907  0938                     u2890:
  6908  0938                     l2409:
  6909  0938  1431               	bsf	___fldiv@aexp,0
  6910  0939                     l2411:
  6911  0939  0831               	movf	___fldiv@aexp,w
  6912  093A  1903               	btfsc	3,2
  6913  093B  293D               	goto	u2901
  6914  093C  293E               	goto	u2900
  6915  093D                     u2901:
  6916  093D  294E               	goto	l2421
  6917  093E                     u2900:
  6918  093E                     l2413:
  6919  093E  0A31               	incf	___fldiv@aexp,w
  6920  093F  1D03               	btfss	3,2
  6921  0940  2942               	goto	u2911
  6922  0941  2943               	goto	u2910
  6923  0942                     u2911:
  6924  0942  294B               	goto	l2417
  6925  0943                     u2910:
  6926  0943                     l2415:
  6927  0943  3000               	movlw	0
  6928  0944  00F6               	movwf	___fldiv@a+3
  6929  0945  3000               	movlw	0
  6930  0946  00F5               	movwf	___fldiv@a+2
  6931  0947  3000               	movlw	0
  6932  0948  00F4               	movwf	___fldiv@a+1
  6933  0949  3000               	movlw	0
  6934  094A  00F3               	movwf	___fldiv@a
  6935  094B                     l2417:
  6936  094B  17F5               	bsf	___fldiv@a+2,7
  6937  094C                     l2419:
  6938  094C  01F6               	clrf	___fldiv@a+3
  6939  094D  2956               	goto	l712
  6940  094E                     l2421:
  6941  094E  3000               	movlw	0
  6942  094F  00F6               	movwf	___fldiv@a+3
  6943  0950  3000               	movlw	0
  6944  0951  00F5               	movwf	___fldiv@a+2
  6945  0952  3000               	movlw	0
  6946  0953  00F4               	movwf	___fldiv@a+1
  6947  0954  3000               	movlw	0
  6948  0955  00F3               	movwf	___fldiv@a
  6949  0956                     l712:
  6950  0956  0876               	movf	___fldiv@a+3,w
  6951  0957  0475               	iorwf	___fldiv@a+2,w
  6952  0958  0474               	iorwf	___fldiv@a+1,w
  6953  0959  0473               	iorwf	___fldiv@a,w
  6954  095A  1D03               	skipz
  6955  095B  295D               	goto	u2921
  6956  095C  295E               	goto	u2920
  6957  095D                     u2921:
  6958  095D  2977               	goto	l2431
  6959  095E                     u2920:
  6960  095E                     l2423:
  6961  095E  3000               	movlw	0
  6962  095F  00FA               	movwf	___fldiv@b+3
  6963  0960  3000               	movlw	0
  6964  0961  00F9               	movwf	___fldiv@b+2
  6965  0962  3000               	movlw	0
  6966  0963  00F8               	movwf	___fldiv@b+1
  6967  0964  3000               	movlw	0
  6968  0965  00F7               	movwf	___fldiv@b
  6969  0966  3080               	movlw	128
  6970  0967  04F9               	iorwf	___fldiv@b+2,f
  6971  0968  307F               	movlw	127
  6972  0969  04FA               	iorwf	___fldiv@b+3,f
  6973  096A                     l2425:
  6974  096A  0829               	movf	___fldiv@sign,w
  6975  096B  00A0               	movwf	??___fldiv
  6976  096C  0820               	movf	??___fldiv,w
  6977  096D  04FA               	iorwf	___fldiv@b+3,f
  6978  096E                     l2427:
  6979  096E  087A               	movf	___fldiv@b+3,w
  6980  096F  00F6               	movwf	?___fldiv+3
  6981  0970  0879               	movf	___fldiv@b+2,w
  6982  0971  00F5               	movwf	?___fldiv+2
  6983  0972  0878               	movf	___fldiv@b+1,w
  6984  0973  00F4               	movwf	?___fldiv+1
  6985  0974  0877               	movf	___fldiv@b,w
  6986  0975  00F3               	movwf	?___fldiv
  6987  0976  2ADC               	goto	l714
  6988  0977                     l2431:
  6989  0977  0830               	movf	___fldiv@bexp,w
  6990  0978  1D03               	btfss	3,2
  6991  0979  297B               	goto	u2931
  6992  097A  297C               	goto	u2930
  6993  097B                     u2931:
  6994  097B  2985               	goto	l2437
  6995  097C                     u2930:
  6996  097C                     l2433:
  6997  097C  3000               	movlw	0
  6998  097D  00F6               	movwf	?___fldiv+3
  6999  097E  3000               	movlw	0
  7000  097F  00F5               	movwf	?___fldiv+2
  7001  0980  3000               	movlw	0
  7002  0981  00F4               	movwf	?___fldiv+1
  7003  0982  3000               	movlw	0
  7004  0983  00F3               	movwf	?___fldiv
  7005  0984  2ADC               	goto	l714
  7006  0985                     l2437:
  7007  0985  0830               	movf	___fldiv@bexp,w
  7008  0986  00A0               	movwf	??___fldiv
  7009  0987  01A1               	clrf	??___fldiv+1
  7010  0988  0821               	movf	??___fldiv+1,w
  7011  0989  00A3               	movwf	??___fldiv+3
  7012  098A  0831               	movf	___fldiv@aexp,w
  7013  098B  0220               	subwf	??___fldiv,w
  7014  098C  00A2               	movwf	??___fldiv+2
  7015  098D  1C03               	skipc
  7016  098E  03A3               	decf	??___fldiv+3,f
  7017  098F  0822               	movf	??___fldiv+2,w
  7018  0990  3E7F               	addlw	127
  7019  0991  00AA               	movwf	___fldiv@new_exp
  7020  0992  0823               	movf	??___fldiv+3,w
  7021  0993  1803               	skipnc
  7022  0994  3E01               	addlw	1
  7023  0995  3E00               	addlw	0
  7024  0996  00AB               	movwf	___fldiv@new_exp+1
  7025  0997                     l2439:
  7026  0997  087A               	movf	___fldiv@b+3,w
  7027  0998  00A8               	movwf	___fldiv@rem+3
  7028  0999  0879               	movf	___fldiv@b+2,w
  7029  099A  00A7               	movwf	___fldiv@rem+2
  7030  099B  0878               	movf	___fldiv@b+1,w
  7031  099C  00A6               	movwf	___fldiv@rem+1
  7032  099D  0877               	movf	___fldiv@b,w
  7033  099E  00A5               	movwf	___fldiv@rem
  7034  099F                     l2441:
  7035  099F  3000               	movlw	0
  7036  09A0  00FA               	movwf	___fldiv@b+3
  7037  09A1  3000               	movlw	0
  7038  09A2  00F9               	movwf	___fldiv@b+2
  7039  09A3  3000               	movlw	0
  7040  09A4  00F8               	movwf	___fldiv@b+1
  7041  09A5  3000               	movlw	0
  7042  09A6  00F7               	movwf	___fldiv@b
  7043  09A7                     l2443:
  7044  09A7  3000               	movlw	0
  7045  09A8  00AF               	movwf	___fldiv@grs+3
  7046  09A9  3000               	movlw	0
  7047  09AA  00AE               	movwf	___fldiv@grs+2
  7048  09AB  3000               	movlw	0
  7049  09AC  00AD               	movwf	___fldiv@grs+1
  7050  09AD  3000               	movlw	0
  7051  09AE  00AC               	movwf	___fldiv@grs
  7052  09AF                     l2445:
  7053  09AF  01B1               	clrf	___fldiv@aexp
  7054  09B0  2A01               	goto	l2465
  7055  09B1                     l2447:
  7056  09B1  0831               	movf	___fldiv@aexp,w
  7057  09B2  1903               	btfsc	3,2
  7058  09B3  29B5               	goto	u2941
  7059  09B4  29B6               	goto	u2940
  7060  09B5                     u2941:
  7061  09B5  29D6               	goto	l2457
  7062  09B6                     u2940:
  7063  09B6                     l2449:
  7064  09B6  3001               	movlw	1
  7065  09B7  00A0               	movwf	??___fldiv
  7066  09B8                     u2955:
  7067  09B8  1003               	clrc
  7068  09B9  0DA5               	rlf	___fldiv@rem,f
  7069  09BA  0DA6               	rlf	___fldiv@rem+1,f
  7070  09BB  0DA7               	rlf	___fldiv@rem+2,f
  7071  09BC  0DA8               	rlf	___fldiv@rem+3,f
  7072  09BD  0BA0               	decfsz	??___fldiv,f
  7073  09BE  29B8               	goto	u2955
  7074  09BF  3001               	movlw	1
  7075  09C0  00A0               	movwf	??___fldiv
  7076  09C1                     u2965:
  7077  09C1  1003               	clrc
  7078  09C2  0DF7               	rlf	___fldiv@b,f
  7079  09C3  0DF8               	rlf	___fldiv@b+1,f
  7080  09C4  0DF9               	rlf	___fldiv@b+2,f
  7081  09C5  0DFA               	rlf	___fldiv@b+3,f
  7082  09C6  0BA0               	decfsz	??___fldiv,f
  7083  09C7  29C1               	goto	u2965
  7084  09C8                     l2451:
  7085  09C8  1FAF               	btfss	___fldiv@grs+3,7
  7086  09C9  29CB               	goto	u2971
  7087  09CA  29CC               	goto	u2970
  7088  09CB                     u2971:
  7089  09CB  29CD               	goto	l2455
  7090  09CC                     u2970:
  7091  09CC                     l2453:
  7092  09CC  1477               	bsf	___fldiv@b,0
  7093  09CD                     l2455:
  7094  09CD  3001               	movlw	1
  7095  09CE  00A0               	movwf	??___fldiv
  7096  09CF                     u2985:
  7097  09CF  1003               	clrc
  7098  09D0  0DAC               	rlf	___fldiv@grs,f
  7099  09D1  0DAD               	rlf	___fldiv@grs+1,f
  7100  09D2  0DAE               	rlf	___fldiv@grs+2,f
  7101  09D3  0DAF               	rlf	___fldiv@grs+3,f
  7102  09D4  0BA0               	decfsz	??___fldiv,f
  7103  09D5  29CF               	goto	u2985
  7104  09D6                     l2457:
  7105  09D6  0876               	movf	___fldiv@a+3,w
  7106  09D7  0228               	subwf	___fldiv@rem+3,w
  7107  09D8  1D03               	skipz
  7108  09D9  29E4               	goto	u2995
  7109  09DA  0875               	movf	___fldiv@a+2,w
  7110  09DB  0227               	subwf	___fldiv@rem+2,w
  7111  09DC  1D03               	skipz
  7112  09DD  29E4               	goto	u2995
  7113  09DE  0874               	movf	___fldiv@a+1,w
  7114  09DF  0226               	subwf	___fldiv@rem+1,w
  7115  09E0  1D03               	skipz
  7116  09E1  29E4               	goto	u2995
  7117  09E2  0873               	movf	___fldiv@a,w
  7118  09E3  0225               	subwf	___fldiv@rem,w
  7119  09E4                     u2995:
  7120  09E4  1C03               	skipc
  7121  09E5  29E7               	goto	u2991
  7122  09E6  29E8               	goto	u2990
  7123  09E7                     u2991:
  7124  09E7  29FD               	goto	l2463
  7125  09E8                     u2990:
  7126  09E8                     l2459:
  7127  09E8  172F               	bsf	___fldiv@grs+3,6
  7128  09E9                     l2461:
  7129  09E9  0873               	movf	___fldiv@a,w
  7130  09EA  02A5               	subwf	___fldiv@rem,f
  7131  09EB  0874               	movf	___fldiv@a+1,w
  7132  09EC  1C03               	skipc
  7133  09ED  0F74               	incfsz	___fldiv@a+1,w
  7134  09EE  29F0               	goto	u3005
  7135  09EF  29F1               	goto	u3006
  7136  09F0                     u3005:
  7137  09F0  02A6               	subwf	___fldiv@rem+1,f
  7138  09F1                     u3006:
  7139  09F1  0875               	movf	___fldiv@a+2,w
  7140  09F2  1C03               	skipc
  7141  09F3  0F75               	incfsz	___fldiv@a+2,w
  7142  09F4  29F6               	goto	u3007
  7143  09F5  29F7               	goto	u3008
  7144  09F6                     u3007:
  7145  09F6  02A7               	subwf	___fldiv@rem+2,f
  7146  09F7                     u3008:
  7147  09F7  0876               	movf	___fldiv@a+3,w
  7148  09F8  1C03               	skipc
  7149  09F9  0F76               	incfsz	___fldiv@a+3,w
  7150  09FA  29FC               	goto	u3009
  7151  09FB  29FD               	goto	u3000
  7152  09FC                     u3009:
  7153  09FC  02A8               	subwf	___fldiv@rem+3,f
  7154  09FD                     u3000:
  7155  09FD                     l2463:
  7156  09FD  3001               	movlw	1
  7157  09FE  00A0               	movwf	??___fldiv
  7158  09FF  0820               	movf	??___fldiv,w
  7159  0A00  07B1               	addwf	___fldiv@aexp,f
  7160  0A01                     l2465:
  7161  0A01  301A               	movlw	26
  7162  0A02  0231               	subwf	___fldiv@aexp,w
  7163  0A03  1C03               	skipc
  7164  0A04  2A06               	goto	u3011
  7165  0A05  2A07               	goto	u3010
  7166  0A06                     u3011:
  7167  0A06  29B1               	goto	l2447
  7168  0A07                     u3010:
  7169  0A07                     l2467:
  7170  0A07  0828               	movf	___fldiv@rem+3,w
  7171  0A08  0427               	iorwf	___fldiv@rem+2,w
  7172  0A09  0426               	iorwf	___fldiv@rem+1,w
  7173  0A0A  0425               	iorwf	___fldiv@rem,w
  7174  0A0B  1903               	skipnz
  7175  0A0C  2A0E               	goto	u3021
  7176  0A0D  2A0F               	goto	u3020
  7177  0A0E                     u3021:
  7178  0A0E  2A2E               	goto	l2481
  7179  0A0F                     u3020:
  7180  0A0F                     l2469:
  7181  0A0F  142C               	bsf	___fldiv@grs,0
  7182  0A10  2A2E               	goto	l2481
  7183  0A11                     l2471:
  7184  0A11  3001               	movlw	1
  7185  0A12  00A0               	movwf	??___fldiv
  7186  0A13                     u3035:
  7187  0A13  1003               	clrc
  7188  0A14  0DF7               	rlf	___fldiv@b,f
  7189  0A15  0DF8               	rlf	___fldiv@b+1,f
  7190  0A16  0DF9               	rlf	___fldiv@b+2,f
  7191  0A17  0DFA               	rlf	___fldiv@b+3,f
  7192  0A18  0BA0               	decfsz	??___fldiv,f
  7193  0A19  2A13               	goto	u3035
  7194  0A1A                     l2473:
  7195  0A1A  1FAF               	btfss	___fldiv@grs+3,7
  7196  0A1B  2A1D               	goto	u3041
  7197  0A1C  2A1E               	goto	u3040
  7198  0A1D                     u3041:
  7199  0A1D  2A1F               	goto	l2477
  7200  0A1E                     u3040:
  7201  0A1E                     l2475:
  7202  0A1E  1477               	bsf	___fldiv@b,0
  7203  0A1F                     l2477:
  7204  0A1F  3001               	movlw	1
  7205  0A20  00A0               	movwf	??___fldiv
  7206  0A21                     u3055:
  7207  0A21  1003               	clrc
  7208  0A22  0DAC               	rlf	___fldiv@grs,f
  7209  0A23  0DAD               	rlf	___fldiv@grs+1,f
  7210  0A24  0DAE               	rlf	___fldiv@grs+2,f
  7211  0A25  0DAF               	rlf	___fldiv@grs+3,f
  7212  0A26  0BA0               	decfsz	??___fldiv,f
  7213  0A27  2A21               	goto	u3055
  7214  0A28                     l2479:
  7215  0A28  30FF               	movlw	255
  7216  0A29  07AA               	addwf	___fldiv@new_exp,f
  7217  0A2A  1803               	skipnc
  7218  0A2B  0AAB               	incf	___fldiv@new_exp+1,f
  7219  0A2C  30FF               	movlw	255
  7220  0A2D  07AB               	addwf	___fldiv@new_exp+1,f
  7221  0A2E                     l2481:
  7222  0A2E  1FF9               	btfss	___fldiv@b+2,7
  7223  0A2F  2A31               	goto	u3061
  7224  0A30  2A32               	goto	u3060
  7225  0A31                     u3061:
  7226  0A31  2A11               	goto	l2471
  7227  0A32                     u3060:
  7228  0A32                     l2483:
  7229  0A32  01B1               	clrf	___fldiv@aexp
  7230  0A33                     l2485:
  7231  0A33  1FAF               	btfss	___fldiv@grs+3,7
  7232  0A34  2A36               	goto	u3071
  7233  0A35  2A37               	goto	u3070
  7234  0A36                     u3071:
  7235  0A36  2A53               	goto	l2493
  7236  0A37                     u3070:
  7237  0A37                     l2487:
  7238  0A37  30FF               	movlw	255
  7239  0A38  052C               	andwf	___fldiv@grs,w
  7240  0A39  00A0               	movwf	??___fldiv
  7241  0A3A  30FF               	movlw	255
  7242  0A3B  052D               	andwf	___fldiv@grs+1,w
  7243  0A3C  00A1               	movwf	??___fldiv+1
  7244  0A3D  30FF               	movlw	255
  7245  0A3E  052E               	andwf	___fldiv@grs+2,w
  7246  0A3F  00A2               	movwf	??___fldiv+2
  7247  0A40  307F               	movlw	127
  7248  0A41  052F               	andwf	___fldiv@grs+3,w
  7249  0A42  00A3               	movwf	??___fldiv+3
  7250  0A43  0823               	movf	??___fldiv+3,w
  7251  0A44  0422               	iorwf	??___fldiv+2,w
  7252  0A45  0421               	iorwf	??___fldiv+1,w
  7253  0A46  0420               	iorwf	??___fldiv,w
  7254  0A47  1903               	skipnz
  7255  0A48  2A4A               	goto	u3081
  7256  0A49  2A4B               	goto	u3080
  7257  0A4A                     u3081:
  7258  0A4A  2A4E               	goto	l728
  7259  0A4B                     u3080:
  7260  0A4B                     l2489:
  7261  0A4B  01B1               	clrf	___fldiv@aexp
  7262  0A4C  0AB1               	incf	___fldiv@aexp,f
  7263  0A4D  2A53               	goto	l2493
  7264  0A4E                     l728:
  7265  0A4E  1C77               	btfss	___fldiv@b,0
  7266  0A4F  2A51               	goto	u3091
  7267  0A50  2A52               	goto	u3090
  7268  0A51                     u3091:
  7269  0A51  2A53               	goto	l2493
  7270  0A52                     u3090:
  7271  0A52  2A4B               	goto	l2489
  7272  0A53                     l2493:
  7273  0A53  0831               	movf	___fldiv@aexp,w
  7274  0A54  1903               	btfsc	3,2
  7275  0A55  2A57               	goto	u3101
  7276  0A56  2A58               	goto	u3100
  7277  0A57                     u3101:
  7278  0A57  2A89               	goto	l2503
  7279  0A58                     u3100:
  7280  0A58                     l2495:
  7281  0A58  3001               	movlw	1
  7282  0A59  07F7               	addwf	___fldiv@b,f
  7283  0A5A  3000               	movlw	0
  7284  0A5B  1803               	skipnc
  7285  0A5C  3001               	movlw	1
  7286  0A5D  07F8               	addwf	___fldiv@b+1,f
  7287  0A5E  3000               	movlw	0
  7288  0A5F  1803               	skipnc
  7289  0A60  3001               	movlw	1
  7290  0A61  07F9               	addwf	___fldiv@b+2,f
  7291  0A62  3000               	movlw	0
  7292  0A63  1803               	skipnc
  7293  0A64  3001               	movlw	1
  7294  0A65  07FA               	addwf	___fldiv@b+3,f
  7295  0A66                     l2497:
  7296  0A66  1C7A               	btfss	___fldiv@b+3,0
  7297  0A67  2A69               	goto	u3111
  7298  0A68  2A6A               	goto	u3110
  7299  0A69                     u3111:
  7300  0A69  2A89               	goto	l2503
  7301  0A6A                     u3110:
  7302  0A6A                     l2499:
  7303  0A6A  0877               	movf	___fldiv@b,w
  7304  0A6B  00A0               	movwf	??___fldiv
  7305  0A6C  0878               	movf	___fldiv@b+1,w
  7306  0A6D  00A1               	movwf	??___fldiv+1
  7307  0A6E  0879               	movf	___fldiv@b+2,w
  7308  0A6F  00A2               	movwf	??___fldiv+2
  7309  0A70  087A               	movf	___fldiv@b+3,w
  7310  0A71  00A3               	movwf	??___fldiv+3
  7311  0A72  3001               	movlw	1
  7312  0A73  00A4               	movwf	??___fldiv+4
  7313  0A74                     u3125:
  7314  0A74  0D23               	rlf	??___fldiv+3,w
  7315  0A75  0CA3               	rrf	??___fldiv+3,f
  7316  0A76  0CA2               	rrf	??___fldiv+2,f
  7317  0A77  0CA1               	rrf	??___fldiv+1,f
  7318  0A78  0CA0               	rrf	??___fldiv,f
  7319  0A79                     u3120:
  7320  0A79  0BA4               	decfsz	??___fldiv+4,f
  7321  0A7A  2A74               	goto	u3125
  7322  0A7B  0823               	movf	??___fldiv+3,w
  7323  0A7C  00FA               	movwf	___fldiv@b+3
  7324  0A7D  0822               	movf	??___fldiv+2,w
  7325  0A7E  00F9               	movwf	___fldiv@b+2
  7326  0A7F  0821               	movf	??___fldiv+1,w
  7327  0A80  00F8               	movwf	___fldiv@b+1
  7328  0A81  0820               	movf	??___fldiv,w
  7329  0A82  00F7               	movwf	___fldiv@b
  7330  0A83                     l2501:
  7331  0A83  3001               	movlw	1
  7332  0A84  07AA               	addwf	___fldiv@new_exp,f
  7333  0A85  1803               	skipnc
  7334  0A86  0AAB               	incf	___fldiv@new_exp+1,f
  7335  0A87  3000               	movlw	0
  7336  0A88  07AB               	addwf	___fldiv@new_exp+1,f
  7337  0A89                     l2503:
  7338  0A89  082B               	movf	___fldiv@new_exp+1,w
  7339  0A8A  3A80               	xorlw	128
  7340  0A8B  00FF               	movwf	btemp+1
  7341  0A8C  3080               	movlw	128
  7342  0A8D  027F               	subwf	btemp+1,w
  7343  0A8E  1D03               	skipz
  7344  0A8F  2A92               	goto	u3135
  7345  0A90  30FF               	movlw	255
  7346  0A91  022A               	subwf	___fldiv@new_exp,w
  7347  0A92                     u3135:
  7348  0A92  1C03               	skipc
  7349  0A93  2A95               	goto	u3131
  7350  0A94  2A96               	goto	u3130
  7351  0A95                     u3131:
  7352  0A95  2AA4               	goto	l2507
  7353  0A96                     u3130:
  7354  0A96                     l2505:
  7355  0A96  30FF               	movlw	255
  7356  0A97  1283               	bcf	3,5	;RP0=0, select bank0
  7357  0A98  1303               	bcf	3,6	;RP1=0, select bank0
  7358  0A99  00AA               	movwf	___fldiv@new_exp
  7359  0A9A  3000               	movlw	0
  7360  0A9B  00AB               	movwf	___fldiv@new_exp+1
  7361  0A9C  3000               	movlw	0
  7362  0A9D  00FA               	movwf	___fldiv@b+3
  7363  0A9E  3000               	movlw	0
  7364  0A9F  00F9               	movwf	___fldiv@b+2
  7365  0AA0  3000               	movlw	0
  7366  0AA1  00F8               	movwf	___fldiv@b+1
  7367  0AA2  3000               	movlw	0
  7368  0AA3  00F7               	movwf	___fldiv@b
  7369  0AA4                     l2507:
  7370  0AA4  1283               	bcf	3,5	;RP0=0, select bank0
  7371  0AA5  1303               	bcf	3,6	;RP1=0, select bank0
  7372  0AA6  082B               	movf	___fldiv@new_exp+1,w
  7373  0AA7  3A80               	xorlw	128
  7374  0AA8  00FF               	movwf	btemp+1
  7375  0AA9  3080               	movlw	128
  7376  0AAA  027F               	subwf	btemp+1,w
  7377  0AAB  1D03               	skipz
  7378  0AAC  2AAF               	goto	u3145
  7379  0AAD  3001               	movlw	1
  7380  0AAE  022A               	subwf	___fldiv@new_exp,w
  7381  0AAF                     u3145:
  7382  0AAF  1803               	skipnc
  7383  0AB0  2AB2               	goto	u3141
  7384  0AB1  2AB3               	goto	u3140
  7385  0AB2                     u3141:
  7386  0AB2  2AC0               	goto	l734
  7387  0AB3                     u3140:
  7388  0AB3                     l2509:
  7389  0AB3  1283               	bcf	3,5	;RP0=0, select bank0
  7390  0AB4  1303               	bcf	3,6	;RP1=0, select bank0
  7391  0AB5  01AA               	clrf	___fldiv@new_exp
  7392  0AB6  01AB               	clrf	___fldiv@new_exp+1
  7393  0AB7                     l2511:
  7394  0AB7  3000               	movlw	0
  7395  0AB8  00FA               	movwf	___fldiv@b+3
  7396  0AB9  3000               	movlw	0
  7397  0ABA  00F9               	movwf	___fldiv@b+2
  7398  0ABB  3000               	movlw	0
  7399  0ABC  00F8               	movwf	___fldiv@b+1
  7400  0ABD  3000               	movlw	0
  7401  0ABE  00F7               	movwf	___fldiv@b
  7402  0ABF                     l2513:
  7403  0ABF  01A9               	clrf	___fldiv@sign
  7404  0AC0                     l734:
  7405  0AC0  1283               	bcf	3,5	;RP0=0, select bank0
  7406  0AC1  1303               	bcf	3,6	;RP1=0, select bank0
  7407  0AC2  082A               	movf	___fldiv@new_exp,w
  7408  0AC3  00A0               	movwf	??___fldiv
  7409  0AC4  0820               	movf	??___fldiv,w
  7410  0AC5  00B0               	movwf	___fldiv@bexp
  7411  0AC6                     l2515:
  7412  0AC6  1C30               	btfss	___fldiv@bexp,0
  7413  0AC7  2AC9               	goto	u3151
  7414  0AC8  2ACA               	goto	u3150
  7415  0AC9                     u3151:
  7416  0AC9  2ACC               	goto	l2519
  7417  0ACA                     u3150:
  7418  0ACA                     l2517:
  7419  0ACA  17F9               	bsf	___fldiv@b+2,7
  7420  0ACB  2AD0               	goto	l736
  7421  0ACC                     l2519:
  7422  0ACC  307F               	movlw	127
  7423  0ACD  00A0               	movwf	??___fldiv
  7424  0ACE  0820               	movf	??___fldiv,w
  7425  0ACF  05F9               	andwf	___fldiv@b+2,f
  7426  0AD0                     l736:
  7427  0AD0  0830               	movf	___fldiv@bexp,w
  7428  0AD1  00A0               	movwf	??___fldiv
  7429  0AD2  1003               	clrc
  7430  0AD3  0C20               	rrf	??___fldiv,w
  7431  0AD4  00A1               	movwf	??___fldiv+1
  7432  0AD5  0821               	movf	??___fldiv+1,w
  7433  0AD6  00FA               	movwf	___fldiv@b+3
  7434  0AD7  0829               	movf	___fldiv@sign,w
  7435  0AD8  00A0               	movwf	??___fldiv
  7436  0AD9  0820               	movf	??___fldiv,w
  7437  0ADA  04FA               	iorwf	___fldiv@b+3,f
  7438  0ADB  296E               	goto	l2427
  7439  0ADC                     l714:
  7440  0ADC  0008               	return
  7441  0ADD                     __end_of___fldiv:
  7442                           
  7443                           	psect	text18
  7444  0810                     __ptext18:	
  7445 ;; *************** function _Lcd_Write_String *****************
  7446 ;; Defined at:
  7447 ;;		line 66 in file "LCDP1.c"
  7448 ;; Parameters:    Size  Location     Type
  7449 ;;  a               2    6[COMMON] PTR unsigned char 
  7450 ;;		 -> tarart(25), STR_2(6), texto(25), STR_1(5), 
  7451 ;;		 -> offsett(25), 
  7452 ;; Auto vars:     Size  Location     Type
  7453 ;;  i               2    0[BANK0 ] int 
  7454 ;; Return value:  Size  Location     Type
  7455 ;;                  1    wreg      void 
  7456 ;; Registers used:
  7457 ;;		wreg, fsr0l, fsr0h, status,2, status,0, btemp+1, pclath, cstack
  7458 ;; Tracked objects:
  7459 ;;		On entry : 0/0
  7460 ;;		On exit  : 0/0
  7461 ;;		Unchanged: 0/0
  7462 ;; Data sizes:     COMMON   BANK0   BANK1   BANK3   BANK2
  7463 ;;      Params:         2       0       0       0       0
  7464 ;;      Locals:         0       2       0       0       0
  7465 ;;      Temps:          3       0       0       0       0
  7466 ;;      Totals:         5       2       0       0       0
  7467 ;;Total ram usage:        7 bytes
  7468 ;; Hardware stack levels used: 1
  7469 ;; Hardware stack levels required when called: 3
  7470 ;; This function calls:
  7471 ;;		_Lcd_Write_Char
  7472 ;; This function is called by:
  7473 ;;		_main
  7474 ;; This function uses a non-reentrant model
  7475 ;;
  7476                           
  7477                           
  7478                           ;psect for function _Lcd_Write_String
  7479  0810                     _Lcd_Write_String:
  7480  0810                     l2893:	
  7481                           ;incstack = 0
  7482                           ; Regs used in _Lcd_Write_String: [wreg-fsr0h+status,2+status,0+btemp+1+pclath+cstack]
  7483                           
  7484                           
  7485                           ;LCDP1.c: 67:     int i;;LCDP1.c: 68:     for (i = 0; a[i] != '\0'; i++)
  7486  0810  1283               	bcf	3,5	;RP0=0, select bank0
  7487  0811  1303               	bcf	3,6	;RP1=0, select bank0
  7488  0812  01A0               	clrf	Lcd_Write_String@i
  7489  0813  01A1               	clrf	Lcd_Write_String@i+1
  7490  0814  2839               	goto	l2899
  7491  0815                     l2895:
  7492                           
  7493                           ;LCDP1.c: 69:         Lcd_Write_Char(a[i]);
  7494  0815  0820               	movf	Lcd_Write_String@i,w
  7495  0816  0776               	addwf	Lcd_Write_String@a,w
  7496  0817  00F9               	movwf	??_Lcd_Write_String+1
  7497  0818  0877               	movf	Lcd_Write_String@a+1,w
  7498  0819  00F8               	movwf	??_Lcd_Write_String
  7499  081A  1803               	skipnc
  7500  081B  0AF8               	incf	??_Lcd_Write_String,f
  7501  081C  1FA0               	btfss	Lcd_Write_String@i,7
  7502  081D  281F               	goto	u3810
  7503  081E  03F8               	decf	??_Lcd_Write_String,f
  7504  081F                     u3810:
  7505  081F  0878               	movf	??_Lcd_Write_String,w
  7506  0820  00FA               	movwf	??_Lcd_Write_String+2
  7507  0821  087A               	movf	??_Lcd_Write_String+2,w
  7508  0822  1283               	bcf	3,5	;RP0=0, select bank0
  7509  0823  1303               	bcf	3,6	;RP1=0, select bank0
  7510  0824  00FF               	movwf	btemp+1
  7511  0825  0879               	movf	??_Lcd_Write_String+1,w
  7512  0826  0084               	movwf	4
  7513  0827  160A  118A  2000  120A  158A  	fcall	stringtab
  7514  082C  120A  118A  27E7  120A  158A  	fcall	_Lcd_Write_Char
  7515  0831                     l2897:
  7516  0831  3001               	movlw	1
  7517  0832  1283               	bcf	3,5	;RP0=0, select bank0
  7518  0833  1303               	bcf	3,6	;RP1=0, select bank0
  7519  0834  07A0               	addwf	Lcd_Write_String@i,f
  7520  0835  1803               	skipnc
  7521  0836  0AA1               	incf	Lcd_Write_String@i+1,f
  7522  0837  3000               	movlw	0
  7523  0838  07A1               	addwf	Lcd_Write_String@i+1,f
  7524  0839                     l2899:
  7525  0839  0820               	movf	Lcd_Write_String@i,w
  7526  083A  0776               	addwf	Lcd_Write_String@a,w
  7527  083B  00F9               	movwf	??_Lcd_Write_String+1
  7528  083C  0877               	movf	Lcd_Write_String@a+1,w
  7529  083D  00F8               	movwf	??_Lcd_Write_String
  7530  083E  1803               	skipnc
  7531  083F  0AF8               	incf	??_Lcd_Write_String,f
  7532  0840  1FA0               	btfss	Lcd_Write_String@i,7
  7533  0841  2843               	goto	u3820
  7534  0842  03F8               	decf	??_Lcd_Write_String,f
  7535  0843                     u3820:
  7536  0843  0878               	movf	??_Lcd_Write_String,w
  7537  0844  00FA               	movwf	??_Lcd_Write_String+2
  7538  0845  087A               	movf	??_Lcd_Write_String+2,w
  7539  0846  1283               	bcf	3,5	;RP0=0, select bank0
  7540  0847  1303               	bcf	3,6	;RP1=0, select bank0
  7541  0848  00FF               	movwf	btemp+1
  7542  0849  0879               	movf	??_Lcd_Write_String+1,w
  7543  084A  0084               	movwf	4
  7544  084B  160A  118A  2000  120A  158A  	fcall	stringtab
  7545  0850  3A00               	xorlw	0
  7546  0851  1D03               	skipz
  7547  0852  2854               	goto	u3831
  7548  0853  2855               	goto	u3830
  7549  0854                     u3831:
  7550  0854  2815               	goto	l2895
  7551  0855                     u3830:
  7552  0855                     l216:
  7553  0855  0008               	return
  7554  0856                     __end_of_Lcd_Write_String:
  7555                           
  7556                           	psect	text19
  7557  07E7                     __ptext19:	
  7558 ;; *************** function _Lcd_Write_Char *****************
  7559 ;; Defined at:
  7560 ;;		line 58 in file "LCDP1.c"
  7561 ;; Parameters:    Size  Location     Type
  7562 ;;  a               1    wreg     unsigned char 
  7563 ;; Auto vars:     Size  Location     Type
  7564 ;;  a               1    5[COMMON] unsigned char 
  7565 ;; Return value:  Size  Location     Type
  7566 ;;                  1    wreg      void 
  7567 ;; Registers used:
  7568 ;;		wreg, status,2, status,0, pclath, cstack
  7569 ;; Tracked objects:
  7570 ;;		On entry : 0/0
  7571 ;;		On exit  : 0/0
  7572 ;;		Unchanged: 0/0
  7573 ;; Data sizes:     COMMON   BANK0   BANK1   BANK3   BANK2
  7574 ;;      Params:         0       0       0       0       0
  7575 ;;      Locals:         1       0       0       0       0
  7576 ;;      Temps:          1       0       0       0       0
  7577 ;;      Totals:         2       0       0       0       0
  7578 ;;Total ram usage:        2 bytes
  7579 ;; Hardware stack levels used: 1
  7580 ;; Hardware stack levels required when called: 2
  7581 ;; This function calls:
  7582 ;;		_Lcd_Port
  7583 ;; This function is called by:
  7584 ;;		_Lcd_Write_String
  7585 ;; This function uses a non-reentrant model
  7586 ;;
  7587                           
  7588                           
  7589                           ;psect for function _Lcd_Write_Char
  7590  07E7                     _Lcd_Write_Char:
  7591                           
  7592                           ;incstack = 0
  7593                           ; Regs used in _Lcd_Write_Char: [wreg+status,2+status,0+pclath+cstack]
  7594                           ;Lcd_Write_Char@a stored from wreg
  7595  07E7  00F5               	movwf	Lcd_Write_Char@a
  7596  07E8                     l2303:
  7597                           
  7598                           ;LCDP1.c: 59:     PORTEbits.RE0 = 1;
  7599  07E8  1283               	bcf	3,5	;RP0=0, select bank0
  7600  07E9  1303               	bcf	3,6	;RP1=0, select bank0
  7601  07EA  1409               	bsf	9,0	;volatile
  7602  07EB                     l2305:
  7603                           
  7604                           ;LCDP1.c: 60:     Lcd_Port(a);
  7605  07EB  0875               	movf	Lcd_Write_Char@a,w
  7606  07EC  160A  118A  249A  120A  118A  	fcall	_Lcd_Port
  7607  07F1                     l2307:
  7608                           
  7609                           ;LCDP1.c: 61:     PORTEbits.RE2 = 1;
  7610  07F1  1283               	bcf	3,5	;RP0=0, select bank0
  7611  07F2  1303               	bcf	3,6	;RP1=0, select bank0
  7612  07F3  1509               	bsf	9,2	;volatile
  7613  07F4                     l2309:
  7614                           
  7615                           ;LCDP1.c: 62:     _delay((unsigned long)((10)*(8000000/4000000.0)));
  7616  07F4  3006               	movlw	6
  7617  07F5  00F4               	movwf	??_Lcd_Write_Char
  7618  07F6                     u4187:
  7619  07F6  0BF4               	decfsz	??_Lcd_Write_Char,f
  7620  07F7  2FF6               	goto	u4187
  7621  07F8  0000               	nop
  7622  07F9                     l2311:
  7623                           
  7624                           ;LCDP1.c: 63:     PORTEbits.RE2 = 0;
  7625  07F9  1283               	bcf	3,5	;RP0=0, select bank0
  7626  07FA  1303               	bcf	3,6	;RP1=0, select bank0
  7627  07FB  1109               	bcf	9,2	;volatile
  7628  07FC                     l210:
  7629  07FC  0008               	return
  7630  07FD                     __end_of_Lcd_Write_Char:
  7631                           
  7632                           	psect	text20
  7633  150A                     __ptext20:	
  7634 ;; *************** function _Lcd_Set_Cursor *****************
  7635 ;; Defined at:
  7636 ;;		line 33 in file "LCDP1.c"
  7637 ;; Parameters:    Size  Location     Type
  7638 ;;  a               1    wreg     unsigned char 
  7639 ;;  b               1    7[COMMON] unsigned char 
  7640 ;; Auto vars:     Size  Location     Type
  7641 ;;  a               1    9[COMMON] unsigned char 
  7642 ;;  temp            1   10[COMMON] unsigned char 
  7643 ;; Return value:  Size  Location     Type
  7644 ;;                  1    wreg      void 
  7645 ;; Registers used:
  7646 ;;		wreg, status,2, status,0, pclath, cstack
  7647 ;; Tracked objects:
  7648 ;;		On entry : 0/0
  7649 ;;		On exit  : 0/0
  7650 ;;		Unchanged: 0/0
  7651 ;; Data sizes:     COMMON   BANK0   BANK1   BANK3   BANK2
  7652 ;;      Params:         1       0       0       0       0
  7653 ;;      Locals:         2       0       0       0       0
  7654 ;;      Temps:          1       0       0       0       0
  7655 ;;      Totals:         4       0       0       0       0
  7656 ;;Total ram usage:        4 bytes
  7657 ;; Hardware stack levels used: 1
  7658 ;; Hardware stack levels required when called: 3
  7659 ;; This function calls:
  7660 ;;		_Lcd_Cmd
  7661 ;; This function is called by:
  7662 ;;		_main
  7663 ;; This function uses a non-reentrant model
  7664 ;;
  7665                           
  7666                           
  7667                           ;psect for function _Lcd_Set_Cursor
  7668  150A                     _Lcd_Set_Cursor:
  7669                           
  7670                           ;incstack = 0
  7671                           ; Regs used in _Lcd_Set_Cursor: [wreg+status,2+status,0+pclath+cstack]
  7672                           ;Lcd_Set_Cursor@a stored from wreg
  7673  150A  00F9               	movwf	Lcd_Set_Cursor@a
  7674  150B                     l2881:
  7675                           
  7676                           ;LCDP1.c: 34:    char temp;;LCDP1.c: 35:     if (a == 1) {
  7677  150B  0379               	decf	Lcd_Set_Cursor@a,w
  7678  150C  1D03               	btfss	3,2
  7679  150D  2D0F               	goto	u3791
  7680  150E  2D10               	goto	u3790
  7681  150F                     u3791:
  7682  150F  2D1C               	goto	l2887
  7683  1510                     u3790:
  7684  1510                     l2883:
  7685                           
  7686                           ;LCDP1.c: 36:         temp = 0x80 + b - 1;
  7687  1510  0877               	movf	Lcd_Set_Cursor@b,w
  7688  1511  3E7F               	addlw	127
  7689  1512  00F8               	movwf	??_Lcd_Set_Cursor
  7690  1513  0878               	movf	??_Lcd_Set_Cursor,w
  7691  1514  00FA               	movwf	Lcd_Set_Cursor@temp
  7692  1515                     l2885:
  7693                           
  7694                           ;LCDP1.c: 37:         Lcd_Cmd(temp);
  7695  1515  087A               	movf	Lcd_Set_Cursor@temp,w
  7696  1516  160A  118A  24F0  160A  118A  	fcall	_Lcd_Cmd
  7697                           
  7698                           ;LCDP1.c: 38:     } else if (a == 2) {
  7699  151B  2D2D               	goto	l204
  7700  151C                     l2887:
  7701  151C  3002               	movlw	2
  7702  151D  0679               	xorwf	Lcd_Set_Cursor@a,w
  7703  151E  1D03               	btfss	3,2
  7704  151F  2D21               	goto	u3801
  7705  1520  2D22               	goto	u3800
  7706  1521                     u3801:
  7707  1521  2D2D               	goto	l204
  7708  1522                     u3800:
  7709  1522                     l2889:
  7710                           
  7711                           ;LCDP1.c: 39:         temp = 0xC0 + b - 1;
  7712  1522  0877               	movf	Lcd_Set_Cursor@b,w
  7713  1523  3EBF               	addlw	191
  7714  1524  00F8               	movwf	??_Lcd_Set_Cursor
  7715  1525  0878               	movf	??_Lcd_Set_Cursor,w
  7716  1526  00FA               	movwf	Lcd_Set_Cursor@temp
  7717  1527                     l2891:
  7718                           
  7719                           ;LCDP1.c: 40:         Lcd_Cmd(temp);
  7720  1527  087A               	movf	Lcd_Set_Cursor@temp,w
  7721  1528  160A  118A  24F0  160A  118A  	fcall	_Lcd_Cmd
  7722  152D                     l204:
  7723  152D  0008               	return
  7724  152E                     __end_of_Lcd_Set_Cursor:
  7725                           
  7726                           	psect	text21
  7727  15C9                     __ptext21:	
  7728 ;; *************** function _Lcd_Init *****************
  7729 ;; Defined at:
  7730 ;;		line 44 in file "LCDP1.c"
  7731 ;; Parameters:    Size  Location     Type
  7732 ;;		None
  7733 ;; Auto vars:     Size  Location     Type
  7734 ;;		None
  7735 ;; Return value:  Size  Location     Type
  7736 ;;                  1    wreg      void 
  7737 ;; Registers used:
  7738 ;;		wreg, status,2, status,0, pclath, cstack
  7739 ;; Tracked objects:
  7740 ;;		On entry : 0/0
  7741 ;;		On exit  : 0/0
  7742 ;;		Unchanged: 0/0
  7743 ;; Data sizes:     COMMON   BANK0   BANK1   BANK3   BANK2
  7744 ;;      Params:         0       0       0       0       0
  7745 ;;      Locals:         0       0       0       0       0
  7746 ;;      Temps:          2       0       0       0       0
  7747 ;;      Totals:         2       0       0       0       0
  7748 ;;Total ram usage:        2 bytes
  7749 ;; Hardware stack levels used: 1
  7750 ;; Hardware stack levels required when called: 3
  7751 ;; This function calls:
  7752 ;;		_Lcd_Cmd
  7753 ;;		_Lcd_Port
  7754 ;; This function is called by:
  7755 ;;		_main
  7756 ;; This function uses a non-reentrant model
  7757 ;;
  7758                           
  7759                           
  7760                           ;psect for function _Lcd_Init
  7761  15C9                     _Lcd_Init:
  7762  15C9                     l2869:	
  7763                           ;incstack = 0
  7764                           ; Regs used in _Lcd_Init: [wreg+status,2+status,0+pclath+cstack]
  7765                           
  7766                           
  7767                           ;LCDP1.c: 45:     Lcd_Port(0x00);
  7768  15C9  3000               	movlw	0
  7769  15CA  160A  118A  249A  160A  118A  	fcall	_Lcd_Port
  7770  15CF                     l2871:
  7771                           
  7772                           ;LCDP1.c: 46:     _delay((unsigned long)((20)*(8000000/4000.0)));
  7773  15CF  3034               	movlw	52
  7774  15D0  00F8               	movwf	??_Lcd_Init+1
  7775  15D1  30F1               	movlw	241
  7776  15D2  00F7               	movwf	??_Lcd_Init
  7777  15D3                     u4197:
  7778  15D3  0BF7               	decfsz	??_Lcd_Init,f
  7779  15D4  2DD3               	goto	u4197
  7780  15D5  0BF8               	decfsz	??_Lcd_Init+1,f
  7781  15D6  2DD3               	goto	u4197
  7782  15D7  2DD8               	nop2
  7783  15D8                     l2873:
  7784                           
  7785                           ;LCDP1.c: 47:     Lcd_Cmd(0x30);
  7786  15D8  3030               	movlw	48
  7787  15D9  160A  118A  24F0  160A  118A  	fcall	_Lcd_Cmd
  7788                           
  7789                           ;LCDP1.c: 48:     _delay((unsigned long)((5)*(8000000/4000.0)));
  7790  15DE  300D               	movlw	13
  7791  15DF  00F8               	movwf	??_Lcd_Init+1
  7792  15E0  30FB               	movlw	251
  7793  15E1  00F7               	movwf	??_Lcd_Init
  7794  15E2                     u4207:
  7795  15E2  0BF7               	decfsz	??_Lcd_Init,f
  7796  15E3  2DE2               	goto	u4207
  7797  15E4  0BF8               	decfsz	??_Lcd_Init+1,f
  7798  15E5  2DE2               	goto	u4207
  7799  15E6  2DE7               	nop2
  7800  15E7                     l2875:
  7801                           
  7802                           ;LCDP1.c: 49:     Lcd_Cmd(0x30);
  7803  15E7  3030               	movlw	48
  7804  15E8  160A  118A  24F0  160A  118A  	fcall	_Lcd_Cmd
  7805  15ED                     l2877:
  7806                           
  7807                           ;LCDP1.c: 50:     _delay((unsigned long)((11)*(8000000/4000.0)));
  7808  15ED  301D               	movlw	29
  7809  15EE  00F8               	movwf	??_Lcd_Init+1
  7810  15EF  3091               	movlw	145
  7811  15F0  00F7               	movwf	??_Lcd_Init
  7812  15F1                     u4217:
  7813  15F1  0BF7               	decfsz	??_Lcd_Init,f
  7814  15F2  2DF1               	goto	u4217
  7815  15F3  0BF8               	decfsz	??_Lcd_Init+1,f
  7816  15F4  2DF1               	goto	u4217
  7817                           
  7818                           ;LCDP1.c: 51:     Lcd_Cmd(0x30);
  7819  15F5  3030               	movlw	48
  7820  15F6  160A  118A  24F0  160A  118A  	fcall	_Lcd_Cmd
  7821                           
  7822                           ;LCDP1.c: 53:     Lcd_Cmd(0x38);
  7823  15FB  3038               	movlw	56
  7824  15FC  160A  118A  24F0  160A  118A  	fcall	_Lcd_Cmd
  7825                           
  7826                           ;LCDP1.c: 54:     Lcd_Cmd(0x0C);
  7827  1601  300C               	movlw	12
  7828  1602  160A  118A  24F0  160A  118A  	fcall	_Lcd_Cmd
  7829                           
  7830                           ;LCDP1.c: 55:     Lcd_Cmd(0x6);
  7831  1607  3006               	movlw	6
  7832  1608  160A  118A  24F0  160A  118A  	fcall	_Lcd_Cmd
  7833  160D                     l207:
  7834  160D  0008               	return
  7835  160E                     __end_of_Lcd_Init:
  7836                           
  7837                           	psect	text22
  7838  14BB                     __ptext22:	
  7839 ;; *************** function _Lcd_Clear *****************
  7840 ;; Defined at:
  7841 ;;		line 28 in file "LCDP1.c"
  7842 ;; Parameters:    Size  Location     Type
  7843 ;;		None
  7844 ;; Auto vars:     Size  Location     Type
  7845 ;;		None
  7846 ;; Return value:  Size  Location     Type
  7847 ;;                  1    wreg      void 
  7848 ;; Registers used:
  7849 ;;		wreg, status,2, status,0, pclath, cstack
  7850 ;; Tracked objects:
  7851 ;;		On entry : 0/0
  7852 ;;		On exit  : 0/0
  7853 ;;		Unchanged: 0/0
  7854 ;; Data sizes:     COMMON   BANK0   BANK1   BANK3   BANK2
  7855 ;;      Params:         0       0       0       0       0
  7856 ;;      Locals:         0       0       0       0       0
  7857 ;;      Temps:          0       0       0       0       0
  7858 ;;      Totals:         0       0       0       0       0
  7859 ;;Total ram usage:        0 bytes
  7860 ;; Hardware stack levels used: 1
  7861 ;; Hardware stack levels required when called: 3
  7862 ;; This function calls:
  7863 ;;		_Lcd_Cmd
  7864 ;; This function is called by:
  7865 ;;		_main
  7866 ;; This function uses a non-reentrant model
  7867 ;;
  7868                           
  7869                           
  7870                           ;psect for function _Lcd_Clear
  7871  14BB                     _Lcd_Clear:
  7872  14BB                     l2879:	
  7873                           ;incstack = 0
  7874                           ; Regs used in _Lcd_Clear: [wreg+status,2+status,0+pclath+cstack]
  7875                           
  7876                           
  7877                           ;LCDP1.c: 29:     Lcd_Cmd(0);
  7878  14BB  3000               	movlw	0
  7879  14BC  160A  118A  24F0  160A  118A  	fcall	_Lcd_Cmd
  7880                           
  7881                           ;LCDP1.c: 30:     Lcd_Cmd(1);
  7882  14C1  3001               	movlw	1
  7883  14C2  160A  118A  24F0  160A  118A  	fcall	_Lcd_Cmd
  7884  14C7                     l198:
  7885  14C7  0008               	return
  7886  14C8                     __end_of_Lcd_Clear:
  7887                           
  7888                           	psect	text23
  7889  14F0                     __ptext23:	
  7890 ;; *************** function _Lcd_Cmd *****************
  7891 ;; Defined at:
  7892 ;;		line 20 in file "LCDP1.c"
  7893 ;; Parameters:    Size  Location     Type
  7894 ;;  a               1    wreg     unsigned char 
  7895 ;; Auto vars:     Size  Location     Type
  7896 ;;  a               1    6[COMMON] unsigned char 
  7897 ;; Return value:  Size  Location     Type
  7898 ;;                  1    wreg      void 
  7899 ;; Registers used:
  7900 ;;		wreg, status,2, status,0, pclath, cstack
  7901 ;; Tracked objects:
  7902 ;;		On entry : 0/0
  7903 ;;		On exit  : 0/0
  7904 ;;		Unchanged: 0/0
  7905 ;; Data sizes:     COMMON   BANK0   BANK1   BANK3   BANK2
  7906 ;;      Params:         0       0       0       0       0
  7907 ;;      Locals:         1       0       0       0       0
  7908 ;;      Temps:          2       0       0       0       0
  7909 ;;      Totals:         3       0       0       0       0
  7910 ;;Total ram usage:        3 bytes
  7911 ;; Hardware stack levels used: 1
  7912 ;; Hardware stack levels required when called: 2
  7913 ;; This function calls:
  7914 ;;		_Lcd_Port
  7915 ;; This function is called by:
  7916 ;;		_Lcd_Clear
  7917 ;;		_Lcd_Set_Cursor
  7918 ;;		_Lcd_Init
  7919 ;;		_Lcd_Shift_Right
  7920 ;;		_Lcd_Shift_Left
  7921 ;; This function uses a non-reentrant model
  7922 ;;
  7923                           
  7924                           
  7925                           ;psect for function _Lcd_Cmd
  7926  14F0                     _Lcd_Cmd:
  7927                           
  7928                           ;incstack = 0
  7929                           ; Regs used in _Lcd_Cmd: [wreg+status,2+status,0+pclath+cstack]
  7930                           ;Lcd_Cmd@a stored from wreg
  7931  14F0  00F6               	movwf	Lcd_Cmd@a
  7932  14F1                     l2293:
  7933                           
  7934                           ;LCDP1.c: 21:     PORTEbits.RE0 = 0;
  7935  14F1  1283               	bcf	3,5	;RP0=0, select bank0
  7936  14F2  1303               	bcf	3,6	;RP1=0, select bank0
  7937  14F3  1009               	bcf	9,0	;volatile
  7938  14F4                     l2295:
  7939                           
  7940                           ;LCDP1.c: 22:     Lcd_Port(a);
  7941  14F4  0876               	movf	Lcd_Cmd@a,w
  7942  14F5  160A  118A  249A  160A  118A  	fcall	_Lcd_Port
  7943  14FA                     l2297:
  7944                           
  7945                           ;LCDP1.c: 23:     PORTEbits.RE2 = 1;
  7946  14FA  1283               	bcf	3,5	;RP0=0, select bank0
  7947  14FB  1303               	bcf	3,6	;RP1=0, select bank0
  7948  14FC  1509               	bsf	9,2	;volatile
  7949  14FD                     l2299:
  7950                           
  7951                           ;LCDP1.c: 24:     _delay((unsigned long)((4)*(8000000/4000.0)));
  7952  14FD  300B               	movlw	11
  7953  14FE  00F5               	movwf	??_Lcd_Cmd+1
  7954  14FF  3062               	movlw	98
  7955  1500  00F4               	movwf	??_Lcd_Cmd
  7956  1501                     u4227:
  7957  1501  0BF4               	decfsz	??_Lcd_Cmd,f
  7958  1502  2D01               	goto	u4227
  7959  1503  0BF5               	decfsz	??_Lcd_Cmd+1,f
  7960  1504  2D01               	goto	u4227
  7961  1505  0000               	nop
  7962  1506                     l2301:
  7963                           
  7964                           ;LCDP1.c: 25:     PORTEbits.RE2 = 0;
  7965  1506  1283               	bcf	3,5	;RP0=0, select bank0
  7966  1507  1303               	bcf	3,6	;RP1=0, select bank0
  7967  1508  1109               	bcf	9,2	;volatile
  7968  1509                     l195:
  7969  1509  0008               	return
  7970  150A                     __end_of_Lcd_Cmd:
  7971                           
  7972                           	psect	text24
  7973  149A                     __ptext24:	
  7974 ;; *************** function _Lcd_Port *****************
  7975 ;; Defined at:
  7976 ;;		line 16 in file "LCDP1.c"
  7977 ;; Parameters:    Size  Location     Type
  7978 ;;  a               1    wreg     unsigned char 
  7979 ;; Auto vars:     Size  Location     Type
  7980 ;;  a               1    3[COMMON] unsigned char 
  7981 ;; Return value:  Size  Location     Type
  7982 ;;                  1    wreg      void 
  7983 ;; Registers used:
  7984 ;;		wreg
  7985 ;; Tracked objects:
  7986 ;;		On entry : 0/0
  7987 ;;		On exit  : 0/0
  7988 ;;		Unchanged: 0/0
  7989 ;; Data sizes:     COMMON   BANK0   BANK1   BANK3   BANK2
  7990 ;;      Params:         0       0       0       0       0
  7991 ;;      Locals:         1       0       0       0       0
  7992 ;;      Temps:          0       0       0       0       0
  7993 ;;      Totals:         1       0       0       0       0
  7994 ;;Total ram usage:        1 bytes
  7995 ;; Hardware stack levels used: 1
  7996 ;; Hardware stack levels required when called: 1
  7997 ;; This function calls:
  7998 ;;		Nothing
  7999 ;; This function is called by:
  8000 ;;		_Lcd_Cmd
  8001 ;;		_Lcd_Init
  8002 ;;		_Lcd_Write_Char
  8003 ;; This function uses a non-reentrant model
  8004 ;;
  8005                           
  8006                           
  8007                           ;psect for function _Lcd_Port
  8008  149A                     _Lcd_Port:
  8009                           
  8010                           ;incstack = 0
  8011                           ; Regs used in _Lcd_Port: [wreg]
  8012                           ;Lcd_Port@a stored from wreg
  8013  149A  00F3               	movwf	Lcd_Port@a
  8014  149B                     l2027:
  8015                           
  8016                           ;LCDP1.c: 17:         PORTB = a;
  8017  149B  0873               	movf	Lcd_Port@a,w
  8018  149C  1283               	bcf	3,5	;RP0=0, select bank0
  8019  149D  1303               	bcf	3,6	;RP1=0, select bank0
  8020  149E  0086               	movwf	6	;volatile
  8021  149F                     l192:
  8022  149F  0008               	return
  8023  14A0                     __end_of_Lcd_Port:
  8024                           
  8025                           	psect	text25
  8026  1578                     __ptext25:	
  8027 ;; *************** function _ISR *****************
  8028 ;; Defined at:
  8029 ;;		line 121 in file "Slave2.c"
  8030 ;; Parameters:    Size  Location     Type
  8031 ;;		None
  8032 ;; Auto vars:     Size  Location     Type
  8033 ;;		None
  8034 ;; Return value:  Size  Location     Type
  8035 ;;                  1    wreg      void 
  8036 ;; Registers used:
  8037 ;;		wreg, status,2, status,0
  8038 ;; Tracked objects:
  8039 ;;		On entry : 0/0
  8040 ;;		On exit  : 0/0
  8041 ;;		Unchanged: 0/0
  8042 ;; Data sizes:     COMMON   BANK0   BANK1   BANK3   BANK2
  8043 ;;      Params:         0       0       0       0       0
  8044 ;;      Locals:         0       0       0       0       0
  8045 ;;      Temps:          3       0       0       0       0
  8046 ;;      Totals:         3       0       0       0       0
  8047 ;;Total ram usage:        3 bytes
  8048 ;; Hardware stack levels used: 1
  8049 ;; This function calls:
  8050 ;;		Nothing
  8051 ;; This function is called by:
  8052 ;;		Interrupt level 1
  8053 ;; This function uses a non-reentrant model
  8054 ;;
  8055                           
  8056                           
  8057                           ;psect for function _ISR
  8058  1578                     _ISR:
  8059  1578                     i1l1827:
  8060                           
  8061                           ;Slave2.c: 122:     if (PIR1bits.ADIF){
  8062  1578  1283               	bcf	3,5	;RP0=0, select bank0
  8063  1579  1303               	bcf	3,6	;RP1=0, select bank0
  8064  157A  1F0C               	btfss	12,6	;volatile
  8065  157B  2D7D               	goto	u188_21
  8066  157C  2D7E               	goto	u188_20
  8067  157D                     u188_21:
  8068  157D  2D99               	goto	i1l124
  8069  157E                     u188_20:
  8070  157E                     i1l1829:
  8071                           
  8072                           ;Slave2.c: 123:             if(ADCON0bits.CHS == 0){
  8073  157E  0C1F               	rrf	31,w	;volatile
  8074  157F  00F0               	movwf	??_ISR
  8075  1580  0C70               	rrf	??_ISR,w
  8076  1581  390F               	andlw	15
  8077  1582  3A00               	xorlw	0
  8078  1583  1D03               	skipz
  8079  1584  2D86               	goto	u189_21
  8080  1585  2D87               	goto	u189_20
  8081  1586                     u189_21:
  8082  1586  2D92               	goto	i1l1833
  8083  1587                     u189_20:
  8084  1587                     i1l1831:
  8085                           
  8086                           ;Slave2.c: 124:             CCPR1L = (ADRESH>>1)+125;
  8087  1587  081E               	movf	30,w	;volatile
  8088  1588  00F0               	movwf	??_ISR
  8089  1589  1003               	clrc
  8090  158A  0C70               	rrf	??_ISR,w
  8091  158B  3E7D               	addlw	125
  8092  158C  0095               	movwf	21	;volatile
  8093                           
  8094                           ;Slave2.c: 125:             PORTC++;
  8095  158D  3001               	movlw	1
  8096  158E  00F0               	movwf	??_ISR
  8097  158F  0870               	movf	??_ISR,w
  8098  1590  0787               	addwf	7,f	;volatile
  8099                           
  8100                           ;Slave2.c: 126:         }
  8101  1591  2D98               	goto	i1l1835
  8102  1592                     i1l1833:
  8103                           
  8104                           ;Slave2.c: 128:             CCPR2L = (ADRESH>>1)+125;
  8105  1592  081E               	movf	30,w	;volatile
  8106  1593  00F0               	movwf	??_ISR
  8107  1594  1003               	clrc
  8108  1595  0C70               	rrf	??_ISR,w
  8109  1596  3E7D               	addlw	125
  8110  1597  009B               	movwf	27	;volatile
  8111  1598                     i1l1835:
  8112                           
  8113                           ;Slave2.c: 130:         PIR1bits.ADIF = 0;
  8114  1598  130C               	bcf	12,6	;volatile
  8115  1599                     i1l124:
  8116  1599  0872               	movf	??_ISR+2,w
  8117  159A  008A               	movwf	10
  8118  159B  0E71               	swapf	??_ISR+1,w
  8119  159C  0083               	movwf	3
  8120  159D  0EFE               	swapf	btemp,f
  8121  159E  0E7E               	swapf	btemp,w
  8122  159F  0009               	retfie
  8123  15A0                     __end_of_ISR:
  8124  007E                     btemp	set	126	;btemp
  8125  007E                     wtemp0	set	126
  8126                           
  8127                           	psect	intentry
  8128  0004                     __pintentry:	
  8129                           ;incstack = 0
  8130                           ; Regs used in _ISR: [wreg+status,2+status,0]
  8131                           
  8132  0004                     interrupt_function:
  8133  007E                     saved_w	set	btemp
  8134  0004  00FE               	movwf	btemp
  8135  0005  0E03               	swapf	3,w
  8136  0006  00F1               	movwf	??_ISR+1
  8137  0007  080A               	movf	10,w
  8138  0008  00F2               	movwf	??_ISR+2
  8139  0009  160A  118A  2D78   	ljmp	_ISR
  8140                           
  8141                           	psect	config
  8142                           
  8143                           ;Config register CONFIG1 @ 0x2007
  8144                           ;	Oscillator Selection bits
  8145                           ;	FOSC = INTRC_NOCLKOUT, INTOSCIO oscillator: I/O function on RA6/OSC2/CLKOUT pin, I/O f
      +                          unction on RA7/OSC1/CLKIN
  8146                           ;	Watchdog Timer Enable bit
  8147                           ;	WDTE = OFF, WDT disabled and can be enabled by SWDTEN bit of the WDTCON register
  8148                           ;	Power-up Timer Enable bit
  8149                           ;	PWRTE = ON, PWRT enabled
  8150                           ;	RE3/MCLR pin function select bit
  8151                           ;	MCLRE = OFF, RE3/MCLR pin function is digital input, MCLR internally tied to VDD
  8152                           ;	Code Protection bit
  8153                           ;	CP = OFF, Program memory code protection is disabled
  8154                           ;	Data Code Protection bit
  8155                           ;	CPD = OFF, Data memory code protection is disabled
  8156                           ;	Brown Out Reset Selection bits
  8157                           ;	BOREN = OFF, BOR disabled
  8158                           ;	Internal External Switchover bit
  8159                           ;	IESO = OFF, Internal/External Switchover mode is disabled
  8160                           ;	Fail-Safe Clock Monitor Enabled bit
  8161                           ;	FCMEN = OFF, Fail-Safe Clock Monitor is disabled
  8162                           ;	Low Voltage Programming Enable bit
  8163                           ;	LVP = OFF, RB3 pin has digital I/O, HV on MCLR must be used for programming
  8164                           ;	In-Circuit Debugger Mode bit
  8165                           ;	DEBUG = 0x1, unprogrammed default
  8166  2007                     	org	8199
  8167  2007  20C4               	dw	8388
  8168                           
  8169                           ;Config register CONFIG2 @ 0x2008
  8170                           ;	Brown-out Reset Selection bit
  8171                           ;	BOR4V = BOR40V, Brown-out Reset set to 4.0V
  8172                           ;	Flash Program Memory Self Write Enable bits
  8173                           ;	WRT = OFF, Write protection off
  8174  2008                     	org	8200
  8175  2008  3FFF               	dw	16383

Data Sizes:
    Strings     11
    Constant    12
    Data        8
    BSS         87
    Persistent  0
    Stack       0

Auto Spaces:
    Space          Size  Autos    Used
    COMMON           14     11      11
    BANK0            80     80      80
    BANK1            80      0      70
    BANK3            96      0      25
    BANK2            96      0       0

Pointer List with Targets:

    Lcd_Write_String@a	PTR unsigned char  size(2) Largest target is 25
		 -> tarart(BANK3[25]), STR_2(CODE[6]), texto(BANK1[25]), STR_1(CODE[5]), 
		 -> offsett(BANK1[25]), 

    floattostr_@cadena_	PTR unsigned char  size(2) Largest target is 25
		 -> tarart(BANK3[25]), texto(BANK1[25]), offsett(BANK1[25]), 


Critical Paths under _main in COMMON

    _main->_Lcd_Set_Cursor
    _main->_Lcd_Write_String
    _main->___fldiv
    _main->___flge
    _hx711_promedio->___aldiv
    _hx711_lectura->_hx711_pulso
    _floattostr_->___fldiv
    _floattostr_->___flge
    ___fladd->___fldiv
    ___flmul->__Umul8_16
    _Lcd_Write_String->_Lcd_Write_Char
    _Lcd_Write_Char->_Lcd_Port
    _Lcd_Set_Cursor->_Lcd_Cmd
    _Lcd_Init->_Lcd_Cmd
    _Lcd_Clear->_Lcd_Cmd
    _Lcd_Cmd->_Lcd_Port

Critical Paths under _ISR in COMMON

    None.

Critical Paths under _main in BANK0

    _main->_floattostr_
    _tarar->_hx711_promedio
    _hx711_promedio->_hx711_lectura
    _floattostr_->___flsub
    ___xxtofl->_hx711_promedio
    ___flsub->___xxtofl
    ___fladd->___fldiv
    ___flmul->__Umul8_16

Critical Paths under _ISR in BANK0

    None.

Critical Paths under _main in BANK1

    None.

Critical Paths under _ISR in BANK1

    None.

Critical Paths under _main in BANK3

    None.

Critical Paths under _ISR in BANK3

    None.

Critical Paths under _main in BANK2

    None.

Critical Paths under _ISR in BANK2

    None.

Call Graph Tables:

 ---------------------------------------------------------------------------------
 (Depth) Function   	        Calls       Base Space   Used Autos Params    Refs
 ---------------------------------------------------------------------------------
 (0) _main                                                 9     9      0   23463
                                             71 BANK0      9     9      0
                          _Lcd_Clear
                           _Lcd_Init
                     _Lcd_Set_Cursor
                   _Lcd_Write_String
                            ___fldiv
                             ___flge
                            ___flmul
                           ___xxtofl
                        _floattostr_
                         _hx711_init
                     _hx711_promedio
                              _setup
                              _tarar
 ---------------------------------------------------------------------------------
 (1) _tarar                                                3     2      1    1206
                                             29 BANK0      3     2      1
                     _hx711_promedio
 ---------------------------------------------------------------------------------
 (2) _hx711_promedio                                      14    10      4    1086
                                             15 BANK0     14    10      4
                            ___aldiv
                      _hx711_lectura
 ---------------------------------------------------------------------------------
 (3) _hx711_lectura                                       19    15      4     270
                                              4 COMMON     4     0      4
                                              0 BANK0     15    15      0
                        _hx711_pulso
 ---------------------------------------------------------------------------------
 (4) _hx711_pulso                                          1     1      0      23
                                              3 COMMON     1     1      0
 ---------------------------------------------------------------------------------
 (3) ___aldiv                                             15     7      8     452
                                              3 COMMON     8     0      8
                                              0 BANK0      7     7      0
 ---------------------------------------------------------------------------------
 (1) _setup                                                1     1      0       0
                                              3 COMMON     1     1      0
 ---------------------------------------------------------------------------------
 (1) _hx711_init                                           3     3      0       0
                                              3 COMMON     3     3      0
 ---------------------------------------------------------------------------------
 (1) _floattostr_                                         20    13      7   13599
                                             51 BANK0     20    13      7
                            ___fladd
                            ___fldiv
                             ___flge
                            ___flmul
                            ___flneg
                            ___flsub
                            ___fltol
                           ___xxtofl
 ---------------------------------------------------------------------------------
 (2) ___xxtofl                                            14    10      4     778
                                             29 BANK0     14    10      4
                     _hx711_promedio (ARG)
 ---------------------------------------------------------------------------------
 (2) ___fltol                                             11     7      4     305
                                              3 COMMON     6     2      4
                                              0 BANK0      5     5      0
 ---------------------------------------------------------------------------------
 (2) ___flsub                                              8     0      8    2485
                                             43 BANK0      8     0      8
                            ___fladd
                           ___xxtofl (ARG)
 ---------------------------------------------------------------------------------
 (3) ___fladd                                             20    12      8    2288
                                             18 BANK0     20    12      8
                            ___fldiv (ARG)
 ---------------------------------------------------------------------------------
 (2) ___flneg                                              4     0      4     121
                                              3 COMMON     4     0      4
 ---------------------------------------------------------------------------------
 (2) ___flmul                                             26    18      8    2721
                                              5 BANK0     26    18      8
                          __Umul8_16
 ---------------------------------------------------------------------------------
 (3) __Umul8_16                                            9     7      2     799
                                              3 COMMON     4     2      2
                                              0 BANK0      5     5      0
 ---------------------------------------------------------------------------------
 (2) ___flge                                              12     4      8    1094
                                              3 COMMON     8     0      8
                                              0 BANK0      4     4      0
 ---------------------------------------------------------------------------------
 (2) ___fldiv                                             26    18      8    1729
                                              3 COMMON     8     0      8
                                              0 BANK0     18    18      0
 ---------------------------------------------------------------------------------
 (1) _Lcd_Write_String                                     7     5      2     514
                                              6 COMMON     5     3      2
                                              0 BANK0      2     2      0
                     _Lcd_Write_Char
 ---------------------------------------------------------------------------------
 (2) _Lcd_Write_Char                                       2     2      0      44
                                              4 COMMON     2     2      0
                           _Lcd_Port
 ---------------------------------------------------------------------------------
 (1) _Lcd_Set_Cursor                                       4     3      1     558
                                              7 COMMON     4     3      1
                            _Lcd_Cmd
 ---------------------------------------------------------------------------------
 (1) _Lcd_Init                                             2     2      0      66
                                              7 COMMON     2     2      0
                            _Lcd_Cmd
                           _Lcd_Port
 ---------------------------------------------------------------------------------
 (1) _Lcd_Clear                                            0     0      0      44
                            _Lcd_Cmd
 ---------------------------------------------------------------------------------
 (2) _Lcd_Cmd                                              3     3      0      44
                                              4 COMMON     3     3      0
                           _Lcd_Port
 ---------------------------------------------------------------------------------
 (3) _Lcd_Port                                             1     1      0      22
                                              3 COMMON     1     1      0
 ---------------------------------------------------------------------------------
 Estimated maximum stack depth 4
 ---------------------------------------------------------------------------------
 (Depth) Function   	        Calls       Base Space   Used Autos Params    Refs
 ---------------------------------------------------------------------------------
 (5) _ISR                                                  3     3      0       0
                                              0 COMMON     3     3      0
 ---------------------------------------------------------------------------------
 Estimated maximum stack depth 5
 ---------------------------------------------------------------------------------

 Call Graph Graphs:

 _main (ROOT)
   _Lcd_Clear
     _Lcd_Cmd
       _Lcd_Port
   _Lcd_Init
     _Lcd_Cmd
     _Lcd_Port
   _Lcd_Set_Cursor
     _Lcd_Cmd
   _Lcd_Write_String
     _Lcd_Write_Char
       _Lcd_Port
   ___fldiv
   ___flge
   ___flmul
     __Umul8_16
   ___xxtofl
     _hx711_promedio (ARG)
       ___aldiv
       _hx711_lectura
         _hx711_pulso
   _floattostr_
     ___fladd
       ___fldiv (ARG)
     ___fldiv
     ___flge
     ___flmul
     ___flneg
     ___flsub
       ___fladd
       ___xxtofl (ARG)
     ___fltol
     ___xxtofl
   _hx711_init
   _hx711_promedio
   _setup
   _tarar
     _hx711_promedio

 _ISR (ROOT)

 Address spaces:
Name               Size   Autos  Total    Cost      Usage
BANK3               60      0      19       9       26.0%
BITBANK3            60      0       0       8        0.0%
SFR3                 0      0       0       4        0.0%
BITSFR3              0      0       0       4        0.0%
BANK2               60      0       0      11        0.0%
BITBANK2            60      0       0      10        0.0%
SFR2                 0      0       0       5        0.0%
BITSFR2              0      0       0       5        0.0%
BANK1               50      0      46       7       87.5%
BITBANK1            50      0       0       6        0.0%
SFR1                 0      0       0       2        0.0%
BITSFR1              0      0       0       2        0.0%
BANK0               50     50      50       5      100.0%
BITBANK0            50      0       0       4        0.0%
SFR0                 0      0       0       1        0.0%
BITSFR0              0      0       0       1        0.0%
COMMON               E      B       B       1       78.6%
BITCOMMON            E      0       0       0        0.0%
CODE                 0      0       0       0        0.0%
DATA                 0      0      BA      12        0.0%
ABS                  0      0      BA       3        0.0%
NULL                 0      0       0       0        0.0%
STACK                0      0       0       2        0.0%
EEDATA             100      0       0       0        0.0%


Microchip Technology PIC Macro Assembler V2.32 build 20210201212658 
Symbol Table                                                                                   Sun Sep 05 20:04:24 2021

             ___fldiv@aexp 0031               ___fldiv@bexp 0030                          pc 0002  
             ___fldiv@sign 0029             ?_hx711_lectura 0074                         fsr 0004  
      __Umul8_16@word_mpld 0022                        l210 07FC                        l204 152D  
                      l116 064F                        l141 165D                        l207 160D  
                      l143 1661                        l216 0855                        l144 166E  
                      l161 065B                        l155 14EF                        l180 16E6  
                      l173 072A                        l158 080F                        l183 1577  
                      l192 149F                        l195 1509                        l540 08E0  
                      l428 1777                        l541 08F9                        l198 14C7  
                      l702 1551                        l438 17FF                        l712 0956  
                      l537 0874                        l545 14BA                        l714 0ADC  
                      l810 07BC                        l802 0794                        l660 0BE7  
                      l556 174D                        l549 1762                        l734 0AC0  
                      l662 0BBE                        l559 1762                        l736 0AD0  
                      l728 0A4E                        l752 0393                        l656 0B40  
                      l681 0CD6                        l809 07B0                        l690 0D36  
                      l771 15B6                        l764 0387                        l773 15C8  
                      l677 0CB2                        l669 0D64                        l758 02FF  
                      l687 0CF8                        l698 0D58                        l699 0D64  
                      l796 074F                        l798 07E6                        _GIE 005F  
                      _PR2 0092                        _ISR 1578                        _cal 00DA  
                      fsr0 0004         floattostr_@cadena_ 0057                        indf 0000  
             ___flmul@aexp 0037               ___flmul@bexp 0038               ___flmul@sign 0032  
             ___flmul@temp 003D               ___flmul@prod 0039                       ?_ISR 0070  
             ?_floattostr_ 0053         floattostr_@largo_n 0061               ___fltol@exp1 0078  
                     l2003 06D9                       l2101 0B23                       l2005 06DF  
                     l2013 06F8                       l2103 0B28                       l2111 0B38  
                     l2031 1766                       l2015 06FE                       l2023 0722  
                     l2007 06E4                       l2201 0CA4                       l2121 0B56  
                     l2113 0B46                       l2105 0B2D                       l3001 04CA  
                     l2041 1792                       l2033 176A                       l2017 0712  
                     l2009 06EB                       l2027 149B                       l2211 0CD1  
                     l2203 0CBA                       l2131 0B6A                       l2123 0B5A  
                     l2115 0B4A                       l2107 0B35                       l3011 053F  
                     l3003 04D0                       l2051 17B7                       l2043 179A  
                     l2035 177B                       l2301 1506                       l2221 0CE4  
                     l2213 0CD5                       l2205 0CBF                       l2141 0B7E  
                     l2133 0B6E                       l2125 0B5E                       l2117 0B4E  
                     l2109 0B36                       l3021 0567                       l3013 0545  
                     l3005 04DE                       l2053 17C9                       l2045 179D  
                     l2061 17E7                       l2037 1786                       l2029 1763  
                     l3101 0F0C                       l2311 07F9                       l2303 07E8  
                     l2231 0CF5                       l2215 0CDA                       l2223 0CE6  
                     l2151 0BA2                       l2143 0B82                       l2135 0B72  
                     l2127 0B62                       l2119 0B52                       l2071 0AE4  
                     l3031 058B                       l3023 056F                       l3015 054E  
                     l3007 0516                       l2063 17EC                       l2055 17D7  
                     l2047 17AA                       l2039 178A                       l3111 0F75  
                     l3103 0F15                       l2305 07EB                       l2401 0921  
                     l2321 0894                       l2313 0856                       l2241 0D14  
                     l2217 0CDD                       l2209 0CC8                       l2225 0CEA  
                     l2161 0BD2                       l2153 0BC2                       l2145 0B86  
                     l2137 0B76                       l2129 0B66                       l2081 0AF9  
                     l2073 0AEA                       l3041 05C3                       l3025 0574  
                     l3017 0554                       l3033 0599                       l3009 052F  
                     l2065 17F7                       l2057 17D8                       l2049 17AE  
                     l3113 0F7B                       l3105 0F1B                       l2307 07F1  
                     l2411 0939                       l2403 0929                       l2323 08B8  
                     l2315 086C                       l2251 0D4D                       l2243 0D32  
                     l2235 0CFD                       l2227 0CEB                       l2219 0CDF  
                     l2163 0BDB                       l2155 0BCB                       l2139 0B7A  
                     l2147 0B8A                       l2091 0B11                       l2083 0B01  
                     l2075 0AEE                       l3051 0633                       l3043 05CD  
                     l3035 059E                       l3027 057F                       l3019 0563  
                     l2059 17E1                       l3115 0FDD                       l3107 0F4D  
                     l2309 07F4                       l2501 0A83                       l2413 093E  
                     l2421 094E                       l2405 092E                       l2325 08BC  
                     l2317 0888                       l2333 14B0                       l2261 0D63  
                     l2253 0D4E                       l2245 0D3B                       l2237 0D02  
                     l2229 0CEF                       l2181 0C21                       l2173 0BF9  
                     l2157 0BCD                       l2165 0BDF                       l2149 0B8B  
                     l2093 0B17                       l2085 0B02                       l2077 0AEF  
                     l2069 0ADD                       l2341 16E7                       l3045 05D6  
                     l3037 05B3                       l3053 0639                       l3029 0585  
                     l3109 0F60                       l3061 0DAA                       l2511 0AB7  
                     l2503 0A89                       l2423 095E                       l2431 0977  
                     l2415 0943                       l2407 0934                       l2327 08F6  
                     l2319 0890                       l2271 15BF                       l2263 15A3  
                     l2335 14B8                       l2255 0D52                       l2247 0D40  
                     l2239 0D10                       l2183 0C23                       l2175 0C10  
                     l2167 0BEB                       l2191 0C36                       l2159 0BD1  
                     l2095 0B18                       l2079 0AF4                       l2087 0B04  
                     l2351 1713                       l2343 16F4                       l3055 0647  
                     l3047 05DC                       l3039 05BD                       l3071 0DDE  
                     l3063 0DAF                       l2513 0ABF                       l2505 0A96  
                     l2441 099F                       l2433 097C                       l2425 096A  
                     l2417 094B                       l2409 0938                       l2329 08F8  
                     l2273 15C4                       l2265 15A5                       l2601 0230  
                     l2337 14BA                       l2257 0D54                       l2249 0D48  
                     l2193 0C4C                       l2185 0C27                       l2177 0C14  
                     l2169 0BF0                       l2097 0B1E                       l2089 0B0C  
                     l2353 171B                       l3049 0614                       l2281 167C  
                     l3081 0DF6                       l3073 0DE1                       l3065 0DB4  
                     l3057 0D65                       l2515 0AC6                       l2507 0AA4  
                     l2451 09C8                       l2443 09A7                       l2427 096E  
                     l2419 094C                       l2267 15AC                       l2611 02C2  
                     l2603 025D                       l2531 0044                       l2259 0D5F  
                     l2195 0C8A                       l2187 0C28                       l2179 0C18  
                     l2099 0B22                       l2371 1742                       l2363 1729  
                     l2355 171D                       l2347 16FD                       l2283 16A7  
                     l3091 0EC6                       l3083 0DFD                       l3075 0DE6  
                     l3067 0DC9                       l3059 0D97                       l2293 14F1  
                     l2517 0ACA                       l2509 0AB3                       l2461 09E9  
                     l2453 09CC                       l2445 09AF                       l2437 0985  
                     l2269 15B0                       l2613 02CB                       l2621 02DF  
                     l2605 0283                       l2541 0059                       l2533 0045  
                     l2525 0033                       l2197 0C90                       l2189 0C31  
                     l2373 1752                       l2357 1721                       l2365 173B  
                     l2349 1712                       l2701 07D9                       l2285 16B6  
                     l2277 1672                       l3093 0ED0                       l3077 0DEF  
                     l3085 0E00                       l3069 0DD5                       l2295 14F4  
                     l2519 0ACC                       l2471 0A11                       l2463 09FD  
                     l2455 09CD                       l2447 09B1                       l2439 0997  
                     l2391 090C                       l2383 08FA                       l2623 02E3  
                     l2615 02CF                       l2607 02AB                       l2551 0071  
                     l2543 0061                       l2535 004A                       l2527 003A  
                     l2199 0C95                       l2375 1757                       l2703 07DD  
                     l2287 16BC                       l2279 167A                       l3095 0EF3  
                     l3087 0E62                       l3079 0DF4                       l2297 14FA  
                     l2473 0A1A                       l2481 0A2E                       l2449 09B6  
                     l2457 09D6                       l2465 0A01                       l2393 0911  
                     l2385 0901                       l2641 0334                       l2633 0304  
                     l2625 02E4                       l2617 02D0                       l2609 02B4  
                     l2561 008D                       l2553 0076                       l2545 0066  
                     l2537 004F                       l2529 0040                       l2377 152E  
                     l2705 07DE                       l2801 1612                       l2289 16C2  
                     l3097 0EFB                       l3089 0EAD                       l2299 14FD  
                     l2483 0A32                       l2475 0A1E                       l2467 0A07  
                     l2459 09E8                       l2395 0916                       l2387 0907  
                     l2651 036B                       l2635 0309                       l2643 033A  
                     l2627 02E8                       l2619 02D9                       l2571 00B0  
                     l2563 0092                       l2555 007B                       l2547 006C  
                     l2539 0057                       l2379 1532                       l2811 161A  
                     l2803 1613                       l3099 0F04                       l2493 0A53  
                     l2485 0A33                       l2477 0A1F                       l2469 0A0F  
                     l2397 091E                       l2389 090B                       l2661 038B  
                     l2653 036D                       l2645 0347                       l2637 0317  
                     l2629 02FC                       l2581 013E                       l2573 00BD  
                     l2565 0097                       l2557 0083                       l2549 0070  
                     l2821 1629                       l2813 1623                       l2805 1617  
                     l2901 1555                       l2495 0A58                       l2487 0A37  
                     l2479 0A28                       l2399 091F                       l2655 037B  
                     l2647 0352                       l2639 031B                       l2591 01A0  
                     l2583 015A                       l2575 00DA                       l2559 0085  
                     l2671 0747                       l2831 1634                       l2823 162A  
                     l2815 1626                       l2807 1618                       l2497 0A66  
                     l2489 0A4B                       l2657 037F                       l2649 0361  
                     l2593 01BD                       l2585 0163                       l2577 00F6  
                     l2569 00A0                       l2681 0772                       l2673 0757  
                     l2665 072E                       l2841 1643                       l2833 1638  
                     l2825 162B                       l2817 1627                       l2809 1619  
                     l1961 0802                       l2499 0A6A                       l2659 0380  
                     l2595 01D6                       l2587 0173                       l2579 0122  
                     l2691 07A6                       l2683 0779                       l2667 0733  
                     l2851 1653                       l2843 1645                       l2835 163B  
                     l2827 162C                       l2819 1628                       l1963 0806  
                     l2597 01F3                       l2589 0190                       l2693 07AA  
                     l2685 077D                       l2677 0760                       l2669 0737  
                     l2861 165A                       l2853 1655                       l2845 1649  
                     l2837 163F                       l2829 1632                       l1965 080C  
                     l1981 0668                       l1973 0653                       l2871 15CF  
                     l2599 0220                       l2695 07B4                       l2687 078B  
                     l2679 0765                       l2863 165C                       l2855 1657  
                     l2847 164D                       l2839 1642                       l1967 080D  
                     l1991 06B8                       l1983 0672                       l1975 065F  
                     l2873 15D8                       l2881 150B                       l2697 07BE  
                     l2689 079B                       l2865 14DB                       l2857 1658  
                     l2849 1651                       l1969 080E                       l1993 06C0  
                     l1985 06A8                       l1977 0663                       l2875 15E7  
                     l2891 1527                       l2883 1510                       l2699 07D4  
                     l2971 039F                       l2867 14E2                       l2859 1659  
                     l1995 06C6                       l2877 15ED                       l2869 15C9  
                     l2885 1515                       l2893 0810                       l2973 03B8  
                     l1997 06CC                       l1989 06B1                       l2879 14BB  
                     l2887 151C                       l2895 0815                       l2991 0460  
                     l2983 03FC                       l2975 03C3                       l2967 0394  
                     l2799 160E                       l1999 06D1                       l2889 1522  
                     l2897 0831                       l2985 041D                       l2993 0466  
                     l2977 03C9                       l2969 039D                       l2899 0839  
                     l2995 0481                       l2987 0423                       l2979 03E0  
                     l2997 048B                       l2989 043F                       l2999 04A9  
                     STR_1 1022                       STR_2 101C                       u2000 0667  
                     u2001 0666                       u2010 0672                       u2011 0671  
                     u2100 179A                       u2020 068B                       u2101 1799  
                     u2030 0695                       u2031 0696                       u3000 09FD  
                     u2200 0AF9                       u2120 17AE                       u2040 06C0  
                     u2032 069B                       u2201 0AF8                       u2121 17AD  
                     u2041 06BF                       u2033 069C                       u2025 0686  
                     u3010 0A07                       u2210 0B17                       u2050 06CC  
                     u3011 0A06                       u2211 0B16                       u2115 179F  
                     u2051 06CB                       u3100 0A58                       u3020 0A0F  
                     u2300 0BC2                       u2220 0B22                       u2140 17C9  
                     u2060 06DF                       u3101 0A57                       u3021 0A0E  
                     u3005 09F0                       u2301 0BC1                       u2221 0B21  
                     u2141 17C8                       u2061 06DE                       u3110 0A6A  
                     u3006 09F1                       u2310 0BD1                       u2230 0B28  
                     u2070 06FE                       u3111 0A69                       u3007 09F6  
                     u2311 0BD0                       u2231 0B27                       u2135 17B0  
                     u2071 06FD                       u3120 0A79                       u3040 0A1E  
                     u3008 09F7                       u3200 0076                       u2240 0B2D  
                     u4000 05CD                       u2160 17E7                       u2080 176A  
                     u3041 0A1D                       u3009 09FC                       u3201 0075  
                     u2241 0B2C                       u4001 05CC                       u2161 17E6  
                     u2145 17C5                       u2081 1769                       u3130 0A96  
                     u3210 007B                       u2410 0C4C                       u2330 0BE7  
                     u2250 0B46                       u4010 0647                       u2170 17EC  
                     u2090 177B                       u3131 0A95                       u3035 0A13  
                     u3211 007A                       u2411 0C4B                       u2331 0BE6  
                     u2251 0B45                       u4011 0646                       u2171 17EB  
                     u2155 17D9                       u2091 177A                       u3140 0AB3  
                     u3060 0A32                       u3220 0092                       u2500 0CE4  
                     u2340 0BEB                       u2260 0B4A                       u2180 0AEE  
                     u4020 0DE6                       u3141 0AB2                       u3125 0A74  
                     u3061 0A31                       u3301 01AF                       u3221 0091  
                     u2501 0CE3                       u2421 0C63                       u2413 0C48  
                     u2405 0C2A                       u2341 0BEA                       u2325 0BD4  
                     u2261 0B49                       u2181 0AED                       u4005 05C9  
                     u4021 0DE5                       u3150 0ACA                       u3070 0A37  
                     u3302 01B6                       u3230 0097                       u2510 0CEA  
                     u2430 0C77                       u2422 0C64                       u2350 0BF0  
                     u2270 0BA2                       u2190 0AF4                       u4030 0DEF  
                     u3151 0AC9                       u3135 0A92                       u3071 0A36  
                     u3055 0A21                       u3303 01BD                       u3231 0096  
                     u2511 0CE9                       u2431 0C78                       u2423 0C69  
                     u2351 0BEF                       u2271 0BA1                       u2191 0AF3  
                     u4015 0643                       u4031 0DEE                       u3080 0A4B  
                     u3160 0044                       u2600 0D40                       u2520 0CEF  
                     u2440 0C95                       u2432 0C7D                       u2424 0C6A  
                     u2280 0BAD                       u3145 0AAF                       u3081 0A4A  
                     u3321 01E5                       u3241 00E8                       u3161 0043  
                     u2601 0D3F                       u2521 0CEE                       u2441 0C94  
                     u2433 0C7E                       u2425 0C6F                       u2361 0C02  
                     u2281 0BAB                       u4041 0E21                       u3090 0A52  
                     u3410 02CF                       u3322 01EC                       u3242 00EF  
                     u3170 004A                       u2610 0D4D                       u2530 0CF5  
                     u2450 0CBA                       u2426 0C70                       u2370 0C14  
                     u2362 0C09                       u2290 0BAE                       u4050 0EC6  
                     u4042 0E24                       u3091 0A51                       u3411 02CE  
                     u3331 0212                       u3323 01F3                       u3315 01BF  
                     u3251 0104                       u3243 00F6                       u3171 0049  
                     u2611 0D4C                       u2531 0CF4                       u2451 0CB9  
                     u2371 0C13                       u2363 0C10                       u2275 0B9E  
                     u4107 16AF                       u4051 0EC5                       u4043 0E2B  
          ?_hx711_promedio 002F                       u2700 0894                       u3500 0347  
                     u3332 0219                       u3252 010B                       u3180 004F  
                     u2620 0D52                       u2540 0CFC                       u2460 0CBF  
                     u2380 0C18                       u4060 0F1B                       u4044 0E2E  
                     u2701 0893                       u3501 0346                       u3405 02C4  
                     u3341 023F                       u3333 0220                       u3261 0130  
                     u3253 0112                       u3181 004E                       u2621 0D51  
                     u2541 0CFB                       u2461 0CBE                       u2381 0C17  
                     u4117 06B5                       u4061 0F1A                       u4045 0E35  
                     u3510 0361                       u3430 02E3                       u3350 0269  
                     u3342 0246                       u3262 0137                       u3190 0070  
                     u2630 0D63                       u2550 0D02                       u2390 0C27  
                     u4070 0F7B                       u4046 0E38                       u4207 15E2  
                     u2711 08A3                       u3511 0360                       u3431 02E2  
                     u3343 024D                       u3271 014C                       u3263 013E  
                     u3191 006F                       u2631 0D62                       u2551 0D01  
                     u2391 0C26                       u4127 06D5                       u4071 0F7A  
                     u2720 08BC                       u2712 08A4                       u2640 15B0  
                     u3520 037F                       u3440 02E8                       u3272 0153  
                     u2560 0D14                       u2480 0CD5                       u4217 15F1  
                     u2721 08BB                       u2713 08A9                       u2641 15AF  
                     u3521 037E                       u3505 0343                       u3441 02E7  
                     u3425 02D2                       u3361 0275                       u3273 015A  
                     u2561 0D13                       u2481 0CD4                       u4137 06E8  
                     u4081 0F9C                       u2714 08AA                       u3450 02FC  
                     u3370 0291                       u3362 027C                       u2570 0D23  
                     u2490 0CDA                       u2810 173A                       u3610 07AA  
                     u3530 0733                       u4082 0F9F                       u4227 1501  
                     u2731 08CB                       u2715 08AF                       u3515 035D  
                     u3451 02FB                       u3363 0283                       u3355 0264  
                     u3291 0182                       u2491 0CD9                       u2475 0CCA  
                     u2811 1739                       u3611 07A9                       u3531 0732  
                     u4147 06F4                       u4083 0FA6                       u2900 093E  
                     u2740 08F6                       u2732 08CC                       u2716 08B0  
                     u2660 15C4                       u3460 0303                       u3292 0189  
                     u2580 0D32                       u2820 1741                       u3620 07B0  
                     u3540 0737                       u4084 0FA9                       u2901 093D  
                     u2741 08F5                       u2733 08D1                       u2661 15C3  
                     u3461 0302                       u3381 029D                       u3293 0190  
                     u3285 015C                       u2581 0D31                       u2821 1740  
                     u2805 172A                       u3621 07AF                       u3605 079F  
                     u3541 0736                       u4157 1636                       u4085 0FB0  
                     u2910 0943                       u2734 08D2                       u3470 0309  
                     u3382 02A4                       u2750 14B8                       u2590 0D3B  
                     u3630 07B4                       u3550 0757                       u2670 16C2  
                     u4086 0FB3                       u2911 0942                       u2735 08D7  
                     u2655 15B7                       u3471 0308                       u3383 02AB  
                     u3375 028C                       u2751 14B7                       u2591 0D3A  
                     u2575 0D1E                       u3631 07B3                       u3551 0756  
                     u4167 163D                       u2671 16C1                       u3800 1522  
                     u2920 095E                       u2736 08D8                       u2680 086C  
                     u3480 031B                       u2840 1752                       u2760 16F4  
                     u3640 07C9                       u3801 1521                       u2921 095D  
                     u2745 08F2                       u2681 086B                       u3481 031A  
                     u2841 1751                       u2761 16F3                       u4177 14E8  
                     u4097 0DFA                       u3810 081F                       u2930 097C  
                     u2690 0888                       u3490 032A                       u2850 1757  
                     u2770 170B                       u3650 07D9                       u3570 0778  
                     u4187 07F6                       u2931 097B                       u2691 0887  
                     u3395 02AD                       u2851 1756                       u2835 1744  
                     u3651 07D8                       u3571 0777                       _PEIE 005E  
                     u3820 0843                       u2940 09B6                       u2860 090B  
                     u2780 1721                       u3660 07DD                       u4197 15D3  
                     u2941 09B5                       u2861 090A                       u2781 1720  
                     u3661 07DC                       u3645 07C4                       u3565 076A  
                     u3830 0855                       u2870 0911                       u2790 1728  
                     u3590 079A                       u3910 03B8                       u1990 065F  
                     u3831 0854                       u2871 0910                       u3495 0325  
                     u2791 1727                       u2775 1706                       u3591 0799  
                     u3911 03B7                       u1991 065E                       u2880 0916  
                     u3920 03FB                       u2881 0915                       u3585 078C  
                     u3921 03FA                       u2970 09CC                       u2890 0938  
                     u3930 043E                       u2971 09CB                       u2955 09B8  
                     u2891 0937                       u3931 043D                       u3940 0481  
                     u3780 1661                       u2965 09C1                       u3941 0480  
                     u3781 1660                       u3790 1510                       u2990 09E8  
                     u3950 04DE                       u3791 150F                       u2991 09E7  
                     u3951 04DD                       u3960 052F                       u2985 09CF  
                     u3961 052E                       u3970 0545                       u2995 09E4  
                     u3971 0544                       u3955 04DA                       u3980 0567  
                     u3981 0566                       u3990 0599                       u3991 0598  
                     u3995 0595         hx711_promedio@cont 003C         hx711_promedio@prom 0038  
        ?_Lcd_Write_String 0076         floattostr_@numero_ 0053                       _main 0D65  
                     _peso 00A0                       btemp 007E                       start 000C  
       ??_Lcd_Write_String 0078            ___fldiv@new_exp 002A            __end_of_Lcd_Cmd 150A  
                    ??_ISR 0070        floattostr_@cont_for 0063              ___fltol@sign1 0077  
          __end_of___aldiv 1800            __end_of___fladd 0D65                      ?_main 0070  
          __end_of___fldiv 0ADD            __end_of___flneg 14BB            __end_of___flmul 0394  
          __end_of___flsub 1552            __end_of___fltol 1763                      _ANSEL 0188  
                    i1l124 1599                      _PORTA 0005                      _PORTB 0006  
                    _PORTC 0007                      _PORTD 0008                      _PORTE 0009  
          __end_of_calibra 1014    __size_of_Lcd_Set_Cursor 0024                      _TRISA 0085  
                    _TRISB 0086                      _SSPIE 0463                      _TRISE 0089  
                    _SSPIF 0063        hx711_promedio@veces 0037                      _celda 00A4  
                    _tarar 1552                      _setup 160E                      _texto 00C1  
                    pclath 000A                      status 0003                      wtemp0 007E  
         __end_of_Lcd_Init 160E           __end_of_Lcd_Port 14A0            __initialization 000F  
          ??_hx711_lectura 0020               __end_of_main 1000      hx711_lectura@ganancia 0028  
                   ??_main 0067         __size_of_Lcd_Clear 000D                     _ADRESH 001E  
                   _CCPR1L 0015                     _CCPR2L 001B                     ?_tarar 003D  
                   ?_setup 0070                     _ANSELH 0189                     i1l1831 1587  
                   i1l1833 1592                     i1l1835 1598                     i1l1827 1578  
                   i1l1829 157E                     u188_20 157E                     u188_21 157D  
                   u189_20 1587                     u189_21 1586                  ??_Lcd_Cmd 0074  
  __size_of_Lcd_Write_Char 0016                     _SSPADD 0093                     _TRISC3 043B  
                   _TRISC4 043C                     _SSPCON 0014                     _SSPBUF 0013  
         __end_of___xxtofl 07E7                     ___flge 0856                  ??___aldiv 0020  
                ??___fladd 003A                  ??___fldiv 0020                  ??___flneg 0077  
     floattostr_@tempo_int 005B                  ??___flmul 002D                  ??___flsub 007B  
                ??___fltol 0020                     _factor 00E2                     _offset 00DE  
                   _tarart 0190                     _prueba 1014         __size_of__Umul8_16 0029  
                   saved_w 007E            Lcd_Set_Cursor@a 0079            Lcd_Set_Cursor@b 0077  
               _hx711_init 14DB                 ___flge@ff1 0073                 ___flge@ff2 0077  
             ___xxtofl@arg 0047               ___xxtofl@exp 0046               ___xxtofl@val 003D  
    floattostr_@decimales_ 0059       __size_of_floattostr_ 02BC    __end_of__initialization 002F  
               ___flneg@f1 0073          __end_of_Lcd_Clear 14C8                 ___fltol@f1 0073  
           __pcstackCOMMON 0070               __pidataBANK1 14A8              __end_of_tarar 1578  
            __end_of_setup 166F              ??_hx711_pulso 0073             _Lcd_Set_Cursor 150A  
         ??_hx711_promedio 0033                  ?_Lcd_Init 0070                  ?_Lcd_Port 0070  
                  ??_tarar 003E                    ??_setup 0073                 __pbssBANK1 00A0  
               __pbssBANK3 0190    floattostr_@largo_entera 0065          __end_of__Umul8_16 15C9  
               __pmaintext 0D65                    ?___flge 0073                 __pintentry 0004  
__size_of_Lcd_Write_String 0046     __end_of_Lcd_Set_Cursor 152E                  ?___xxtofl 003D  
               ??_Lcd_Init 0077                 ??_Lcd_Port 0073        __end_of_hx711_pulso 0810  
                  _SSPCON2 0091                    _SSPSTAT 0094                ?_hx711_init 0070  
               __stringtab 1000             hx711_pulso@lei 0073             _Lcd_Write_Char 07E7  
                  _Lcd_Cmd 14F0                    ___aldiv 1763            __size_of___flge 00A4  
                  ___fladd 0ADD                    ___fldiv 08FA                    ___flneg 14B0  
                  ___flmul 0033                    ___flsub 152E                    ___fltol 16E7  
                  _calibra 1010            ?_Lcd_Set_Cursor 0077                    __ptext1 1552  
                  __ptext2 166F                    __ptext3 0650                    __ptext4 0802  
                  __ptext5 1763                    __ptext6 160E                    __ptext7 14DB  
                  __ptext8 0394                    __ptext9 072B              _offset_manual 1018  
             __size_of_ISR 0028                  _T2CONbits 0012                 ??___xxtofl 0041  
                  _offsett 00A8           ___aldiv@dividend 0077                    clrloop0 14A1  
   __end_of_Lcd_Write_Char 07FD       end_of_initialization 002F              tarar@ganancia 003D  
         ___aldiv@quotient 0023    hx711_lectura@hx711_dato 002B    hx711_lectura@hx711_cont 0029  
                Lcd_Port@a 0073      __end_of_hx711_lectura 072B        __size_of_hx711_init 0015  
                _PORTDbits 0008                  _PORTEbits 0009                _hx711_pulso 0802  
              ___fladd@grs 0045              ___xxtofl@sign 0045                  _TRISCbits 0087  
                _TRISDbits 0088                ___fldiv@grs 002C                ___fldiv@rem 0025  
          ?_Lcd_Write_Char 0070          Lcd_Write_String@a 0076          Lcd_Write_String@i 0020  
              ___flmul@grs 0033                _CCP1CONbits 0017                _CCP2CONbits 001D  
                _Lcd_Clear 14BB             __end_of___flge 08FA           _Lcd_Write_String 0810  
           __end_of_prueba 1018        start_initialization 000F                __end_of_ISR 15A0  
            ??_floattostr_ 005A          __size_of_Lcd_Init 0045          __size_of_Lcd_Port 0006  
               ?_Lcd_Clear 0070                   ??___flge 0020                 init_fetch0 14C8  
                __Umul8_16 15A0                __pdataBANK1 00DE            Lcd_Write_Char@a 0075  
                ___fladd@a 0036                  ___fladd@b 0032                  ___fldiv@a 0073  
                ___fldiv@b 0077                  ___flmul@a 0029                  ___flmul@b 0025  
                ___flsub@a 004B                  ___flsub@b 004F                  ___latbits 0002  
            __pcstackBANK0 0020          __size_of___xxtofl 00BC               ??_hx711_init 0073  
                 ?_Lcd_Cmd 0070        __end_of_floattostr_ 0650                  _main$1281 006C  
         ??_Lcd_Set_Cursor 0078                   ?___aldiv 0073                   ?___fladd 0032  
                 ?___fldiv 0073                   ?___flneg 0073                   ?___flmul 0025  
                 ?___flsub 004B                   ?___fltol 0073                 ?__Umul8_16 0073  
                __pstrings 1000                 tarar@veces 003F         __end_of_hx711_init 14F0  
           __size_of_tarar 0026             __size_of_setup 0061            ___aldiv@divisor 0073  
        interrupt_function 0004            ___aldiv@counter 0021    __size_of_hx711_promedio 0078  
                clear_ram0 14A0                   _PIE1bits 008C                   Lcd_Cmd@a 0076  
                 _PIR1bits 000C                ??_Lcd_Clear 0077                 _ADCON0bits 001F  
              __stringbase 100F                 _ADCON1bits 009F               ?_hx711_pulso 0070  
         ??_Lcd_Write_Char 0074                   _Lcd_Init 15C9                   _Lcd_Port 149A  
              _floattostr_ 0394     hx711_promedio@ganancia 002F   __end_of_Lcd_Write_String 0856  
         __size_of_Lcd_Cmd 001A                ??__Umul8_16 0075           __size_of___aldiv 009D  
         __size_of___fladd 0288           __size_of___fldiv 01E3           __size_of___flneg 000B  
         __size_of___flmul 0361           __size_of___flsub 0024           __size_of___fltol 007C  
       __end_of__stringtab 1010     floattostr_@tempo_float 005D                   ___xxtofl 072B  
                 __ptext10 16E7                   __ptext11 152E                   __ptext20 150A  
                 __ptext12 0ADD                   __ptext21 15C9                   __ptext13 14B0  
                 __ptext22 14BB                   __ptext14 0033                   __ptext23 14F0  
                 __ptext15 15A0                   __ptext24 149A                   __ptext16 0856  
                 __ptext25 1578                   __ptext17 08FA                   __ptext18 0810  
                 __ptext19 07E7     __size_of_hx711_lectura 00DB              __size_of_main 029B  
               _INTCONbits 000B                   init_ram0 14CC                   intlevel1 0000  
           _hx711_promedio 166F                  stringcode 100A                 _OSCCONbits 008F  
       Lcd_Set_Cursor@temp 007A              _hx711_lectura 0650      __end_of_offset_manual 101C  
   __Umul8_16@multiplicand 0073                   stringdir 100A                   stringtab 1000  
     __size_of_hx711_pulso 000E               ___aldiv@sign 0022                _SSPCON2bits 0091  
            ___fladd@signs 0042     __end_of_hx711_promedio 16E7               ___fladd@aexp 0043  
             ___fladd@bexp 0044       __Umul8_16@multiplier 0024          __Umul8_16@product 0020  
