

Microchip MPLAB XC8 Assembler V2.31 build 20201012212115 
                                                                                               Sun Sep 05 17:21:20 2021

Microchip MPLAB XC8 C Compiler v2.31 (Free license) build 20201012212115 Og1 
     1                           	processor	16F887
     2                           	pagewidth 120
     3                           	opt	flic
     4                           	psect	strings,global,class=STRING,delta=2,noexec
     5                           	psect	cinit,global,class=CODE,merge=1,delta=2
     6                           	psect	bssCOMMON,global,class=COMMON,space=1,delta=1,noexec
     7                           	psect	bssBANK0,global,class=BANK0,space=1,delta=1,noexec
     8                           	psect	bssBANK1,global,class=BANK1,space=1,delta=1,noexec
     9                           	psect	clrtext,global,class=CODE,delta=2
    10                           	psect	cstackBANK1,global,class=BANK1,space=1,delta=1,noexec
    11                           	psect	cstackCOMMON,global,class=COMMON,space=1,delta=1,noexec
    12                           	psect	cstackBANK0,global,class=BANK0,space=1,delta=1,noexec
    13                           	psect	maintext,global,class=CODE,split=1,delta=2
    14                           	psect	text1,local,class=CODE,merge=1,delta=2
    15                           	psect	text2,local,class=CODE,merge=1,delta=2,group=1
    16                           	psect	text3,local,class=CODE,merge=1,delta=2,group=1
    17                           	psect	text4,local,class=CODE,merge=1,delta=2,group=1
    18                           	psect	text5,local,class=CODE,merge=1,delta=2,group=1
    19                           	psect	text6,local,class=CODE,merge=1,delta=2,group=1
    20                           	psect	text7,local,class=CODE,merge=1,delta=2,group=1
    21                           	psect	text8,local,class=CODE,merge=1,delta=2,group=1
    22                           	psect	text9,local,class=CODE,merge=1,delta=2,group=1
    23                           	psect	text10,local,class=CODE,merge=1,delta=2,group=1
    24                           	psect	text11,local,class=CODE,merge=1,delta=2,group=1
    25                           	psect	text12,local,class=CODE,merge=1,delta=2
    26                           	psect	text13,local,class=CODE,merge=1,delta=2
    27                           	psect	text14,local,class=CODE,merge=1,delta=2
    28                           	psect	text15,local,class=CODE,merge=1,delta=2
    29                           	psect	text16,local,class=CODE,merge=1,delta=2
    30                           	psect	text17,local,class=CODE,merge=1,delta=2
    31                           	psect	text18,local,class=CODE,merge=1,delta=2
    32                           	psect	text19,local,class=CODE,merge=1,delta=2
    33                           	psect	text20,local,class=CODE,merge=1,delta=2
    34                           	psect	text21,local,class=CODE,merge=1,delta=2
    35                           	psect	text22,local,class=CODE,merge=1,delta=2
    36                           	psect	config,global,abs,ovrld,class=CONFIG,space=4,delta=2,noexec
    37                           	dabs	1,0x7E,2
    38  0000                     
    39                           ; Version 2.20
    40                           ; Generated 12/02/2020 GMT
    41                           ; 
    42                           ; Copyright © 2020, Microchip Technology Inc. and its subsidiaries ("Microchip")
    43                           ; All rights reserved.
    44                           ; 
    45                           ; This software is developed by Microchip Technology Inc. and its subsidiaries ("Microch
      +                          ip").
    46                           ; 
    47                           ; Redistribution and use in source and binary forms, with or without modification, are
    48                           ; permitted provided that the following conditions are met:
    49                           ; 
    50                           ;     1. Redistributions of source code must retain the above copyright notice, this lis
      +                          t of
    51                           ;        conditions and the following disclaimer.
    52                           ; 
    53                           ;     2. Redistributions in binary form must reproduce the above copyright notice, this 
      +                          list
    54                           ;        of conditions and the following disclaimer in the documentation and/or other
    55                           ;        materials provided with the distribution.
    56                           ; 
    57                           ;     3. Microchip's name may not be used to endorse or promote products derived from th
      +                          is
    58                           ;        software without specific prior written permission.
    59                           ; 
    60                           ; THIS SOFTWARE IS PROVIDED BY MICROCHIP "AS IS" AND ANY EXPRESS OR IMPLIED WARRANTIES,
    61                           ; INCLUDING, BUT NOT LIMITED TO, THE IMPLIED WARRANTIES OF MERCHANTABILITY AND FITNESS F
      +                          OR
    62                           ; PURPOSE ARE DISCLAIMED.  IN NO EVENT SHALL MICROCHIP BE LIABLE FOR ANY DIRECT, INDIREC
      +                          T,
    63                           ; INCIDENTAL, SPECIAL, EXEMPLARY, OR CONSEQUENTIAL DAMAGES (INCLUDING BUT NOT LIMITED TO
    64                           ; PROCUREMENT OF SUBSTITUTE GOODS OR SERVICES; LOSS OF USE, DATA OR PROFITS; OR BUSINESS
    65                           ; INTERRUPTION) HOWSOEVER CAUSED AND ON ANY THEORY OF LIABILITY, WHETHER IN CONTRACT, ST
      +                          RICT
    66                           ; LIABILITY, OR TORT (INCLUDING NEGLIGENCE OR OTHERWISE) ARISING IN ANY WAY OUT OF THE U
      +                          SE OF
    67                           ; THIS SOFTWARE, EVEN IF ADVISED OF THE POSSIBILITY OF SUCH DAMAGE.
    68                           ; 
    69                           ; 
    70                           ; Code-generator required, PIC16F887 Definitions
    71                           ; 
    72                           ; SFR Addresses
    73  0000                     	;# 
    74  0001                     	;# 
    75  0002                     	;# 
    76  0003                     	;# 
    77  0004                     	;# 
    78  0005                     	;# 
    79  0006                     	;# 
    80  0007                     	;# 
    81  0008                     	;# 
    82  0009                     	;# 
    83  000A                     	;# 
    84  000B                     	;# 
    85  000C                     	;# 
    86  000D                     	;# 
    87  000E                     	;# 
    88  000E                     	;# 
    89  000F                     	;# 
    90  0010                     	;# 
    91  0011                     	;# 
    92  0012                     	;# 
    93  0013                     	;# 
    94  0014                     	;# 
    95  0015                     	;# 
    96  0015                     	;# 
    97  0016                     	;# 
    98  0017                     	;# 
    99  0018                     	;# 
   100  0019                     	;# 
   101  001A                     	;# 
   102  001B                     	;# 
   103  001B                     	;# 
   104  001C                     	;# 
   105  001D                     	;# 
   106  001E                     	;# 
   107  001F                     	;# 
   108  0081                     	;# 
   109  0085                     	;# 
   110  0086                     	;# 
   111  0087                     	;# 
   112  0088                     	;# 
   113  0089                     	;# 
   114  008C                     	;# 
   115  008D                     	;# 
   116  008E                     	;# 
   117  008F                     	;# 
   118  0090                     	;# 
   119  0091                     	;# 
   120  0092                     	;# 
   121  0093                     	;# 
   122  0093                     	;# 
   123  0093                     	;# 
   124  0094                     	;# 
   125  0095                     	;# 
   126  0096                     	;# 
   127  0097                     	;# 
   128  0098                     	;# 
   129  0099                     	;# 
   130  009A                     	;# 
   131  009B                     	;# 
   132  009C                     	;# 
   133  009D                     	;# 
   134  009E                     	;# 
   135  009F                     	;# 
   136  0105                     	;# 
   137  0107                     	;# 
   138  0108                     	;# 
   139  0109                     	;# 
   140  010C                     	;# 
   141  010C                     	;# 
   142  010D                     	;# 
   143  010E                     	;# 
   144  010F                     	;# 
   145  0185                     	;# 
   146  0187                     	;# 
   147  0188                     	;# 
   148  0189                     	;# 
   149  018C                     	;# 
   150  018D                     	;# 
   151  0000                     	;# 
   152  0001                     	;# 
   153  0002                     	;# 
   154  0003                     	;# 
   155  0004                     	;# 
   156  0005                     	;# 
   157  0006                     	;# 
   158  0007                     	;# 
   159  0008                     	;# 
   160  0009                     	;# 
   161  000A                     	;# 
   162  000B                     	;# 
   163  000C                     	;# 
   164  000D                     	;# 
   165  000E                     	;# 
   166  000E                     	;# 
   167  000F                     	;# 
   168  0010                     	;# 
   169  0011                     	;# 
   170  0012                     	;# 
   171  0013                     	;# 
   172  0014                     	;# 
   173  0015                     	;# 
   174  0015                     	;# 
   175  0016                     	;# 
   176  0017                     	;# 
   177  0018                     	;# 
   178  0019                     	;# 
   179  001A                     	;# 
   180  001B                     	;# 
   181  001B                     	;# 
   182  001C                     	;# 
   183  001D                     	;# 
   184  001E                     	;# 
   185  001F                     	;# 
   186  0081                     	;# 
   187  0085                     	;# 
   188  0086                     	;# 
   189  0087                     	;# 
   190  0088                     	;# 
   191  0089                     	;# 
   192  008C                     	;# 
   193  008D                     	;# 
   194  008E                     	;# 
   195  008F                     	;# 
   196  0090                     	;# 
   197  0091                     	;# 
   198  0092                     	;# 
   199  0093                     	;# 
   200  0093                     	;# 
   201  0093                     	;# 
   202  0094                     	;# 
   203  0095                     	;# 
   204  0096                     	;# 
   205  0097                     	;# 
   206  0098                     	;# 
   207  0099                     	;# 
   208  009A                     	;# 
   209  009B                     	;# 
   210  009C                     	;# 
   211  009D                     	;# 
   212  009E                     	;# 
   213  009F                     	;# 
   214  0105                     	;# 
   215  0107                     	;# 
   216  0108                     	;# 
   217  0109                     	;# 
   218  010C                     	;# 
   219  010C                     	;# 
   220  010D                     	;# 
   221  010E                     	;# 
   222  010F                     	;# 
   223  0185                     	;# 
   224  0187                     	;# 
   225  0188                     	;# 
   226  0189                     	;# 
   227  018C                     	;# 
   228  018D                     	;# 
   229  0000                     	;# 
   230  0001                     	;# 
   231  0002                     	;# 
   232  0003                     	;# 
   233  0004                     	;# 
   234  0005                     	;# 
   235  0006                     	;# 
   236  0007                     	;# 
   237  0008                     	;# 
   238  0009                     	;# 
   239  000A                     	;# 
   240  000B                     	;# 
   241  000C                     	;# 
   242  000D                     	;# 
   243  000E                     	;# 
   244  000E                     	;# 
   245  000F                     	;# 
   246  0010                     	;# 
   247  0011                     	;# 
   248  0012                     	;# 
   249  0013                     	;# 
   250  0014                     	;# 
   251  0015                     	;# 
   252  0015                     	;# 
   253  0016                     	;# 
   254  0017                     	;# 
   255  0018                     	;# 
   256  0019                     	;# 
   257  001A                     	;# 
   258  001B                     	;# 
   259  001B                     	;# 
   260  001C                     	;# 
   261  001D                     	;# 
   262  001E                     	;# 
   263  001F                     	;# 
   264  0081                     	;# 
   265  0085                     	;# 
   266  0086                     	;# 
   267  0087                     	;# 
   268  0088                     	;# 
   269  0089                     	;# 
   270  008C                     	;# 
   271  008D                     	;# 
   272  008E                     	;# 
   273  008F                     	;# 
   274  0090                     	;# 
   275  0091                     	;# 
   276  0092                     	;# 
   277  0093                     	;# 
   278  0093                     	;# 
   279  0093                     	;# 
   280  0094                     	;# 
   281  0095                     	;# 
   282  0096                     	;# 
   283  0097                     	;# 
   284  0098                     	;# 
   285  0099                     	;# 
   286  009A                     	;# 
   287  009B                     	;# 
   288  009C                     	;# 
   289  009D                     	;# 
   290  009E                     	;# 
   291  009F                     	;# 
   292  0105                     	;# 
   293  0107                     	;# 
   294  0108                     	;# 
   295  0109                     	;# 
   296  010C                     	;# 
   297  010C                     	;# 
   298  010D                     	;# 
   299  010E                     	;# 
   300  010F                     	;# 
   301  0185                     	;# 
   302  0187                     	;# 
   303  0188                     	;# 
   304  0189                     	;# 
   305  018C                     	;# 
   306  018D                     	;# 
   307  0000                     	;# 
   308  0001                     	;# 
   309  0002                     	;# 
   310  0003                     	;# 
   311  0004                     	;# 
   312  0005                     	;# 
   313  0006                     	;# 
   314  0007                     	;# 
   315  0008                     	;# 
   316  0009                     	;# 
   317  000A                     	;# 
   318  000B                     	;# 
   319  000C                     	;# 
   320  000D                     	;# 
   321  000E                     	;# 
   322  000E                     	;# 
   323  000F                     	;# 
   324  0010                     	;# 
   325  0011                     	;# 
   326  0012                     	;# 
   327  0013                     	;# 
   328  0014                     	;# 
   329  0015                     	;# 
   330  0015                     	;# 
   331  0016                     	;# 
   332  0017                     	;# 
   333  0018                     	;# 
   334  0019                     	;# 
   335  001A                     	;# 
   336  001B                     	;# 
   337  001B                     	;# 
   338  001C                     	;# 
   339  001D                     	;# 
   340  001E                     	;# 
   341  001F                     	;# 
   342  0081                     	;# 
   343  0085                     	;# 
   344  0086                     	;# 
   345  0087                     	;# 
   346  0088                     	;# 
   347  0089                     	;# 
   348  008C                     	;# 
   349  008D                     	;# 
   350  008E                     	;# 
   351  008F                     	;# 
   352  0090                     	;# 
   353  0091                     	;# 
   354  0092                     	;# 
   355  0093                     	;# 
   356  0093                     	;# 
   357  0093                     	;# 
   358  0094                     	;# 
   359  0095                     	;# 
   360  0096                     	;# 
   361  0097                     	;# 
   362  0098                     	;# 
   363  0099                     	;# 
   364  009A                     	;# 
   365  009B                     	;# 
   366  009C                     	;# 
   367  009D                     	;# 
   368  009E                     	;# 
   369  009F                     	;# 
   370  0105                     	;# 
   371  0107                     	;# 
   372  0108                     	;# 
   373  0109                     	;# 
   374  010C                     	;# 
   375  010C                     	;# 
   376  010D                     	;# 
   377  010E                     	;# 
   378  010F                     	;# 
   379  0185                     	;# 
   380  0187                     	;# 
   381  0188                     	;# 
   382  0189                     	;# 
   383  018C                     	;# 
   384  018D                     	;# 
   385  0000                     	;# 
   386  0001                     	;# 
   387  0002                     	;# 
   388  0003                     	;# 
   389  0004                     	;# 
   390  0005                     	;# 
   391  0006                     	;# 
   392  0007                     	;# 
   393  0008                     	;# 
   394  0009                     	;# 
   395  000A                     	;# 
   396  000B                     	;# 
   397  000C                     	;# 
   398  000D                     	;# 
   399  000E                     	;# 
   400  000E                     	;# 
   401  000F                     	;# 
   402  0010                     	;# 
   403  0011                     	;# 
   404  0012                     	;# 
   405  0013                     	;# 
   406  0014                     	;# 
   407  0015                     	;# 
   408  0015                     	;# 
   409  0016                     	;# 
   410  0017                     	;# 
   411  0018                     	;# 
   412  0019                     	;# 
   413  001A                     	;# 
   414  001B                     	;# 
   415  001B                     	;# 
   416  001C                     	;# 
   417  001D                     	;# 
   418  001E                     	;# 
   419  001F                     	;# 
   420  0081                     	;# 
   421  0085                     	;# 
   422  0086                     	;# 
   423  0087                     	;# 
   424  0088                     	;# 
   425  0089                     	;# 
   426  008C                     	;# 
   427  008D                     	;# 
   428  008E                     	;# 
   429  008F                     	;# 
   430  0090                     	;# 
   431  0091                     	;# 
   432  0092                     	;# 
   433  0093                     	;# 
   434  0093                     	;# 
   435  0093                     	;# 
   436  0094                     	;# 
   437  0095                     	;# 
   438  0096                     	;# 
   439  0097                     	;# 
   440  0098                     	;# 
   441  0099                     	;# 
   442  009A                     	;# 
   443  009B                     	;# 
   444  009C                     	;# 
   445  009D                     	;# 
   446  009E                     	;# 
   447  009F                     	;# 
   448  0105                     	;# 
   449  0107                     	;# 
   450  0108                     	;# 
   451  0109                     	;# 
   452  010C                     	;# 
   453  010C                     	;# 
   454  010D                     	;# 
   455  010E                     	;# 
   456  010F                     	;# 
   457  0185                     	;# 
   458  0187                     	;# 
   459  0188                     	;# 
   460  0189                     	;# 
   461  018C                     	;# 
   462  018D                     	;# 
   463  000C                     _PIR1bits	set	12
   464  001F                     _ADCON0bits	set	31
   465  0009                     _PORTEbits	set	9
   466  0010                     _T1CON	set	16
   467  0009                     _PORTE	set	9
   468  0006                     _PORTB	set	6
   469  0005                     _PORTA	set	5
   470  0008                     _PORTD	set	8
   471  0010                     _T1CONbits	set	16
   472  000E                     _TMR1L	set	14
   473  000F                     _TMR1H	set	15
   474  0028                     _RA0	set	40
   475  009F                     _ADCON1bits	set	159
   476  008C                     _PIE1bits	set	140
   477  008F                     _OSCCONbits	set	143
   478  0089                     _TRISE	set	137
   479  0088                     _TRISD	set	136
   480  0086                     _TRISB	set	134
   481  0085                     _TRISA	set	133
   482  0085                     _TRISAbits	set	133
   483  0189                     _ANSELHbits	set	393
   484  0188                     _ANSELbits	set	392
   485  0189                     _ANSELH	set	393
   486  0188                     _ANSEL	set	392
   487                           
   488                           	psect	strings
   489  1000                     __pstrings:
   490  1000                     stringtab:
   491  1000                     __stringtab:
   492                           
   493                           ;	String table - string pointers are 1 byte each
   494  1000  1BFF               	btfsc	btemp+1,7
   495  1001  280A               	ljmp	stringcode
   496  1002  1383               	bcf	3,7
   497  1003  187F               	btfsc	btemp+1,0
   498  1004  1783               	bsf	3,7
   499  1005  0800               	movf	0,w
   500  1006  0A84               	incf	4,f
   501  1007  1903               	skipnz
   502  1008  0AFF               	incf	btemp+1,f
   503  1009  0008               	return
   504  100A                     stringcode:
   505  100A                     stringdir:
   506  100A  3010               	movlw	high stringdir
   507  100B  008A               	movwf	10
   508  100C  0804               	movf	4,w
   509  100D  0A84               	incf	4,f
   510  100E  0782               	addwf	2,f
   511  100F                     __stringbase:
   512  100F  3400               	retlw	0
   513  1010                     __end_of__stringtab:
   514  1010                     STR_3:
   515  1010  3465               	retlw	101	;'e'
   516  1011  3472               	retlw	114	;'r'
   517  1012  3472               	retlw	114	;'r'
   518  1013  346F               	retlw	111	;'o'
   519  1014  3472               	retlw	114	;'r'
   520  1015  3420               	retlw	32	;' '
   521  1016  3465               	retlw	101	;'e'
   522  1017  346E               	retlw	110	;'n'
   523  1018  3420               	retlw	32	;' '
   524  1019  3464               	retlw	100	;'d'
   525  101A  3461               	retlw	97	;'a'
   526  101B  3474               	retlw	116	;'t'
   527  101C  346F               	retlw	111	;'o'
   528  101D  3473               	retlw	115	;'s'
   529  101E  3400               	retlw	0
   530  101F                     STR_2:
   531  101F  3454               	retlw	84	;'T'
   532  1020  3465               	retlw	101	;'e'
   533  1021  346D               	retlw	109	;'m'
   534  1022  3470               	retlw	112	;'p'
   535  1023  343A               	retlw	58	;':'
   536  1024  3400               	retlw	0
   537  1025                     STR_1:
   538  1025  3468               	retlw	104	;'h'
   539  1026  3475               	retlw	117	;'u'
   540  1027  346D               	retlw	109	;'m'
   541  1028  343A               	retlw	58	;':'
   542  1029  3400               	retlw	0
   543                           
   544                           	psect	cinit
   545  07EB                     start_initialization:	
   546                           ; #config settings
   547                           
   548  07EB                     __initialization:
   549                           
   550                           ; Clear objects allocated to COMMON
   551  07EB  01FD               	clrf	__pbssCOMMON& (0+127)
   552                           
   553                           ; Clear objects allocated to BANK0
   554  07EC  1283               	bcf	3,5	;RP0=0, select bank0
   555  07ED  1303               	bcf	3,6	;RP1=0, select bank0
   556  07EE  01EB               	clrf	__pbssBANK0& (0+127)
   557  07EF  01EC               	clrf	(__pbssBANK0+1)& (0+127)
   558  07F0  01ED               	clrf	(__pbssBANK0+2)& (0+127)
   559  07F1  01EE               	clrf	(__pbssBANK0+3)& (0+127)
   560  07F2  01EF               	clrf	(__pbssBANK0+4)& (0+127)
   561                           
   562                           ; Clear objects allocated to BANK1
   563  07F3  1383               	bcf	3,7	;select IRP bank0
   564  07F4  30A0               	movlw	low __pbssBANK1
   565  07F5  0084               	movwf	4
   566  07F6  30C6               	movlw	low (__pbssBANK1+38)
   567  07F7  120A  158A  2003  120A  118A  	fcall	clear_ram0
   568  07FC                     end_of_initialization:	
   569                           ;End of C runtime variable initialization code
   570                           
   571  07FC                     __end_of__initialization:
   572  07FC  0183               	clrf	3
   573  07FD  120A  158A  29D0   	ljmp	_main	;jump to C main() function
   574                           
   575                           	psect	bssCOMMON
   576  007D                     __pbssCOMMON:
   577  007D                     _contador:
   578  007D                     	ds	1
   579                           
   580                           	psect	bssBANK0
   581  006B                     __pbssBANK0:
   582  006B                     _CHECKSUM:
   583  006B                     	ds	1
   584  006C                     _dummyHum1:
   585  006C                     	ds	1
   586  006D                     _Hum1:
   587  006D                     	ds	1
   588  006E                     _dummyT1:
   589  006E                     	ds	1
   590  006F                     _Temp1:
   591  006F                     	ds	1
   592                           
   593                           	psect	bssBANK1
   594  00A0                     __pbssBANK1:
   595  00A0                     _bits:
   596  00A0                     	ds	10
   597  00AA                     _conv1:
   598  00AA                     	ds	4
   599  00AE                     _conv0:
   600  00AE                     	ds	4
   601  00B2                     _humedad:
   602  00B2                     	ds	10
   603  00BC                     _temperatura:
   604  00BC                     	ds	10
   605                           
   606                           	psect	clrtext
   607  0803                     clear_ram0:	
   608                           ;	Called with FSR containing the base address, and
   609                           ;	W with the last address+1
   610                           
   611  0803  0064               	clrwdt	;clear the watchdog before getting into this loop
   612  0804                     clrloop0:
   613  0804  0180               	clrf	0	;clear RAM location pointed to by FSR
   614  0805  0A84               	incf	4,f	;increment pointer
   615  0806  0604               	xorwf	4,w	;XOR with final address
   616  0807  1903               	btfsc	3,2	;have we reached the end yet?
   617  0808  3400               	retlw	0	;all done for this memory range, return
   618  0809  0604               	xorwf	4,w	;XOR again to restore value
   619  080A  2804               	goto	clrloop0	;do the next byte
   620                           
   621                           	psect	cstackBANK1
   622  00C6                     __pcstackBANK1:
   623  00C6                     ??_main:
   624                           
   625                           ; 1 bytes @ 0x0
   626  00C6                     	ds	10
   627                           
   628                           	psect	cstackCOMMON
   629  0070                     __pcstackCOMMON:
   630  0070                     ?___flge:
   631  0070                     ?_config:	
   632                           ; 1 bit 
   633                           
   634  0070                     ??_config:	
   635                           ; 1 bytes @ 0x0
   636                           
   637  0070                     ?_Lcd_Init:	
   638                           ; 1 bytes @ 0x0
   639                           
   640  0070                     ?_Lcd_Clear:	
   641                           ; 1 bytes @ 0x0
   642                           
   643  0070                     ?_DHT11_start:	
   644                           ; 1 bytes @ 0x0
   645                           
   646  0070                     ??_DHT11_start:	
   647                           ; 1 bytes @ 0x0
   648                           
   649  0070                     ?_DHT11_response:	
   650                           ; 1 bytes @ 0x0
   651                           
   652  0070                     ??_DHT11_response:	
   653                           ; 1 bytes @ 0x0
   654                           
   655  0070                     ?_DHT11_ReadData:	
   656                           ; 1 bytes @ 0x0
   657                           
   658  0070                     ??_DHT11_ReadData:	
   659                           ; 1 bytes @ 0x0
   660                           
   661  0070                     ?_main:	
   662                           ; 1 bytes @ 0x0
   663                           
   664  0070                     ?_Lcd_Port:	
   665                           ; 1 bytes @ 0x0
   666                           
   667  0070                     ??_Lcd_Port:	
   668                           ; 1 bytes @ 0x0
   669                           
   670  0070                     ?_Lcd_Cmd:	
   671                           ; 1 bytes @ 0x0
   672                           
   673  0070                     ?_Lcd_Write_Char:	
   674                           ; 1 bytes @ 0x0
   675                           
   676  0070                     ?__Umul8_16:	
   677                           ; 1 bytes @ 0x0
   678                           
   679  0070                     ?___awdiv:	
   680                           ; 2 bytes @ 0x0
   681                           
   682  0070                     ?___fltol:	
   683                           ; 2 bytes @ 0x0
   684                           
   685  0070                     ?___fladd:	
   686                           ; 4 bytes @ 0x0
   687                           
   688  0070                     Lcd_Port@a:	
   689                           ; 4 bytes @ 0x0
   690                           
   691  0070                     __Umul8_16@multiplicand:	
   692                           ; 1 bytes @ 0x0
   693                           
   694  0070                     ___awdiv@divisor:	
   695                           ; 1 bytes @ 0x0
   696                           
   697  0070                     ___flge@ff1:	
   698                           ; 2 bytes @ 0x0
   699                           
   700  0070                     ___fltol@f1:	
   701                           ; 4 bytes @ 0x0
   702                           
   703  0070                     ___fladd@b:	
   704                           ; 4 bytes @ 0x0
   705                           
   706                           
   707                           ; 4 bytes @ 0x0
   708  0070                     	ds	1
   709  0071                     ??_Lcd_Cmd:
   710  0071                     ??_Lcd_Write_Char:	
   711                           ; 1 bytes @ 0x1
   712                           
   713                           
   714                           ; 1 bytes @ 0x1
   715  0071                     	ds	1
   716  0072                     ??__Umul8_16:
   717  0072                     DHT11_ReadData@i:	
   718                           ; 1 bytes @ 0x2
   719                           
   720  0072                     Lcd_Write_Char@a:	
   721                           ; 1 bytes @ 0x2
   722                           
   723  0072                     ___awdiv@dividend:	
   724                           ; 1 bytes @ 0x2
   725                           
   726                           
   727                           ; 2 bytes @ 0x2
   728  0072                     	ds	1
   729  0073                     ?_Lcd_Write_String:
   730  0073                     DHT11_ReadData@datos:	
   731                           ; 1 bytes @ 0x3
   732                           
   733  0073                     Lcd_Cmd@a:	
   734                           ; 1 bytes @ 0x3
   735                           
   736  0073                     Lcd_Write_String@a:	
   737                           ; 1 bytes @ 0x3
   738                           
   739                           
   740                           ; 2 bytes @ 0x3
   741  0073                     	ds	1
   742  0074                     ??_Lcd_Init:
   743  0074                     ??_Lcd_Clear:	
   744                           ; 1 bytes @ 0x4
   745                           
   746  0074                     ?_Lcd_Set_Cursor:	
   747                           ; 1 bytes @ 0x4
   748                           
   749  0074                     ??___awdiv:	
   750                           ; 1 bytes @ 0x4
   751                           
   752  0074                     ??___fltol:	
   753                           ; 1 bytes @ 0x4
   754                           
   755  0074                     Lcd_Set_Cursor@b:	
   756                           ; 1 bytes @ 0x4
   757                           
   758  0074                     __Umul8_16@product:	
   759                           ; 1 bytes @ 0x4
   760                           
   761  0074                     ___flge@ff2:	
   762                           ; 2 bytes @ 0x4
   763                           
   764  0074                     ___fladd@a:	
   765                           ; 4 bytes @ 0x4
   766                           
   767                           
   768                           ; 4 bytes @ 0x4
   769  0074                     	ds	1
   770  0075                     ??_Lcd_Set_Cursor:
   771  0075                     ??_Lcd_Write_String:	
   772                           ; 1 bytes @ 0x5
   773                           
   774  0075                     ___awdiv@counter:	
   775                           ; 1 bytes @ 0x5
   776                           
   777                           
   778                           ; 1 bytes @ 0x5
   779  0075                     	ds	1
   780  0076                     Lcd_Set_Cursor@a:
   781  0076                     ___awdiv@sign:	
   782                           ; 1 bytes @ 0x6
   783                           
   784  0076                     __Umul8_16@word_mpld:	
   785                           ; 1 bytes @ 0x6
   786                           
   787                           
   788                           ; 2 bytes @ 0x6
   789  0076                     	ds	1
   790  0077                     Lcd_Set_Cursor@temp:
   791  0077                     ___awdiv@quotient:	
   792                           ; 1 bytes @ 0x7
   793                           
   794                           
   795                           ; 2 bytes @ 0x7
   796  0077                     	ds	1
   797  0078                     ??___flge:
   798  0078                     ___fladd@signs:	
   799                           ; 1 bytes @ 0x8
   800                           
   801  0078                     __Umul8_16@multiplier:	
   802                           ; 1 bytes @ 0x8
   803                           
   804  0078                     Lcd_Write_String@i:	
   805                           ; 1 bytes @ 0x8
   806                           
   807                           
   808                           ; 2 bytes @ 0x8
   809  0078                     	ds	1
   810  0079                     ___fltol@sign1:
   811  0079                     ___fladd@aexp:	
   812                           ; 1 bytes @ 0x9
   813                           
   814                           
   815                           ; 1 bytes @ 0x9
   816  0079                     	ds	1
   817  007A                     ___fltol@exp1:
   818  007A                     ___fladd@bexp:	
   819                           ; 1 bytes @ 0xA
   820                           
   821                           
   822                           ; 1 bytes @ 0xA
   823  007A                     	ds	1
   824  007B                     ??___wmul:
   825  007B                     ___fladd@grs:	
   826                           ; 1 bytes @ 0xB
   827                           
   828  007B                     ___wmul@product:	
   829                           ; 1 bytes @ 0xB
   830                           
   831                           
   832                           ; 2 bytes @ 0xB
   833  007B                     	ds	2
   834  007D                     ??___flsub:
   835                           
   836                           	psect	cstackBANK0
   837  0020                     __pcstackBANK0:	
   838                           ; 1 bytes @ 0xD
   839                           
   840  0020                     ??___fladd:
   841  0020                     ?___wmul:	
   842                           ; 1 bytes @ 0x0
   843                           
   844  0020                     ___wmul@multiplier:	
   845                           ; 2 bytes @ 0x0
   846                           
   847                           
   848                           ; 2 bytes @ 0x0
   849  0020                     	ds	2
   850  0022                     ___wmul@multiplicand:
   851                           
   852                           ; 2 bytes @ 0x2
   853  0022                     	ds	2
   854  0024                     ?___xxtofl:
   855  0024                     ___xxtofl@val:	
   856                           ; 4 bytes @ 0x4
   857                           
   858                           
   859                           ; 4 bytes @ 0x4
   860  0024                     	ds	4
   861  0028                     ??___xxtofl:
   862                           
   863                           ; 1 bytes @ 0x8
   864  0028                     	ds	4
   865  002C                     ___xxtofl@sign:
   866                           
   867                           ; 1 bytes @ 0xC
   868  002C                     	ds	1
   869  002D                     ___xxtofl@exp:
   870                           
   871                           ; 1 bytes @ 0xD
   872  002D                     	ds	1
   873  002E                     ___xxtofl@arg:
   874                           
   875                           ; 4 bytes @ 0xE
   876  002E                     	ds	4
   877  0032                     ?___flsub:
   878  0032                     ?___fldiv:	
   879                           ; 4 bytes @ 0x12
   880                           
   881  0032                     ___flsub@a:	
   882                           ; 4 bytes @ 0x12
   883                           
   884  0032                     ___fldiv@a:	
   885                           ; 4 bytes @ 0x12
   886                           
   887                           
   888                           ; 4 bytes @ 0x12
   889  0032                     	ds	4
   890  0036                     ___flsub@b:
   891  0036                     ___fldiv@b:	
   892                           ; 4 bytes @ 0x16
   893                           
   894                           
   895                           ; 4 bytes @ 0x16
   896  0036                     	ds	4
   897  003A                     ??___fldiv:
   898  003A                     ?___flmul:	
   899                           ; 1 bytes @ 0x1A
   900                           
   901  003A                     ___flmul@b:	
   902                           ; 4 bytes @ 0x1A
   903                           
   904                           
   905                           ; 4 bytes @ 0x1A
   906  003A                     	ds	4
   907  003E                     ___flmul@a:
   908                           
   909                           ; 4 bytes @ 0x1E
   910  003E                     	ds	1
   911  003F                     ___fldiv@rem:
   912                           
   913                           ; 4 bytes @ 0x1F
   914  003F                     	ds	3
   915  0042                     ??___flmul:
   916                           
   917                           ; 1 bytes @ 0x22
   918  0042                     	ds	1
   919  0043                     ___fldiv@sign:
   920                           
   921                           ; 1 bytes @ 0x23
   922  0043                     	ds	1
   923  0044                     ___fldiv@new_exp:
   924                           
   925                           ; 2 bytes @ 0x24
   926  0044                     	ds	2
   927  0046                     ___fldiv@grs:
   928                           
   929                           ; 4 bytes @ 0x26
   930  0046                     	ds	1
   931  0047                     ___flmul@sign:
   932                           
   933                           ; 1 bytes @ 0x27
   934  0047                     	ds	1
   935  0048                     ___flmul@grs:
   936                           
   937                           ; 4 bytes @ 0x28
   938  0048                     	ds	2
   939  004A                     ___fldiv@bexp:
   940                           
   941                           ; 1 bytes @ 0x2A
   942  004A                     	ds	1
   943  004B                     ___fldiv@aexp:
   944                           
   945                           ; 1 bytes @ 0x2B
   946  004B                     	ds	1
   947  004C                     ___flmul@aexp:
   948                           
   949                           ; 1 bytes @ 0x2C
   950  004C                     	ds	1
   951  004D                     ___flmul@bexp:
   952                           
   953                           ; 1 bytes @ 0x2D
   954  004D                     	ds	1
   955  004E                     ___flmul@prod:
   956                           
   957                           ; 4 bytes @ 0x2E
   958  004E                     	ds	4
   959  0052                     ___flmul@temp:
   960                           
   961                           ; 2 bytes @ 0x32
   962  0052                     	ds	2
   963  0054                     ?_convert:
   964  0054                     convert@a:	
   965                           ; 1 bytes @ 0x34
   966                           
   967                           
   968                           ; 4 bytes @ 0x34
   969  0054                     	ds	4
   970  0058                     convert@place:
   971                           
   972                           ; 2 bytes @ 0x38
   973  0058                     	ds	2
   974  005A                     ??_convert:
   975                           
   976                           ; 1 bytes @ 0x3A
   977  005A                     	ds	2
   978  005C                     convert@temp:
   979                           
   980                           ; 2 bytes @ 0x3C
   981  005C                     	ds	2
   982  005E                     convert@j:
   983                           
   984                           ; 2 bytes @ 0x3E
   985  005E                     	ds	2
   986  0060                     convert@data:
   987                           
   988                           ; 1 bytes @ 0x40
   989  0060                     	ds	1
   990  0061                     convert@x:
   991                           
   992                           ; 4 bytes @ 0x41
   993  0061                     	ds	4
   994  0065                     convert@i:
   995                           
   996                           ; 2 bytes @ 0x45
   997  0065                     	ds	2
   998  0067                     convert@digits:
   999                           
  1000                           ; 2 bytes @ 0x47
  1001  0067                     	ds	2
  1002  0069                     convert@mu:
  1003                           
  1004                           ; 2 bytes @ 0x49
  1005  0069                     	ds	2
  1006                           
  1007                           	psect	maintext
  1008  09D0                     __pmaintext:	
  1009 ;;
  1010 ;;Main: autosize = 0, tempsize = 10, incstack = 0, save=0
  1011 ;;
  1012 ;; *************** function _main *****************
  1013 ;; Defined at:
  1014 ;;		line 60 in file "Slave_DHT11.c"
  1015 ;; Parameters:    Size  Location     Type
  1016 ;;		None
  1017 ;; Auto vars:     Size  Location     Type
  1018 ;;		None
  1019 ;; Return value:  Size  Location     Type
  1020 ;;                  1    wreg      void 
  1021 ;; Registers used:
  1022 ;;		wreg, fsr0l, fsr0h, status,2, status,0, btemp+1, pclath, cstack
  1023 ;; Tracked objects:
  1024 ;;		On entry : B00/0
  1025 ;;		On exit  : 0/0
  1026 ;;		Unchanged: 0/0
  1027 ;; Data sizes:     COMMON   BANK0   BANK1   BANK3   BANK2
  1028 ;;      Params:         0       0       0       0       0
  1029 ;;      Locals:         0       0       0       0       0
  1030 ;;      Temps:          0       0      10       0       0
  1031 ;;      Totals:         0       0      10       0       0
  1032 ;;Total ram usage:       10 bytes
  1033 ;; Hardware stack levels required when called:    3
  1034 ;; This function calls:
  1035 ;;		_DHT11_ReadData
  1036 ;;		_DHT11_response
  1037 ;;		_DHT11_start
  1038 ;;		_Lcd_Clear
  1039 ;;		_Lcd_Init
  1040 ;;		_Lcd_Set_Cursor
  1041 ;;		_Lcd_Write_String
  1042 ;;		___xxtofl
  1043 ;;		_config
  1044 ;;		_convert
  1045 ;; This function is called by:
  1046 ;;		Startup code after reset
  1047 ;; This function uses a non-reentrant model
  1048 ;;
  1049                           
  1050                           
  1051                           ;psect for function _main
  1052  09D0                     _main:
  1053  09D0                     l2765:	
  1054                           ;incstack = 0
  1055                           ; Regs used in _main: [wreg-fsr0h+status,2+status,0+btemp+1+pclath+cstack]
  1056                           
  1057                           
  1058                           ;Slave_DHT11.c: 61:     config();
  1059  09D0  160A  118A  2746  120A  158A  	fcall	_config
  1060                           
  1061                           ;Slave_DHT11.c: 62:     Lcd_Init();
  1062  09D5  120A  158A  2082  120A  158A  	fcall	_Lcd_Init
  1063                           
  1064                           ;Slave_DHT11.c: 63:     Lcd_Clear();
  1065  09DA  160A  118A  26EE  120A  158A  	fcall	_Lcd_Clear
  1066  09DF                     l119:	
  1067                           ;Slave_DHT11.c: 64:     while(1){
  1068                           
  1069                           
  1070                           ;Slave_DHT11.c: 66:         DHT11_start();
  1071  09DF  160A  118A  272B  120A  158A  	fcall	_DHT11_start
  1072  09E4                     l2767:
  1073                           
  1074                           ;Slave_DHT11.c: 67:         if(DHT11_response()){
  1075  09E4  160A  118A  27D4  120A  158A  	fcall	_DHT11_response
  1076  09E9  3A00               	xorlw	0
  1077  09EA  1903               	skipnz
  1078  09EB  29ED               	goto	u3751
  1079  09EC  29EE               	goto	u3750
  1080  09ED                     u3751:
  1081  09ED  2B79               	goto	l2805
  1082  09EE                     u3750:
  1083  09EE                     l2769:
  1084                           
  1085                           ;Slave_DHT11.c: 68:             DHT11_ReadData(&Hum1);
  1086  09EE  306D               	movlw	(low (_Hum1| 0))& (0+255)
  1087  09EF  120A  158A  200B  120A  158A  	fcall	_DHT11_ReadData
  1088                           
  1089                           ;Slave_DHT11.c: 69:             DHT11_ReadData(&dummyHum1);
  1090  09F4  306C               	movlw	(low (_dummyHum1| 0))& (0+255)
  1091  09F5  120A  158A  200B  120A  158A  	fcall	_DHT11_ReadData
  1092                           
  1093                           ;Slave_DHT11.c: 70:             DHT11_ReadData(&Temp1);
  1094  09FA  306F               	movlw	(low (_Temp1| 0))& (0+255)
  1095  09FB  120A  158A  200B  120A  158A  	fcall	_DHT11_ReadData
  1096                           
  1097                           ;Slave_DHT11.c: 71:             DHT11_ReadData(&dummyT1);
  1098  0A00  306E               	movlw	(low (_dummyT1| 0))& (0+255)
  1099  0A01  120A  158A  200B  120A  158A  	fcall	_DHT11_ReadData
  1100                           
  1101                           ;Slave_DHT11.c: 72:             DHT11_ReadData(&CHECKSUM);
  1102  0A06  306B               	movlw	(low (_CHECKSUM| 0))& (0+255)
  1103  0A07  120A  158A  200B  120A  158A  	fcall	_DHT11_ReadData
  1104  0A0C                     l2771:
  1105                           
  1106                           ;Slave_DHT11.c: 73:             PORTD++;
  1107  0A0C  3001               	movlw	1
  1108  0A0D  1683               	bsf	3,5	;RP0=1, select bank1
  1109  0A0E  1303               	bcf	3,6	;RP1=0, select bank1
  1110  0A0F  00C6               	movwf	??_main^(0+128)
  1111  0A10  0846               	movf	??_main^(0+128),w
  1112  0A11  1283               	bcf	3,5	;RP0=0, select bank0
  1113  0A12  1303               	bcf	3,6	;RP1=0, select bank0
  1114  0A13  0788               	addwf	8,f	;volatile
  1115  0A14                     l2773:
  1116                           
  1117                           ;Slave_DHT11.c: 75:             if(CHECKSUM == ((Hum1 + dummyHum1 + Temp1 + dummyT1) & 0
      +                          XFF)){
  1118  0A14  086D               	movf	_Hum1,w
  1119  0A15  076C               	addwf	_dummyHum1,w
  1120  0A16  1683               	bsf	3,5	;RP0=1, select bank1
  1121  0A17  1303               	bcf	3,6	;RP1=0, select bank1
  1122  0A18  00C6               	movwf	??_main^(0+128)
  1123  0A19  01C7               	clrf	(??_main^(0+128)+1)
  1124  0A1A  0DC7               	rlf	(??_main+1)^(0+128),f
  1125  0A1B  1283               	bcf	3,5	;RP0=0, select bank0
  1126  0A1C  1303               	bcf	3,6	;RP1=0, select bank0
  1127  0A1D  086F               	movf	_Temp1,w
  1128  0A1E  1683               	bsf	3,5	;RP0=1, select bank1
  1129  0A1F  1303               	bcf	3,6	;RP1=0, select bank1
  1130  0A20  0746               	addwf	??_main^(0+128),w
  1131  0A21  00C8               	movwf	(??_main+2)^(0+128)
  1132  0A22  3000               	movlw	0
  1133  0A23  1803               	skipnc
  1134  0A24  3001               	movlw	1
  1135  0A25  0747               	addwf	(??_main+1)^(0+128),w
  1136  0A26  00C9               	movwf	(??_main+3)^(0+128)
  1137  0A27  1283               	bcf	3,5	;RP0=0, select bank0
  1138  0A28  1303               	bcf	3,6	;RP1=0, select bank0
  1139  0A29  086E               	movf	_dummyT1,w
  1140  0A2A  1683               	bsf	3,5	;RP0=1, select bank1
  1141  0A2B  1303               	bcf	3,6	;RP1=0, select bank1
  1142  0A2C  0748               	addwf	(??_main+2)^(0+128),w
  1143  0A2D  00CA               	movwf	(??_main+4)^(0+128)
  1144  0A2E  3000               	movlw	0
  1145  0A2F  1803               	skipnc
  1146  0A30  3001               	movlw	1
  1147  0A31  0749               	addwf	(??_main+3)^(0+128),w
  1148  0A32  00CB               	movwf	(??_main+5)^(0+128)
  1149  0A33  30FF               	movlw	255
  1150  0A34  054A               	andwf	(??_main+4)^(0+128),w
  1151  0A35  00CC               	movwf	(??_main+6)^(0+128)
  1152  0A36  3000               	movlw	0
  1153  0A37  054B               	andwf	(??_main+5)^(0+128),w
  1154  0A38  00CD               	movwf	(??_main+7)^(0+128)
  1155  0A39  1283               	bcf	3,5	;RP0=0, select bank0
  1156  0A3A  1303               	bcf	3,6	;RP1=0, select bank0
  1157  0A3B  086B               	movf	_CHECKSUM,w
  1158  0A3C  1683               	bsf	3,5	;RP0=1, select bank1
  1159  0A3D  1303               	bcf	3,6	;RP1=0, select bank1
  1160  0A3E  00CE               	movwf	(??_main+8)^(0+128)
  1161  0A3F  01CF               	clrf	((??_main+8)^(0+128)+1)
  1162  0A40  084D               	movf	(??_main+7)^(0+128),w
  1163  0A41  064F               	xorwf	(??_main+9)^(0+128),w
  1164  0A42  1D03               	skipz
  1165  0A43  2A46               	goto	u3765
  1166  0A44  084C               	movf	(??_main+6)^(0+128),w
  1167  0A45  064E               	xorwf	(??_main+8)^(0+128),w
  1168  0A46                     u3765:
  1169  0A46  1D03               	skipz
  1170  0A47  2A49               	goto	u3761
  1171  0A48  2A4A               	goto	u3760
  1172  0A49                     u3761:
  1173  0A49  2B63               	goto	l2801
  1174  0A4A                     u3760:
  1175  0A4A                     l2775:
  1176                           
  1177                           ;Slave_DHT11.c: 77:                 conv0 = 0;
  1178  0A4A  3000               	movlw	0
  1179  0A4B  00B1               	movwf	(_conv0+3)^(0+128)
  1180  0A4C  3000               	movlw	0
  1181  0A4D  00B0               	movwf	(_conv0+2)^(0+128)
  1182  0A4E  3000               	movlw	0
  1183  0A4F  00AF               	movwf	(_conv0+1)^(0+128)
  1184  0A50  3000               	movlw	0
  1185  0A51  00AE               	movwf	_conv0^(0+128)
  1186                           
  1187                           ;Slave_DHT11.c: 78:                 conv1 = 0;
  1188  0A52  3000               	movlw	0
  1189  0A53  00AD               	movwf	(_conv1+3)^(0+128)
  1190  0A54  3000               	movlw	0
  1191  0A55  00AC               	movwf	(_conv1+2)^(0+128)
  1192  0A56  3000               	movlw	0
  1193  0A57  00AB               	movwf	(_conv1+1)^(0+128)
  1194  0A58  3000               	movlw	0
  1195  0A59  00AA               	movwf	_conv1^(0+128)
  1196  0A5A                     l2777:
  1197                           
  1198                           ;Slave_DHT11.c: 79:                 conv0 = Hum1;
  1199  0A5A  1283               	bcf	3,5	;RP0=0, select bank0
  1200  0A5B  1303               	bcf	3,6	;RP1=0, select bank0
  1201  0A5C  086D               	movf	_Hum1,w
  1202  0A5D  1683               	bsf	3,5	;RP0=1, select bank1
  1203  0A5E  1303               	bcf	3,6	;RP1=0, select bank1
  1204  0A5F  00C6               	movwf	??_main^(0+128)
  1205  0A60  01C7               	clrf	(??_main^(0+128)+1)
  1206  0A61  01C8               	clrf	(??_main^(0+128)+2)
  1207  0A62  01C9               	clrf	(??_main^(0+128)+3)
  1208  0A63  0849               	movf	(??_main+3)^(0+128),w
  1209  0A64  1283               	bcf	3,5	;RP0=0, select bank0
  1210  0A65  1303               	bcf	3,6	;RP1=0, select bank0
  1211  0A66  00A7               	movwf	___xxtofl@val+3
  1212  0A67  1683               	bsf	3,5	;RP0=1, select bank1
  1213  0A68  1303               	bcf	3,6	;RP1=0, select bank1
  1214  0A69  0848               	movf	(??_main+2)^(0+128),w
  1215  0A6A  1283               	bcf	3,5	;RP0=0, select bank0
  1216  0A6B  1303               	bcf	3,6	;RP1=0, select bank0
  1217  0A6C  00A6               	movwf	___xxtofl@val+2
  1218  0A6D  1683               	bsf	3,5	;RP0=1, select bank1
  1219  0A6E  1303               	bcf	3,6	;RP1=0, select bank1
  1220  0A6F  0847               	movf	(??_main+1)^(0+128),w
  1221  0A70  1283               	bcf	3,5	;RP0=0, select bank0
  1222  0A71  1303               	bcf	3,6	;RP1=0, select bank0
  1223  0A72  00A5               	movwf	___xxtofl@val+1
  1224  0A73  1683               	bsf	3,5	;RP0=1, select bank1
  1225  0A74  1303               	bcf	3,6	;RP1=0, select bank1
  1226  0A75  0846               	movf	??_main^(0+128),w
  1227  0A76  1283               	bcf	3,5	;RP0=0, select bank0
  1228  0A77  1303               	bcf	3,6	;RP1=0, select bank0
  1229  0A78  00A4               	movwf	___xxtofl@val
  1230  0A79  3000               	movlw	0
  1231  0A7A  120A  118A  20A2  120A  158A  	fcall	___xxtofl
  1232  0A7F  1283               	bcf	3,5	;RP0=0, select bank0
  1233  0A80  1303               	bcf	3,6	;RP1=0, select bank0
  1234  0A81  0827               	movf	?___xxtofl+3,w
  1235  0A82  1683               	bsf	3,5	;RP0=1, select bank1
  1236  0A83  1303               	bcf	3,6	;RP1=0, select bank1
  1237  0A84  00B1               	movwf	(_conv0+3)^(0+128)
  1238  0A85  1283               	bcf	3,5	;RP0=0, select bank0
  1239  0A86  1303               	bcf	3,6	;RP1=0, select bank0
  1240  0A87  0826               	movf	?___xxtofl+2,w
  1241  0A88  1683               	bsf	3,5	;RP0=1, select bank1
  1242  0A89  1303               	bcf	3,6	;RP1=0, select bank1
  1243  0A8A  00B0               	movwf	(_conv0+2)^(0+128)
  1244  0A8B  1283               	bcf	3,5	;RP0=0, select bank0
  1245  0A8C  1303               	bcf	3,6	;RP1=0, select bank0
  1246  0A8D  0825               	movf	?___xxtofl+1,w
  1247  0A8E  1683               	bsf	3,5	;RP0=1, select bank1
  1248  0A8F  1303               	bcf	3,6	;RP1=0, select bank1
  1249  0A90  00AF               	movwf	(_conv0+1)^(0+128)
  1250  0A91  1283               	bcf	3,5	;RP0=0, select bank0
  1251  0A92  1303               	bcf	3,6	;RP1=0, select bank0
  1252  0A93  0824               	movf	?___xxtofl,w
  1253  0A94  1683               	bsf	3,5	;RP0=1, select bank1
  1254  0A95  1303               	bcf	3,6	;RP1=0, select bank1
  1255  0A96  00AE               	movwf	_conv0^(0+128)
  1256  0A97                     l2779:
  1257                           
  1258                           ;Slave_DHT11.c: 80:                 conv1 = Temp1;
  1259  0A97  1283               	bcf	3,5	;RP0=0, select bank0
  1260  0A98  1303               	bcf	3,6	;RP1=0, select bank0
  1261  0A99  086F               	movf	_Temp1,w
  1262  0A9A  1683               	bsf	3,5	;RP0=1, select bank1
  1263  0A9B  1303               	bcf	3,6	;RP1=0, select bank1
  1264  0A9C  00C6               	movwf	??_main^(0+128)
  1265  0A9D  01C7               	clrf	(??_main^(0+128)+1)
  1266  0A9E  01C8               	clrf	(??_main^(0+128)+2)
  1267  0A9F  01C9               	clrf	(??_main^(0+128)+3)
  1268  0AA0  0849               	movf	(??_main+3)^(0+128),w
  1269  0AA1  1283               	bcf	3,5	;RP0=0, select bank0
  1270  0AA2  1303               	bcf	3,6	;RP1=0, select bank0
  1271  0AA3  00A7               	movwf	___xxtofl@val+3
  1272  0AA4  1683               	bsf	3,5	;RP0=1, select bank1
  1273  0AA5  1303               	bcf	3,6	;RP1=0, select bank1
  1274  0AA6  0848               	movf	(??_main+2)^(0+128),w
  1275  0AA7  1283               	bcf	3,5	;RP0=0, select bank0
  1276  0AA8  1303               	bcf	3,6	;RP1=0, select bank0
  1277  0AA9  00A6               	movwf	___xxtofl@val+2
  1278  0AAA  1683               	bsf	3,5	;RP0=1, select bank1
  1279  0AAB  1303               	bcf	3,6	;RP1=0, select bank1
  1280  0AAC  0847               	movf	(??_main+1)^(0+128),w
  1281  0AAD  1283               	bcf	3,5	;RP0=0, select bank0
  1282  0AAE  1303               	bcf	3,6	;RP1=0, select bank0
  1283  0AAF  00A5               	movwf	___xxtofl@val+1
  1284  0AB0  1683               	bsf	3,5	;RP0=1, select bank1
  1285  0AB1  1303               	bcf	3,6	;RP1=0, select bank1
  1286  0AB2  0846               	movf	??_main^(0+128),w
  1287  0AB3  1283               	bcf	3,5	;RP0=0, select bank0
  1288  0AB4  1303               	bcf	3,6	;RP1=0, select bank0
  1289  0AB5  00A4               	movwf	___xxtofl@val
  1290  0AB6  3000               	movlw	0
  1291  0AB7  120A  118A  20A2  120A  158A  	fcall	___xxtofl
  1292  0ABC  1283               	bcf	3,5	;RP0=0, select bank0
  1293  0ABD  1303               	bcf	3,6	;RP1=0, select bank0
  1294  0ABE  0827               	movf	?___xxtofl+3,w
  1295  0ABF  1683               	bsf	3,5	;RP0=1, select bank1
  1296  0AC0  1303               	bcf	3,6	;RP1=0, select bank1
  1297  0AC1  00AD               	movwf	(_conv1+3)^(0+128)
  1298  0AC2  1283               	bcf	3,5	;RP0=0, select bank0
  1299  0AC3  1303               	bcf	3,6	;RP1=0, select bank0
  1300  0AC4  0826               	movf	?___xxtofl+2,w
  1301  0AC5  1683               	bsf	3,5	;RP0=1, select bank1
  1302  0AC6  1303               	bcf	3,6	;RP1=0, select bank1
  1303  0AC7  00AC               	movwf	(_conv1+2)^(0+128)
  1304  0AC8  1283               	bcf	3,5	;RP0=0, select bank0
  1305  0AC9  1303               	bcf	3,6	;RP1=0, select bank0
  1306  0ACA  0825               	movf	?___xxtofl+1,w
  1307  0ACB  1683               	bsf	3,5	;RP0=1, select bank1
  1308  0ACC  1303               	bcf	3,6	;RP1=0, select bank1
  1309  0ACD  00AB               	movwf	(_conv1+1)^(0+128)
  1310  0ACE  1283               	bcf	3,5	;RP0=0, select bank0
  1311  0ACF  1303               	bcf	3,6	;RP1=0, select bank0
  1312  0AD0  0824               	movf	?___xxtofl,w
  1313  0AD1  1683               	bsf	3,5	;RP0=1, select bank1
  1314  0AD2  1303               	bcf	3,6	;RP1=0, select bank1
  1315  0AD3  00AA               	movwf	_conv1^(0+128)
  1316  0AD4                     l2781:
  1317                           
  1318                           ;Slave_DHT11.c: 81:                 convert(humedad, conv0, 2);
  1319  0AD4  0831               	movf	(_conv0+3)^(0+128),w
  1320  0AD5  1283               	bcf	3,5	;RP0=0, select bank0
  1321  0AD6  1303               	bcf	3,6	;RP1=0, select bank0
  1322  0AD7  00D7               	movwf	convert@a+3
  1323  0AD8  1683               	bsf	3,5	;RP0=1, select bank1
  1324  0AD9  1303               	bcf	3,6	;RP1=0, select bank1
  1325  0ADA  0830               	movf	(_conv0+2)^(0+128),w
  1326  0ADB  1283               	bcf	3,5	;RP0=0, select bank0
  1327  0ADC  1303               	bcf	3,6	;RP1=0, select bank0
  1328  0ADD  00D6               	movwf	convert@a+2
  1329  0ADE  1683               	bsf	3,5	;RP0=1, select bank1
  1330  0ADF  1303               	bcf	3,6	;RP1=0, select bank1
  1331  0AE0  082F               	movf	(_conv0+1)^(0+128),w
  1332  0AE1  1283               	bcf	3,5	;RP0=0, select bank0
  1333  0AE2  1303               	bcf	3,6	;RP1=0, select bank0
  1334  0AE3  00D5               	movwf	convert@a+1
  1335  0AE4  1683               	bsf	3,5	;RP0=1, select bank1
  1336  0AE5  1303               	bcf	3,6	;RP1=0, select bank1
  1337  0AE6  082E               	movf	_conv0^(0+128),w
  1338  0AE7  1283               	bcf	3,5	;RP0=0, select bank0
  1339  0AE8  1303               	bcf	3,6	;RP1=0, select bank0
  1340  0AE9  00D4               	movwf	convert@a
  1341  0AEA  3002               	movlw	2
  1342  0AEB  00D8               	movwf	convert@place
  1343  0AEC  3000               	movlw	0
  1344  0AED  00D9               	movwf	convert@place+1
  1345  0AEE  30B2               	movlw	(low (_humedad| 0))& (0+255)
  1346  0AEF  120A  118A  215E  120A  158A  	fcall	_convert
  1347  0AF4                     l2783:
  1348                           
  1349                           ;Slave_DHT11.c: 82:                 convert(temperatura, conv1, 2);
  1350  0AF4  1683               	bsf	3,5	;RP0=1, select bank1
  1351  0AF5  1303               	bcf	3,6	;RP1=0, select bank1
  1352  0AF6  082D               	movf	(_conv1+3)^(0+128),w
  1353  0AF7  1283               	bcf	3,5	;RP0=0, select bank0
  1354  0AF8  1303               	bcf	3,6	;RP1=0, select bank0
  1355  0AF9  00D7               	movwf	convert@a+3
  1356  0AFA  1683               	bsf	3,5	;RP0=1, select bank1
  1357  0AFB  1303               	bcf	3,6	;RP1=0, select bank1
  1358  0AFC  082C               	movf	(_conv1+2)^(0+128),w
  1359  0AFD  1283               	bcf	3,5	;RP0=0, select bank0
  1360  0AFE  1303               	bcf	3,6	;RP1=0, select bank0
  1361  0AFF  00D6               	movwf	convert@a+2
  1362  0B00  1683               	bsf	3,5	;RP0=1, select bank1
  1363  0B01  1303               	bcf	3,6	;RP1=0, select bank1
  1364  0B02  082B               	movf	(_conv1+1)^(0+128),w
  1365  0B03  1283               	bcf	3,5	;RP0=0, select bank0
  1366  0B04  1303               	bcf	3,6	;RP1=0, select bank0
  1367  0B05  00D5               	movwf	convert@a+1
  1368  0B06  1683               	bsf	3,5	;RP0=1, select bank1
  1369  0B07  1303               	bcf	3,6	;RP1=0, select bank1
  1370  0B08  082A               	movf	_conv1^(0+128),w
  1371  0B09  1283               	bcf	3,5	;RP0=0, select bank0
  1372  0B0A  1303               	bcf	3,6	;RP1=0, select bank0
  1373  0B0B  00D4               	movwf	convert@a
  1374  0B0C  3002               	movlw	2
  1375  0B0D  00D8               	movwf	convert@place
  1376  0B0E  3000               	movlw	0
  1377  0B0F  00D9               	movwf	convert@place+1
  1378  0B10  30BC               	movlw	(low (_temperatura| 0))& (0+255)
  1379  0B11  120A  118A  215E  120A  158A  	fcall	_convert
  1380  0B16                     l2785:
  1381                           
  1382                           ;Slave_DHT11.c: 84:                 Lcd_Set_Cursor(1, 1);
  1383  0B16  01F4               	clrf	Lcd_Set_Cursor@b
  1384  0B17  0AF4               	incf	Lcd_Set_Cursor@b,f
  1385  0B18  3001               	movlw	1
  1386  0B19  160A  118A  2762  120A  158A  	fcall	_Lcd_Set_Cursor
  1387  0B1E                     l2787:
  1388                           
  1389                           ;Slave_DHT11.c: 85:                 Lcd_Write_String("hum:");
  1390  0B1E  3016               	movlw	(low ((STR_1-__stringbase)| (0+32768)))& (0+255)
  1391  0B1F  00F3               	movwf	Lcd_Write_String@a
  1392  0B20  3080               	movlw	128
  1393  0B21  00F4               	movwf	Lcd_Write_String@a+1
  1394  0B22  120A  158A  2040  120A  158A  	fcall	_Lcd_Write_String
  1395  0B27                     l2789:
  1396                           
  1397                           ;Slave_DHT11.c: 86:                 Lcd_Set_Cursor(1, 8);
  1398  0B27  3008               	movlw	8
  1399  0B28  1683               	bsf	3,5	;RP0=1, select bank1
  1400  0B29  1303               	bcf	3,6	;RP1=0, select bank1
  1401  0B2A  00C6               	movwf	??_main^(0+128)
  1402  0B2B  0846               	movf	??_main^(0+128),w
  1403  0B2C  00F4               	movwf	Lcd_Set_Cursor@b
  1404  0B2D  3001               	movlw	1
  1405  0B2E  160A  118A  2762  120A  158A  	fcall	_Lcd_Set_Cursor
  1406  0B33                     l2791:
  1407                           
  1408                           ;Slave_DHT11.c: 87:                 Lcd_Write_String("Temp:");
  1409  0B33  3010               	movlw	(low ((STR_2-__stringbase)| (0+32768)))& (0+255)
  1410  0B34  00F3               	movwf	Lcd_Write_String@a
  1411  0B35  3080               	movlw	128
  1412  0B36  00F4               	movwf	Lcd_Write_String@a+1
  1413  0B37  120A  158A  2040  120A  158A  	fcall	_Lcd_Write_String
  1414  0B3C                     l2793:
  1415                           
  1416                           ;Slave_DHT11.c: 88:                 Lcd_Set_Cursor(2, 1);
  1417  0B3C  01F4               	clrf	Lcd_Set_Cursor@b
  1418  0B3D  0AF4               	incf	Lcd_Set_Cursor@b,f
  1419  0B3E  3002               	movlw	2
  1420  0B3F  160A  118A  2762  120A  158A  	fcall	_Lcd_Set_Cursor
  1421  0B44                     l2795:
  1422                           
  1423                           ;Slave_DHT11.c: 89:                 Lcd_Write_String(humedad);
  1424  0B44  30B2               	movlw	(low (_humedad| 0))& (0+255)
  1425  0B45  00F3               	movwf	Lcd_Write_String@a
  1426  0B46  3000               	movlw	0
  1427  0B47  00F4               	movwf	Lcd_Write_String@a+1
  1428  0B48  120A  158A  2040  120A  158A  	fcall	_Lcd_Write_String
  1429  0B4D                     l2797:
  1430                           
  1431                           ;Slave_DHT11.c: 90:                 Lcd_Set_Cursor(2, 7);
  1432  0B4D  3007               	movlw	7
  1433  0B4E  1683               	bsf	3,5	;RP0=1, select bank1
  1434  0B4F  1303               	bcf	3,6	;RP1=0, select bank1
  1435  0B50  00C6               	movwf	??_main^(0+128)
  1436  0B51  0846               	movf	??_main^(0+128),w
  1437  0B52  00F4               	movwf	Lcd_Set_Cursor@b
  1438  0B53  3002               	movlw	2
  1439  0B54  160A  118A  2762  120A  158A  	fcall	_Lcd_Set_Cursor
  1440  0B59                     l2799:
  1441                           
  1442                           ;Slave_DHT11.c: 91:                 Lcd_Write_String(temperatura);
  1443  0B59  30BC               	movlw	(low (_temperatura| 0))& (0+255)
  1444  0B5A  00F3               	movwf	Lcd_Write_String@a
  1445  0B5B  3000               	movlw	0
  1446  0B5C  00F4               	movwf	Lcd_Write_String@a+1
  1447  0B5D  120A  158A  2040  120A  158A  	fcall	_Lcd_Write_String
  1448                           
  1449                           ;Slave_DHT11.c: 93:             }
  1450  0B62  2B79               	goto	l2805
  1451  0B63                     l2801:
  1452                           
  1453                           ;Slave_DHT11.c: 95:                 Lcd_Clear();
  1454  0B63  160A  118A  26EE  120A  158A  	fcall	_Lcd_Clear
  1455                           
  1456                           ;Slave_DHT11.c: 96:                 Lcd_Set_Cursor(1,1);
  1457  0B68  01F4               	clrf	Lcd_Set_Cursor@b
  1458  0B69  0AF4               	incf	Lcd_Set_Cursor@b,f
  1459  0B6A  3001               	movlw	1
  1460  0B6B  160A  118A  2762  120A  158A  	fcall	_Lcd_Set_Cursor
  1461  0B70                     l2803:
  1462                           
  1463                           ;Slave_DHT11.c: 97:                 Lcd_Write_String("error en datos");
  1464  0B70  3001               	movlw	(low ((STR_3-__stringbase)| (0+32768)))& (0+255)
  1465  0B71  00F3               	movwf	Lcd_Write_String@a
  1466  0B72  3080               	movlw	128
  1467  0B73  00F4               	movwf	Lcd_Write_String@a+1
  1468  0B74  120A  158A  2040  120A  158A  	fcall	_Lcd_Write_String
  1469  0B79                     l2805:
  1470                           
  1471                           ;Slave_DHT11.c: 100:         _delay((unsigned long)((500)*(8000000/4000.0)));
  1472  0B79  3006               	movlw	6
  1473  0B7A  1683               	bsf	3,5	;RP0=1, select bank1
  1474  0B7B  1303               	bcf	3,6	;RP1=0, select bank1
  1475  0B7C  00C8               	movwf	(??_main^(0+128)+2)
  1476  0B7D  3013               	movlw	19
  1477  0B7E  00C7               	movwf	(??_main^(0+128)+1)
  1478  0B7F  30AD               	movlw	173
  1479  0B80  00C6               	movwf	??_main^(0+128)
  1480  0B81                     u3777:
  1481  0B81  0BC6               	decfsz	??_main^(0+128),f
  1482  0B82  2B81               	goto	u3777
  1483  0B83  0BC7               	decfsz	(??_main^(0+128)+1),f
  1484  0B84  2B81               	goto	u3777
  1485  0B85  0BC8               	decfsz	(??_main^(0+128)+2),f
  1486  0B86  2B81               	goto	u3777
  1487  0B87  29DF               	goto	l119
  1488  0B88  120A  118A  2800   	ljmp	start
  1489  0B8B                     __end_of_main:
  1490                           
  1491                           	psect	text1
  1492  015E                     __ptext1:	
  1493 ;; *************** function _convert *****************
  1494 ;; Defined at:
  1495 ;;		line 66 in file "ADC.c"
  1496 ;; Parameters:    Size  Location     Type
  1497 ;;  data            1    wreg     PTR unsigned char 
  1498 ;;		 -> temperatura(10), humedad(10), 
  1499 ;;  a               4   52[BANK0 ] float 
  1500 ;;  place           2   56[BANK0 ] int 
  1501 ;; Auto vars:     Size  Location     Type
  1502 ;;  data            1   64[BANK0 ] PTR unsigned char 
  1503 ;;		 -> temperatura(10), humedad(10), 
  1504 ;;  x               4   65[BANK0 ] float 
  1505 ;;  mu              2   73[BANK0 ] int 
  1506 ;;  digits          2   71[BANK0 ] int 
  1507 ;;  i               2   69[BANK0 ] int 
  1508 ;;  j               2   62[BANK0 ] int 
  1509 ;;  temp            2   60[BANK0 ] int 
  1510 ;; Return value:  Size  Location     Type
  1511 ;;                  1    wreg      void 
  1512 ;; Registers used:
  1513 ;;		wreg, fsr0l, fsr0h, status,2, status,0, btemp+1, pclath, cstack
  1514 ;; Tracked objects:
  1515 ;;		On entry : 0/0
  1516 ;;		On exit  : 0/0
  1517 ;;		Unchanged: 0/0
  1518 ;; Data sizes:     COMMON   BANK0   BANK1   BANK3   BANK2
  1519 ;;      Params:         0       6       0       0       0
  1520 ;;      Locals:         0      15       0       0       0
  1521 ;;      Temps:          0       2       0       0       0
  1522 ;;      Totals:         0      23       0       0       0
  1523 ;;Total ram usage:       23 bytes
  1524 ;; Hardware stack levels used:    1
  1525 ;; Hardware stack levels required when called:    2
  1526 ;; This function calls:
  1527 ;;		___awdiv
  1528 ;;		___fldiv
  1529 ;;		___flge
  1530 ;;		___flmul
  1531 ;;		___flsub
  1532 ;;		___fltol
  1533 ;;		___wmul
  1534 ;;		___xxtofl
  1535 ;; This function is called by:
  1536 ;;		_main
  1537 ;; This function uses a non-reentrant model
  1538 ;;
  1539                           
  1540                           
  1541                           ;psect for function _convert
  1542  015E                     _convert:
  1543                           
  1544                           ;incstack = 0
  1545                           ; Regs used in _convert: [wreg-fsr0h+status,2+status,0+btemp+1+pclath+cstack]
  1546                           ;convert@data stored from wreg
  1547  015E  1283               	bcf	3,5	;RP0=0, select bank0
  1548  015F  1303               	bcf	3,6	;RP1=0, select bank0
  1549  0160  00E0               	movwf	convert@data
  1550  0161                     l2643:
  1551                           
  1552                           ;ADC.c: 66: void convert(char *data,float a, int place);ADC.c: 67: {;ADC.c: 68:      int
      +                           temp=a;
  1553  0161  0857               	movf	convert@a+3,w
  1554  0162  00F3               	movwf	___fltol@f1+3
  1555  0163  0856               	movf	convert@a+2,w
  1556  0164  00F2               	movwf	___fltol@f1+2
  1557  0165  0855               	movf	convert@a+1,w
  1558  0166  00F1               	movwf	___fltol@f1+1
  1559  0167  0854               	movf	convert@a,w
  1560  0168  00F0               	movwf	___fltol@f1
  1561  0169  120A  118A  2028  120A  118A  	fcall	___fltol
  1562  016E  0871               	movf	?___fltol+1,w
  1563  016F  1283               	bcf	3,5	;RP0=0, select bank0
  1564  0170  1303               	bcf	3,6	;RP1=0, select bank0
  1565  0171  00DD               	movwf	convert@temp+1
  1566  0172  0870               	movf	?___fltol,w
  1567  0173  00DC               	movwf	convert@temp
  1568  0174                     l2645:
  1569  0174                     l2647:
  1570                           
  1571                           ;ADC.c: 70:      int digits=0;
  1572  0174  01E7               	clrf	convert@digits
  1573  0175  01E8               	clrf	convert@digits+1
  1574  0176                     l2649:
  1575                           
  1576                           ;ADC.c: 71:      int i=0,mu=1;
  1577  0176  01E5               	clrf	convert@i
  1578  0177  01E6               	clrf	convert@i+1
  1579  0178                     l2651:
  1580  0178  3001               	movlw	1
  1581  0179  00E9               	movwf	convert@mu
  1582  017A  3000               	movlw	0
  1583  017B  00EA               	movwf	convert@mu+1
  1584  017C                     l2653:
  1585  017C                     l2655:
  1586                           
  1587                           ;ADC.c: 73:      if(a<0)
  1588  017C  0857               	movf	convert@a+3,w
  1589  017D  00F3               	movwf	___flge@ff1+3
  1590  017E  0856               	movf	convert@a+2,w
  1591  017F  00F2               	movwf	___flge@ff1+2
  1592  0180  0855               	movf	convert@a+1,w
  1593  0181  00F1               	movwf	___flge@ff1+1
  1594  0182  0854               	movf	convert@a,w
  1595  0183  00F0               	movwf	___flge@ff1
  1596  0184  3000               	movlw	0
  1597  0185  00F7               	movwf	___flge@ff2+3
  1598  0186  3000               	movlw	0
  1599  0187  00F6               	movwf	___flge@ff2+2
  1600  0188  3000               	movlw	0
  1601  0189  00F5               	movwf	___flge@ff2+1
  1602  018A  3000               	movlw	0
  1603  018B  00F4               	movwf	___flge@ff2
  1604  018C  120A  158A  212E  120A  118A  	fcall	___flge
  1605  0191  1803               	btfsc	3,0
  1606  0192  2994               	goto	u3611
  1607  0193  2995               	goto	u3610
  1608  0194                     u3611:
  1609  0194  29DD               	goto	l2667
  1610  0195                     u3610:
  1611  0195                     l2657:
  1612                           
  1613                           ;ADC.c: 74:      {;ADC.c: 75:             a=a*-1;
  1614  0195  30BF               	movlw	191
  1615  0196  1283               	bcf	3,5	;RP0=0, select bank0
  1616  0197  1303               	bcf	3,6	;RP1=0, select bank0
  1617  0198  00BD               	movwf	___flmul@b+3
  1618  0199  3080               	movlw	128
  1619  019A  00BC               	movwf	___flmul@b+2
  1620  019B  3000               	movlw	0
  1621  019C  00BB               	movwf	___flmul@b+1
  1622  019D  3000               	movlw	0
  1623  019E  00BA               	movwf	___flmul@b
  1624  019F  0857               	movf	convert@a+3,w
  1625  01A0  00C1               	movwf	___flmul@a+3
  1626  01A1  0856               	movf	convert@a+2,w
  1627  01A2  00C0               	movwf	___flmul@a+2
  1628  01A3  0855               	movf	convert@a+1,w
  1629  01A4  00BF               	movwf	___flmul@a+1
  1630  01A5  0854               	movf	convert@a,w
  1631  01A6  00BE               	movwf	___flmul@a
  1632  01A7  120A  118A  248A  120A  118A  	fcall	___flmul
  1633  01AC  1283               	bcf	3,5	;RP0=0, select bank0
  1634  01AD  1303               	bcf	3,6	;RP1=0, select bank0
  1635  01AE  083D               	movf	?___flmul+3,w
  1636  01AF  00D7               	movwf	convert@a+3
  1637  01B0  083C               	movf	?___flmul+2,w
  1638  01B1  00D6               	movwf	convert@a+2
  1639  01B2  083B               	movf	?___flmul+1,w
  1640  01B3  00D5               	movwf	convert@a+1
  1641  01B4  083A               	movf	?___flmul,w
  1642  01B5  00D4               	movwf	convert@a
  1643  01B6                     l2659:
  1644                           
  1645                           ;ADC.c: 76:             data[i]='-';
  1646  01B6  302D               	movlw	45
  1647  01B7  00DA               	movwf	??_convert
  1648  01B8  0860               	movf	convert@data,w
  1649  01B9  0084               	movwf	4
  1650  01BA  085A               	movf	??_convert,w
  1651  01BB  1383               	bcf	3,7	;select IRP bank0
  1652  01BC  0080               	movwf	0
  1653  01BD                     l2661:
  1654                           
  1655                           ;ADC.c: 77:             i++;
  1656  01BD  3001               	movlw	1
  1657  01BE  07E5               	addwf	convert@i,f
  1658  01BF  1803               	skipnc
  1659  01C0  0AE6               	incf	convert@i+1,f
  1660  01C1  3000               	movlw	0
  1661  01C2  07E6               	addwf	convert@i+1,f
  1662  01C3  29DD               	goto	l2667
  1663  01C4                     l2663:
  1664                           
  1665                           ;ADC.c: 81:      {;ADC.c: 82:          temp=temp/10;
  1666  01C4  300A               	movlw	10
  1667  01C5  00F0               	movwf	___awdiv@divisor
  1668  01C6  3000               	movlw	0
  1669  01C7  00F1               	movwf	___awdiv@divisor+1
  1670  01C8  085D               	movf	convert@temp+1,w
  1671  01C9  00F3               	movwf	___awdiv@dividend+1
  1672  01CA  085C               	movf	convert@temp,w
  1673  01CB  00F2               	movwf	___awdiv@dividend
  1674  01CC  120A  158A  20C7  120A  118A  	fcall	___awdiv
  1675  01D1  0871               	movf	?___awdiv+1,w
  1676  01D2  1283               	bcf	3,5	;RP0=0, select bank0
  1677  01D3  1303               	bcf	3,6	;RP1=0, select bank0
  1678  01D4  00DD               	movwf	convert@temp+1
  1679  01D5  0870               	movf	?___awdiv,w
  1680  01D6  00DC               	movwf	convert@temp
  1681  01D7                     l2665:
  1682                           
  1683                           ;ADC.c: 83:          digits++;
  1684  01D7  3001               	movlw	1
  1685  01D8  07E7               	addwf	convert@digits,f
  1686  01D9  1803               	skipnc
  1687  01DA  0AE8               	incf	convert@digits+1,f
  1688  01DB  3000               	movlw	0
  1689  01DC  07E8               	addwf	convert@digits+1,f
  1690  01DD                     l2667:
  1691                           
  1692                           ;ADC.c: 80:      while(temp!=0)
  1693  01DD  1283               	bcf	3,5	;RP0=0, select bank0
  1694  01DE  1303               	bcf	3,6	;RP1=0, select bank0
  1695  01DF  085C               	movf	convert@temp,w
  1696  01E0  045D               	iorwf	convert@temp+1,w
  1697  01E1  1D03               	btfss	3,2
  1698  01E2  29E4               	goto	u3621
  1699  01E3  29E5               	goto	u3620
  1700  01E4                     u3621:
  1701  01E4  29C4               	goto	l2663
  1702  01E5                     u3620:
  1703  01E5  2AC9               	goto	l2691
  1704  01E6                     l2669:
  1705                           
  1706                           ;ADC.c: 86:      {;ADC.c: 87:          if(digits==1)mu=1;
  1707  01E6  0367               	decf	convert@digits,w
  1708  01E7  0468               	iorwf	convert@digits+1,w
  1709  01E8  1D03               	btfss	3,2
  1710  01E9  29EB               	goto	u3631
  1711  01EA  29EC               	goto	u3630
  1712  01EB                     u3631:
  1713  01EB  29F1               	goto	l2673
  1714  01EC                     u3630:
  1715  01EC                     l2671:
  1716  01EC  3001               	movlw	1
  1717  01ED  00E9               	movwf	convert@mu
  1718  01EE  3000               	movlw	0
  1719  01EF  00EA               	movwf	convert@mu+1
  1720  01F0  2A1F               	goto	l2681
  1721  01F1                     l2673:
  1722  01F1  3002               	movlw	2
  1723  01F2  00DE               	movwf	convert@j
  1724  01F3  3000               	movlw	0
  1725  01F4  00DF               	movwf	convert@j+1
  1726  01F5  2A11               	goto	l2679
  1727  01F6                     l2675:
  1728  01F6  1283               	bcf	3,5	;RP0=0, select bank0
  1729  01F7  1303               	bcf	3,6	;RP1=0, select bank0
  1730  01F8  086A               	movf	convert@mu+1,w
  1731  01F9  00A1               	movwf	___wmul@multiplier+1
  1732  01FA  0869               	movf	convert@mu,w
  1733  01FB  00A0               	movwf	___wmul@multiplier
  1734  01FC  300A               	movlw	10
  1735  01FD  00A2               	movwf	___wmul@multiplicand
  1736  01FE  3000               	movlw	0
  1737  01FF  00A3               	movwf	___wmul@multiplicand+1
  1738  0200  160A  118A  27AD  120A  118A  	fcall	___wmul
  1739  0205  1283               	bcf	3,5	;RP0=0, select bank0
  1740  0206  1303               	bcf	3,6	;RP1=0, select bank0
  1741  0207  0821               	movf	?___wmul+1,w
  1742  0208  00EA               	movwf	convert@mu+1
  1743  0209  0820               	movf	?___wmul,w
  1744  020A  00E9               	movwf	convert@mu
  1745  020B                     l2677:
  1746  020B  3001               	movlw	1
  1747  020C  07DE               	addwf	convert@j,f
  1748  020D  1803               	skipnc
  1749  020E  0ADF               	incf	convert@j+1,f
  1750  020F  3000               	movlw	0
  1751  0210  07DF               	addwf	convert@j+1,f
  1752  0211                     l2679:
  1753  0211  0868               	movf	convert@digits+1,w
  1754  0212  3A80               	xorlw	128
  1755  0213  00DA               	movwf	??_convert
  1756  0214  085F               	movf	convert@j+1,w
  1757  0215  3A80               	xorlw	128
  1758  0216  025A               	subwf	??_convert,w
  1759  0217  1D03               	skipz
  1760  0218  2A1B               	goto	u3645
  1761  0219  085E               	movf	convert@j,w
  1762  021A  0267               	subwf	convert@digits,w
  1763  021B                     u3645:
  1764  021B  1803               	skipnc
  1765  021C  2A1E               	goto	u3641
  1766  021D  2A1F               	goto	u3640
  1767  021E                     u3641:
  1768  021E  29F6               	goto	l2675
  1769  021F                     u3640:
  1770  021F                     l2681:
  1771                           
  1772                           ;ADC.c: 90:          x=a/mu;
  1773  021F  1283               	bcf	3,5	;RP0=0, select bank0
  1774  0220  1303               	bcf	3,6	;RP1=0, select bank0
  1775  0221  0869               	movf	convert@mu,w
  1776  0222  00A4               	movwf	___xxtofl@val
  1777  0223  086A               	movf	convert@mu+1,w
  1778  0224  00A5               	movwf	___xxtofl@val+1
  1779  0225  3000               	movlw	0
  1780  0226  1BA5               	btfsc	___xxtofl@val+1,7
  1781  0227  30FF               	movlw	255
  1782  0228  00A6               	movwf	___xxtofl@val+2
  1783  0229  00A7               	movwf	___xxtofl@val+3
  1784  022A  3001               	movlw	1
  1785  022B  120A  118A  20A2  120A  118A  	fcall	___xxtofl
  1786  0230  1283               	bcf	3,5	;RP0=0, select bank0
  1787  0231  1303               	bcf	3,6	;RP1=0, select bank0
  1788  0232  0827               	movf	?___xxtofl+3,w
  1789  0233  00B5               	movwf	___fldiv@a+3
  1790  0234  0826               	movf	?___xxtofl+2,w
  1791  0235  00B4               	movwf	___fldiv@a+2
  1792  0236  0825               	movf	?___xxtofl+1,w
  1793  0237  00B3               	movwf	___fldiv@a+1
  1794  0238  0824               	movf	?___xxtofl,w
  1795  0239  00B2               	movwf	___fldiv@a
  1796  023A  0857               	movf	convert@a+3,w
  1797  023B  00B9               	movwf	___fldiv@b+3
  1798  023C  0856               	movf	convert@a+2,w
  1799  023D  00B8               	movwf	___fldiv@b+2
  1800  023E  0855               	movf	convert@a+1,w
  1801  023F  00B7               	movwf	___fldiv@b+1
  1802  0240  0854               	movf	convert@a,w
  1803  0241  00B6               	movwf	___fldiv@b
  1804  0242  120A  158A  238B  120A  118A  	fcall	___fldiv
  1805  0247  1283               	bcf	3,5	;RP0=0, select bank0
  1806  0248  1303               	bcf	3,6	;RP1=0, select bank0
  1807  0249  0835               	movf	?___fldiv+3,w
  1808  024A  00E4               	movwf	convert@x+3
  1809  024B  0834               	movf	?___fldiv+2,w
  1810  024C  00E3               	movwf	convert@x+2
  1811  024D  0833               	movf	?___fldiv+1,w
  1812  024E  00E2               	movwf	convert@x+1
  1813  024F  0832               	movf	?___fldiv,w
  1814  0250  00E1               	movwf	convert@x
  1815                           
  1816                           ;ADC.c: 91:          a=a-((int)x*mu);
  1817  0251  086A               	movf	convert@mu+1,w
  1818  0252  00A3               	movwf	___wmul@multiplicand+1
  1819  0253  0869               	movf	convert@mu,w
  1820  0254  00A2               	movwf	___wmul@multiplicand
  1821  0255  0864               	movf	convert@x+3,w
  1822  0256  00F3               	movwf	___fltol@f1+3
  1823  0257  0863               	movf	convert@x+2,w
  1824  0258  00F2               	movwf	___fltol@f1+2
  1825  0259  0862               	movf	convert@x+1,w
  1826  025A  00F1               	movwf	___fltol@f1+1
  1827  025B  0861               	movf	convert@x,w
  1828  025C  00F0               	movwf	___fltol@f1
  1829  025D  120A  118A  2028  120A  118A  	fcall	___fltol
  1830  0262  0871               	movf	?___fltol+1,w
  1831  0263  1283               	bcf	3,5	;RP0=0, select bank0
  1832  0264  1303               	bcf	3,6	;RP1=0, select bank0
  1833  0265  00A1               	movwf	___wmul@multiplier+1
  1834  0266  0870               	movf	?___fltol,w
  1835  0267  00A0               	movwf	___wmul@multiplier
  1836  0268  160A  118A  27AD  120A  118A  	fcall	___wmul
  1837  026D  1283               	bcf	3,5	;RP0=0, select bank0
  1838  026E  1303               	bcf	3,6	;RP1=0, select bank0
  1839  026F  0820               	movf	?___wmul,w
  1840  0270  00A4               	movwf	___xxtofl@val
  1841  0271  0821               	movf	?___wmul+1,w
  1842  0272  00A5               	movwf	___xxtofl@val+1
  1843  0273  3000               	movlw	0
  1844  0274  1BA5               	btfsc	___xxtofl@val+1,7
  1845  0275  30FF               	movlw	255
  1846  0276  00A6               	movwf	___xxtofl@val+2
  1847  0277  00A7               	movwf	___xxtofl@val+3
  1848  0278  3001               	movlw	1
  1849  0279  120A  118A  20A2  120A  118A  	fcall	___xxtofl
  1850  027E  1283               	bcf	3,5	;RP0=0, select bank0
  1851  027F  1303               	bcf	3,6	;RP1=0, select bank0
  1852  0280  0827               	movf	?___xxtofl+3,w
  1853  0281  00B5               	movwf	___flsub@a+3
  1854  0282  0826               	movf	?___xxtofl+2,w
  1855  0283  00B4               	movwf	___flsub@a+2
  1856  0284  0825               	movf	?___xxtofl+1,w
  1857  0285  00B3               	movwf	___flsub@a+1
  1858  0286  0824               	movf	?___xxtofl,w
  1859  0287  00B2               	movwf	___flsub@a
  1860  0288  0857               	movf	convert@a+3,w
  1861  0289  00B9               	movwf	___flsub@b+3
  1862  028A  0856               	movf	convert@a+2,w
  1863  028B  00B8               	movwf	___flsub@b+2
  1864  028C  0855               	movf	convert@a+1,w
  1865  028D  00B7               	movwf	___flsub@b+1
  1866  028E  0854               	movf	convert@a,w
  1867  028F  00B6               	movwf	___flsub@b
  1868  0290  120A  118A  2004  120A  118A  	fcall	___flsub
  1869  0295  1283               	bcf	3,5	;RP0=0, select bank0
  1870  0296  1303               	bcf	3,6	;RP1=0, select bank0
  1871  0297  0835               	movf	?___flsub+3,w
  1872  0298  00D7               	movwf	convert@a+3
  1873  0299  0834               	movf	?___flsub+2,w
  1874  029A  00D6               	movwf	convert@a+2
  1875  029B  0833               	movf	?___flsub+1,w
  1876  029C  00D5               	movwf	convert@a+1
  1877  029D  0832               	movf	?___flsub,w
  1878  029E  00D4               	movwf	convert@a
  1879  029F                     l2683:
  1880                           
  1881                           ;ADC.c: 92:          data[i]=0x30+((int)x);
  1882  029F  0864               	movf	convert@x+3,w
  1883  02A0  00F3               	movwf	___fltol@f1+3
  1884  02A1  0863               	movf	convert@x+2,w
  1885  02A2  00F2               	movwf	___fltol@f1+2
  1886  02A3  0862               	movf	convert@x+1,w
  1887  02A4  00F1               	movwf	___fltol@f1+1
  1888  02A5  0861               	movf	convert@x,w
  1889  02A6  00F0               	movwf	___fltol@f1
  1890  02A7  120A  118A  2028  120A  118A  	fcall	___fltol
  1891  02AC  0870               	movf	?___fltol,w
  1892  02AD  3E30               	addlw	48
  1893  02AE  1283               	bcf	3,5	;RP0=0, select bank0
  1894  02AF  1303               	bcf	3,6	;RP1=0, select bank0
  1895  02B0  00DA               	movwf	??_convert
  1896  02B1  0865               	movf	convert@i,w
  1897  02B2  0760               	addwf	convert@data,w
  1898  02B3  00DB               	movwf	??_convert+1
  1899  02B4  085B               	movf	??_convert+1,w
  1900  02B5  0084               	movwf	4
  1901  02B6  085A               	movf	??_convert,w
  1902  02B7  1383               	bcf	3,7	;select IRP bank0
  1903  02B8  0080               	movwf	0
  1904  02B9                     l2685:
  1905                           
  1906                           ;ADC.c: 93:          i++;
  1907  02B9  3001               	movlw	1
  1908  02BA  07E5               	addwf	convert@i,f
  1909  02BB  1803               	skipnc
  1910  02BC  0AE6               	incf	convert@i+1,f
  1911  02BD  3000               	movlw	0
  1912  02BE  07E6               	addwf	convert@i+1,f
  1913  02BF                     l2687:
  1914                           
  1915                           ;ADC.c: 94:          digits--;
  1916  02BF  30FF               	movlw	255
  1917  02C0  07E7               	addwf	convert@digits,f
  1918  02C1  1803               	skipnc
  1919  02C2  0AE8               	incf	convert@digits+1,f
  1920  02C3  30FF               	movlw	255
  1921  02C4  07E8               	addwf	convert@digits+1,f
  1922  02C5                     l2689:
  1923                           
  1924                           ;ADC.c: 95:          mu=1;
  1925  02C5  3001               	movlw	1
  1926  02C6  00E9               	movwf	convert@mu
  1927  02C7  3000               	movlw	0
  1928  02C8  00EA               	movwf	convert@mu+1
  1929  02C9                     l2691:
  1930                           
  1931                           ;ADC.c: 85:      while(digits!=0)
  1932  02C9  0867               	movf	convert@digits,w
  1933  02CA  0468               	iorwf	convert@digits+1,w
  1934  02CB  1D03               	btfss	3,2
  1935  02CC  2ACE               	goto	u3651
  1936  02CD  2ACF               	goto	u3650
  1937  02CE                     u3651:
  1938  02CE  29E6               	goto	l2669
  1939  02CF                     u3650:
  1940  02CF                     l2693:
  1941                           
  1942                           ;ADC.c: 98:      data[i]='.';
  1943  02CF  302E               	movlw	46
  1944  02D0  00DA               	movwf	??_convert
  1945  02D1  0865               	movf	convert@i,w
  1946  02D2  0760               	addwf	convert@data,w
  1947  02D3  00DB               	movwf	??_convert+1
  1948  02D4  085B               	movf	??_convert+1,w
  1949  02D5  0084               	movwf	4
  1950  02D6  085A               	movf	??_convert,w
  1951  02D7  1383               	bcf	3,7	;select IRP bank0
  1952  02D8  0080               	movwf	0
  1953  02D9                     l2695:
  1954                           
  1955                           ;ADC.c: 99:      i++;
  1956  02D9  3001               	movlw	1
  1957  02DA  07E5               	addwf	convert@i,f
  1958  02DB  1803               	skipnc
  1959  02DC  0AE6               	incf	convert@i+1,f
  1960  02DD  3000               	movlw	0
  1961  02DE  07E6               	addwf	convert@i+1,f
  1962  02DF                     l2697:
  1963  02DF                     l2699:
  1964                           
  1965                           ;ADC.c: 101:      for(j=1;j<=place;j++)mu=mu*10;
  1966  02DF  3001               	movlw	1
  1967  02E0  00DE               	movwf	convert@j
  1968  02E1  3000               	movlw	0
  1969  02E2  00DF               	movwf	convert@j+1
  1970  02E3  2AFF               	goto	l2705
  1971  02E4                     l2701:
  1972  02E4  1283               	bcf	3,5	;RP0=0, select bank0
  1973  02E5  1303               	bcf	3,6	;RP1=0, select bank0
  1974  02E6  086A               	movf	convert@mu+1,w
  1975  02E7  00A1               	movwf	___wmul@multiplier+1
  1976  02E8  0869               	movf	convert@mu,w
  1977  02E9  00A0               	movwf	___wmul@multiplier
  1978  02EA  300A               	movlw	10
  1979  02EB  00A2               	movwf	___wmul@multiplicand
  1980  02EC  3000               	movlw	0
  1981  02ED  00A3               	movwf	___wmul@multiplicand+1
  1982  02EE  160A  118A  27AD  120A  118A  	fcall	___wmul
  1983  02F3  1283               	bcf	3,5	;RP0=0, select bank0
  1984  02F4  1303               	bcf	3,6	;RP1=0, select bank0
  1985  02F5  0821               	movf	?___wmul+1,w
  1986  02F6  00EA               	movwf	convert@mu+1
  1987  02F7  0820               	movf	?___wmul,w
  1988  02F8  00E9               	movwf	convert@mu
  1989  02F9                     l2703:
  1990  02F9  3001               	movlw	1
  1991  02FA  07DE               	addwf	convert@j,f
  1992  02FB  1803               	skipnc
  1993  02FC  0ADF               	incf	convert@j+1,f
  1994  02FD  3000               	movlw	0
  1995  02FE  07DF               	addwf	convert@j+1,f
  1996  02FF                     l2705:
  1997  02FF  0859               	movf	convert@place+1,w
  1998  0300  3A80               	xorlw	128
  1999  0301  00DA               	movwf	??_convert
  2000  0302  085F               	movf	convert@j+1,w
  2001  0303  3A80               	xorlw	128
  2002  0304  025A               	subwf	??_convert,w
  2003  0305  1D03               	skipz
  2004  0306  2B09               	goto	u3665
  2005  0307  085E               	movf	convert@j,w
  2006  0308  0258               	subwf	convert@place,w
  2007  0309                     u3665:
  2008  0309  1803               	skipnc
  2009  030A  2B0C               	goto	u3661
  2010  030B  2B0D               	goto	u3660
  2011  030C                     u3661:
  2012  030C  2AE4               	goto	l2701
  2013  030D                     u3660:
  2014  030D                     l2707:
  2015                           
  2016                           ;ADC.c: 102:      x=(a-(int)a)*mu;
  2017  030D  1283               	bcf	3,5	;RP0=0, select bank0
  2018  030E  1303               	bcf	3,6	;RP1=0, select bank0
  2019  030F  0869               	movf	convert@mu,w
  2020  0310  00A4               	movwf	___xxtofl@val
  2021  0311  086A               	movf	convert@mu+1,w
  2022  0312  00A5               	movwf	___xxtofl@val+1
  2023  0313  3000               	movlw	0
  2024  0314  1BA5               	btfsc	___xxtofl@val+1,7
  2025  0315  30FF               	movlw	255
  2026  0316  00A6               	movwf	___xxtofl@val+2
  2027  0317  00A7               	movwf	___xxtofl@val+3
  2028  0318  3001               	movlw	1
  2029  0319  120A  118A  20A2  120A  118A  	fcall	___xxtofl
  2030  031E  1283               	bcf	3,5	;RP0=0, select bank0
  2031  031F  1303               	bcf	3,6	;RP1=0, select bank0
  2032  0320  0827               	movf	?___xxtofl+3,w
  2033  0321  00BD               	movwf	___flmul@b+3
  2034  0322  0826               	movf	?___xxtofl+2,w
  2035  0323  00BC               	movwf	___flmul@b+2
  2036  0324  0825               	movf	?___xxtofl+1,w
  2037  0325  00BB               	movwf	___flmul@b+1
  2038  0326  0824               	movf	?___xxtofl,w
  2039  0327  00BA               	movwf	___flmul@b
  2040  0328  0857               	movf	convert@a+3,w
  2041  0329  00F3               	movwf	___fltol@f1+3
  2042  032A  0856               	movf	convert@a+2,w
  2043  032B  00F2               	movwf	___fltol@f1+2
  2044  032C  0855               	movf	convert@a+1,w
  2045  032D  00F1               	movwf	___fltol@f1+1
  2046  032E  0854               	movf	convert@a,w
  2047  032F  00F0               	movwf	___fltol@f1
  2048  0330  120A  118A  2028  120A  118A  	fcall	___fltol
  2049  0335  0870               	movf	?___fltol,w
  2050  0336  1283               	bcf	3,5	;RP0=0, select bank0
  2051  0337  1303               	bcf	3,6	;RP1=0, select bank0
  2052  0338  00A4               	movwf	___xxtofl@val
  2053  0339  0871               	movf	?___fltol+1,w
  2054  033A  00A5               	movwf	___xxtofl@val+1
  2055  033B  3000               	movlw	0
  2056  033C  1BA5               	btfsc	___xxtofl@val+1,7
  2057  033D  30FF               	movlw	255
  2058  033E  00A6               	movwf	___xxtofl@val+2
  2059  033F  00A7               	movwf	___xxtofl@val+3
  2060  0340  3001               	movlw	1
  2061  0341  120A  118A  20A2  120A  118A  	fcall	___xxtofl
  2062  0346  1283               	bcf	3,5	;RP0=0, select bank0
  2063  0347  1303               	bcf	3,6	;RP1=0, select bank0
  2064  0348  0827               	movf	?___xxtofl+3,w
  2065  0349  00B5               	movwf	___flsub@a+3
  2066  034A  0826               	movf	?___xxtofl+2,w
  2067  034B  00B4               	movwf	___flsub@a+2
  2068  034C  0825               	movf	?___xxtofl+1,w
  2069  034D  00B3               	movwf	___flsub@a+1
  2070  034E  0824               	movf	?___xxtofl,w
  2071  034F  00B2               	movwf	___flsub@a
  2072  0350  0857               	movf	convert@a+3,w
  2073  0351  00B9               	movwf	___flsub@b+3
  2074  0352  0856               	movf	convert@a+2,w
  2075  0353  00B8               	movwf	___flsub@b+2
  2076  0354  0855               	movf	convert@a+1,w
  2077  0355  00B7               	movwf	___flsub@b+1
  2078  0356  0854               	movf	convert@a,w
  2079  0357  00B6               	movwf	___flsub@b
  2080  0358  120A  118A  2004  120A  118A  	fcall	___flsub
  2081  035D  1283               	bcf	3,5	;RP0=0, select bank0
  2082  035E  1303               	bcf	3,6	;RP1=0, select bank0
  2083  035F  0835               	movf	?___flsub+3,w
  2084  0360  00C1               	movwf	___flmul@a+3
  2085  0361  0834               	movf	?___flsub+2,w
  2086  0362  00C0               	movwf	___flmul@a+2
  2087  0363  0833               	movf	?___flsub+1,w
  2088  0364  00BF               	movwf	___flmul@a+1
  2089  0365  0832               	movf	?___flsub,w
  2090  0366  00BE               	movwf	___flmul@a
  2091  0367  120A  118A  248A  120A  118A  	fcall	___flmul
  2092  036C  1283               	bcf	3,5	;RP0=0, select bank0
  2093  036D  1303               	bcf	3,6	;RP1=0, select bank0
  2094  036E  083D               	movf	?___flmul+3,w
  2095  036F  00E4               	movwf	convert@x+3
  2096  0370  083C               	movf	?___flmul+2,w
  2097  0371  00E3               	movwf	convert@x+2
  2098  0372  083B               	movf	?___flmul+1,w
  2099  0373  00E2               	movwf	convert@x+1
  2100  0374  083A               	movf	?___flmul,w
  2101  0375  00E1               	movwf	convert@x
  2102  0376                     l2709:
  2103                           
  2104                           ;ADC.c: 103:      a=x;
  2105  0376  0864               	movf	convert@x+3,w
  2106  0377  00D7               	movwf	convert@a+3
  2107  0378  0863               	movf	convert@x+2,w
  2108  0379  00D6               	movwf	convert@a+2
  2109  037A  0862               	movf	convert@x+1,w
  2110  037B  00D5               	movwf	convert@a+1
  2111  037C  0861               	movf	convert@x,w
  2112  037D  00D4               	movwf	convert@a
  2113  037E                     l2711:
  2114  037E  0857               	movf	convert@a+3,w
  2115  037F  00F3               	movwf	___fltol@f1+3
  2116  0380  0856               	movf	convert@a+2,w
  2117  0381  00F2               	movwf	___fltol@f1+2
  2118  0382  0855               	movf	convert@a+1,w
  2119  0383  00F1               	movwf	___fltol@f1+1
  2120  0384  0854               	movf	convert@a,w
  2121  0385  00F0               	movwf	___fltol@f1
  2122  0386  120A  118A  2028  120A  118A  	fcall	___fltol
  2123  038B                     l2713:
  2124  038B                     l2715:
  2125                           
  2126                           ;ADC.c: 106:      mu=1;
  2127  038B  3001               	movlw	1
  2128  038C  1283               	bcf	3,5	;RP0=0, select bank0
  2129  038D  1303               	bcf	3,6	;RP1=0, select bank0
  2130  038E  00E9               	movwf	convert@mu
  2131  038F  3000               	movlw	0
  2132  0390  00EA               	movwf	convert@mu+1
  2133  0391                     l2717:
  2134                           
  2135                           ;ADC.c: 107:      digits=place;
  2136  0391  0859               	movf	convert@place+1,w
  2137  0392  00E8               	movwf	convert@digits+1
  2138  0393  0858               	movf	convert@place,w
  2139  0394  00E7               	movwf	convert@digits
  2140                           
  2141                           ;ADC.c: 108:      while(digits!=0)
  2142  0395  2C79               	goto	l2741
  2143  0396                     l2719:
  2144                           
  2145                           ;ADC.c: 109:      {;ADC.c: 110:          if(digits==1)mu=1;
  2146  0396  0367               	decf	convert@digits,w
  2147  0397  0468               	iorwf	convert@digits+1,w
  2148  0398  1D03               	btfss	3,2
  2149  0399  2B9B               	goto	u3671
  2150  039A  2B9C               	goto	u3670
  2151  039B                     u3671:
  2152  039B  2BA1               	goto	l2723
  2153  039C                     u3670:
  2154  039C                     l2721:
  2155  039C  3001               	movlw	1
  2156  039D  00E9               	movwf	convert@mu
  2157  039E  3000               	movlw	0
  2158  039F  00EA               	movwf	convert@mu+1
  2159  03A0  2BCF               	goto	l2731
  2160  03A1                     l2723:
  2161  03A1  3002               	movlw	2
  2162  03A2  00DE               	movwf	convert@j
  2163  03A3  3000               	movlw	0
  2164  03A4  00DF               	movwf	convert@j+1
  2165  03A5  2BC1               	goto	l2729
  2166  03A6                     l2725:
  2167  03A6  1283               	bcf	3,5	;RP0=0, select bank0
  2168  03A7  1303               	bcf	3,6	;RP1=0, select bank0
  2169  03A8  086A               	movf	convert@mu+1,w
  2170  03A9  00A1               	movwf	___wmul@multiplier+1
  2171  03AA  0869               	movf	convert@mu,w
  2172  03AB  00A0               	movwf	___wmul@multiplier
  2173  03AC  300A               	movlw	10
  2174  03AD  00A2               	movwf	___wmul@multiplicand
  2175  03AE  3000               	movlw	0
  2176  03AF  00A3               	movwf	___wmul@multiplicand+1
  2177  03B0  160A  118A  27AD  120A  118A  	fcall	___wmul
  2178  03B5  1283               	bcf	3,5	;RP0=0, select bank0
  2179  03B6  1303               	bcf	3,6	;RP1=0, select bank0
  2180  03B7  0821               	movf	?___wmul+1,w
  2181  03B8  00EA               	movwf	convert@mu+1
  2182  03B9  0820               	movf	?___wmul,w
  2183  03BA  00E9               	movwf	convert@mu
  2184  03BB                     l2727:
  2185  03BB  3001               	movlw	1
  2186  03BC  07DE               	addwf	convert@j,f
  2187  03BD  1803               	skipnc
  2188  03BE  0ADF               	incf	convert@j+1,f
  2189  03BF  3000               	movlw	0
  2190  03C0  07DF               	addwf	convert@j+1,f
  2191  03C1                     l2729:
  2192  03C1  0868               	movf	convert@digits+1,w
  2193  03C2  3A80               	xorlw	128
  2194  03C3  00DA               	movwf	??_convert
  2195  03C4  085F               	movf	convert@j+1,w
  2196  03C5  3A80               	xorlw	128
  2197  03C6  025A               	subwf	??_convert,w
  2198  03C7  1D03               	skipz
  2199  03C8  2BCB               	goto	u3685
  2200  03C9  085E               	movf	convert@j,w
  2201  03CA  0267               	subwf	convert@digits,w
  2202  03CB                     u3685:
  2203  03CB  1803               	skipnc
  2204  03CC  2BCE               	goto	u3681
  2205  03CD  2BCF               	goto	u3680
  2206  03CE                     u3681:
  2207  03CE  2BA6               	goto	l2725
  2208  03CF                     u3680:
  2209  03CF                     l2731:
  2210                           
  2211                           ;ADC.c: 113:          x=a/mu;
  2212  03CF  1283               	bcf	3,5	;RP0=0, select bank0
  2213  03D0  1303               	bcf	3,6	;RP1=0, select bank0
  2214  03D1  0869               	movf	convert@mu,w
  2215  03D2  00A4               	movwf	___xxtofl@val
  2216  03D3  086A               	movf	convert@mu+1,w
  2217  03D4  00A5               	movwf	___xxtofl@val+1
  2218  03D5  3000               	movlw	0
  2219  03D6  1BA5               	btfsc	___xxtofl@val+1,7
  2220  03D7  30FF               	movlw	255
  2221  03D8  00A6               	movwf	___xxtofl@val+2
  2222  03D9  00A7               	movwf	___xxtofl@val+3
  2223  03DA  3001               	movlw	1
  2224  03DB  120A  118A  20A2  120A  118A  	fcall	___xxtofl
  2225  03E0  1283               	bcf	3,5	;RP0=0, select bank0
  2226  03E1  1303               	bcf	3,6	;RP1=0, select bank0
  2227  03E2  0827               	movf	?___xxtofl+3,w
  2228  03E3  00B5               	movwf	___fldiv@a+3
  2229  03E4  0826               	movf	?___xxtofl+2,w
  2230  03E5  00B4               	movwf	___fldiv@a+2
  2231  03E6  0825               	movf	?___xxtofl+1,w
  2232  03E7  00B3               	movwf	___fldiv@a+1
  2233  03E8  0824               	movf	?___xxtofl,w
  2234  03E9  00B2               	movwf	___fldiv@a
  2235  03EA  0857               	movf	convert@a+3,w
  2236  03EB  00B9               	movwf	___fldiv@b+3
  2237  03EC  0856               	movf	convert@a+2,w
  2238  03ED  00B8               	movwf	___fldiv@b+2
  2239  03EE  0855               	movf	convert@a+1,w
  2240  03EF  00B7               	movwf	___fldiv@b+1
  2241  03F0  0854               	movf	convert@a,w
  2242  03F1  00B6               	movwf	___fldiv@b
  2243  03F2  120A  158A  238B  120A  118A  	fcall	___fldiv
  2244  03F7  1283               	bcf	3,5	;RP0=0, select bank0
  2245  03F8  1303               	bcf	3,6	;RP1=0, select bank0
  2246  03F9  0835               	movf	?___fldiv+3,w
  2247  03FA  00E4               	movwf	convert@x+3
  2248  03FB  0834               	movf	?___fldiv+2,w
  2249  03FC  00E3               	movwf	convert@x+2
  2250  03FD  0833               	movf	?___fldiv+1,w
  2251  03FE  00E2               	movwf	convert@x+1
  2252  03FF  0832               	movf	?___fldiv,w
  2253  0400  00E1               	movwf	convert@x
  2254                           
  2255                           ;ADC.c: 114:          a=a-((int)x*mu);
  2256  0401  086A               	movf	convert@mu+1,w
  2257  0402  00A3               	movwf	___wmul@multiplicand+1
  2258  0403  0869               	movf	convert@mu,w
  2259  0404  00A2               	movwf	___wmul@multiplicand
  2260  0405  0864               	movf	convert@x+3,w
  2261  0406  00F3               	movwf	___fltol@f1+3
  2262  0407  0863               	movf	convert@x+2,w
  2263  0408  00F2               	movwf	___fltol@f1+2
  2264  0409  0862               	movf	convert@x+1,w
  2265  040A  00F1               	movwf	___fltol@f1+1
  2266  040B  0861               	movf	convert@x,w
  2267  040C  00F0               	movwf	___fltol@f1
  2268  040D  120A  118A  2028  120A  118A  	fcall	___fltol
  2269  0412  0871               	movf	?___fltol+1,w
  2270  0413  1283               	bcf	3,5	;RP0=0, select bank0
  2271  0414  1303               	bcf	3,6	;RP1=0, select bank0
  2272  0415  00A1               	movwf	___wmul@multiplier+1
  2273  0416  0870               	movf	?___fltol,w
  2274  0417  00A0               	movwf	___wmul@multiplier
  2275  0418  160A  118A  27AD  120A  118A  	fcall	___wmul
  2276  041D  1283               	bcf	3,5	;RP0=0, select bank0
  2277  041E  1303               	bcf	3,6	;RP1=0, select bank0
  2278  041F  0820               	movf	?___wmul,w
  2279  0420  00A4               	movwf	___xxtofl@val
  2280  0421  0821               	movf	?___wmul+1,w
  2281  0422  00A5               	movwf	___xxtofl@val+1
  2282  0423  3000               	movlw	0
  2283  0424  1BA5               	btfsc	___xxtofl@val+1,7
  2284  0425  30FF               	movlw	255
  2285  0426  00A6               	movwf	___xxtofl@val+2
  2286  0427  00A7               	movwf	___xxtofl@val+3
  2287  0428  3001               	movlw	1
  2288  0429  120A  118A  20A2  120A  118A  	fcall	___xxtofl
  2289  042E  1283               	bcf	3,5	;RP0=0, select bank0
  2290  042F  1303               	bcf	3,6	;RP1=0, select bank0
  2291  0430  0827               	movf	?___xxtofl+3,w
  2292  0431  00B5               	movwf	___flsub@a+3
  2293  0432  0826               	movf	?___xxtofl+2,w
  2294  0433  00B4               	movwf	___flsub@a+2
  2295  0434  0825               	movf	?___xxtofl+1,w
  2296  0435  00B3               	movwf	___flsub@a+1
  2297  0436  0824               	movf	?___xxtofl,w
  2298  0437  00B2               	movwf	___flsub@a
  2299  0438  0857               	movf	convert@a+3,w
  2300  0439  00B9               	movwf	___flsub@b+3
  2301  043A  0856               	movf	convert@a+2,w
  2302  043B  00B8               	movwf	___flsub@b+2
  2303  043C  0855               	movf	convert@a+1,w
  2304  043D  00B7               	movwf	___flsub@b+1
  2305  043E  0854               	movf	convert@a,w
  2306  043F  00B6               	movwf	___flsub@b
  2307  0440  120A  118A  2004  120A  118A  	fcall	___flsub
  2308  0445  1283               	bcf	3,5	;RP0=0, select bank0
  2309  0446  1303               	bcf	3,6	;RP1=0, select bank0
  2310  0447  0835               	movf	?___flsub+3,w
  2311  0448  00D7               	movwf	convert@a+3
  2312  0449  0834               	movf	?___flsub+2,w
  2313  044A  00D6               	movwf	convert@a+2
  2314  044B  0833               	movf	?___flsub+1,w
  2315  044C  00D5               	movwf	convert@a+1
  2316  044D  0832               	movf	?___flsub,w
  2317  044E  00D4               	movwf	convert@a
  2318  044F                     l2733:
  2319                           
  2320                           ;ADC.c: 115:          data[i]=0x30+((int)x);
  2321  044F  0864               	movf	convert@x+3,w
  2322  0450  00F3               	movwf	___fltol@f1+3
  2323  0451  0863               	movf	convert@x+2,w
  2324  0452  00F2               	movwf	___fltol@f1+2
  2325  0453  0862               	movf	convert@x+1,w
  2326  0454  00F1               	movwf	___fltol@f1+1
  2327  0455  0861               	movf	convert@x,w
  2328  0456  00F0               	movwf	___fltol@f1
  2329  0457  120A  118A  2028  120A  118A  	fcall	___fltol
  2330  045C  0870               	movf	?___fltol,w
  2331  045D  3E30               	addlw	48
  2332  045E  1283               	bcf	3,5	;RP0=0, select bank0
  2333  045F  1303               	bcf	3,6	;RP1=0, select bank0
  2334  0460  00DA               	movwf	??_convert
  2335  0461  0865               	movf	convert@i,w
  2336  0462  0760               	addwf	convert@data,w
  2337  0463  00DB               	movwf	??_convert+1
  2338  0464  085B               	movf	??_convert+1,w
  2339  0465  0084               	movwf	4
  2340  0466  085A               	movf	??_convert,w
  2341  0467  1383               	bcf	3,7	;select IRP bank0
  2342  0468  0080               	movwf	0
  2343  0469                     l2735:
  2344                           
  2345                           ;ADC.c: 116:          i++;
  2346  0469  3001               	movlw	1
  2347  046A  07E5               	addwf	convert@i,f
  2348  046B  1803               	skipnc
  2349  046C  0AE6               	incf	convert@i+1,f
  2350  046D  3000               	movlw	0
  2351  046E  07E6               	addwf	convert@i+1,f
  2352  046F                     l2737:
  2353                           
  2354                           ;ADC.c: 117:          digits--;
  2355  046F  30FF               	movlw	255
  2356  0470  07E7               	addwf	convert@digits,f
  2357  0471  1803               	skipnc
  2358  0472  0AE8               	incf	convert@digits+1,f
  2359  0473  30FF               	movlw	255
  2360  0474  07E8               	addwf	convert@digits+1,f
  2361  0475                     l2739:
  2362                           
  2363                           ;ADC.c: 118:          mu=1;
  2364  0475  3001               	movlw	1
  2365  0476  00E9               	movwf	convert@mu
  2366  0477  3000               	movlw	0
  2367  0478  00EA               	movwf	convert@mu+1
  2368  0479                     l2741:
  2369                           
  2370                           ;ADC.c: 108:      while(digits!=0)
  2371  0479  0867               	movf	convert@digits,w
  2372  047A  0468               	iorwf	convert@digits+1,w
  2373  047B  1D03               	btfss	3,2
  2374  047C  2C7E               	goto	u3691
  2375  047D  2C7F               	goto	u3690
  2376  047E                     u3691:
  2377  047E  2B96               	goto	l2719
  2378  047F                     u3690:
  2379  047F                     l2743:
  2380                           
  2381                           ;ADC.c: 121:     data[i]='\n';
  2382  047F  300A               	movlw	10
  2383  0480  00DA               	movwf	??_convert
  2384  0481  0865               	movf	convert@i,w
  2385  0482  0760               	addwf	convert@data,w
  2386  0483  00DB               	movwf	??_convert+1
  2387  0484  085B               	movf	??_convert+1,w
  2388  0485  0084               	movwf	4
  2389  0486  085A               	movf	??_convert,w
  2390  0487  1383               	bcf	3,7	;select IRP bank0
  2391  0488  0080               	movwf	0
  2392  0489                     l225:
  2393  0489  0008               	return
  2394  048A                     __end_of_convert:
  2395                           
  2396                           	psect	text2
  2397  00A2                     __ptext2:	
  2398 ;; *************** function ___xxtofl *****************
  2399 ;; Defined at:
  2400 ;;		line 10 in file "C:\Program Files\Microchip\xc8\v2.31\pic\sources\c90\common\xxtofl.c"
  2401 ;; Parameters:    Size  Location     Type
  2402 ;;  sign            1    wreg     unsigned char 
  2403 ;;  val             4    4[BANK0 ] long 
  2404 ;; Auto vars:     Size  Location     Type
  2405 ;;  sign            1   12[BANK0 ] unsigned char 
  2406 ;;  arg             4   14[BANK0 ] unsigned long 
  2407 ;;  exp             1   13[BANK0 ] unsigned char 
  2408 ;; Return value:  Size  Location     Type
  2409 ;;                  4    4[BANK0 ] unsigned char 
  2410 ;; Registers used:
  2411 ;;		wreg, status,2, status,0
  2412 ;; Tracked objects:
  2413 ;;		On entry : 0/0
  2414 ;;		On exit  : 0/0
  2415 ;;		Unchanged: 0/0
  2416 ;; Data sizes:     COMMON   BANK0   BANK1   BANK3   BANK2
  2417 ;;      Params:         0       4       0       0       0
  2418 ;;      Locals:         0       6       0       0       0
  2419 ;;      Temps:          0       4       0       0       0
  2420 ;;      Totals:         0      14       0       0       0
  2421 ;;Total ram usage:       14 bytes
  2422 ;; Hardware stack levels used:    1
  2423 ;; This function calls:
  2424 ;;		Nothing
  2425 ;; This function is called by:
  2426 ;;		_main
  2427 ;;		_convert
  2428 ;; This function uses a non-reentrant model
  2429 ;;
  2430                           
  2431                           
  2432                           ;psect for function ___xxtofl
  2433  00A2                     ___xxtofl:
  2434                           
  2435                           ;incstack = 0
  2436                           ; Regs used in ___xxtofl: [wreg+status,2+status,0]
  2437                           ;___xxtofl@sign stored from wreg
  2438  00A2  1283               	bcf	3,5	;RP0=0, select bank0
  2439  00A3  1303               	bcf	3,6	;RP1=0, select bank0
  2440  00A4  00AC               	movwf	___xxtofl@sign
  2441  00A5                     l2519:
  2442  00A5  082C               	movf	___xxtofl@sign,w
  2443  00A6  1903               	btfsc	3,2
  2444  00A7  28A9               	goto	u3361
  2445  00A8  28AA               	goto	u3360
  2446  00A9                     u3361:
  2447  00A9  28BE               	goto	l2525
  2448  00AA                     u3360:
  2449  00AA                     l2521:
  2450  00AA  1FA7               	btfss	___xxtofl@val+3,7
  2451  00AB  28AD               	goto	u3371
  2452  00AC  28AE               	goto	u3370
  2453  00AD                     u3371:
  2454  00AD  28BE               	goto	l2525
  2455  00AE                     u3370:
  2456  00AE                     l2523:
  2457  00AE  0924               	comf	___xxtofl@val,w
  2458  00AF  00AE               	movwf	___xxtofl@arg
  2459  00B0  0925               	comf	___xxtofl@val+1,w
  2460  00B1  00AF               	movwf	___xxtofl@arg+1
  2461  00B2  0926               	comf	___xxtofl@val+2,w
  2462  00B3  00B0               	movwf	___xxtofl@arg+2
  2463  00B4  0927               	comf	___xxtofl@val+3,w
  2464  00B5  00B1               	movwf	___xxtofl@arg+3
  2465  00B6  0AAE               	incf	___xxtofl@arg,f
  2466  00B7  1903               	skipnz
  2467  00B8  0AAF               	incf	___xxtofl@arg+1,f
  2468  00B9  1903               	skipnz
  2469  00BA  0AB0               	incf	___xxtofl@arg+2,f
  2470  00BB  1903               	skipnz
  2471  00BC  0AB1               	incf	___xxtofl@arg+3,f
  2472  00BD  28C6               	goto	l784
  2473  00BE                     l2525:
  2474  00BE  0827               	movf	___xxtofl@val+3,w
  2475  00BF  00B1               	movwf	___xxtofl@arg+3
  2476  00C0  0826               	movf	___xxtofl@val+2,w
  2477  00C1  00B0               	movwf	___xxtofl@arg+2
  2478  00C2  0825               	movf	___xxtofl@val+1,w
  2479  00C3  00AF               	movwf	___xxtofl@arg+1
  2480  00C4  0824               	movf	___xxtofl@val,w
  2481  00C5  00AE               	movwf	___xxtofl@arg
  2482  00C6                     l784:
  2483  00C6  0827               	movf	___xxtofl@val+3,w
  2484  00C7  0426               	iorwf	___xxtofl@val+2,w
  2485  00C8  0425               	iorwf	___xxtofl@val+1,w
  2486  00C9  0424               	iorwf	___xxtofl@val,w
  2487  00CA  1D03               	skipz
  2488  00CB  28CD               	goto	u3381
  2489  00CC  28CE               	goto	u3380
  2490  00CD                     u3381:
  2491  00CD  28D7               	goto	l2531
  2492  00CE                     u3380:
  2493  00CE                     l2527:
  2494  00CE  3000               	movlw	0
  2495  00CF  00A7               	movwf	?___xxtofl+3
  2496  00D0  3000               	movlw	0
  2497  00D1  00A6               	movwf	?___xxtofl+2
  2498  00D2  3000               	movlw	0
  2499  00D3  00A5               	movwf	?___xxtofl+1
  2500  00D4  3000               	movlw	0
  2501  00D5  00A4               	movwf	?___xxtofl
  2502  00D6  295D               	goto	l786
  2503  00D7                     l2531:
  2504  00D7  3096               	movlw	150
  2505  00D8  00A8               	movwf	??___xxtofl
  2506  00D9  0828               	movf	??___xxtofl,w
  2507  00DA  00AD               	movwf	___xxtofl@exp
  2508  00DB  28E9               	goto	l2535
  2509  00DC                     l2533:
  2510  00DC  3001               	movlw	1
  2511  00DD  00A8               	movwf	??___xxtofl
  2512  00DE  0828               	movf	??___xxtofl,w
  2513  00DF  07AD               	addwf	___xxtofl@exp,f
  2514  00E0  3001               	movlw	1
  2515  00E1                     u3395:
  2516  00E1  1003               	clrc
  2517  00E2  0CB1               	rrf	___xxtofl@arg+3,f
  2518  00E3  0CB0               	rrf	___xxtofl@arg+2,f
  2519  00E4  0CAF               	rrf	___xxtofl@arg+1,f
  2520  00E5  0CAE               	rrf	___xxtofl@arg,f
  2521  00E6  3EFF               	addlw	-1
  2522  00E7  1D03               	skipz
  2523  00E8  28E1               	goto	u3395
  2524  00E9                     l2535:
  2525  00E9  30FE               	movlw	254
  2526  00EA  0531               	andwf	___xxtofl@arg+3,w
  2527  00EB  1D03               	btfss	3,2
  2528  00EC  28EE               	goto	u3401
  2529  00ED  28EF               	goto	u3400
  2530  00EE                     u3401:
  2531  00EE  28DC               	goto	l2533
  2532  00EF                     u3400:
  2533  00EF  290B               	goto	l790
  2534  00F0                     l2537:
  2535  00F0  3001               	movlw	1
  2536  00F1  00A8               	movwf	??___xxtofl
  2537  00F2  0828               	movf	??___xxtofl,w
  2538  00F3  07AD               	addwf	___xxtofl@exp,f
  2539  00F4                     l2539:
  2540  00F4  3001               	movlw	1
  2541  00F5  07AE               	addwf	___xxtofl@arg,f
  2542  00F6  3000               	movlw	0
  2543  00F7  1803               	skipnc
  2544  00F8  3001               	movlw	1
  2545  00F9  07AF               	addwf	___xxtofl@arg+1,f
  2546  00FA  3000               	movlw	0
  2547  00FB  1803               	skipnc
  2548  00FC  3001               	movlw	1
  2549  00FD  07B0               	addwf	___xxtofl@arg+2,f
  2550  00FE  3000               	movlw	0
  2551  00FF  1803               	skipnc
  2552  0100  3001               	movlw	1
  2553  0101  07B1               	addwf	___xxtofl@arg+3,f
  2554  0102                     l2541:
  2555  0102  3001               	movlw	1
  2556  0103                     u3415:
  2557  0103  1003               	clrc
  2558  0104  0CB1               	rrf	___xxtofl@arg+3,f
  2559  0105  0CB0               	rrf	___xxtofl@arg+2,f
  2560  0106  0CAF               	rrf	___xxtofl@arg+1,f
  2561  0107  0CAE               	rrf	___xxtofl@arg,f
  2562  0108  3EFF               	addlw	-1
  2563  0109  1D03               	skipz
  2564  010A  2903               	goto	u3415
  2565  010B                     l790:
  2566  010B  30FF               	movlw	255
  2567  010C  0531               	andwf	___xxtofl@arg+3,w
  2568  010D  1D03               	btfss	3,2
  2569  010E  2910               	goto	u3421
  2570  010F  2911               	goto	u3420
  2571  0110                     u3421:
  2572  0110  28F0               	goto	l2537
  2573  0111                     u3420:
  2574  0111  291D               	goto	l2545
  2575  0112                     l2543:
  2576  0112  3001               	movlw	1
  2577  0113  02AD               	subwf	___xxtofl@exp,f
  2578  0114  3001               	movlw	1
  2579  0115  00A8               	movwf	??___xxtofl
  2580  0116                     u3435:
  2581  0116  1003               	clrc
  2582  0117  0DAE               	rlf	___xxtofl@arg,f
  2583  0118  0DAF               	rlf	___xxtofl@arg+1,f
  2584  0119  0DB0               	rlf	___xxtofl@arg+2,f
  2585  011A  0DB1               	rlf	___xxtofl@arg+3,f
  2586  011B  0BA8               	decfsz	??___xxtofl,f
  2587  011C  2916               	goto	u3435
  2588  011D                     l2545:
  2589  011D  1BB0               	btfsc	___xxtofl@arg+2,7
  2590  011E  2920               	goto	u3441
  2591  011F  2921               	goto	u3440
  2592  0120                     u3441:
  2593  0120  2927               	goto	l797
  2594  0121                     u3440:
  2595  0121                     l2547:
  2596  0121  3002               	movlw	2
  2597  0122  022D               	subwf	___xxtofl@exp,w
  2598  0123  1803               	skipnc
  2599  0124  2926               	goto	u3451
  2600  0125  2927               	goto	u3450
  2601  0126                     u3451:
  2602  0126  2912               	goto	l2543
  2603  0127                     u3450:
  2604  0127                     l797:
  2605  0127  182D               	btfsc	___xxtofl@exp,0
  2606  0128  292A               	goto	u3461
  2607  0129  292B               	goto	u3460
  2608  012A                     u3461:
  2609  012A  2933               	goto	l798
  2610  012B                     u3460:
  2611  012B                     l2549:
  2612  012B  30FF               	movlw	255
  2613  012C  05AE               	andwf	___xxtofl@arg,f
  2614  012D  30FF               	movlw	255
  2615  012E  05AF               	andwf	___xxtofl@arg+1,f
  2616  012F  307F               	movlw	127
  2617  0130  05B0               	andwf	___xxtofl@arg+2,f
  2618  0131  30FF               	movlw	255
  2619  0132  05B1               	andwf	___xxtofl@arg+3,f
  2620  0133                     l798:
  2621  0133  1003               	clrc
  2622  0134  0CAD               	rrf	___xxtofl@exp,f
  2623  0135                     l2551:
  2624  0135  082D               	movf	___xxtofl@exp,w
  2625  0136  00A8               	movwf	??___xxtofl
  2626  0137  01A9               	clrf	??___xxtofl+1
  2627  0138  01AA               	clrf	??___xxtofl+2
  2628  0139  01AB               	clrf	??___xxtofl+3
  2629  013A  3018               	movlw	24
  2630  013B                     u3475:
  2631  013B  1003               	clrc
  2632  013C  0DA8               	rlf	??___xxtofl,f
  2633  013D  0DA9               	rlf	??___xxtofl+1,f
  2634  013E  0DAA               	rlf	??___xxtofl+2,f
  2635  013F  0DAB               	rlf	??___xxtofl+3,f
  2636  0140                     u3470:
  2637  0140  3EFF               	addlw	-1
  2638  0141  1D03               	skipz
  2639  0142  293B               	goto	u3475
  2640  0143  0828               	movf	??___xxtofl,w
  2641  0144  04AE               	iorwf	___xxtofl@arg,f
  2642  0145  0829               	movf	??___xxtofl+1,w
  2643  0146  04AF               	iorwf	___xxtofl@arg+1,f
  2644  0147  082A               	movf	??___xxtofl+2,w
  2645  0148  04B0               	iorwf	___xxtofl@arg+2,f
  2646  0149  082B               	movf	??___xxtofl+3,w
  2647  014A  04B1               	iorwf	___xxtofl@arg+3,f
  2648  014B                     l2553:
  2649  014B  082C               	movf	___xxtofl@sign,w
  2650  014C  1903               	btfsc	3,2
  2651  014D  294F               	goto	u3481
  2652  014E  2950               	goto	u3480
  2653  014F                     u3481:
  2654  014F  2955               	goto	l2559
  2655  0150                     u3480:
  2656  0150                     l2555:
  2657  0150  1FA7               	btfss	___xxtofl@val+3,7
  2658  0151  2953               	goto	u3491
  2659  0152  2954               	goto	u3490
  2660  0153                     u3491:
  2661  0153  2955               	goto	l2559
  2662  0154                     u3490:
  2663  0154                     l2557:
  2664  0154  17B1               	bsf	___xxtofl@arg+3,7
  2665  0155                     l2559:
  2666  0155  0831               	movf	___xxtofl@arg+3,w
  2667  0156  00A7               	movwf	?___xxtofl+3
  2668  0157  0830               	movf	___xxtofl@arg+2,w
  2669  0158  00A6               	movwf	?___xxtofl+2
  2670  0159  082F               	movf	___xxtofl@arg+1,w
  2671  015A  00A5               	movwf	?___xxtofl+1
  2672  015B  082E               	movf	___xxtofl@arg,w
  2673  015C  00A4               	movwf	?___xxtofl
  2674  015D                     l786:
  2675  015D  0008               	return
  2676  015E                     __end_of___xxtofl:
  2677                           
  2678                           	psect	text3
  2679  17AD                     __ptext3:	
  2680 ;; *************** function ___wmul *****************
  2681 ;; Defined at:
  2682 ;;		line 15 in file "C:\Program Files\Microchip\xc8\v2.31\pic\sources\c90\common\Umul16.c"
  2683 ;; Parameters:    Size  Location     Type
  2684 ;;  multiplier      2    0[BANK0 ] unsigned int 
  2685 ;;  multiplicand    2    2[BANK0 ] unsigned int 
  2686 ;; Auto vars:     Size  Location     Type
  2687 ;;  product         2   11[COMMON] unsigned int 
  2688 ;; Return value:  Size  Location     Type
  2689 ;;                  2    0[BANK0 ] unsigned int 
  2690 ;; Registers used:
  2691 ;;		wreg, status,2, status,0
  2692 ;; Tracked objects:
  2693 ;;		On entry : 0/0
  2694 ;;		On exit  : 0/0
  2695 ;;		Unchanged: 0/0
  2696 ;; Data sizes:     COMMON   BANK0   BANK1   BANK3   BANK2
  2697 ;;      Params:         0       4       0       0       0
  2698 ;;      Locals:         2       0       0       0       0
  2699 ;;      Temps:          0       0       0       0       0
  2700 ;;      Totals:         2       4       0       0       0
  2701 ;;Total ram usage:        6 bytes
  2702 ;; Hardware stack levels used:    1
  2703 ;; This function calls:
  2704 ;;		Nothing
  2705 ;; This function is called by:
  2706 ;;		_convert
  2707 ;; This function uses a non-reentrant model
  2708 ;;
  2709                           
  2710                           
  2711                           ;psect for function ___wmul
  2712  17AD                     ___wmul:
  2713  17AD                     l2117:	
  2714                           ;incstack = 0
  2715                           ; Regs used in ___wmul: [wreg+status,2+status,0]
  2716                           
  2717  17AD  01FB               	clrf	___wmul@product
  2718  17AE  01FC               	clrf	___wmul@product+1
  2719  17AF                     l2119:
  2720  17AF  1283               	bcf	3,5	;RP0=0, select bank0
  2721  17B0  1303               	bcf	3,6	;RP1=0, select bank0
  2722  17B1  1C20               	btfss	___wmul@multiplier,0
  2723  17B2  2FB4               	goto	u2391
  2724  17B3  2FB5               	goto	u2390
  2725  17B4                     u2391:
  2726  17B4  2FBB               	goto	l351
  2727  17B5                     u2390:
  2728  17B5                     l2121:
  2729  17B5  0822               	movf	___wmul@multiplicand,w
  2730  17B6  07FB               	addwf	___wmul@product,f
  2731  17B7  1803               	skipnc
  2732  17B8  0AFC               	incf	___wmul@product+1,f
  2733  17B9  0823               	movf	___wmul@multiplicand+1,w
  2734  17BA  07FC               	addwf	___wmul@product+1,f
  2735  17BB                     l351:
  2736  17BB  3001               	movlw	1
  2737  17BC                     u2405:
  2738  17BC  1003               	clrc
  2739  17BD  0DA2               	rlf	___wmul@multiplicand,f
  2740  17BE  0DA3               	rlf	___wmul@multiplicand+1,f
  2741  17BF  3EFF               	addlw	-1
  2742  17C0  1D03               	skipz
  2743  17C1  2FBC               	goto	u2405
  2744  17C2                     l2123:
  2745  17C2  3001               	movlw	1
  2746  17C3                     u2415:
  2747  17C3  1003               	clrc
  2748  17C4  0CA1               	rrf	___wmul@multiplier+1,f
  2749  17C5  0CA0               	rrf	___wmul@multiplier,f
  2750  17C6  3EFF               	addlw	-1
  2751  17C7  1D03               	skipz
  2752  17C8  2FC3               	goto	u2415
  2753  17C9                     l2125:
  2754  17C9  0820               	movf	___wmul@multiplier,w
  2755  17CA  0421               	iorwf	___wmul@multiplier+1,w
  2756  17CB  1D03               	btfss	3,2
  2757  17CC  2FCE               	goto	u2421
  2758  17CD  2FCF               	goto	u2420
  2759  17CE                     u2421:
  2760  17CE  2FAF               	goto	l2119
  2761  17CF                     u2420:
  2762  17CF                     l2127:
  2763  17CF  087C               	movf	___wmul@product+1,w
  2764  17D0  00A1               	movwf	?___wmul+1
  2765  17D1  087B               	movf	___wmul@product,w
  2766  17D2  00A0               	movwf	?___wmul
  2767  17D3                     l353:
  2768  17D3  0008               	return
  2769  17D4                     __end_of___wmul:
  2770                           
  2771                           	psect	text4
  2772  0028                     __ptext4:	
  2773 ;; *************** function ___fltol *****************
  2774 ;; Defined at:
  2775 ;;		line 43 in file "C:\Program Files\Microchip\xc8\v2.31\pic\sources\c90\common\fltol.c"
  2776 ;; Parameters:    Size  Location     Type
  2777 ;;  f1              4    0[COMMON] unsigned int 
  2778 ;; Auto vars:     Size  Location     Type
  2779 ;;  exp1            1   10[COMMON] unsigned char 
  2780 ;;  sign1           1    9[COMMON] unsigned char 
  2781 ;; Return value:  Size  Location     Type
  2782 ;;                  4    0[COMMON] long 
  2783 ;; Registers used:
  2784 ;;		wreg, status,2, status,0
  2785 ;; Tracked objects:
  2786 ;;		On entry : 0/0
  2787 ;;		On exit  : 0/0
  2788 ;;		Unchanged: 0/0
  2789 ;; Data sizes:     COMMON   BANK0   BANK1   BANK3   BANK2
  2790 ;;      Params:         4       0       0       0       0
  2791 ;;      Locals:         2       0       0       0       0
  2792 ;;      Temps:          5       0       0       0       0
  2793 ;;      Totals:        11       0       0       0       0
  2794 ;;Total ram usage:       11 bytes
  2795 ;; Hardware stack levels used:    1
  2796 ;; This function calls:
  2797 ;;		Nothing
  2798 ;; This function is called by:
  2799 ;;		_convert
  2800 ;; This function uses a non-reentrant model
  2801 ;;
  2802                           
  2803                           
  2804                           ;psect for function ___fltol
  2805  0028                     ___fltol:
  2806  0028                     l2195:	
  2807                           ;incstack = 0
  2808                           ; Regs used in ___fltol: [wreg+status,2+status,0]
  2809                           
  2810  0028  1003               	clrc
  2811  0029  0D72               	rlf	___fltol@f1+2,w
  2812  002A  0D73               	rlf	___fltol@f1+3,w
  2813  002B  00F4               	movwf	??___fltol
  2814  002C  0874               	movf	??___fltol,w
  2815  002D  00FA               	movwf	___fltol@exp1
  2816  002E  087A               	movf	___fltol@exp1,w
  2817  002F  1D03               	btfss	3,2
  2818  0030  2832               	goto	u2601
  2819  0031  2833               	goto	u2600
  2820  0032                     u2601:
  2821  0032  283C               	goto	l2201
  2822  0033                     u2600:
  2823  0033                     l2197:
  2824  0033  3000               	movlw	0
  2825  0034  00F3               	movwf	?___fltol+3
  2826  0035  3000               	movlw	0
  2827  0036  00F2               	movwf	?___fltol+2
  2828  0037  3000               	movlw	0
  2829  0038  00F1               	movwf	?___fltol+1
  2830  0039  3000               	movlw	0
  2831  003A  00F0               	movwf	?___fltol
  2832  003B  28A1               	goto	l537
  2833  003C                     l2201:
  2834  003C  0870               	movf	___fltol@f1,w
  2835  003D  00F4               	movwf	??___fltol
  2836  003E  0871               	movf	___fltol@f1+1,w
  2837  003F  00F5               	movwf	??___fltol+1
  2838  0040  0872               	movf	___fltol@f1+2,w
  2839  0041  00F6               	movwf	??___fltol+2
  2840  0042  0873               	movf	___fltol@f1+3,w
  2841  0043  00F7               	movwf	??___fltol+3
  2842  0044  301F               	movlw	31
  2843  0045                     u2615:
  2844  0045  1003               	clrc
  2845  0046  0CF7               	rrf	??___fltol+3,f
  2846  0047  0CF6               	rrf	??___fltol+2,f
  2847  0048  0CF5               	rrf	??___fltol+1,f
  2848  0049  0CF4               	rrf	??___fltol,f
  2849  004A                     u2610:
  2850  004A  3EFF               	addlw	-1
  2851  004B  1D03               	skipz
  2852  004C  2845               	goto	u2615
  2853  004D  0874               	movf	??___fltol,w
  2854  004E  00F8               	movwf	??___fltol+4
  2855  004F  0878               	movf	??___fltol+4,w
  2856  0050  00F9               	movwf	___fltol@sign1
  2857  0051                     l2203:
  2858  0051  17F2               	bsf	___fltol@f1+2,7
  2859  0052                     l2205:
  2860  0052  30FF               	movlw	255
  2861  0053  05F0               	andwf	___fltol@f1,f
  2862  0054  30FF               	movlw	255
  2863  0055  05F1               	andwf	___fltol@f1+1,f
  2864  0056  30FF               	movlw	255
  2865  0057  05F2               	andwf	___fltol@f1+2,f
  2866  0058  3000               	movlw	0
  2867  0059  05F3               	andwf	___fltol@f1+3,f
  2868  005A                     l2207:
  2869  005A  3096               	movlw	150
  2870  005B  02FA               	subwf	___fltol@exp1,f
  2871  005C                     l2209:
  2872  005C  1FFA               	btfss	___fltol@exp1,7
  2873  005D  285F               	goto	u2621
  2874  005E  2860               	goto	u2620
  2875  005F                     u2621:
  2876  005F  287A               	goto	l2219
  2877  0060                     u2620:
  2878  0060                     l2211:
  2879  0060  087A               	movf	___fltol@exp1,w
  2880  0061  3A80               	xorlw	128
  2881  0062  3E97               	addlw	151
  2882  0063  1803               	skipnc
  2883  0064  2866               	goto	u2631
  2884  0065  2867               	goto	u2630
  2885  0066                     u2631:
  2886  0066  2868               	goto	l2217
  2887  0067                     u2630:
  2888  0067  2833               	goto	l2197
  2889  0068                     l2217:
  2890  0068  3001               	movlw	1
  2891  0069                     u2645:
  2892  0069  1003               	clrc
  2893  006A  0CF3               	rrf	___fltol@f1+3,f
  2894  006B  0CF2               	rrf	___fltol@f1+2,f
  2895  006C  0CF1               	rrf	___fltol@f1+1,f
  2896  006D  0CF0               	rrf	___fltol@f1,f
  2897  006E  3EFF               	addlw	-1
  2898  006F  1D03               	skipz
  2899  0070  2869               	goto	u2645
  2900  0071  3001               	movlw	1
  2901  0072  00F4               	movwf	??___fltol
  2902  0073  0874               	movf	??___fltol,w
  2903  0074  07FA               	addwf	___fltol@exp1,f
  2904  0075  1D03               	btfss	3,2
  2905  0076  2878               	goto	u2651
  2906  0077  2879               	goto	u2650
  2907  0078                     u2651:
  2908  0078  2868               	goto	l2217
  2909  0079                     u2650:
  2910  0079  2891               	goto	l2227
  2911  007A                     l2219:
  2912  007A  3020               	movlw	32
  2913  007B  027A               	subwf	___fltol@exp1,w
  2914  007C  1C03               	skipc
  2915  007D  287F               	goto	u2661
  2916  007E  2880               	goto	u2660
  2917  007F                     u2661:
  2918  007F  288C               	goto	l544
  2919  0080                     u2660:
  2920  0080  2833               	goto	l2197
  2921  0081                     l2225:
  2922  0081  3001               	movlw	1
  2923  0082  00F4               	movwf	??___fltol
  2924  0083                     u2675:
  2925  0083  1003               	clrc
  2926  0084  0DF0               	rlf	___fltol@f1,f
  2927  0085  0DF1               	rlf	___fltol@f1+1,f
  2928  0086  0DF2               	rlf	___fltol@f1+2,f
  2929  0087  0DF3               	rlf	___fltol@f1+3,f
  2930  0088  0BF4               	decfsz	??___fltol,f
  2931  0089  2883               	goto	u2675
  2932  008A  3001               	movlw	1
  2933  008B  02FA               	subwf	___fltol@exp1,f
  2934  008C                     l544:
  2935  008C  087A               	movf	___fltol@exp1,w
  2936  008D  1D03               	btfss	3,2
  2937  008E  2890               	goto	u2681
  2938  008F  2891               	goto	u2680
  2939  0090                     u2681:
  2940  0090  2881               	goto	l2225
  2941  0091                     u2680:
  2942  0091                     l2227:
  2943  0091  0879               	movf	___fltol@sign1,w
  2944  0092  1903               	btfsc	3,2
  2945  0093  2895               	goto	u2691
  2946  0094  2896               	goto	u2690
  2947  0095                     u2691:
  2948  0095  28A1               	goto	l547
  2949  0096                     u2690:
  2950  0096                     l2229:
  2951  0096  09F0               	comf	___fltol@f1,f
  2952  0097  09F1               	comf	___fltol@f1+1,f
  2953  0098  09F2               	comf	___fltol@f1+2,f
  2954  0099  09F3               	comf	___fltol@f1+3,f
  2955  009A  0AF0               	incf	___fltol@f1,f
  2956  009B  1903               	skipnz
  2957  009C  0AF1               	incf	___fltol@f1+1,f
  2958  009D  1903               	skipnz
  2959  009E  0AF2               	incf	___fltol@f1+2,f
  2960  009F  1903               	skipnz
  2961  00A0  0AF3               	incf	___fltol@f1+3,f
  2962  00A1                     l547:
  2963  00A1                     l537:
  2964  00A1  0008               	return
  2965  00A2                     __end_of___fltol:
  2966                           
  2967                           	psect	text5
  2968  0004                     __ptext5:	
  2969 ;; *************** function ___flsub *****************
  2970 ;; Defined at:
  2971 ;;		line 242 in file "C:\Program Files\Microchip\xc8\v2.31\pic\sources\c90\common\sprcadd.c"
  2972 ;; Parameters:    Size  Location     Type
  2973 ;;  a               4   18[BANK0 ] long 
  2974 ;;  b               4   22[BANK0 ] long 
  2975 ;; Auto vars:     Size  Location     Type
  2976 ;;		None
  2977 ;; Return value:  Size  Location     Type
  2978 ;;                  4   18[BANK0 ] long 
  2979 ;; Registers used:
  2980 ;;		wreg, status,2, status,0, btemp+1, pclath, cstack
  2981 ;; Tracked objects:
  2982 ;;		On entry : 0/0
  2983 ;;		On exit  : 0/0
  2984 ;;		Unchanged: 0/0
  2985 ;; Data sizes:     COMMON   BANK0   BANK1   BANK3   BANK2
  2986 ;;      Params:         0       8       0       0       0
  2987 ;;      Locals:         0       0       0       0       0
  2988 ;;      Temps:          0       0       0       0       0
  2989 ;;      Totals:         0       8       0       0       0
  2990 ;;Total ram usage:        8 bytes
  2991 ;; Hardware stack levels used:    1
  2992 ;; Hardware stack levels required when called:    1
  2993 ;; This function calls:
  2994 ;;		___fladd
  2995 ;; This function is called by:
  2996 ;;		_convert
  2997 ;; This function uses a non-reentrant model
  2998 ;;
  2999                           
  3000                           
  3001                           ;psect for function ___flsub
  3002  0004                     ___flsub:
  3003  0004                     l2231:	
  3004                           ;incstack = 0
  3005                           ; Regs used in ___flsub: [wreg+status,2+status,0+btemp+1+pclath+cstack]
  3006                           
  3007  0004  3080               	movlw	128
  3008  0005  1283               	bcf	3,5	;RP0=0, select bank0
  3009  0006  1303               	bcf	3,6	;RP1=0, select bank0
  3010  0007  06B5               	xorwf	___flsub@a+3,f
  3011  0008                     l2233:
  3012  0008  0839               	movf	___flsub@b+3,w
  3013  0009  00F3               	movwf	___fladd@b+3
  3014  000A  0838               	movf	___flsub@b+2,w
  3015  000B  00F2               	movwf	___fladd@b+2
  3016  000C  0837               	movf	___flsub@b+1,w
  3017  000D  00F1               	movwf	___fladd@b+1
  3018  000E  0836               	movf	___flsub@b,w
  3019  000F  00F0               	movwf	___fladd@b
  3020  0010  0835               	movf	___flsub@a+3,w
  3021  0011  00F7               	movwf	___fladd@a+3
  3022  0012  0834               	movf	___flsub@a+2,w
  3023  0013  00F6               	movwf	___fladd@a+2
  3024  0014  0833               	movf	___flsub@a+1,w
  3025  0015  00F5               	movwf	___fladd@a+1
  3026  0016  0832               	movf	___flsub@a,w
  3027  0017  00F4               	movwf	___fladd@a
  3028  0018  120A  158A  2568  120A  118A  	fcall	___fladd
  3029  001D  0873               	movf	?___fladd+3,w
  3030  001E  1283               	bcf	3,5	;RP0=0, select bank0
  3031  001F  1303               	bcf	3,6	;RP1=0, select bank0
  3032  0020  00B5               	movwf	?___flsub+3
  3033  0021  0872               	movf	?___fladd+2,w
  3034  0022  00B4               	movwf	?___flsub+2
  3035  0023  0871               	movf	?___fladd+1,w
  3036  0024  00B3               	movwf	?___flsub+1
  3037  0025  0870               	movf	?___fladd,w
  3038  0026  00B2               	movwf	?___flsub
  3039  0027                     l690:
  3040  0027  0008               	return
  3041  0028                     __end_of___flsub:
  3042                           
  3043                           	psect	text6
  3044  0D68                     __ptext6:	
  3045 ;; *************** function ___fladd *****************
  3046 ;; Defined at:
  3047 ;;		line 10 in file "C:\Program Files\Microchip\xc8\v2.31\pic\sources\c90\common\sprcadd.c"
  3048 ;; Parameters:    Size  Location     Type
  3049 ;;  b               4    0[COMMON] long 
  3050 ;;  a               4    4[COMMON] long 
  3051 ;; Auto vars:     Size  Location     Type
  3052 ;;  grs             1   11[COMMON] unsigned char 
  3053 ;;  bexp            1   10[COMMON] unsigned char 
  3054 ;;  aexp            1    9[COMMON] unsigned char 
  3055 ;;  signs           1    8[COMMON] unsigned char 
  3056 ;; Return value:  Size  Location     Type
  3057 ;;                  4    0[COMMON] unsigned char 
  3058 ;; Registers used:
  3059 ;;		wreg, status,2, status,0, btemp+1
  3060 ;; Tracked objects:
  3061 ;;		On entry : 0/0
  3062 ;;		On exit  : 0/0
  3063 ;;		Unchanged: 0/0
  3064 ;; Data sizes:     COMMON   BANK0   BANK1   BANK3   BANK2
  3065 ;;      Params:         8       0       0       0       0
  3066 ;;      Locals:         4       0       0       0       0
  3067 ;;      Temps:          0       8       0       0       0
  3068 ;;      Totals:        12       8       0       0       0
  3069 ;;Total ram usage:       20 bytes
  3070 ;; Hardware stack levels used:    1
  3071 ;; This function calls:
  3072 ;;		Nothing
  3073 ;; This function is called by:
  3074 ;;		___flsub
  3075 ;; This function uses a non-reentrant model
  3076 ;;
  3077                           
  3078                           
  3079                           ;psect for function ___fladd
  3080  0D68                     ___fladd:
  3081  0D68                     l1889:	
  3082                           ;incstack = 0
  3083                           ; Regs used in ___fladd: [wreg+status,2+status,0+btemp+1]
  3084                           
  3085  0D68  0873               	movf	___fladd@b+3,w
  3086  0D69  3980               	andlw	128
  3087  0D6A  1283               	bcf	3,5	;RP0=0, select bank0
  3088  0D6B  1303               	bcf	3,6	;RP1=0, select bank0
  3089  0D6C  00A0               	movwf	??___fladd
  3090  0D6D  0820               	movf	??___fladd,w
  3091  0D6E  00F8               	movwf	___fladd@signs
  3092  0D6F                     l1891:
  3093  0D6F  0873               	movf	___fladd@b+3,w
  3094  0D70  00A0               	movwf	??___fladd
  3095  0D71  0720               	addwf	??___fladd,w
  3096  0D72  00A1               	movwf	??___fladd+1
  3097  0D73  0821               	movf	??___fladd+1,w
  3098  0D74  00FA               	movwf	___fladd@bexp
  3099  0D75                     l1893:
  3100  0D75  1FF2               	btfss	___fladd@b+2,7
  3101  0D76  2D78               	goto	u1901
  3102  0D77  2D79               	goto	u1900
  3103  0D78                     u1901:
  3104  0D78  2D7A               	goto	l1897
  3105  0D79                     u1900:
  3106  0D79                     l1895:
  3107  0D79  147A               	bsf	___fladd@bexp,0
  3108  0D7A                     l1897:
  3109  0D7A  087A               	movf	___fladd@bexp,w
  3110  0D7B  1903               	btfsc	3,2
  3111  0D7C  2D7E               	goto	u1911
  3112  0D7D  2D7F               	goto	u1910
  3113  0D7E                     u1911:
  3114  0D7E  2D8F               	goto	l1907
  3115  0D7F                     u1910:
  3116  0D7F                     l1899:
  3117  0D7F  0A7A               	incf	___fladd@bexp,w
  3118  0D80  1D03               	btfss	3,2
  3119  0D81  2D83               	goto	u1921
  3120  0D82  2D84               	goto	u1920
  3121  0D83                     u1921:
  3122  0D83  2D8C               	goto	l1903
  3123  0D84                     u1920:
  3124  0D84                     l1901:
  3125  0D84  3000               	movlw	0
  3126  0D85  00F3               	movwf	___fladd@b+3
  3127  0D86  3000               	movlw	0
  3128  0D87  00F2               	movwf	___fladd@b+2
  3129  0D88  3000               	movlw	0
  3130  0D89  00F1               	movwf	___fladd@b+1
  3131  0D8A  3000               	movlw	0
  3132  0D8B  00F0               	movwf	___fladd@b
  3133  0D8C                     l1903:
  3134  0D8C  17F2               	bsf	___fladd@b+2,7
  3135  0D8D                     l1905:
  3136  0D8D  01F3               	clrf	___fladd@b+3
  3137  0D8E  2D97               	goto	l1909
  3138  0D8F                     l1907:
  3139  0D8F  3000               	movlw	0
  3140  0D90  00F3               	movwf	___fladd@b+3
  3141  0D91  3000               	movlw	0
  3142  0D92  00F2               	movwf	___fladd@b+2
  3143  0D93  3000               	movlw	0
  3144  0D94  00F1               	movwf	___fladd@b+1
  3145  0D95  3000               	movlw	0
  3146  0D96  00F0               	movwf	___fladd@b
  3147  0D97                     l1909:
  3148  0D97  0877               	movf	___fladd@a+3,w
  3149  0D98  3980               	andlw	128
  3150  0D99  00A0               	movwf	??___fladd
  3151  0D9A  0820               	movf	??___fladd,w
  3152  0D9B  00F9               	movwf	___fladd@aexp
  3153  0D9C                     l1911:
  3154  0D9C  0879               	movf	___fladd@aexp,w
  3155  0D9D  0678               	xorwf	___fladd@signs,w
  3156  0D9E  1903               	skipnz
  3157  0D9F  2DA1               	goto	u1931
  3158  0DA0  2DA2               	goto	u1930
  3159  0DA1                     u1931:
  3160  0DA1  2DA3               	goto	l1915
  3161  0DA2                     u1930:
  3162  0DA2                     l1913:
  3163  0DA2  1778               	bsf	___fladd@signs,6
  3164  0DA3                     l1915:
  3165  0DA3  0877               	movf	___fladd@a+3,w
  3166  0DA4  00A0               	movwf	??___fladd
  3167  0DA5  0720               	addwf	??___fladd,w
  3168  0DA6  00A1               	movwf	??___fladd+1
  3169  0DA7  0821               	movf	??___fladd+1,w
  3170  0DA8  00F9               	movwf	___fladd@aexp
  3171  0DA9                     l1917:
  3172  0DA9  1FF6               	btfss	___fladd@a+2,7
  3173  0DAA  2DAC               	goto	u1941
  3174  0DAB  2DAD               	goto	u1940
  3175  0DAC                     u1941:
  3176  0DAC  2DAE               	goto	l1921
  3177  0DAD                     u1940:
  3178  0DAD                     l1919:
  3179  0DAD  1479               	bsf	___fladd@aexp,0
  3180  0DAE                     l1921:
  3181  0DAE  0879               	movf	___fladd@aexp,w
  3182  0DAF  1903               	btfsc	3,2
  3183  0DB0  2DB2               	goto	u1951
  3184  0DB1  2DB3               	goto	u1950
  3185  0DB2                     u1951:
  3186  0DB2  2DC3               	goto	l1931
  3187  0DB3                     u1950:
  3188  0DB3                     l1923:
  3189  0DB3  0A79               	incf	___fladd@aexp,w
  3190  0DB4  1D03               	btfss	3,2
  3191  0DB5  2DB7               	goto	u1961
  3192  0DB6  2DB8               	goto	u1960
  3193  0DB7                     u1961:
  3194  0DB7  2DC0               	goto	l1927
  3195  0DB8                     u1960:
  3196  0DB8                     l1925:
  3197  0DB8  3000               	movlw	0
  3198  0DB9  00F7               	movwf	___fladd@a+3
  3199  0DBA  3000               	movlw	0
  3200  0DBB  00F6               	movwf	___fladd@a+2
  3201  0DBC  3000               	movlw	0
  3202  0DBD  00F5               	movwf	___fladd@a+1
  3203  0DBE  3000               	movlw	0
  3204  0DBF  00F4               	movwf	___fladd@a
  3205  0DC0                     l1927:
  3206  0DC0  17F6               	bsf	___fladd@a+2,7
  3207  0DC1                     l1929:
  3208  0DC1  01F7               	clrf	___fladd@a+3
  3209  0DC2  2DCB               	goto	l644
  3210  0DC3                     l1931:
  3211  0DC3  3000               	movlw	0
  3212  0DC4  00F7               	movwf	___fladd@a+3
  3213  0DC5  3000               	movlw	0
  3214  0DC6  00F6               	movwf	___fladd@a+2
  3215  0DC7  3000               	movlw	0
  3216  0DC8  00F5               	movwf	___fladd@a+1
  3217  0DC9  3000               	movlw	0
  3218  0DCA  00F4               	movwf	___fladd@a
  3219  0DCB                     l644:
  3220  0DCB  087A               	movf	___fladd@bexp,w
  3221  0DCC  0279               	subwf	___fladd@aexp,w
  3222  0DCD  1803               	skipnc
  3223  0DCE  2DD0               	goto	u1971
  3224  0DCF  2DD1               	goto	u1970
  3225  0DD0                     u1971:
  3226  0DD0  2E15               	goto	l1967
  3227  0DD1                     u1970:
  3228  0DD1                     l1933:
  3229  0DD1  1F78               	btfss	___fladd@signs,6
  3230  0DD2  2DD4               	goto	u1981
  3231  0DD3  2DD5               	goto	u1980
  3232  0DD4                     u1981:
  3233  0DD4  2DD9               	goto	l1937
  3234  0DD5                     u1980:
  3235  0DD5                     l1935:
  3236  0DD5  3080               	movlw	128
  3237  0DD6  00A0               	movwf	??___fladd
  3238  0DD7  0820               	movf	??___fladd,w
  3239  0DD8  06F8               	xorwf	___fladd@signs,f
  3240  0DD9                     l1937:
  3241  0DD9  087A               	movf	___fladd@bexp,w
  3242  0DDA  00A0               	movwf	??___fladd
  3243  0DDB  0820               	movf	??___fladd,w
  3244  0DDC  00FB               	movwf	___fladd@grs
  3245  0DDD                     l1939:
  3246  0DDD  0879               	movf	___fladd@aexp,w
  3247  0DDE  00A0               	movwf	??___fladd
  3248  0DDF  0820               	movf	??___fladd,w
  3249  0DE0  00FA               	movwf	___fladd@bexp
  3250  0DE1                     l1941:
  3251  0DE1  087B               	movf	___fladd@grs,w
  3252  0DE2  00A0               	movwf	??___fladd
  3253  0DE3  0820               	movf	??___fladd,w
  3254  0DE4  00F9               	movwf	___fladd@aexp
  3255  0DE5                     l1943:
  3256  0DE5  0870               	movf	___fladd@b,w
  3257  0DE6  00A0               	movwf	??___fladd
  3258  0DE7  0820               	movf	??___fladd,w
  3259  0DE8  00FB               	movwf	___fladd@grs
  3260  0DE9                     l1945:
  3261  0DE9  0874               	movf	___fladd@a,w
  3262  0DEA  00A0               	movwf	??___fladd
  3263  0DEB  0820               	movf	??___fladd,w
  3264  0DEC  00F0               	movwf	___fladd@b
  3265  0DED                     l1947:
  3266  0DED  087B               	movf	___fladd@grs,w
  3267  0DEE  00A0               	movwf	??___fladd
  3268  0DEF  0820               	movf	??___fladd,w
  3269  0DF0  00F4               	movwf	___fladd@a
  3270  0DF1                     l1949:
  3271  0DF1  0871               	movf	___fladd@b+1,w
  3272  0DF2  00A0               	movwf	??___fladd
  3273  0DF3  0820               	movf	??___fladd,w
  3274  0DF4  00FB               	movwf	___fladd@grs
  3275  0DF5                     l1951:
  3276  0DF5  0875               	movf	___fladd@a+1,w
  3277  0DF6  00A0               	movwf	??___fladd
  3278  0DF7  0820               	movf	??___fladd,w
  3279  0DF8  00F1               	movwf	___fladd@b+1
  3280  0DF9                     l1953:
  3281  0DF9  087B               	movf	___fladd@grs,w
  3282  0DFA  00A0               	movwf	??___fladd
  3283  0DFB  0820               	movf	??___fladd,w
  3284  0DFC  00F5               	movwf	___fladd@a+1
  3285  0DFD                     l1955:
  3286  0DFD  0872               	movf	___fladd@b+2,w
  3287  0DFE  00A0               	movwf	??___fladd
  3288  0DFF  0820               	movf	??___fladd,w
  3289  0E00  00FB               	movwf	___fladd@grs
  3290  0E01                     l1957:
  3291  0E01  0876               	movf	___fladd@a+2,w
  3292  0E02  00A0               	movwf	??___fladd
  3293  0E03  0820               	movf	??___fladd,w
  3294  0E04  00F2               	movwf	___fladd@b+2
  3295  0E05                     l1959:
  3296  0E05  087B               	movf	___fladd@grs,w
  3297  0E06  00A0               	movwf	??___fladd
  3298  0E07  0820               	movf	??___fladd,w
  3299  0E08  00F6               	movwf	___fladd@a+2
  3300  0E09                     l1961:
  3301  0E09  0873               	movf	___fladd@b+3,w
  3302  0E0A  00A0               	movwf	??___fladd
  3303  0E0B  0820               	movf	??___fladd,w
  3304  0E0C  00FB               	movwf	___fladd@grs
  3305  0E0D                     l1963:
  3306  0E0D  0877               	movf	___fladd@a+3,w
  3307  0E0E  00A0               	movwf	??___fladd
  3308  0E0F  0820               	movf	??___fladd,w
  3309  0E10  00F3               	movwf	___fladd@b+3
  3310  0E11                     l1965:
  3311  0E11  087B               	movf	___fladd@grs,w
  3312  0E12  00A0               	movwf	??___fladd
  3313  0E13  0820               	movf	??___fladd,w
  3314  0E14  00F7               	movwf	___fladd@a+3
  3315  0E15                     l1967:
  3316  0E15  01FB               	clrf	___fladd@grs
  3317  0E16                     l1969:
  3318  0E16  0879               	movf	___fladd@aexp,w
  3319  0E17  00A0               	movwf	??___fladd
  3320  0E18  01A1               	clrf	??___fladd+1
  3321  0E19  0821               	movf	??___fladd+1,w
  3322  0E1A  00A3               	movwf	??___fladd+3
  3323  0E1B  087A               	movf	___fladd@bexp,w
  3324  0E1C  0220               	subwf	??___fladd,w
  3325  0E1D  00A2               	movwf	??___fladd+2
  3326  0E1E  1C03               	skipc
  3327  0E1F  03A3               	decf	??___fladd+3,f
  3328  0E20  0823               	movf	??___fladd+3,w
  3329  0E21  3A80               	xorlw	128
  3330  0E22  00FF               	movwf	btemp+1
  3331  0E23  3080               	movlw	128
  3332  0E24  027F               	subwf	btemp+1,w
  3333  0E25  1D03               	skipz
  3334  0E26  2E29               	goto	u1995
  3335  0E27  301A               	movlw	26
  3336  0E28  0222               	subwf	??___fladd+2,w
  3337  0E29                     u1995:
  3338  0E29  1C03               	skipc
  3339  0E2A  2E2C               	goto	u1991
  3340  0E2B  2E2D               	goto	u1990
  3341  0E2C                     u1991:
  3342  0E2C  2E6E               	goto	l1985
  3343  0E2D                     u1990:
  3344  0E2D                     l1971:
  3345  0E2D  0873               	movf	___fladd@b+3,w
  3346  0E2E  0472               	iorwf	___fladd@b+2,w
  3347  0E2F  0471               	iorwf	___fladd@b+1,w
  3348  0E30  0470               	iorwf	___fladd@b,w
  3349  0E31  1D03               	skipz
  3350  0E32  2E34               	goto	u2001
  3351  0E33  2E36               	goto	u2000
  3352  0E34                     u2001:
  3353  0E34  3001               	movlw	1
  3354  0E35  2E37               	goto	u2010
  3355  0E36                     u2000:
  3356  0E36  3000               	movlw	0
  3357  0E37                     u2010:
  3358  0E37  1283               	bcf	3,5	;RP0=0, select bank0
  3359  0E38  1303               	bcf	3,6	;RP1=0, select bank0
  3360  0E39  00A0               	movwf	??___fladd
  3361  0E3A  0820               	movf	??___fladd,w
  3362  0E3B  00FB               	movwf	___fladd@grs
  3363  0E3C  3000               	movlw	0
  3364  0E3D  00F3               	movwf	___fladd@b+3
  3365  0E3E  3000               	movlw	0
  3366  0E3F  00F2               	movwf	___fladd@b+2
  3367  0E40  3000               	movlw	0
  3368  0E41  00F1               	movwf	___fladd@b+1
  3369  0E42  3000               	movlw	0
  3370  0E43  00F0               	movwf	___fladd@b
  3371  0E44  0879               	movf	___fladd@aexp,w
  3372  0E45  00A0               	movwf	??___fladd
  3373  0E46  0820               	movf	??___fladd,w
  3374  0E47  00FA               	movwf	___fladd@bexp
  3375  0E48  2E74               	goto	l648
  3376  0E49                     l650:
  3377  0E49  1C7B               	btfss	___fladd@grs,0
  3378  0E4A  2E4C               	goto	u2021
  3379  0E4B  2E4D               	goto	u2020
  3380  0E4C                     u2021:
  3381  0E4C  2E58               	goto	l1975
  3382  0E4D                     u2020:
  3383  0E4D                     l1973:
  3384  0E4D  087B               	movf	___fladd@grs,w
  3385  0E4E  1283               	bcf	3,5	;RP0=0, select bank0
  3386  0E4F  1303               	bcf	3,6	;RP1=0, select bank0
  3387  0E50  00A0               	movwf	??___fladd
  3388  0E51  1003               	clrc
  3389  0E52  0C20               	rrf	??___fladd,w
  3390  0E53  3801               	iorlw	1
  3391  0E54  00A1               	movwf	??___fladd+1
  3392  0E55  0821               	movf	??___fladd+1,w
  3393  0E56  00FB               	movwf	___fladd@grs
  3394  0E57  2E5A               	goto	l1977
  3395  0E58                     l1975:
  3396  0E58  1003               	clrc
  3397  0E59  0CFB               	rrf	___fladd@grs,f
  3398  0E5A                     l1977:
  3399  0E5A  1C70               	btfss	___fladd@b,0
  3400  0E5B  2E5D               	goto	u2031
  3401  0E5C  2E5E               	goto	u2030
  3402  0E5D                     u2031:
  3403  0E5D  2E5F               	goto	l1981
  3404  0E5E                     u2030:
  3405  0E5E                     l1979:
  3406  0E5E  17FB               	bsf	___fladd@grs,7
  3407  0E5F                     l1981:
  3408  0E5F  3001               	movlw	1
  3409  0E60  1283               	bcf	3,5	;RP0=0, select bank0
  3410  0E61  1303               	bcf	3,6	;RP1=0, select bank0
  3411  0E62  00A0               	movwf	??___fladd
  3412  0E63                     u2045:
  3413  0E63  0D73               	rlf	___fladd@b+3,w
  3414  0E64  0CF3               	rrf	___fladd@b+3,f
  3415  0E65  0CF2               	rrf	___fladd@b+2,f
  3416  0E66  0CF1               	rrf	___fladd@b+1,f
  3417  0E67  0CF0               	rrf	___fladd@b,f
  3418  0E68  0BA0               	decfsz	??___fladd& (0+127),f
  3419  0E69  2E63               	goto	u2045
  3420  0E6A                     l1983:
  3421  0E6A  3001               	movlw	1
  3422  0E6B  00A0               	movwf	??___fladd
  3423  0E6C  0820               	movf	??___fladd,w
  3424  0E6D  07FA               	addwf	___fladd@bexp,f
  3425  0E6E                     l1985:
  3426  0E6E  0879               	movf	___fladd@aexp,w
  3427  0E6F  027A               	subwf	___fladd@bexp,w
  3428  0E70  1C03               	skipc
  3429  0E71  2E73               	goto	u2051
  3430  0E72  2E74               	goto	u2050
  3431  0E73                     u2051:
  3432  0E73  2E49               	goto	l650
  3433  0E74                     u2050:
  3434  0E74                     l648:
  3435  0E74  1B78               	btfsc	___fladd@signs,6
  3436  0E75  2E77               	goto	u2061
  3437  0E76  2E78               	goto	u2060
  3438  0E77                     u2061:
  3439  0E77  2EC7               	goto	l2011
  3440  0E78                     u2060:
  3441  0E78                     l1987:
  3442  0E78  087A               	movf	___fladd@bexp,w
  3443  0E79  1D03               	btfss	3,2
  3444  0E7A  2E7C               	goto	u2071
  3445  0E7B  2E7D               	goto	u2070
  3446  0E7C                     u2071:
  3447  0E7C  2E86               	goto	l1993
  3448  0E7D                     u2070:
  3449  0E7D                     l1989:
  3450  0E7D  3000               	movlw	0
  3451  0E7E  00F3               	movwf	?___fladd+3
  3452  0E7F  3000               	movlw	0
  3453  0E80  00F2               	movwf	?___fladd+2
  3454  0E81  3000               	movlw	0
  3455  0E82  00F1               	movwf	?___fladd+1
  3456  0E83  3000               	movlw	0
  3457  0E84  00F0               	movwf	?___fladd
  3458  0E85  2FFF               	goto	l657
  3459  0E86                     l1993:
  3460  0E86  0874               	movf	___fladd@a,w
  3461  0E87  07F0               	addwf	___fladd@b,f
  3462  0E88  0875               	movf	___fladd@a+1,w
  3463  0E89  1103               	clrz
  3464  0E8A  1803               	skipnc
  3465  0E8B  3E01               	addlw	1
  3466  0E8C  1903               	skipnz
  3467  0E8D  2E8F               	goto	u2081
  3468  0E8E  07F1               	addwf	___fladd@b+1,f
  3469  0E8F                     u2081:
  3470  0E8F  0876               	movf	___fladd@a+2,w
  3471  0E90  1103               	clrz
  3472  0E91  1803               	skipnc
  3473  0E92  3E01               	addlw	1
  3474  0E93  1903               	skipnz
  3475  0E94  2E96               	goto	u2082
  3476  0E95  07F2               	addwf	___fladd@b+2,f
  3477  0E96                     u2082:
  3478  0E96  0877               	movf	___fladd@a+3,w
  3479  0E97  1103               	clrz
  3480  0E98  1803               	skipnc
  3481  0E99  3E01               	addlw	1
  3482  0E9A  1903               	skipnz
  3483  0E9B  2E9D               	goto	u2083
  3484  0E9C  07F3               	addwf	___fladd@b+3,f
  3485  0E9D                     u2083:
  3486  0E9D                     l1995:
  3487  0E9D  1C73               	btfss	___fladd@b+3,0
  3488  0E9E  2EA0               	goto	u2091
  3489  0E9F  2EA1               	goto	u2090
  3490  0EA0                     u2091:
  3491  0EA0  2F7F               	goto	l2045
  3492  0EA1                     u2090:
  3493  0EA1                     l1997:
  3494  0EA1  1C7B               	btfss	___fladd@grs,0
  3495  0EA2  2EA4               	goto	u2101
  3496  0EA3  2EA5               	goto	u2100
  3497  0EA4                     u2101:
  3498  0EA4  2EB0               	goto	l2001
  3499  0EA5                     u2100:
  3500  0EA5                     l1999:
  3501  0EA5  087B               	movf	___fladd@grs,w
  3502  0EA6  1283               	bcf	3,5	;RP0=0, select bank0
  3503  0EA7  1303               	bcf	3,6	;RP1=0, select bank0
  3504  0EA8  00A0               	movwf	??___fladd
  3505  0EA9  1003               	clrc
  3506  0EAA  0C20               	rrf	??___fladd,w
  3507  0EAB  3801               	iorlw	1
  3508  0EAC  00A1               	movwf	??___fladd+1
  3509  0EAD  0821               	movf	??___fladd+1,w
  3510  0EAE  00FB               	movwf	___fladd@grs
  3511  0EAF  2EB2               	goto	l2003
  3512  0EB0                     l2001:
  3513  0EB0  1003               	clrc
  3514  0EB1  0CFB               	rrf	___fladd@grs,f
  3515  0EB2                     l2003:
  3516  0EB2  1C70               	btfss	___fladd@b,0
  3517  0EB3  2EB5               	goto	u2111
  3518  0EB4  2EB6               	goto	u2110
  3519  0EB5                     u2111:
  3520  0EB5  2EB7               	goto	l2007
  3521  0EB6                     u2110:
  3522  0EB6                     l2005:
  3523  0EB6  17FB               	bsf	___fladd@grs,7
  3524  0EB7                     l2007:
  3525  0EB7  3001               	movlw	1
  3526  0EB8  1283               	bcf	3,5	;RP0=0, select bank0
  3527  0EB9  1303               	bcf	3,6	;RP1=0, select bank0
  3528  0EBA  00A0               	movwf	??___fladd
  3529  0EBB                     u2125:
  3530  0EBB  0D73               	rlf	___fladd@b+3,w
  3531  0EBC  0CF3               	rrf	___fladd@b+3,f
  3532  0EBD  0CF2               	rrf	___fladd@b+2,f
  3533  0EBE  0CF1               	rrf	___fladd@b+1,f
  3534  0EBF  0CF0               	rrf	___fladd@b,f
  3535  0EC0  0BA0               	decfsz	??___fladd& (0+127),f
  3536  0EC1  2EBB               	goto	u2125
  3537  0EC2                     l2009:
  3538  0EC2  3001               	movlw	1
  3539  0EC3  00A0               	movwf	??___fladd
  3540  0EC4  0820               	movf	??___fladd,w
  3541  0EC5  07FA               	addwf	___fladd@bexp,f
  3542  0EC6  2F7F               	goto	l2045
  3543  0EC7                     l2011:
  3544  0EC7  0873               	movf	___fladd@b+3,w
  3545  0EC8  3A80               	xorlw	128
  3546  0EC9  00FF               	movwf	btemp+1
  3547  0ECA  0877               	movf	___fladd@a+3,w
  3548  0ECB  3A80               	xorlw	128
  3549  0ECC  027F               	subwf	btemp+1,w
  3550  0ECD  1D03               	skipz
  3551  0ECE  2ED9               	goto	u2133
  3552  0ECF  0876               	movf	___fladd@a+2,w
  3553  0ED0  0272               	subwf	___fladd@b+2,w
  3554  0ED1  1D03               	skipz
  3555  0ED2  2ED9               	goto	u2133
  3556  0ED3  0875               	movf	___fladd@a+1,w
  3557  0ED4  0271               	subwf	___fladd@b+1,w
  3558  0ED5  1D03               	skipz
  3559  0ED6  2ED9               	goto	u2133
  3560  0ED7  0874               	movf	___fladd@a,w
  3561  0ED8  0270               	subwf	___fladd@b,w
  3562  0ED9                     u2133:
  3563  0ED9  1803               	skipnc
  3564  0EDA  2EDC               	goto	u2131
  3565  0EDB  2EDD               	goto	u2130
  3566  0EDC                     u2131:
  3567  0EDC  2F37               	goto	l2021
  3568  0EDD                     u2130:
  3569  0EDD                     l2013:
  3570  0EDD  30FF               	movlw	255
  3571  0EDE  1283               	bcf	3,5	;RP0=0, select bank0
  3572  0EDF  1303               	bcf	3,6	;RP1=0, select bank0
  3573  0EE0  00A0               	movwf	??___fladd
  3574  0EE1  30FF               	movlw	255
  3575  0EE2  00A1               	movwf	??___fladd+1
  3576  0EE3  30FF               	movlw	255
  3577  0EE4  00A2               	movwf	??___fladd+2
  3578  0EE5  30FF               	movlw	255
  3579  0EE6  00A3               	movwf	??___fladd+3
  3580  0EE7  0874               	movf	___fladd@a,w
  3581  0EE8  00A4               	movwf	??___fladd+4
  3582  0EE9  0875               	movf	___fladd@a+1,w
  3583  0EEA  00A5               	movwf	??___fladd+5
  3584  0EEB  0876               	movf	___fladd@a+2,w
  3585  0EEC  00A6               	movwf	??___fladd+6
  3586  0EED  0877               	movf	___fladd@a+3,w
  3587  0EEE  00A7               	movwf	??___fladd+7
  3588  0EEF  0870               	movf	___fladd@b,w
  3589  0EF0  02A4               	subwf	??___fladd+4,f
  3590  0EF1  0871               	movf	___fladd@b+1,w
  3591  0EF2  1C03               	skipc
  3592  0EF3  0F71               	incfsz	___fladd@b+1,w
  3593  0EF4  2EF6               	goto	u2141
  3594  0EF5  2EF7               	goto	u2142
  3595  0EF6                     u2141:
  3596  0EF6  02A5               	subwf	??___fladd+5,f
  3597  0EF7                     u2142:
  3598  0EF7  0872               	movf	___fladd@b+2,w
  3599  0EF8  1C03               	skipc
  3600  0EF9  0F72               	incfsz	___fladd@b+2,w
  3601  0EFA  2EFC               	goto	u2143
  3602  0EFB  2EFD               	goto	u2144
  3603  0EFC                     u2143:
  3604  0EFC  02A6               	subwf	??___fladd+6,f
  3605  0EFD                     u2144:
  3606  0EFD  0873               	movf	___fladd@b+3,w
  3607  0EFE  1C03               	skipc
  3608  0EFF  0F73               	incfsz	___fladd@b+3,w
  3609  0F00  2F02               	goto	u2145
  3610  0F01  2F03               	goto	u2146
  3611  0F02                     u2145:
  3612  0F02  02A7               	subwf	??___fladd+7,f
  3613  0F03                     u2146:
  3614  0F03  0824               	movf	??___fladd+4,w
  3615  0F04  07A0               	addwf	??___fladd,f
  3616  0F05  0825               	movf	??___fladd+5,w
  3617  0F06  1803               	skipnc
  3618  0F07  0F25               	incfsz	??___fladd+5,w
  3619  0F08  2F0A               	goto	u2150
  3620  0F09  2F0B               	goto	u2151
  3621  0F0A                     u2150:
  3622  0F0A  07A1               	addwf	??___fladd+1,f
  3623  0F0B                     u2151:
  3624  0F0B  0826               	movf	??___fladd+6,w
  3625  0F0C  1803               	skipnc
  3626  0F0D  0F26               	incfsz	??___fladd+6,w
  3627  0F0E  2F10               	goto	u2152
  3628  0F0F  2F11               	goto	u2153
  3629  0F10                     u2152:
  3630  0F10  07A2               	addwf	??___fladd+2,f
  3631  0F11                     u2153:
  3632  0F11  0827               	movf	??___fladd+7,w
  3633  0F12  1803               	skipnc
  3634  0F13  0A27               	incf	??___fladd+7,w
  3635  0F14  07A3               	addwf	??___fladd+3,f
  3636  0F15  0823               	movf	??___fladd+3,w
  3637  0F16  00F3               	movwf	___fladd@b+3
  3638  0F17  0822               	movf	??___fladd+2,w
  3639  0F18  00F2               	movwf	___fladd@b+2
  3640  0F19  0821               	movf	??___fladd+1,w
  3641  0F1A  00F1               	movwf	___fladd@b+1
  3642  0F1B  0820               	movf	??___fladd,w
  3643  0F1C  00F0               	movwf	___fladd@b
  3644  0F1D                     l2015:
  3645  0F1D  3080               	movlw	128
  3646  0F1E  00A0               	movwf	??___fladd
  3647  0F1F  0820               	movf	??___fladd,w
  3648  0F20  06F8               	xorwf	___fladd@signs,f
  3649  0F21  09FB               	comf	___fladd@grs,f
  3650  0F22  0AFB               	incf	___fladd@grs,f
  3651  0F23                     l2017:
  3652  0F23  087B               	movf	___fladd@grs,w
  3653  0F24  1D03               	btfss	3,2
  3654  0F25  2F27               	goto	u2161
  3655  0F26  2F28               	goto	u2160
  3656  0F27                     u2161:
  3657  0F27  2F45               	goto	l665
  3658  0F28                     u2160:
  3659  0F28                     l2019:
  3660  0F28  3001               	movlw	1
  3661  0F29  07F0               	addwf	___fladd@b,f
  3662  0F2A  3000               	movlw	0
  3663  0F2B  1803               	skipnc
  3664  0F2C  3001               	movlw	1
  3665  0F2D  07F1               	addwf	___fladd@b+1,f
  3666  0F2E  3000               	movlw	0
  3667  0F2F  1803               	skipnc
  3668  0F30  3001               	movlw	1
  3669  0F31  07F2               	addwf	___fladd@b+2,f
  3670  0F32  3000               	movlw	0
  3671  0F33  1803               	skipnc
  3672  0F34  3001               	movlw	1
  3673  0F35  07F3               	addwf	___fladd@b+3,f
  3674  0F36  2F45               	goto	l665
  3675  0F37                     l2021:
  3676  0F37  0874               	movf	___fladd@a,w
  3677  0F38  02F0               	subwf	___fladd@b,f
  3678  0F39  0875               	movf	___fladd@a+1,w
  3679  0F3A  1C03               	skipc
  3680  0F3B  0F75               	incfsz	___fladd@a+1,w
  3681  0F3C  02F1               	subwf	___fladd@b+1,f
  3682  0F3D  0876               	movf	___fladd@a+2,w
  3683  0F3E  1C03               	skipc
  3684  0F3F  0F76               	incfsz	___fladd@a+2,w
  3685  0F40  02F2               	subwf	___fladd@b+2,f
  3686  0F41  0877               	movf	___fladd@a+3,w
  3687  0F42  1C03               	skipc
  3688  0F43  0F77               	incfsz	___fladd@a+3,w
  3689  0F44  02F3               	subwf	___fladd@b+3,f
  3690  0F45                     l665:
  3691  0F45  0873               	movf	___fladd@b+3,w
  3692  0F46  0472               	iorwf	___fladd@b+2,w
  3693  0F47  0471               	iorwf	___fladd@b+1,w
  3694  0F48  0470               	iorwf	___fladd@b,w
  3695  0F49  1D03               	skipz
  3696  0F4A  2F4C               	goto	u2171
  3697  0F4B  2F4D               	goto	u2170
  3698  0F4C                     u2171:
  3699  0F4C  2F7B               	goto	l2043
  3700  0F4D                     u2170:
  3701  0F4D                     l2023:
  3702  0F4D  087B               	movf	___fladd@grs,w
  3703  0F4E  1D03               	btfss	3,2
  3704  0F4F  2F51               	goto	u2181
  3705  0F50  2F52               	goto	u2180
  3706  0F51                     u2181:
  3707  0F51  2F7B               	goto	l2043
  3708  0F52                     u2180:
  3709  0F52                     l2025:
  3710  0F52  3000               	movlw	0
  3711  0F53  00F3               	movwf	?___fladd+3
  3712  0F54  3000               	movlw	0
  3713  0F55  00F2               	movwf	?___fladd+2
  3714  0F56  3000               	movlw	0
  3715  0F57  00F1               	movwf	?___fladd+1
  3716  0F58  3000               	movlw	0
  3717  0F59  00F0               	movwf	?___fladd
  3718  0F5A  2FFF               	goto	l657
  3719  0F5B                     l2029:
  3720  0F5B  3001               	movlw	1
  3721  0F5C  1283               	bcf	3,5	;RP0=0, select bank0
  3722  0F5D  1303               	bcf	3,6	;RP1=0, select bank0
  3723  0F5E  00A0               	movwf	??___fladd
  3724  0F5F                     u2195:
  3725  0F5F  1003               	clrc
  3726  0F60  0DF0               	rlf	___fladd@b,f
  3727  0F61  0DF1               	rlf	___fladd@b+1,f
  3728  0F62  0DF2               	rlf	___fladd@b+2,f
  3729  0F63  0DF3               	rlf	___fladd@b+3,f
  3730  0F64  0BA0               	decfsz	??___fladd,f
  3731  0F65  2F5F               	goto	u2195
  3732  0F66                     l2031:
  3733  0F66  1FFB               	btfss	___fladd@grs,7
  3734  0F67  2F69               	goto	u2201
  3735  0F68  2F6A               	goto	u2200
  3736  0F69                     u2201:
  3737  0F69  2F6B               	goto	l669
  3738  0F6A                     u2200:
  3739  0F6A                     l2033:
  3740  0F6A  1470               	bsf	___fladd@b,0
  3741  0F6B                     l669:
  3742  0F6B  1C7B               	btfss	___fladd@grs,0
  3743  0F6C  2F6E               	goto	u2211
  3744  0F6D  2F6F               	goto	u2210
  3745  0F6E                     u2211:
  3746  0F6E  2F72               	goto	l2037
  3747  0F6F                     u2210:
  3748  0F6F                     l2035:
  3749  0F6F  1403               	setc
  3750  0F70  0DFB               	rlf	___fladd@grs,f
  3751  0F71  2F74               	goto	l2039
  3752  0F72                     l2037:
  3753  0F72  1003               	clrc
  3754  0F73  0DFB               	rlf	___fladd@grs,f
  3755  0F74                     l2039:
  3756  0F74  087A               	movf	___fladd@bexp,w
  3757  0F75  1903               	btfsc	3,2
  3758  0F76  2F78               	goto	u2221
  3759  0F77  2F79               	goto	u2220
  3760  0F78                     u2221:
  3761  0F78  2F7B               	goto	l2043
  3762  0F79                     u2220:
  3763  0F79                     l2041:
  3764  0F79  3001               	movlw	1
  3765  0F7A  02FA               	subwf	___fladd@bexp,f
  3766  0F7B                     l2043:
  3767  0F7B  1FF2               	btfss	___fladd@b+2,7
  3768  0F7C  2F7E               	goto	u2231
  3769  0F7D  2F7F               	goto	u2230
  3770  0F7E                     u2231:
  3771  0F7E  2F5B               	goto	l2029
  3772  0F7F                     u2230:
  3773  0F7F                     l2045:
  3774  0F7F  01F9               	clrf	___fladd@aexp
  3775  0F80                     l2047:
  3776  0F80  1FFB               	btfss	___fladd@grs,7
  3777  0F81  2F83               	goto	u2241
  3778  0F82  2F84               	goto	u2240
  3779  0F83                     u2241:
  3780  0F83  2F92               	goto	l2055
  3781  0F84                     u2240:
  3782  0F84                     l2049:
  3783  0F84  087B               	movf	___fladd@grs,w
  3784  0F85  397F               	andlw	127
  3785  0F86  1903               	btfsc	3,2
  3786  0F87  2F89               	goto	u2251
  3787  0F88  2F8A               	goto	u2250
  3788  0F89                     u2251:
  3789  0F89  2F8D               	goto	l675
  3790  0F8A                     u2250:
  3791  0F8A                     l2051:
  3792  0F8A  01F9               	clrf	___fladd@aexp
  3793  0F8B  0AF9               	incf	___fladd@aexp,f
  3794  0F8C  2F92               	goto	l2055
  3795  0F8D                     l675:
  3796  0F8D  1C70               	btfss	___fladd@b,0
  3797  0F8E  2F90               	goto	u2261
  3798  0F8F  2F91               	goto	u2260
  3799  0F90                     u2261:
  3800  0F90  2F92               	goto	l2055
  3801  0F91                     u2260:
  3802  0F91  2F8A               	goto	l2051
  3803  0F92                     l2055:
  3804  0F92  0879               	movf	___fladd@aexp,w
  3805  0F93  1903               	btfsc	3,2
  3806  0F94  2F96               	goto	u2271
  3807  0F95  2F97               	goto	u2270
  3808  0F96                     u2271:
  3809  0F96  2FCD               	goto	l678
  3810  0F97                     u2270:
  3811  0F97                     l2057:
  3812  0F97  3001               	movlw	1
  3813  0F98  07F0               	addwf	___fladd@b,f
  3814  0F99  3000               	movlw	0
  3815  0F9A  1803               	skipnc
  3816  0F9B  3001               	movlw	1
  3817  0F9C  07F1               	addwf	___fladd@b+1,f
  3818  0F9D  3000               	movlw	0
  3819  0F9E  1803               	skipnc
  3820  0F9F  3001               	movlw	1
  3821  0FA0  07F2               	addwf	___fladd@b+2,f
  3822  0FA1  3000               	movlw	0
  3823  0FA2  1803               	skipnc
  3824  0FA3  3001               	movlw	1
  3825  0FA4  07F3               	addwf	___fladd@b+3,f
  3826  0FA5                     l2059:
  3827  0FA5  1C73               	btfss	___fladd@b+3,0
  3828  0FA6  2FA8               	goto	u2281
  3829  0FA7  2FA9               	goto	u2280
  3830  0FA8                     u2281:
  3831  0FA8  2FCD               	goto	l678
  3832  0FA9                     u2280:
  3833  0FA9                     l2061:
  3834  0FA9  0870               	movf	___fladd@b,w
  3835  0FAA  1283               	bcf	3,5	;RP0=0, select bank0
  3836  0FAB  1303               	bcf	3,6	;RP1=0, select bank0
  3837  0FAC  00A0               	movwf	??___fladd
  3838  0FAD  0871               	movf	___fladd@b+1,w
  3839  0FAE  00A1               	movwf	??___fladd+1
  3840  0FAF  0872               	movf	___fladd@b+2,w
  3841  0FB0  00A2               	movwf	??___fladd+2
  3842  0FB1  0873               	movf	___fladd@b+3,w
  3843  0FB2  00A3               	movwf	??___fladd+3
  3844  0FB3  3001               	movlw	1
  3845  0FB4  00A4               	movwf	??___fladd+4
  3846  0FB5                     u2295:
  3847  0FB5  0D23               	rlf	??___fladd+3,w
  3848  0FB6  0CA3               	rrf	??___fladd+3,f
  3849  0FB7  0CA2               	rrf	??___fladd+2,f
  3850  0FB8  0CA1               	rrf	??___fladd+1,f
  3851  0FB9  0CA0               	rrf	??___fladd,f
  3852  0FBA                     u2290:
  3853  0FBA  0BA4               	decfsz	??___fladd+4,f
  3854  0FBB  2FB5               	goto	u2295
  3855  0FBC  0823               	movf	??___fladd+3,w
  3856  0FBD  00F3               	movwf	___fladd@b+3
  3857  0FBE  0822               	movf	??___fladd+2,w
  3858  0FBF  00F2               	movwf	___fladd@b+2
  3859  0FC0  0821               	movf	??___fladd+1,w
  3860  0FC1  00F1               	movwf	___fladd@b+1
  3861  0FC2  0820               	movf	??___fladd,w
  3862  0FC3  00F0               	movwf	___fladd@b
  3863  0FC4  0A7A               	incf	___fladd@bexp,w
  3864  0FC5  1903               	btfsc	3,2
  3865  0FC6  2FC8               	goto	u2301
  3866  0FC7  2FC9               	goto	u2300
  3867  0FC8                     u2301:
  3868  0FC8  2FCD               	goto	l678
  3869  0FC9                     u2300:
  3870  0FC9                     l2063:
  3871  0FC9  3001               	movlw	1
  3872  0FCA  00A0               	movwf	??___fladd
  3873  0FCB  0820               	movf	??___fladd,w
  3874  0FCC  07FA               	addwf	___fladd@bexp,f
  3875  0FCD                     l678:
  3876  0FCD  0A7A               	incf	___fladd@bexp,w
  3877  0FCE  1903               	btfsc	3,2
  3878  0FCF  2FD1               	goto	u2311
  3879  0FD0  2FD2               	goto	u2310
  3880  0FD1                     u2311:
  3881  0FD1  2FD7               	goto	l2067
  3882  0FD2                     u2310:
  3883  0FD2                     l2065:
  3884  0FD2  087A               	movf	___fladd@bexp,w
  3885  0FD3  1D03               	btfss	3,2
  3886  0FD4  2FD6               	goto	u2321
  3887  0FD5  2FD7               	goto	u2320
  3888  0FD6                     u2321:
  3889  0FD6  2FE5               	goto	l2073
  3890  0FD7                     u2320:
  3891  0FD7                     l2067:
  3892  0FD7  3000               	movlw	0
  3893  0FD8  00F3               	movwf	___fladd@b+3
  3894  0FD9  3000               	movlw	0
  3895  0FDA  00F2               	movwf	___fladd@b+2
  3896  0FDB  3000               	movlw	0
  3897  0FDC  00F1               	movwf	___fladd@b+1
  3898  0FDD  3000               	movlw	0
  3899  0FDE  00F0               	movwf	___fladd@b
  3900  0FDF                     l2069:
  3901  0FDF  087A               	movf	___fladd@bexp,w
  3902  0FE0  1D03               	btfss	3,2
  3903  0FE1  2FE3               	goto	u2331
  3904  0FE2  2FE4               	goto	u2330
  3905  0FE3                     u2331:
  3906  0FE3  2FE5               	goto	l2073
  3907  0FE4                     u2330:
  3908  0FE4                     l2071:
  3909  0FE4  01F8               	clrf	___fladd@signs
  3910  0FE5                     l2073:
  3911  0FE5  1C7A               	btfss	___fladd@bexp,0
  3912  0FE6  2FE8               	goto	u2341
  3913  0FE7  2FE9               	goto	u2340
  3914  0FE8                     u2341:
  3915  0FE8  2FEB               	goto	l2077
  3916  0FE9                     u2340:
  3917  0FE9                     l2075:
  3918  0FE9  17F2               	bsf	___fladd@b+2,7
  3919  0FEA  2FF1               	goto	l686
  3920  0FEB                     l2077:
  3921  0FEB  307F               	movlw	127
  3922  0FEC  1283               	bcf	3,5	;RP0=0, select bank0
  3923  0FED  1303               	bcf	3,6	;RP1=0, select bank0
  3924  0FEE  00A0               	movwf	??___fladd
  3925  0FEF  0820               	movf	??___fladd,w
  3926  0FF0  05F2               	andwf	___fladd@b+2,f
  3927  0FF1                     l686:
  3928  0FF1  087A               	movf	___fladd@bexp,w
  3929  0FF2  1283               	bcf	3,5	;RP0=0, select bank0
  3930  0FF3  1303               	bcf	3,6	;RP1=0, select bank0
  3931  0FF4  00A0               	movwf	??___fladd
  3932  0FF5  1003               	clrc
  3933  0FF6  0C20               	rrf	??___fladd,w
  3934  0FF7  00A1               	movwf	??___fladd+1
  3935  0FF8  0821               	movf	??___fladd+1,w
  3936  0FF9  00F3               	movwf	___fladd@b+3
  3937  0FFA                     l2079:
  3938  0FFA  1FF8               	btfss	___fladd@signs,7
  3939  0FFB  2FFD               	goto	u2351
  3940  0FFC  2FFE               	goto	u2350
  3941  0FFD                     u2351:
  3942  0FFD  2FFF               	goto	l687
  3943  0FFE                     u2350:
  3944  0FFE                     l2081:
  3945  0FFE  17F3               	bsf	___fladd@b+3,7
  3946  0FFF                     l687:
  3947  0FFF                     l657:
  3948  0FFF  0008               	return
  3949  1000                     __end_of___fladd:
  3950                           
  3951                           	psect	text7
  3952  048A                     __ptext7:	
  3953 ;; *************** function ___flmul *****************
  3954 ;; Defined at:
  3955 ;;		line 8 in file "C:\Program Files\Microchip\xc8\v2.31\pic\sources\c90\common\sprcmul.c"
  3956 ;; Parameters:    Size  Location     Type
  3957 ;;  b               4   26[BANK0 ] unsigned char 
  3958 ;;  a               4   30[BANK0 ] unsigned char 
  3959 ;; Auto vars:     Size  Location     Type
  3960 ;;  prod            4   46[BANK0 ] struct .
  3961 ;;  grs             4   40[BANK0 ] unsigned long 
  3962 ;;  temp            2   50[BANK0 ] struct .
  3963 ;;  bexp            1   45[BANK0 ] unsigned char 
  3964 ;;  aexp            1   44[BANK0 ] unsigned char 
  3965 ;;  sign            1   39[BANK0 ] unsigned char 
  3966 ;; Return value:  Size  Location     Type
  3967 ;;                  4   26[BANK0 ] unsigned char 
  3968 ;; Registers used:
  3969 ;;		wreg, status,2, status,0, btemp+1, pclath, cstack
  3970 ;; Tracked objects:
  3971 ;;		On entry : 0/0
  3972 ;;		On exit  : 0/0
  3973 ;;		Unchanged: 0/0
  3974 ;; Data sizes:     COMMON   BANK0   BANK1   BANK3   BANK2
  3975 ;;      Params:         0       8       0       0       0
  3976 ;;      Locals:         0      13       0       0       0
  3977 ;;      Temps:          0       5       0       0       0
  3978 ;;      Totals:         0      26       0       0       0
  3979 ;;Total ram usage:       26 bytes
  3980 ;; Hardware stack levels used:    1
  3981 ;; Hardware stack levels required when called:    1
  3982 ;; This function calls:
  3983 ;;		__Umul8_16
  3984 ;; This function is called by:
  3985 ;;		_convert
  3986 ;; This function uses a non-reentrant model
  3987 ;;
  3988                           
  3989                           
  3990                           ;psect for function ___flmul
  3991  048A                     ___flmul:
  3992  048A                     l2379:	
  3993                           ;incstack = 0
  3994                           ; Regs used in ___flmul: [wreg+status,2+status,0+btemp+1+pclath+cstack]
  3995                           
  3996  048A  1283               	bcf	3,5	;RP0=0, select bank0
  3997  048B  1303               	bcf	3,6	;RP1=0, select bank0
  3998  048C  083D               	movf	___flmul@b+3,w
  3999  048D  3980               	andlw	128
  4000  048E  00C2               	movwf	??___flmul
  4001  048F  0842               	movf	??___flmul,w
  4002  0490  00C7               	movwf	___flmul@sign
  4003  0491                     l2381:
  4004  0491  083D               	movf	___flmul@b+3,w
  4005  0492  00C2               	movwf	??___flmul
  4006  0493  0742               	addwf	??___flmul,w
  4007  0494  00C3               	movwf	??___flmul+1
  4008  0495  0843               	movf	??___flmul+1,w
  4009  0496  00CD               	movwf	___flmul@bexp
  4010  0497                     l2383:
  4011  0497  1FBC               	btfss	___flmul@b+2,7
  4012  0498  2C9A               	goto	u2991
  4013  0499  2C9B               	goto	u2990
  4014  049A                     u2991:
  4015  049A  2C9C               	goto	l2387
  4016  049B                     u2990:
  4017  049B                     l2385:
  4018  049B  144D               	bsf	___flmul@bexp,0
  4019  049C                     l2387:
  4020  049C  084D               	movf	___flmul@bexp,w
  4021  049D  1903               	btfsc	3,2
  4022  049E  2CA0               	goto	u3001
  4023  049F  2CA1               	goto	u3000
  4024  04A0                     u3001:
  4025  04A0  2CB0               	goto	l2395
  4026  04A1                     u3000:
  4027  04A1                     l2389:
  4028  04A1  0A4D               	incf	___flmul@bexp,w
  4029  04A2  1D03               	btfss	3,2
  4030  04A3  2CA5               	goto	u3011
  4031  04A4  2CA6               	goto	u3010
  4032  04A5                     u3011:
  4033  04A5  2CAE               	goto	l2393
  4034  04A6                     u3010:
  4035  04A6                     l2391:
  4036  04A6  3000               	movlw	0
  4037  04A7  00BD               	movwf	___flmul@b+3
  4038  04A8  3000               	movlw	0
  4039  04A9  00BC               	movwf	___flmul@b+2
  4040  04AA  3000               	movlw	0
  4041  04AB  00BB               	movwf	___flmul@b+1
  4042  04AC  3000               	movlw	0
  4043  04AD  00BA               	movwf	___flmul@b
  4044  04AE                     l2393:
  4045  04AE  17BC               	bsf	___flmul@b+2,7
  4046  04AF  2CB8               	goto	l2397
  4047  04B0                     l2395:
  4048  04B0  3000               	movlw	0
  4049  04B1  00BD               	movwf	___flmul@b+3
  4050  04B2  3000               	movlw	0
  4051  04B3  00BC               	movwf	___flmul@b+2
  4052  04B4  3000               	movlw	0
  4053  04B5  00BB               	movwf	___flmul@b+1
  4054  04B6  3000               	movlw	0
  4055  04B7  00BA               	movwf	___flmul@b
  4056  04B8                     l2397:
  4057  04B8  0841               	movf	___flmul@a+3,w
  4058  04B9  3980               	andlw	128
  4059  04BA  00C2               	movwf	??___flmul
  4060  04BB  0842               	movf	??___flmul,w
  4061  04BC  06C7               	xorwf	___flmul@sign,f
  4062  04BD                     l2399:
  4063  04BD  0841               	movf	___flmul@a+3,w
  4064  04BE  00C2               	movwf	??___flmul
  4065  04BF  0742               	addwf	??___flmul,w
  4066  04C0  00C3               	movwf	??___flmul+1
  4067  04C1  0843               	movf	??___flmul+1,w
  4068  04C2  00CC               	movwf	___flmul@aexp
  4069  04C3                     l2401:
  4070  04C3  1FC0               	btfss	___flmul@a+2,7
  4071  04C4  2CC6               	goto	u3021
  4072  04C5  2CC7               	goto	u3020
  4073  04C6                     u3021:
  4074  04C6  2CC8               	goto	l2405
  4075  04C7                     u3020:
  4076  04C7                     l2403:
  4077  04C7  144C               	bsf	___flmul@aexp,0
  4078  04C8                     l2405:
  4079  04C8  084C               	movf	___flmul@aexp,w
  4080  04C9  1903               	btfsc	3,2
  4081  04CA  2CCC               	goto	u3031
  4082  04CB  2CCD               	goto	u3030
  4083  04CC                     u3031:
  4084  04CC  2CDC               	goto	l2413
  4085  04CD                     u3030:
  4086  04CD                     l2407:
  4087  04CD  0A4C               	incf	___flmul@aexp,w
  4088  04CE  1D03               	btfss	3,2
  4089  04CF  2CD1               	goto	u3041
  4090  04D0  2CD2               	goto	u3040
  4091  04D1                     u3041:
  4092  04D1  2CDA               	goto	l2411
  4093  04D2                     u3040:
  4094  04D2                     l2409:
  4095  04D2  3000               	movlw	0
  4096  04D3  00C1               	movwf	___flmul@a+3
  4097  04D4  3000               	movlw	0
  4098  04D5  00C0               	movwf	___flmul@a+2
  4099  04D6  3000               	movlw	0
  4100  04D7  00BF               	movwf	___flmul@a+1
  4101  04D8  3000               	movlw	0
  4102  04D9  00BE               	movwf	___flmul@a
  4103  04DA                     l2411:
  4104  04DA  17C0               	bsf	___flmul@a+2,7
  4105  04DB  2CE4               	goto	l2415
  4106  04DC                     l2413:
  4107  04DC  3000               	movlw	0
  4108  04DD  00C1               	movwf	___flmul@a+3
  4109  04DE  3000               	movlw	0
  4110  04DF  00C0               	movwf	___flmul@a+2
  4111  04E0  3000               	movlw	0
  4112  04E1  00BF               	movwf	___flmul@a+1
  4113  04E2  3000               	movlw	0
  4114  04E3  00BE               	movwf	___flmul@a
  4115  04E4                     l2415:
  4116  04E4  084C               	movf	___flmul@aexp,w
  4117  04E5  1903               	btfsc	3,2
  4118  04E6  2CE8               	goto	u3051
  4119  04E7  2CE9               	goto	u3050
  4120  04E8                     u3051:
  4121  04E8  2CEE               	goto	l2419
  4122  04E9                     u3050:
  4123  04E9                     l2417:
  4124  04E9  084D               	movf	___flmul@bexp,w
  4125  04EA  1D03               	btfss	3,2
  4126  04EB  2CED               	goto	u3061
  4127  04EC  2CEE               	goto	u3060
  4128  04ED                     u3061:
  4129  04ED  2CF7               	goto	l2423
  4130  04EE                     u3060:
  4131  04EE                     l2419:
  4132  04EE  3000               	movlw	0
  4133  04EF  00BD               	movwf	?___flmul+3
  4134  04F0  3000               	movlw	0
  4135  04F1  00BC               	movwf	?___flmul+2
  4136  04F2  3000               	movlw	0
  4137  04F3  00BB               	movwf	?___flmul+1
  4138  04F4  3000               	movlw	0
  4139  04F5  00BA               	movwf	?___flmul
  4140  04F6  2FEA               	goto	l740
  4141  04F7                     l2423:
  4142  04F7  083A               	movf	___flmul@b,w
  4143  04F8  00C2               	movwf	??___flmul
  4144  04F9  0842               	movf	??___flmul,w
  4145  04FA  00F0               	movwf	__Umul8_16@multiplicand
  4146  04FB  0840               	movf	___flmul@a+2,w
  4147  04FC  160A  118A  2786  120A  118A  	fcall	__Umul8_16
  4148  0501  0871               	movf	?__Umul8_16+1,w
  4149  0502  1283               	bcf	3,5	;RP0=0, select bank0
  4150  0503  1303               	bcf	3,6	;RP1=0, select bank0
  4151  0504  00D3               	movwf	___flmul@temp+1
  4152  0505  0870               	movf	?__Umul8_16,w
  4153  0506  00D2               	movwf	___flmul@temp
  4154  0507                     l2425:
  4155  0507  0852               	movf	___flmul@temp,w
  4156  0508  00C2               	movwf	??___flmul
  4157  0509  01C3               	clrf	??___flmul+1
  4158  050A  01C4               	clrf	??___flmul+2
  4159  050B  01C5               	clrf	??___flmul+3
  4160  050C  0845               	movf	??___flmul+3,w
  4161  050D  00CB               	movwf	___flmul@grs+3
  4162  050E  0844               	movf	??___flmul+2,w
  4163  050F  00CA               	movwf	___flmul@grs+2
  4164  0510  0843               	movf	??___flmul+1,w
  4165  0511  00C9               	movwf	___flmul@grs+1
  4166  0512  0842               	movf	??___flmul,w
  4167  0513  00C8               	movwf	___flmul@grs
  4168  0514                     l2427:
  4169  0514  0853               	movf	___flmul@temp+1,w
  4170  0515  00C2               	movwf	??___flmul
  4171  0516  01C3               	clrf	??___flmul+1
  4172  0517  01C4               	clrf	??___flmul+2
  4173  0518  01C5               	clrf	??___flmul+3
  4174  0519  0845               	movf	??___flmul+3,w
  4175  051A  00D1               	movwf	___flmul@prod+3
  4176  051B  0844               	movf	??___flmul+2,w
  4177  051C  00D0               	movwf	___flmul@prod+2
  4178  051D  0843               	movf	??___flmul+1,w
  4179  051E  00CF               	movwf	___flmul@prod+1
  4180  051F  0842               	movf	??___flmul,w
  4181  0520  00CE               	movwf	___flmul@prod
  4182  0521  083B               	movf	___flmul@b+1,w
  4183  0522  00C2               	movwf	??___flmul
  4184  0523  0842               	movf	??___flmul,w
  4185  0524  00F0               	movwf	__Umul8_16@multiplicand
  4186  0525  083F               	movf	___flmul@a+1,w
  4187  0526  160A  118A  2786  120A  118A  	fcall	__Umul8_16
  4188  052B  0871               	movf	?__Umul8_16+1,w
  4189  052C  1283               	bcf	3,5	;RP0=0, select bank0
  4190  052D  1303               	bcf	3,6	;RP1=0, select bank0
  4191  052E  00D3               	movwf	___flmul@temp+1
  4192  052F  0870               	movf	?__Umul8_16,w
  4193  0530  00D2               	movwf	___flmul@temp
  4194  0531                     l2429:
  4195  0531  0852               	movf	___flmul@temp,w
  4196  0532  00C2               	movwf	??___flmul
  4197  0533  01C3               	clrf	??___flmul+1
  4198  0534  01C4               	clrf	??___flmul+2
  4199  0535  01C5               	clrf	??___flmul+3
  4200  0536  0842               	movf	??___flmul,w
  4201  0537  07C8               	addwf	___flmul@grs,f
  4202  0538  0843               	movf	??___flmul+1,w
  4203  0539  1103               	clrz
  4204  053A  1803               	skipnc
  4205  053B  3E01               	addlw	1
  4206  053C  1903               	skipnz
  4207  053D  2D3F               	goto	u3071
  4208  053E  07C9               	addwf	___flmul@grs+1,f
  4209  053F                     u3071:
  4210  053F  0844               	movf	??___flmul+2,w
  4211  0540  1103               	clrz
  4212  0541  1803               	skipnc
  4213  0542  3E01               	addlw	1
  4214  0543  1903               	skipnz
  4215  0544  2D46               	goto	u3072
  4216  0545  07CA               	addwf	___flmul@grs+2,f
  4217  0546                     u3072:
  4218  0546  0845               	movf	??___flmul+3,w
  4219  0547  1103               	clrz
  4220  0548  1803               	skipnc
  4221  0549  3E01               	addlw	1
  4222  054A  1903               	skipnz
  4223  054B  2D4D               	goto	u3073
  4224  054C  07CB               	addwf	___flmul@grs+3,f
  4225  054D                     u3073:
  4226  054D                     l2431:
  4227  054D  0853               	movf	___flmul@temp+1,w
  4228  054E  00C2               	movwf	??___flmul
  4229  054F  01C3               	clrf	??___flmul+1
  4230  0550  01C4               	clrf	??___flmul+2
  4231  0551  01C5               	clrf	??___flmul+3
  4232  0552  0842               	movf	??___flmul,w
  4233  0553  07CE               	addwf	___flmul@prod,f
  4234  0554  0843               	movf	??___flmul+1,w
  4235  0555  1103               	clrz
  4236  0556  1803               	skipnc
  4237  0557  3E01               	addlw	1
  4238  0558  1903               	skipnz
  4239  0559  2D5B               	goto	u3081
  4240  055A  07CF               	addwf	___flmul@prod+1,f
  4241  055B                     u3081:
  4242  055B  0844               	movf	??___flmul+2,w
  4243  055C  1103               	clrz
  4244  055D  1803               	skipnc
  4245  055E  3E01               	addlw	1
  4246  055F  1903               	skipnz
  4247  0560  2D62               	goto	u3082
  4248  0561  07D0               	addwf	___flmul@prod+2,f
  4249  0562                     u3082:
  4250  0562  0845               	movf	??___flmul+3,w
  4251  0563  1103               	clrz
  4252  0564  1803               	skipnc
  4253  0565  3E01               	addlw	1
  4254  0566  1903               	skipnz
  4255  0567  2D69               	goto	u3083
  4256  0568  07D1               	addwf	___flmul@prod+3,f
  4257  0569                     u3083:
  4258  0569  083C               	movf	___flmul@b+2,w
  4259  056A  00C2               	movwf	??___flmul
  4260  056B  0842               	movf	??___flmul,w
  4261  056C  00F0               	movwf	__Umul8_16@multiplicand
  4262  056D  083E               	movf	___flmul@a,w
  4263  056E  160A  118A  2786  120A  118A  	fcall	__Umul8_16
  4264  0573  0871               	movf	?__Umul8_16+1,w
  4265  0574  1283               	bcf	3,5	;RP0=0, select bank0
  4266  0575  1303               	bcf	3,6	;RP1=0, select bank0
  4267  0576  00D3               	movwf	___flmul@temp+1
  4268  0577  0870               	movf	?__Umul8_16,w
  4269  0578  00D2               	movwf	___flmul@temp
  4270  0579                     l2433:
  4271  0579  0852               	movf	___flmul@temp,w
  4272  057A  00C2               	movwf	??___flmul
  4273  057B  01C3               	clrf	??___flmul+1
  4274  057C  01C4               	clrf	??___flmul+2
  4275  057D  01C5               	clrf	??___flmul+3
  4276  057E  0842               	movf	??___flmul,w
  4277  057F  07C8               	addwf	___flmul@grs,f
  4278  0580  0843               	movf	??___flmul+1,w
  4279  0581  1103               	clrz
  4280  0582  1803               	skipnc
  4281  0583  3E01               	addlw	1
  4282  0584  1903               	skipnz
  4283  0585  2D87               	goto	u3091
  4284  0586  07C9               	addwf	___flmul@grs+1,f
  4285  0587                     u3091:
  4286  0587  0844               	movf	??___flmul+2,w
  4287  0588  1103               	clrz
  4288  0589  1803               	skipnc
  4289  058A  3E01               	addlw	1
  4290  058B  1903               	skipnz
  4291  058C  2D8E               	goto	u3092
  4292  058D  07CA               	addwf	___flmul@grs+2,f
  4293  058E                     u3092:
  4294  058E  0845               	movf	??___flmul+3,w
  4295  058F  1103               	clrz
  4296  0590  1803               	skipnc
  4297  0591  3E01               	addlw	1
  4298  0592  1903               	skipnz
  4299  0593  2D95               	goto	u3093
  4300  0594  07CB               	addwf	___flmul@grs+3,f
  4301  0595                     u3093:
  4302  0595                     l2435:
  4303  0595  0853               	movf	___flmul@temp+1,w
  4304  0596  00C2               	movwf	??___flmul
  4305  0597  01C3               	clrf	??___flmul+1
  4306  0598  01C4               	clrf	??___flmul+2
  4307  0599  01C5               	clrf	??___flmul+3
  4308  059A  0842               	movf	??___flmul,w
  4309  059B  07CE               	addwf	___flmul@prod,f
  4310  059C  0843               	movf	??___flmul+1,w
  4311  059D  1103               	clrz
  4312  059E  1803               	skipnc
  4313  059F  3E01               	addlw	1
  4314  05A0  1903               	skipnz
  4315  05A1  2DA3               	goto	u3101
  4316  05A2  07CF               	addwf	___flmul@prod+1,f
  4317  05A3                     u3101:
  4318  05A3  0844               	movf	??___flmul+2,w
  4319  05A4  1103               	clrz
  4320  05A5  1803               	skipnc
  4321  05A6  3E01               	addlw	1
  4322  05A7  1903               	skipnz
  4323  05A8  2DAA               	goto	u3102
  4324  05A9  07D0               	addwf	___flmul@prod+2,f
  4325  05AA                     u3102:
  4326  05AA  0845               	movf	??___flmul+3,w
  4327  05AB  1103               	clrz
  4328  05AC  1803               	skipnc
  4329  05AD  3E01               	addlw	1
  4330  05AE  1903               	skipnz
  4331  05AF  2DB1               	goto	u3103
  4332  05B0  07D1               	addwf	___flmul@prod+3,f
  4333  05B1                     u3103:
  4334  05B1                     l2437:
  4335  05B1  3008               	movlw	8
  4336  05B2  00C2               	movwf	??___flmul
  4337  05B3                     u3115:
  4338  05B3  1003               	clrc
  4339  05B4  0DC8               	rlf	___flmul@grs,f
  4340  05B5  0DC9               	rlf	___flmul@grs+1,f
  4341  05B6  0DCA               	rlf	___flmul@grs+2,f
  4342  05B7  0DCB               	rlf	___flmul@grs+3,f
  4343  05B8  0BC2               	decfsz	??___flmul,f
  4344  05B9  2DB3               	goto	u3115
  4345  05BA                     l2439:
  4346  05BA  083B               	movf	___flmul@b+1,w
  4347  05BB  00C2               	movwf	??___flmul
  4348  05BC  0842               	movf	??___flmul,w
  4349  05BD  00F0               	movwf	__Umul8_16@multiplicand
  4350  05BE  083E               	movf	___flmul@a,w
  4351  05BF  160A  118A  2786  120A  118A  	fcall	__Umul8_16
  4352  05C4  0871               	movf	?__Umul8_16+1,w
  4353  05C5  1283               	bcf	3,5	;RP0=0, select bank0
  4354  05C6  1303               	bcf	3,6	;RP1=0, select bank0
  4355  05C7  00D3               	movwf	___flmul@temp+1
  4356  05C8  0870               	movf	?__Umul8_16,w
  4357  05C9  00D2               	movwf	___flmul@temp
  4358  05CA                     l2441:
  4359  05CA  0852               	movf	___flmul@temp,w
  4360  05CB  00C2               	movwf	??___flmul
  4361  05CC  0853               	movf	___flmul@temp+1,w
  4362  05CD  00C3               	movwf	??___flmul+1
  4363  05CE  01C4               	clrf	??___flmul+2
  4364  05CF  01C5               	clrf	??___flmul+3
  4365  05D0  0842               	movf	??___flmul,w
  4366  05D1  07C8               	addwf	___flmul@grs,f
  4367  05D2  0843               	movf	??___flmul+1,w
  4368  05D3  1103               	clrz
  4369  05D4  1803               	skipnc
  4370  05D5  3E01               	addlw	1
  4371  05D6  1903               	skipnz
  4372  05D7  2DD9               	goto	u3121
  4373  05D8  07C9               	addwf	___flmul@grs+1,f
  4374  05D9                     u3121:
  4375  05D9  0844               	movf	??___flmul+2,w
  4376  05DA  1103               	clrz
  4377  05DB  1803               	skipnc
  4378  05DC  3E01               	addlw	1
  4379  05DD  1903               	skipnz
  4380  05DE  2DE0               	goto	u3122
  4381  05DF  07CA               	addwf	___flmul@grs+2,f
  4382  05E0                     u3122:
  4383  05E0  0845               	movf	??___flmul+3,w
  4384  05E1  1103               	clrz
  4385  05E2  1803               	skipnc
  4386  05E3  3E01               	addlw	1
  4387  05E4  1903               	skipnz
  4388  05E5  2DE7               	goto	u3123
  4389  05E6  07CB               	addwf	___flmul@grs+3,f
  4390  05E7                     u3123:
  4391  05E7                     l2443:
  4392  05E7  083A               	movf	___flmul@b,w
  4393  05E8  00C2               	movwf	??___flmul
  4394  05E9  0842               	movf	??___flmul,w
  4395  05EA  00F0               	movwf	__Umul8_16@multiplicand
  4396  05EB  083F               	movf	___flmul@a+1,w
  4397  05EC  160A  118A  2786  120A  118A  	fcall	__Umul8_16
  4398  05F1  0871               	movf	?__Umul8_16+1,w
  4399  05F2  1283               	bcf	3,5	;RP0=0, select bank0
  4400  05F3  1303               	bcf	3,6	;RP1=0, select bank0
  4401  05F4  00D3               	movwf	___flmul@temp+1
  4402  05F5  0870               	movf	?__Umul8_16,w
  4403  05F6  00D2               	movwf	___flmul@temp
  4404  05F7                     l2445:
  4405  05F7  0852               	movf	___flmul@temp,w
  4406  05F8  00C2               	movwf	??___flmul
  4407  05F9  0853               	movf	___flmul@temp+1,w
  4408  05FA  00C3               	movwf	??___flmul+1
  4409  05FB  01C4               	clrf	??___flmul+2
  4410  05FC  01C5               	clrf	??___flmul+3
  4411  05FD  0842               	movf	??___flmul,w
  4412  05FE  07C8               	addwf	___flmul@grs,f
  4413  05FF  0843               	movf	??___flmul+1,w
  4414  0600  1103               	clrz
  4415  0601  1803               	skipnc
  4416  0602  3E01               	addlw	1
  4417  0603  1903               	skipnz
  4418  0604  2E06               	goto	u3131
  4419  0605  07C9               	addwf	___flmul@grs+1,f
  4420  0606                     u3131:
  4421  0606  0844               	movf	??___flmul+2,w
  4422  0607  1103               	clrz
  4423  0608  1803               	skipnc
  4424  0609  3E01               	addlw	1
  4425  060A  1903               	skipnz
  4426  060B  2E0D               	goto	u3132
  4427  060C  07CA               	addwf	___flmul@grs+2,f
  4428  060D                     u3132:
  4429  060D  0845               	movf	??___flmul+3,w
  4430  060E  1103               	clrz
  4431  060F  1803               	skipnc
  4432  0610  3E01               	addlw	1
  4433  0611  1903               	skipnz
  4434  0612  2E14               	goto	u3133
  4435  0613  07CB               	addwf	___flmul@grs+3,f
  4436  0614                     u3133:
  4437  0614                     l2447:
  4438  0614  3008               	movlw	8
  4439  0615  00C2               	movwf	??___flmul
  4440  0616                     u3145:
  4441  0616  1003               	clrc
  4442  0617  0DC8               	rlf	___flmul@grs,f
  4443  0618  0DC9               	rlf	___flmul@grs+1,f
  4444  0619  0DCA               	rlf	___flmul@grs+2,f
  4445  061A  0DCB               	rlf	___flmul@grs+3,f
  4446  061B  0BC2               	decfsz	??___flmul,f
  4447  061C  2E16               	goto	u3145
  4448  061D  083A               	movf	___flmul@b,w
  4449  061E  00C2               	movwf	??___flmul
  4450  061F  0842               	movf	??___flmul,w
  4451  0620  00F0               	movwf	__Umul8_16@multiplicand
  4452  0621  083E               	movf	___flmul@a,w
  4453  0622  160A  118A  2786  120A  118A  	fcall	__Umul8_16
  4454  0627  0871               	movf	?__Umul8_16+1,w
  4455  0628  1283               	bcf	3,5	;RP0=0, select bank0
  4456  0629  1303               	bcf	3,6	;RP1=0, select bank0
  4457  062A  00D3               	movwf	___flmul@temp+1
  4458  062B  0870               	movf	?__Umul8_16,w
  4459  062C  00D2               	movwf	___flmul@temp
  4460  062D                     l2449:
  4461  062D  0852               	movf	___flmul@temp,w
  4462  062E  00C2               	movwf	??___flmul
  4463  062F  0853               	movf	___flmul@temp+1,w
  4464  0630  00C3               	movwf	??___flmul+1
  4465  0631  01C4               	clrf	??___flmul+2
  4466  0632  01C5               	clrf	??___flmul+3
  4467  0633  0842               	movf	??___flmul,w
  4468  0634  07C8               	addwf	___flmul@grs,f
  4469  0635  0843               	movf	??___flmul+1,w
  4470  0636  1103               	clrz
  4471  0637  1803               	skipnc
  4472  0638  3E01               	addlw	1
  4473  0639  1903               	skipnz
  4474  063A  2E3C               	goto	u3151
  4475  063B  07C9               	addwf	___flmul@grs+1,f
  4476  063C                     u3151:
  4477  063C  0844               	movf	??___flmul+2,w
  4478  063D  1103               	clrz
  4479  063E  1803               	skipnc
  4480  063F  3E01               	addlw	1
  4481  0640  1903               	skipnz
  4482  0641  2E43               	goto	u3152
  4483  0642  07CA               	addwf	___flmul@grs+2,f
  4484  0643                     u3152:
  4485  0643  0845               	movf	??___flmul+3,w
  4486  0644  1103               	clrz
  4487  0645  1803               	skipnc
  4488  0646  3E01               	addlw	1
  4489  0647  1903               	skipnz
  4490  0648  2E4A               	goto	u3153
  4491  0649  07CB               	addwf	___flmul@grs+3,f
  4492  064A                     u3153:
  4493  064A                     l2451:
  4494  064A  083B               	movf	___flmul@b+1,w
  4495  064B  00C2               	movwf	??___flmul
  4496  064C  0842               	movf	??___flmul,w
  4497  064D  00F0               	movwf	__Umul8_16@multiplicand
  4498  064E  0840               	movf	___flmul@a+2,w
  4499  064F  160A  118A  2786  120A  118A  	fcall	__Umul8_16
  4500  0654  0871               	movf	?__Umul8_16+1,w
  4501  0655  1283               	bcf	3,5	;RP0=0, select bank0
  4502  0656  1303               	bcf	3,6	;RP1=0, select bank0
  4503  0657  00D3               	movwf	___flmul@temp+1
  4504  0658  0870               	movf	?__Umul8_16,w
  4505  0659  00D2               	movwf	___flmul@temp
  4506  065A  0852               	movf	___flmul@temp,w
  4507  065B  00C2               	movwf	??___flmul
  4508  065C  0853               	movf	___flmul@temp+1,w
  4509  065D  00C3               	movwf	??___flmul+1
  4510  065E  01C4               	clrf	??___flmul+2
  4511  065F  01C5               	clrf	??___flmul+3
  4512  0660  0842               	movf	??___flmul,w
  4513  0661  07CE               	addwf	___flmul@prod,f
  4514  0662  0843               	movf	??___flmul+1,w
  4515  0663  1103               	clrz
  4516  0664  1803               	skipnc
  4517  0665  3E01               	addlw	1
  4518  0666  1903               	skipnz
  4519  0667  2E69               	goto	u3161
  4520  0668  07CF               	addwf	___flmul@prod+1,f
  4521  0669                     u3161:
  4522  0669  0844               	movf	??___flmul+2,w
  4523  066A  1103               	clrz
  4524  066B  1803               	skipnc
  4525  066C  3E01               	addlw	1
  4526  066D  1903               	skipnz
  4527  066E  2E70               	goto	u3162
  4528  066F  07D0               	addwf	___flmul@prod+2,f
  4529  0670                     u3162:
  4530  0670  0845               	movf	??___flmul+3,w
  4531  0671  1103               	clrz
  4532  0672  1803               	skipnc
  4533  0673  3E01               	addlw	1
  4534  0674  1903               	skipnz
  4535  0675  2E77               	goto	u3163
  4536  0676  07D1               	addwf	___flmul@prod+3,f
  4537  0677                     u3163:
  4538  0677                     l2453:
  4539  0677  083C               	movf	___flmul@b+2,w
  4540  0678  00C2               	movwf	??___flmul
  4541  0679  0842               	movf	??___flmul,w
  4542  067A  00F0               	movwf	__Umul8_16@multiplicand
  4543  067B  083F               	movf	___flmul@a+1,w
  4544  067C  160A  118A  2786  120A  118A  	fcall	__Umul8_16
  4545  0681  0871               	movf	?__Umul8_16+1,w
  4546  0682  1283               	bcf	3,5	;RP0=0, select bank0
  4547  0683  1303               	bcf	3,6	;RP1=0, select bank0
  4548  0684  00D3               	movwf	___flmul@temp+1
  4549  0685  0870               	movf	?__Umul8_16,w
  4550  0686  00D2               	movwf	___flmul@temp
  4551  0687                     l2455:
  4552  0687  0852               	movf	___flmul@temp,w
  4553  0688  00C2               	movwf	??___flmul
  4554  0689  0853               	movf	___flmul@temp+1,w
  4555  068A  00C3               	movwf	??___flmul+1
  4556  068B  01C4               	clrf	??___flmul+2
  4557  068C  01C5               	clrf	??___flmul+3
  4558  068D  0842               	movf	??___flmul,w
  4559  068E  07CE               	addwf	___flmul@prod,f
  4560  068F  0843               	movf	??___flmul+1,w
  4561  0690  1103               	clrz
  4562  0691  1803               	skipnc
  4563  0692  3E01               	addlw	1
  4564  0693  1903               	skipnz
  4565  0694  2E96               	goto	u3171
  4566  0695  07CF               	addwf	___flmul@prod+1,f
  4567  0696                     u3171:
  4568  0696  0844               	movf	??___flmul+2,w
  4569  0697  1103               	clrz
  4570  0698  1803               	skipnc
  4571  0699  3E01               	addlw	1
  4572  069A  1903               	skipnz
  4573  069B  2E9D               	goto	u3172
  4574  069C  07D0               	addwf	___flmul@prod+2,f
  4575  069D                     u3172:
  4576  069D  0845               	movf	??___flmul+3,w
  4577  069E  1103               	clrz
  4578  069F  1803               	skipnc
  4579  06A0  3E01               	addlw	1
  4580  06A1  1903               	skipnz
  4581  06A2  2EA4               	goto	u3173
  4582  06A3  07D1               	addwf	___flmul@prod+3,f
  4583  06A4                     u3173:
  4584  06A4  083C               	movf	___flmul@b+2,w
  4585  06A5  00C2               	movwf	??___flmul
  4586  06A6  0842               	movf	??___flmul,w
  4587  06A7  00F0               	movwf	__Umul8_16@multiplicand
  4588  06A8  0840               	movf	___flmul@a+2,w
  4589  06A9  160A  118A  2786  120A  118A  	fcall	__Umul8_16
  4590  06AE  0871               	movf	?__Umul8_16+1,w
  4591  06AF  1283               	bcf	3,5	;RP0=0, select bank0
  4592  06B0  1303               	bcf	3,6	;RP1=0, select bank0
  4593  06B1  00D3               	movwf	___flmul@temp+1
  4594  06B2  0870               	movf	?__Umul8_16,w
  4595  06B3  00D2               	movwf	___flmul@temp
  4596  06B4                     l2457:
  4597  06B4  0852               	movf	___flmul@temp,w
  4598  06B5  00C2               	movwf	??___flmul
  4599  06B6  0853               	movf	___flmul@temp+1,w
  4600  06B7  00C3               	movwf	??___flmul+1
  4601  06B8  01C4               	clrf	??___flmul+2
  4602  06B9  01C5               	clrf	??___flmul+3
  4603  06BA  3008               	movlw	8
  4604  06BB                     u3185:
  4605  06BB  1003               	clrc
  4606  06BC  0DC2               	rlf	??___flmul,f
  4607  06BD  0DC3               	rlf	??___flmul+1,f
  4608  06BE  0DC4               	rlf	??___flmul+2,f
  4609  06BF  0DC5               	rlf	??___flmul+3,f
  4610  06C0                     u3180:
  4611  06C0  3EFF               	addlw	-1
  4612  06C1  1D03               	skipz
  4613  06C2  2EBB               	goto	u3185
  4614  06C3  0842               	movf	??___flmul,w
  4615  06C4  07CE               	addwf	___flmul@prod,f
  4616  06C5  0843               	movf	??___flmul+1,w
  4617  06C6  1103               	clrz
  4618  06C7  1803               	skipnc
  4619  06C8  3E01               	addlw	1
  4620  06C9  1903               	skipnz
  4621  06CA  2ECC               	goto	u3191
  4622  06CB  07CF               	addwf	___flmul@prod+1,f
  4623  06CC                     u3191:
  4624  06CC  0844               	movf	??___flmul+2,w
  4625  06CD  1103               	clrz
  4626  06CE  1803               	skipnc
  4627  06CF  3E01               	addlw	1
  4628  06D0  1903               	skipnz
  4629  06D1  2ED3               	goto	u3192
  4630  06D2  07D0               	addwf	___flmul@prod+2,f
  4631  06D3                     u3192:
  4632  06D3  0845               	movf	??___flmul+3,w
  4633  06D4  1103               	clrz
  4634  06D5  1803               	skipnc
  4635  06D6  3E01               	addlw	1
  4636  06D7  1903               	skipnz
  4637  06D8  2EDA               	goto	u3193
  4638  06D9  07D1               	addwf	___flmul@prod+3,f
  4639  06DA                     u3193:
  4640  06DA                     l2459:
  4641  06DA  0848               	movf	___flmul@grs,w
  4642  06DB  00C2               	movwf	??___flmul
  4643  06DC  0849               	movf	___flmul@grs+1,w
  4644  06DD  00C3               	movwf	??___flmul+1
  4645  06DE  084A               	movf	___flmul@grs+2,w
  4646  06DF  00C4               	movwf	??___flmul+2
  4647  06E0  084B               	movf	___flmul@grs+3,w
  4648  06E1  00C5               	movwf	??___flmul+3
  4649  06E2  3018               	movlw	24
  4650  06E3                     u3205:
  4651  06E3  1003               	clrc
  4652  06E4  0CC5               	rrf	??___flmul+3,f
  4653  06E5  0CC4               	rrf	??___flmul+2,f
  4654  06E6  0CC3               	rrf	??___flmul+1,f
  4655  06E7  0CC2               	rrf	??___flmul,f
  4656  06E8                     u3200:
  4657  06E8  3EFF               	addlw	-1
  4658  06E9  1D03               	skipz
  4659  06EA  2EE3               	goto	u3205
  4660  06EB  0842               	movf	??___flmul,w
  4661  06EC  07CE               	addwf	___flmul@prod,f
  4662  06ED  0843               	movf	??___flmul+1,w
  4663  06EE  1103               	clrz
  4664  06EF  1803               	skipnc
  4665  06F0  3E01               	addlw	1
  4666  06F1  1903               	skipnz
  4667  06F2  2EF4               	goto	u3211
  4668  06F3  07CF               	addwf	___flmul@prod+1,f
  4669  06F4                     u3211:
  4670  06F4  0844               	movf	??___flmul+2,w
  4671  06F5  1103               	clrz
  4672  06F6  1803               	skipnc
  4673  06F7  3E01               	addlw	1
  4674  06F8  1903               	skipnz
  4675  06F9  2EFB               	goto	u3212
  4676  06FA  07D0               	addwf	___flmul@prod+2,f
  4677  06FB                     u3212:
  4678  06FB  0845               	movf	??___flmul+3,w
  4679  06FC  1103               	clrz
  4680  06FD  1803               	skipnc
  4681  06FE  3E01               	addlw	1
  4682  06FF  1903               	skipnz
  4683  0700  2F02               	goto	u3213
  4684  0701  07D1               	addwf	___flmul@prod+3,f
  4685  0702                     u3213:
  4686  0702                     l2461:
  4687  0702  3008               	movlw	8
  4688  0703  00C2               	movwf	??___flmul
  4689  0704                     u3225:
  4690  0704  1003               	clrc
  4691  0705  0DC8               	rlf	___flmul@grs,f
  4692  0706  0DC9               	rlf	___flmul@grs+1,f
  4693  0707  0DCA               	rlf	___flmul@grs+2,f
  4694  0708  0DCB               	rlf	___flmul@grs+3,f
  4695  0709  0BC2               	decfsz	??___flmul,f
  4696  070A  2F04               	goto	u3225
  4697  070B                     l2463:
  4698  070B  084D               	movf	___flmul@bexp,w
  4699  070C  074C               	addwf	___flmul@aexp,w
  4700  070D  00C2               	movwf	??___flmul
  4701  070E  01C3               	clrf	??___flmul+1
  4702  070F  0DC3               	rlf	??___flmul+1,f
  4703  0710  0842               	movf	??___flmul,w
  4704  0711  3E82               	addlw	130
  4705  0712  00D2               	movwf	___flmul@temp
  4706  0713  0843               	movf	??___flmul+1,w
  4707  0714  1803               	skipnc
  4708  0715  3E01               	addlw	1
  4709  0716  3EFF               	addlw	255
  4710  0717  00D3               	movwf	___flmul@temp+1
  4711  0718  2F36               	goto	l2475
  4712  0719                     l2465:
  4713  0719  3001               	movlw	1
  4714  071A  00C2               	movwf	??___flmul
  4715  071B                     u3235:
  4716  071B  1003               	clrc
  4717  071C  0DCE               	rlf	___flmul@prod,f
  4718  071D  0DCF               	rlf	___flmul@prod+1,f
  4719  071E  0DD0               	rlf	___flmul@prod+2,f
  4720  071F  0DD1               	rlf	___flmul@prod+3,f
  4721  0720  0BC2               	decfsz	??___flmul,f
  4722  0721  2F1B               	goto	u3235
  4723  0722                     l2467:
  4724  0722  1FCB               	btfss	___flmul@grs+3,7
  4725  0723  2F25               	goto	u3241
  4726  0724  2F26               	goto	u3240
  4727  0725                     u3241:
  4728  0725  2F27               	goto	l2471
  4729  0726                     u3240:
  4730  0726                     l2469:
  4731  0726  144E               	bsf	___flmul@prod,0
  4732  0727                     l2471:
  4733  0727  3001               	movlw	1
  4734  0728  00C2               	movwf	??___flmul
  4735  0729                     u3255:
  4736  0729  1003               	clrc
  4737  072A  0DC8               	rlf	___flmul@grs,f
  4738  072B  0DC9               	rlf	___flmul@grs+1,f
  4739  072C  0DCA               	rlf	___flmul@grs+2,f
  4740  072D  0DCB               	rlf	___flmul@grs+3,f
  4741  072E  0BC2               	decfsz	??___flmul,f
  4742  072F  2F29               	goto	u3255
  4743  0730                     l2473:
  4744  0730  30FF               	movlw	255
  4745  0731  07D2               	addwf	___flmul@temp,f
  4746  0732  1803               	skipnc
  4747  0733  0AD3               	incf	___flmul@temp+1,f
  4748  0734  30FF               	movlw	255
  4749  0735  07D3               	addwf	___flmul@temp+1,f
  4750  0736                     l2475:
  4751  0736  1FD0               	btfss	___flmul@prod+2,7
  4752  0737  2F39               	goto	u3261
  4753  0738  2F3A               	goto	u3260
  4754  0739                     u3261:
  4755  0739  2F19               	goto	l2465
  4756  073A                     u3260:
  4757  073A                     l2477:
  4758  073A  01CC               	clrf	___flmul@aexp
  4759  073B                     l2479:
  4760  073B  1FCB               	btfss	___flmul@grs+3,7
  4761  073C  2F3E               	goto	u3271
  4762  073D  2F3F               	goto	u3270
  4763  073E                     u3271:
  4764  073E  2F5B               	goto	l2487
  4765  073F                     u3270:
  4766  073F                     l2481:
  4767  073F  30FF               	movlw	255
  4768  0740  0548               	andwf	___flmul@grs,w
  4769  0741  00C2               	movwf	??___flmul
  4770  0742  30FF               	movlw	255
  4771  0743  0549               	andwf	___flmul@grs+1,w
  4772  0744  00C3               	movwf	??___flmul+1
  4773  0745  30FF               	movlw	255
  4774  0746  054A               	andwf	___flmul@grs+2,w
  4775  0747  00C4               	movwf	??___flmul+2
  4776  0748  307F               	movlw	127
  4777  0749  054B               	andwf	___flmul@grs+3,w
  4778  074A  00C5               	movwf	??___flmul+3
  4779  074B  0845               	movf	??___flmul+3,w
  4780  074C  0444               	iorwf	??___flmul+2,w
  4781  074D  0443               	iorwf	??___flmul+1,w
  4782  074E  0442               	iorwf	??___flmul,w
  4783  074F  1903               	skipnz
  4784  0750  2F52               	goto	u3281
  4785  0751  2F53               	goto	u3280
  4786  0752                     u3281:
  4787  0752  2F56               	goto	l746
  4788  0753                     u3280:
  4789  0753                     l2483:
  4790  0753  01CC               	clrf	___flmul@aexp
  4791  0754  0ACC               	incf	___flmul@aexp,f
  4792  0755  2F5B               	goto	l2487
  4793  0756                     l746:
  4794  0756  1C4E               	btfss	___flmul@prod,0
  4795  0757  2F59               	goto	u3291
  4796  0758  2F5A               	goto	u3290
  4797  0759                     u3291:
  4798  0759  2F5B               	goto	l2487
  4799  075A                     u3290:
  4800  075A  2F53               	goto	l2483
  4801  075B                     l2487:
  4802  075B  084C               	movf	___flmul@aexp,w
  4803  075C  1903               	btfsc	3,2
  4804  075D  2F5F               	goto	u3301
  4805  075E  2F60               	goto	u3300
  4806  075F                     u3301:
  4807  075F  2F91               	goto	l2497
  4808  0760                     u3300:
  4809  0760                     l2489:
  4810  0760  3001               	movlw	1
  4811  0761  07CE               	addwf	___flmul@prod,f
  4812  0762  3000               	movlw	0
  4813  0763  1803               	skipnc
  4814  0764  3001               	movlw	1
  4815  0765  07CF               	addwf	___flmul@prod+1,f
  4816  0766  3000               	movlw	0
  4817  0767  1803               	skipnc
  4818  0768  3001               	movlw	1
  4819  0769  07D0               	addwf	___flmul@prod+2,f
  4820  076A  3000               	movlw	0
  4821  076B  1803               	skipnc
  4822  076C  3001               	movlw	1
  4823  076D  07D1               	addwf	___flmul@prod+3,f
  4824  076E                     l2491:
  4825  076E  1C51               	btfss	___flmul@prod+3,0
  4826  076F  2F71               	goto	u3311
  4827  0770  2F72               	goto	u3310
  4828  0771                     u3311:
  4829  0771  2F91               	goto	l2497
  4830  0772                     u3310:
  4831  0772                     l2493:
  4832  0772  084E               	movf	___flmul@prod,w
  4833  0773  00C2               	movwf	??___flmul
  4834  0774  084F               	movf	___flmul@prod+1,w
  4835  0775  00C3               	movwf	??___flmul+1
  4836  0776  0850               	movf	___flmul@prod+2,w
  4837  0777  00C4               	movwf	??___flmul+2
  4838  0778  0851               	movf	___flmul@prod+3,w
  4839  0779  00C5               	movwf	??___flmul+3
  4840  077A  3001               	movlw	1
  4841  077B  00C6               	movwf	??___flmul+4
  4842  077C                     u3325:
  4843  077C  0D45               	rlf	??___flmul+3,w
  4844  077D  0CC5               	rrf	??___flmul+3,f
  4845  077E  0CC4               	rrf	??___flmul+2,f
  4846  077F  0CC3               	rrf	??___flmul+1,f
  4847  0780  0CC2               	rrf	??___flmul,f
  4848  0781                     u3320:
  4849  0781  0BC6               	decfsz	??___flmul+4,f
  4850  0782  2F7C               	goto	u3325
  4851  0783  0845               	movf	??___flmul+3,w
  4852  0784  00D1               	movwf	___flmul@prod+3
  4853  0785  0844               	movf	??___flmul+2,w
  4854  0786  00D0               	movwf	___flmul@prod+2
  4855  0787  0843               	movf	??___flmul+1,w
  4856  0788  00CF               	movwf	___flmul@prod+1
  4857  0789  0842               	movf	??___flmul,w
  4858  078A  00CE               	movwf	___flmul@prod
  4859  078B                     l2495:
  4860  078B  3001               	movlw	1
  4861  078C  07D2               	addwf	___flmul@temp,f
  4862  078D  1803               	skipnc
  4863  078E  0AD3               	incf	___flmul@temp+1,f
  4864  078F  3000               	movlw	0
  4865  0790  07D3               	addwf	___flmul@temp+1,f
  4866  0791                     l2497:
  4867  0791  0853               	movf	___flmul@temp+1,w
  4868  0792  3A80               	xorlw	128
  4869  0793  00FF               	movwf	btemp+1
  4870  0794  3080               	movlw	128
  4871  0795  027F               	subwf	btemp+1,w
  4872  0796  1D03               	skipz
  4873  0797  2F9A               	goto	u3335
  4874  0798  30FF               	movlw	255
  4875  0799  0252               	subwf	___flmul@temp,w
  4876  079A                     u3335:
  4877  079A  1C03               	skipc
  4878  079B  2F9D               	goto	u3331
  4879  079C  2F9E               	goto	u3330
  4880  079D                     u3331:
  4881  079D  2FA9               	goto	l2501
  4882  079E                     u3330:
  4883  079E                     l2499:
  4884  079E  307F               	movlw	127
  4885  079F  1283               	bcf	3,5	;RP0=0, select bank0
  4886  07A0  1303               	bcf	3,6	;RP1=0, select bank0
  4887  07A1  00D1               	movwf	___flmul@prod+3
  4888  07A2  3080               	movlw	128
  4889  07A3  00D0               	movwf	___flmul@prod+2
  4890  07A4  3000               	movlw	0
  4891  07A5  00CF               	movwf	___flmul@prod+1
  4892  07A6  3000               	movlw	0
  4893  07A7  00CE               	movwf	___flmul@prod
  4894  07A8  2FDE               	goto	l752
  4895  07A9                     l2501:
  4896  07A9  1283               	bcf	3,5	;RP0=0, select bank0
  4897  07AA  1303               	bcf	3,6	;RP1=0, select bank0
  4898  07AB  0853               	movf	___flmul@temp+1,w
  4899  07AC  3A80               	xorlw	128
  4900  07AD  00FF               	movwf	btemp+1
  4901  07AE  3080               	movlw	128
  4902  07AF  027F               	subwf	btemp+1,w
  4903  07B0  1D03               	skipz
  4904  07B1  2FB4               	goto	u3345
  4905  07B2  3001               	movlw	1
  4906  07B3  0252               	subwf	___flmul@temp,w
  4907  07B4                     u3345:
  4908  07B4  1803               	skipnc
  4909  07B5  2FB7               	goto	u3341
  4910  07B6  2FB8               	goto	u3340
  4911  07B7                     u3341:
  4912  07B7  2FC4               	goto	l2507
  4913  07B8                     u3340:
  4914  07B8                     l2503:
  4915  07B8  3000               	movlw	0
  4916  07B9  1283               	bcf	3,5	;RP0=0, select bank0
  4917  07BA  1303               	bcf	3,6	;RP1=0, select bank0
  4918  07BB  00D1               	movwf	___flmul@prod+3
  4919  07BC  3000               	movlw	0
  4920  07BD  00D0               	movwf	___flmul@prod+2
  4921  07BE  3000               	movlw	0
  4922  07BF  00CF               	movwf	___flmul@prod+1
  4923  07C0  3000               	movlw	0
  4924  07C1  00CE               	movwf	___flmul@prod
  4925  07C2                     l2505:
  4926  07C2  01C7               	clrf	___flmul@sign
  4927  07C3  2FDE               	goto	l752
  4928  07C4                     l2507:
  4929  07C4  1283               	bcf	3,5	;RP0=0, select bank0
  4930  07C5  1303               	bcf	3,6	;RP1=0, select bank0
  4931  07C6  0852               	movf	___flmul@temp,w
  4932  07C7  00C2               	movwf	??___flmul
  4933  07C8  0842               	movf	??___flmul,w
  4934  07C9  00CD               	movwf	___flmul@bexp
  4935  07CA  30FF               	movlw	255
  4936  07CB  05CE               	andwf	___flmul@prod,f
  4937  07CC  30FF               	movlw	255
  4938  07CD  05CF               	andwf	___flmul@prod+1,f
  4939  07CE  307F               	movlw	127
  4940  07CF  05D0               	andwf	___flmul@prod+2,f
  4941  07D0  3000               	movlw	0
  4942  07D1  05D1               	andwf	___flmul@prod+3,f
  4943  07D2                     l2509:
  4944  07D2  1C4D               	btfss	___flmul@bexp,0
  4945  07D3  2FD5               	goto	u3351
  4946  07D4  2FD6               	goto	u3350
  4947  07D5                     u3351:
  4948  07D5  2FD7               	goto	l2513
  4949  07D6                     u3350:
  4950  07D6                     l2511:
  4951  07D6  17D0               	bsf	___flmul@prod+2,7
  4952  07D7                     l2513:
  4953  07D7  084D               	movf	___flmul@bexp,w
  4954  07D8  00C2               	movwf	??___flmul
  4955  07D9  1003               	clrc
  4956  07DA  0C42               	rrf	??___flmul,w
  4957  07DB  00C3               	movwf	??___flmul+1
  4958  07DC  0843               	movf	??___flmul+1,w
  4959  07DD  00D1               	movwf	___flmul@prod+3
  4960  07DE                     l752:
  4961  07DE  0847               	movf	___flmul@sign,w
  4962  07DF  00C2               	movwf	??___flmul
  4963  07E0  0842               	movf	??___flmul,w
  4964  07E1  04D1               	iorwf	___flmul@prod+3,f
  4965  07E2                     l2515:
  4966  07E2  0851               	movf	___flmul@prod+3,w
  4967  07E3  00BD               	movwf	?___flmul+3
  4968  07E4  0850               	movf	___flmul@prod+2,w
  4969  07E5  00BC               	movwf	?___flmul+2
  4970  07E6  084F               	movf	___flmul@prod+1,w
  4971  07E7  00BB               	movwf	?___flmul+1
  4972  07E8  084E               	movf	___flmul@prod,w
  4973  07E9  00BA               	movwf	?___flmul
  4974  07EA                     l740:
  4975  07EA  0008               	return
  4976  07EB                     __end_of___flmul:
  4977                           
  4978                           	psect	text8
  4979  1786                     __ptext8:	
  4980 ;; *************** function __Umul8_16 *****************
  4981 ;; Defined at:
  4982 ;;		line 4 in file "C:\Program Files\Microchip\xc8\v2.31\pic\sources\c90\common\Umul8_16.c"
  4983 ;; Parameters:    Size  Location     Type
  4984 ;;  multiplier      1    wreg     unsigned char 
  4985 ;;  multiplicand    1    0[COMMON] unsigned char 
  4986 ;; Auto vars:     Size  Location     Type
  4987 ;;  multiplier      1    8[COMMON] unsigned char 
  4988 ;;  word_mpld       2    6[COMMON] unsigned int 
  4989 ;;  product         2    4[COMMON] unsigned int 
  4990 ;; Return value:  Size  Location     Type
  4991 ;;                  2    0[COMMON] unsigned int 
  4992 ;; Registers used:
  4993 ;;		wreg, status,2, status,0
  4994 ;; Tracked objects:
  4995 ;;		On entry : 0/0
  4996 ;;		On exit  : 0/0
  4997 ;;		Unchanged: 0/0
  4998 ;; Data sizes:     COMMON   BANK0   BANK1   BANK3   BANK2
  4999 ;;      Params:         2       0       0       0       0
  5000 ;;      Locals:         5       0       0       0       0
  5001 ;;      Temps:          2       0       0       0       0
  5002 ;;      Totals:         9       0       0       0       0
  5003 ;;Total ram usage:        9 bytes
  5004 ;; Hardware stack levels used:    1
  5005 ;; This function calls:
  5006 ;;		Nothing
  5007 ;; This function is called by:
  5008 ;;		___flmul
  5009 ;; This function uses a non-reentrant model
  5010 ;;
  5011                           
  5012                           
  5013                           ;psect for function __Umul8_16
  5014  1786                     __Umul8_16:
  5015                           
  5016                           ;incstack = 0
  5017                           ; Regs used in __Umul8_16: [wreg+status,2+status,0]
  5018                           ;__Umul8_16@multiplier stored from wreg
  5019  1786  00F8               	movwf	__Umul8_16@multiplier
  5020  1787                     l2083:
  5021  1787  01F4               	clrf	__Umul8_16@product
  5022  1788  01F5               	clrf	__Umul8_16@product+1
  5023  1789                     l2085:
  5024  1789  0870               	movf	__Umul8_16@multiplicand,w
  5025  178A  00F2               	movwf	??__Umul8_16
  5026  178B  01F3               	clrf	??__Umul8_16+1
  5027  178C  0872               	movf	??__Umul8_16,w
  5028  178D  00F6               	movwf	__Umul8_16@word_mpld
  5029  178E  0873               	movf	??__Umul8_16+1,w
  5030  178F  00F7               	movwf	__Umul8_16@word_mpld+1
  5031  1790                     l2087:
  5032  1790  1C78               	btfss	__Umul8_16@multiplier,0
  5033  1791  2F93               	goto	u2361
  5034  1792  2F94               	goto	u2360
  5035  1793                     u2361:
  5036  1793  2F9A               	goto	l759
  5037  1794                     u2360:
  5038  1794                     l2089:
  5039  1794  0876               	movf	__Umul8_16@word_mpld,w
  5040  1795  07F4               	addwf	__Umul8_16@product,f
  5041  1796  1803               	skipnc
  5042  1797  0AF5               	incf	__Umul8_16@product+1,f
  5043  1798  0877               	movf	__Umul8_16@word_mpld+1,w
  5044  1799  07F5               	addwf	__Umul8_16@product+1,f
  5045  179A                     l759:
  5046  179A  3001               	movlw	1
  5047  179B                     u2375:
  5048  179B  1003               	clrc
  5049  179C  0DF6               	rlf	__Umul8_16@word_mpld,f
  5050  179D  0DF7               	rlf	__Umul8_16@word_mpld+1,f
  5051  179E  3EFF               	addlw	-1
  5052  179F  1D03               	skipz
  5053  17A0  2F9B               	goto	u2375
  5054  17A1  1003               	clrc
  5055  17A2  0CF8               	rrf	__Umul8_16@multiplier,f
  5056  17A3                     l2091:
  5057  17A3  0878               	movf	__Umul8_16@multiplier,w
  5058  17A4  1D03               	btfss	3,2
  5059  17A5  2FA7               	goto	u2381
  5060  17A6  2FA8               	goto	u2380
  5061  17A7                     u2381:
  5062  17A7  2F90               	goto	l2087
  5063  17A8                     u2380:
  5064  17A8                     l2093:
  5065  17A8  0875               	movf	__Umul8_16@product+1,w
  5066  17A9  00F1               	movwf	?__Umul8_16+1
  5067  17AA  0874               	movf	__Umul8_16@product,w
  5068  17AB  00F0               	movwf	?__Umul8_16
  5069  17AC                     l761:
  5070  17AC  0008               	return
  5071  17AD                     __end_of__Umul8_16:
  5072                           
  5073                           	psect	text9
  5074  092E                     __ptext9:	
  5075 ;; *************** function ___flge *****************
  5076 ;; Defined at:
  5077 ;;		line 4 in file "C:\Program Files\Microchip\xc8\v2.31\pic\sources\c90\common\flge.c"
  5078 ;; Parameters:    Size  Location     Type
  5079 ;;  ff1             4    0[COMMON] unsigned int 
  5080 ;;  ff2             4    4[COMMON] unsigned int 
  5081 ;; Auto vars:     Size  Location     Type
  5082 ;;		None
  5083 ;; Return value:  Size  Location     Type
  5084 ;;		None               void
  5085 ;; Registers used:
  5086 ;;		wreg, status,2, status,0
  5087 ;; Tracked objects:
  5088 ;;		On entry : 0/0
  5089 ;;		On exit  : 0/0
  5090 ;;		Unchanged: 0/0
  5091 ;; Data sizes:     COMMON   BANK0   BANK1   BANK3   BANK2
  5092 ;;      Params:         8       0       0       0       0
  5093 ;;      Locals:         0       0       0       0       0
  5094 ;;      Temps:          4       0       0       0       0
  5095 ;;      Totals:        12       0       0       0       0
  5096 ;;Total ram usage:       12 bytes
  5097 ;; Hardware stack levels used:    1
  5098 ;; This function calls:
  5099 ;;		Nothing
  5100 ;; This function is called by:
  5101 ;;		_convert
  5102 ;; This function uses a non-reentrant model
  5103 ;;
  5104                           
  5105                           
  5106                           ;psect for function ___flge
  5107  092E                     ___flge:
  5108  092E                     l2175:	
  5109                           ;incstack = 0
  5110                           ; Regs used in ___flge: [wreg+status,2+status,0]
  5111                           
  5112  092E  3000               	movlw	0
  5113  092F  0570               	andwf	___flge@ff1,w
  5114  0930  00F8               	movwf	??___flge
  5115  0931  3000               	movlw	0
  5116  0932  0571               	andwf	___flge@ff1+1,w
  5117  0933  00F9               	movwf	??___flge+1
  5118  0934  3080               	movlw	128
  5119  0935  0572               	andwf	___flge@ff1+2,w
  5120  0936  00FA               	movwf	??___flge+2
  5121  0937  307F               	movlw	127
  5122  0938  0573               	andwf	___flge@ff1+3,w
  5123  0939  00FB               	movwf	??___flge+3
  5124  093A  087B               	movf	??___flge+3,w
  5125  093B  047A               	iorwf	??___flge+2,w
  5126  093C  0479               	iorwf	??___flge+1,w
  5127  093D  0478               	iorwf	??___flge,w
  5128  093E  1D03               	skipz
  5129  093F  2941               	goto	u2531
  5130  0940  2942               	goto	u2530
  5131  0941                     u2531:
  5132  0941  294A               	goto	l525
  5133  0942                     u2530:
  5134  0942                     l2177:
  5135  0942  3000               	movlw	0
  5136  0943  00F3               	movwf	___flge@ff1+3
  5137  0944  3000               	movlw	0
  5138  0945  00F2               	movwf	___flge@ff1+2
  5139  0946  3000               	movlw	0
  5140  0947  00F1               	movwf	___flge@ff1+1
  5141  0948  3000               	movlw	0
  5142  0949  00F0               	movwf	___flge@ff1
  5143  094A                     l525:
  5144  094A  3000               	movlw	0
  5145  094B  0574               	andwf	___flge@ff2,w
  5146  094C  00F8               	movwf	??___flge
  5147  094D  3000               	movlw	0
  5148  094E  0575               	andwf	___flge@ff2+1,w
  5149  094F  00F9               	movwf	??___flge+1
  5150  0950  3080               	movlw	128
  5151  0951  0576               	andwf	___flge@ff2+2,w
  5152  0952  00FA               	movwf	??___flge+2
  5153  0953  307F               	movlw	127
  5154  0954  0577               	andwf	___flge@ff2+3,w
  5155  0955  00FB               	movwf	??___flge+3
  5156  0956  087B               	movf	??___flge+3,w
  5157  0957  047A               	iorwf	??___flge+2,w
  5158  0958  0479               	iorwf	??___flge+1,w
  5159  0959  0478               	iorwf	??___flge,w
  5160  095A  1D03               	skipz
  5161  095B  295D               	goto	u2541
  5162  095C  295E               	goto	u2540
  5163  095D                     u2541:
  5164  095D  2966               	goto	l2181
  5165  095E                     u2540:
  5166  095E                     l2179:
  5167  095E  3000               	movlw	0
  5168  095F  00F7               	movwf	___flge@ff2+3
  5169  0960  3000               	movlw	0
  5170  0961  00F6               	movwf	___flge@ff2+2
  5171  0962  3000               	movlw	0
  5172  0963  00F5               	movwf	___flge@ff2+1
  5173  0964  3000               	movlw	0
  5174  0965  00F4               	movwf	___flge@ff2
  5175  0966                     l2181:
  5176  0966  1FF3               	btfss	___flge@ff1+3,7
  5177  0967  2969               	goto	u2551
  5178  0968  296A               	goto	u2550
  5179  0969                     u2551:
  5180  0969  298E               	goto	l2185
  5181  096A                     u2550:
  5182  096A                     l2183:
  5183  096A  3000               	movlw	0
  5184  096B  00F8               	movwf	??___flge
  5185  096C  3000               	movlw	0
  5186  096D  00F9               	movwf	??___flge+1
  5187  096E  3000               	movlw	0
  5188  096F  00FA               	movwf	??___flge+2
  5189  0970  3080               	movlw	128
  5190  0971  00FB               	movwf	??___flge+3
  5191  0972  0870               	movf	___flge@ff1,w
  5192  0973  02F8               	subwf	??___flge,f
  5193  0974  0871               	movf	___flge@ff1+1,w
  5194  0975  1C03               	skipc
  5195  0976  0F71               	incfsz	___flge@ff1+1,w
  5196  0977  2979               	goto	u2561
  5197  0978  297A               	goto	u2562
  5198  0979                     u2561:
  5199  0979  02F9               	subwf	??___flge+1,f
  5200  097A                     u2562:
  5201  097A  0872               	movf	___flge@ff1+2,w
  5202  097B  1C03               	skipc
  5203  097C  0F72               	incfsz	___flge@ff1+2,w
  5204  097D  297F               	goto	u2563
  5205  097E  2980               	goto	u2564
  5206  097F                     u2563:
  5207  097F  02FA               	subwf	??___flge+2,f
  5208  0980                     u2564:
  5209  0980  0873               	movf	___flge@ff1+3,w
  5210  0981  1C03               	skipc
  5211  0982  0F73               	incfsz	___flge@ff1+3,w
  5212  0983  2985               	goto	u2565
  5213  0984  2986               	goto	u2566
  5214  0985                     u2565:
  5215  0985  02FB               	subwf	??___flge+3,f
  5216  0986                     u2566:
  5217  0986  087B               	movf	??___flge+3,w
  5218  0987  00F3               	movwf	___flge@ff1+3
  5219  0988  087A               	movf	??___flge+2,w
  5220  0989  00F2               	movwf	___flge@ff1+2
  5221  098A  0879               	movf	??___flge+1,w
  5222  098B  00F1               	movwf	___flge@ff1+1
  5223  098C  0878               	movf	??___flge,w
  5224  098D  00F0               	movwf	___flge@ff1
  5225  098E                     l2185:
  5226  098E  1FF7               	btfss	___flge@ff2+3,7
  5227  098F  2991               	goto	u2571
  5228  0990  2992               	goto	u2570
  5229  0991                     u2571:
  5230  0991  29B6               	goto	l528
  5231  0992                     u2570:
  5232  0992                     l2187:
  5233  0992  3000               	movlw	0
  5234  0993  00F8               	movwf	??___flge
  5235  0994  3000               	movlw	0
  5236  0995  00F9               	movwf	??___flge+1
  5237  0996  3000               	movlw	0
  5238  0997  00FA               	movwf	??___flge+2
  5239  0998  3080               	movlw	128
  5240  0999  00FB               	movwf	??___flge+3
  5241  099A  0874               	movf	___flge@ff2,w
  5242  099B  02F8               	subwf	??___flge,f
  5243  099C  0875               	movf	___flge@ff2+1,w
  5244  099D  1C03               	skipc
  5245  099E  0F75               	incfsz	___flge@ff2+1,w
  5246  099F  29A1               	goto	u2581
  5247  09A0  29A2               	goto	u2582
  5248  09A1                     u2581:
  5249  09A1  02F9               	subwf	??___flge+1,f
  5250  09A2                     u2582:
  5251  09A2  0876               	movf	___flge@ff2+2,w
  5252  09A3  1C03               	skipc
  5253  09A4  0F76               	incfsz	___flge@ff2+2,w
  5254  09A5  29A7               	goto	u2583
  5255  09A6  29A8               	goto	u2584
  5256  09A7                     u2583:
  5257  09A7  02FA               	subwf	??___flge+2,f
  5258  09A8                     u2584:
  5259  09A8  0877               	movf	___flge@ff2+3,w
  5260  09A9  1C03               	skipc
  5261  09AA  0F77               	incfsz	___flge@ff2+3,w
  5262  09AB  29AD               	goto	u2585
  5263  09AC  29AE               	goto	u2586
  5264  09AD                     u2585:
  5265  09AD  02FB               	subwf	??___flge+3,f
  5266  09AE                     u2586:
  5267  09AE  087B               	movf	??___flge+3,w
  5268  09AF  00F7               	movwf	___flge@ff2+3
  5269  09B0  087A               	movf	??___flge+2,w
  5270  09B1  00F6               	movwf	___flge@ff2+2
  5271  09B2  0879               	movf	??___flge+1,w
  5272  09B3  00F5               	movwf	___flge@ff2+1
  5273  09B4  0878               	movf	??___flge,w
  5274  09B5  00F4               	movwf	___flge@ff2
  5275  09B6                     l528:
  5276  09B6  3080               	movlw	128
  5277  09B7  06F3               	xorwf	___flge@ff1+3,f
  5278  09B8  3080               	movlw	128
  5279  09B9  06F7               	xorwf	___flge@ff2+3,f
  5280  09BA  0877               	movf	___flge@ff2+3,w
  5281  09BB  0273               	subwf	___flge@ff1+3,w
  5282  09BC  1D03               	skipz
  5283  09BD  29C8               	goto	u2595
  5284  09BE  0876               	movf	___flge@ff2+2,w
  5285  09BF  0272               	subwf	___flge@ff1+2,w
  5286  09C0  1D03               	skipz
  5287  09C1  29C8               	goto	u2595
  5288  09C2  0875               	movf	___flge@ff2+1,w
  5289  09C3  0271               	subwf	___flge@ff1+1,w
  5290  09C4  1D03               	skipz
  5291  09C5  29C8               	goto	u2595
  5292  09C6  0874               	movf	___flge@ff2,w
  5293  09C7  0270               	subwf	___flge@ff1,w
  5294  09C8                     u2595:
  5295  09C8  1803               	skipnc
  5296  09C9  29CB               	goto	u2591
  5297  09CA  29CC               	goto	u2590
  5298  09CB                     u2591:
  5299  09CB  29CE               	goto	l2191
  5300  09CC                     u2590:
  5301  09CC                     l2189:
  5302  09CC  1003               	clrc
  5303  09CD  29CF               	goto	l529
  5304  09CE                     l2191:
  5305  09CE  1403               	setc
  5306  09CF                     l529:
  5307  09CF  0008               	return
  5308  09D0                     __end_of___flge:
  5309                           
  5310                           	psect	text10
  5311  0B8B                     __ptext10:	
  5312 ;; *************** function ___fldiv *****************
  5313 ;; Defined at:
  5314 ;;		line 8 in file "C:\Program Files\Microchip\xc8\v2.31\pic\sources\c90\common\sprcdiv.c"
  5315 ;; Parameters:    Size  Location     Type
  5316 ;;  a               4   18[BANK0 ] unsigned int 
  5317 ;;  b               4   22[BANK0 ] unsigned int 
  5318 ;; Auto vars:     Size  Location     Type
  5319 ;;  grs             4   38[BANK0 ] unsigned long 
  5320 ;;  rem             4   31[BANK0 ] unsigned long 
  5321 ;;  new_exp         2   36[BANK0 ] int 
  5322 ;;  aexp            1   43[BANK0 ] unsigned char 
  5323 ;;  bexp            1   42[BANK0 ] unsigned char 
  5324 ;;  sign            1   35[BANK0 ] unsigned char 
  5325 ;; Return value:  Size  Location     Type
  5326 ;;                  4   18[BANK0 ] unsigned char 
  5327 ;; Registers used:
  5328 ;;		wreg, status,2, status,0, btemp+1
  5329 ;; Tracked objects:
  5330 ;;		On entry : 0/0
  5331 ;;		On exit  : 0/0
  5332 ;;		Unchanged: 0/0
  5333 ;; Data sizes:     COMMON   BANK0   BANK1   BANK3   BANK2
  5334 ;;      Params:         0       8       0       0       0
  5335 ;;      Locals:         0      13       0       0       0
  5336 ;;      Temps:          0       5       0       0       0
  5337 ;;      Totals:         0      26       0       0       0
  5338 ;;Total ram usage:       26 bytes
  5339 ;; Hardware stack levels used:    1
  5340 ;; This function calls:
  5341 ;;		Nothing
  5342 ;; This function is called by:
  5343 ;;		_convert
  5344 ;; This function uses a non-reentrant model
  5345 ;;
  5346                           
  5347                           
  5348                           ;psect for function ___fldiv
  5349  0B8B                     ___fldiv:
  5350  0B8B                     l2237:	
  5351                           ;incstack = 0
  5352                           ; Regs used in ___fldiv: [wreg+status,2+status,0+btemp+1]
  5353                           
  5354  0B8B  1283               	bcf	3,5	;RP0=0, select bank0
  5355  0B8C  1303               	bcf	3,6	;RP1=0, select bank0
  5356  0B8D  0839               	movf	___fldiv@b+3,w
  5357  0B8E  3980               	andlw	128
  5358  0B8F  00BA               	movwf	??___fldiv
  5359  0B90  083A               	movf	??___fldiv,w
  5360  0B91  00C3               	movwf	___fldiv@sign
  5361  0B92                     l2239:
  5362  0B92  0839               	movf	___fldiv@b+3,w
  5363  0B93  00BA               	movwf	??___fldiv
  5364  0B94  073A               	addwf	??___fldiv,w
  5365  0B95  00BB               	movwf	??___fldiv+1
  5366  0B96  083B               	movf	??___fldiv+1,w
  5367  0B97  00CA               	movwf	___fldiv@bexp
  5368  0B98                     l2241:
  5369  0B98  1FB8               	btfss	___fldiv@b+2,7
  5370  0B99  2B9B               	goto	u2701
  5371  0B9A  2B9C               	goto	u2700
  5372  0B9B                     u2701:
  5373  0B9B  2B9D               	goto	l2245
  5374  0B9C                     u2700:
  5375  0B9C                     l2243:
  5376  0B9C  144A               	bsf	___fldiv@bexp,0
  5377  0B9D                     l2245:
  5378  0B9D  084A               	movf	___fldiv@bexp,w
  5379  0B9E  1903               	btfsc	3,2
  5380  0B9F  2BA1               	goto	u2711
  5381  0BA0  2BA2               	goto	u2710
  5382  0BA1                     u2711:
  5383  0BA1  2BB2               	goto	l2255
  5384  0BA2                     u2710:
  5385  0BA2                     l2247:
  5386  0BA2  0A4A               	incf	___fldiv@bexp,w
  5387  0BA3  1D03               	btfss	3,2
  5388  0BA4  2BA6               	goto	u2721
  5389  0BA5  2BA7               	goto	u2720
  5390  0BA6                     u2721:
  5391  0BA6  2BAF               	goto	l2251
  5392  0BA7                     u2720:
  5393  0BA7                     l2249:
  5394  0BA7  3000               	movlw	0
  5395  0BA8  00B9               	movwf	___fldiv@b+3
  5396  0BA9  3000               	movlw	0
  5397  0BAA  00B8               	movwf	___fldiv@b+2
  5398  0BAB  3000               	movlw	0
  5399  0BAC  00B7               	movwf	___fldiv@b+1
  5400  0BAD  3000               	movlw	0
  5401  0BAE  00B6               	movwf	___fldiv@b
  5402  0BAF                     l2251:
  5403  0BAF  17B8               	bsf	___fldiv@b+2,7
  5404  0BB0                     l2253:
  5405  0BB0  01B9               	clrf	___fldiv@b+3
  5406  0BB1  2BBA               	goto	l2257
  5407  0BB2                     l2255:
  5408  0BB2  3000               	movlw	0
  5409  0BB3  00B9               	movwf	___fldiv@b+3
  5410  0BB4  3000               	movlw	0
  5411  0BB5  00B8               	movwf	___fldiv@b+2
  5412  0BB6  3000               	movlw	0
  5413  0BB7  00B7               	movwf	___fldiv@b+1
  5414  0BB8  3000               	movlw	0
  5415  0BB9  00B6               	movwf	___fldiv@b
  5416  0BBA                     l2257:
  5417  0BBA  0835               	movf	___fldiv@a+3,w
  5418  0BBB  3980               	andlw	128
  5419  0BBC  00BA               	movwf	??___fldiv
  5420  0BBD  083A               	movf	??___fldiv,w
  5421  0BBE  06C3               	xorwf	___fldiv@sign,f
  5422  0BBF                     l2259:
  5423  0BBF  0835               	movf	___fldiv@a+3,w
  5424  0BC0  00BA               	movwf	??___fldiv
  5425  0BC1  073A               	addwf	??___fldiv,w
  5426  0BC2  00BB               	movwf	??___fldiv+1
  5427  0BC3  083B               	movf	??___fldiv+1,w
  5428  0BC4  00CB               	movwf	___fldiv@aexp
  5429  0BC5                     l2261:
  5430  0BC5  1FB4               	btfss	___fldiv@a+2,7
  5431  0BC6  2BC8               	goto	u2731
  5432  0BC7  2BC9               	goto	u2730
  5433  0BC8                     u2731:
  5434  0BC8  2BCA               	goto	l2265
  5435  0BC9                     u2730:
  5436  0BC9                     l2263:
  5437  0BC9  144B               	bsf	___fldiv@aexp,0
  5438  0BCA                     l2265:
  5439  0BCA  084B               	movf	___fldiv@aexp,w
  5440  0BCB  1903               	btfsc	3,2
  5441  0BCC  2BCE               	goto	u2741
  5442  0BCD  2BCF               	goto	u2740
  5443  0BCE                     u2741:
  5444  0BCE  2BDF               	goto	l2275
  5445  0BCF                     u2740:
  5446  0BCF                     l2267:
  5447  0BCF  0A4B               	incf	___fldiv@aexp,w
  5448  0BD0  1D03               	btfss	3,2
  5449  0BD1  2BD3               	goto	u2751
  5450  0BD2  2BD4               	goto	u2750
  5451  0BD3                     u2751:
  5452  0BD3  2BDC               	goto	l2271
  5453  0BD4                     u2750:
  5454  0BD4                     l2269:
  5455  0BD4  3000               	movlw	0
  5456  0BD5  00B5               	movwf	___fldiv@a+3
  5457  0BD6  3000               	movlw	0
  5458  0BD7  00B4               	movwf	___fldiv@a+2
  5459  0BD8  3000               	movlw	0
  5460  0BD9  00B3               	movwf	___fldiv@a+1
  5461  0BDA  3000               	movlw	0
  5462  0BDB  00B2               	movwf	___fldiv@a
  5463  0BDC                     l2271:
  5464  0BDC  17B4               	bsf	___fldiv@a+2,7
  5465  0BDD                     l2273:
  5466  0BDD  01B5               	clrf	___fldiv@a+3
  5467  0BDE  2BE7               	goto	l700
  5468  0BDF                     l2275:
  5469  0BDF  3000               	movlw	0
  5470  0BE0  00B5               	movwf	___fldiv@a+3
  5471  0BE1  3000               	movlw	0
  5472  0BE2  00B4               	movwf	___fldiv@a+2
  5473  0BE3  3000               	movlw	0
  5474  0BE4  00B3               	movwf	___fldiv@a+1
  5475  0BE5  3000               	movlw	0
  5476  0BE6  00B2               	movwf	___fldiv@a
  5477  0BE7                     l700:
  5478  0BE7  0835               	movf	___fldiv@a+3,w
  5479  0BE8  0434               	iorwf	___fldiv@a+2,w
  5480  0BE9  0433               	iorwf	___fldiv@a+1,w
  5481  0BEA  0432               	iorwf	___fldiv@a,w
  5482  0BEB  1D03               	skipz
  5483  0BEC  2BEE               	goto	u2761
  5484  0BED  2BEF               	goto	u2760
  5485  0BEE                     u2761:
  5486  0BEE  2C08               	goto	l2285
  5487  0BEF                     u2760:
  5488  0BEF                     l2277:
  5489  0BEF  3000               	movlw	0
  5490  0BF0  00B9               	movwf	___fldiv@b+3
  5491  0BF1  3000               	movlw	0
  5492  0BF2  00B8               	movwf	___fldiv@b+2
  5493  0BF3  3000               	movlw	0
  5494  0BF4  00B7               	movwf	___fldiv@b+1
  5495  0BF5  3000               	movlw	0
  5496  0BF6  00B6               	movwf	___fldiv@b
  5497  0BF7  3080               	movlw	128
  5498  0BF8  04B8               	iorwf	___fldiv@b+2,f
  5499  0BF9  307F               	movlw	127
  5500  0BFA  04B9               	iorwf	___fldiv@b+3,f
  5501  0BFB                     l2279:
  5502  0BFB  0843               	movf	___fldiv@sign,w
  5503  0BFC  00BA               	movwf	??___fldiv
  5504  0BFD  083A               	movf	??___fldiv,w
  5505  0BFE  04B9               	iorwf	___fldiv@b+3,f
  5506  0BFF                     l2281:
  5507  0BFF  0839               	movf	___fldiv@b+3,w
  5508  0C00  00B5               	movwf	?___fldiv+3
  5509  0C01  0838               	movf	___fldiv@b+2,w
  5510  0C02  00B4               	movwf	?___fldiv+2
  5511  0C03  0837               	movf	___fldiv@b+1,w
  5512  0C04  00B3               	movwf	?___fldiv+1
  5513  0C05  0836               	movf	___fldiv@b,w
  5514  0C06  00B2               	movwf	?___fldiv
  5515  0C07  2D67               	goto	l702
  5516  0C08                     l2285:
  5517  0C08  084A               	movf	___fldiv@bexp,w
  5518  0C09  1D03               	btfss	3,2
  5519  0C0A  2C0C               	goto	u2771
  5520  0C0B  2C0D               	goto	u2770
  5521  0C0C                     u2771:
  5522  0C0C  2C16               	goto	l2291
  5523  0C0D                     u2770:
  5524  0C0D                     l2287:
  5525  0C0D  3000               	movlw	0
  5526  0C0E  00B5               	movwf	?___fldiv+3
  5527  0C0F  3000               	movlw	0
  5528  0C10  00B4               	movwf	?___fldiv+2
  5529  0C11  3000               	movlw	0
  5530  0C12  00B3               	movwf	?___fldiv+1
  5531  0C13  3000               	movlw	0
  5532  0C14  00B2               	movwf	?___fldiv
  5533  0C15  2D67               	goto	l702
  5534  0C16                     l2291:
  5535  0C16  084A               	movf	___fldiv@bexp,w
  5536  0C17  00BA               	movwf	??___fldiv
  5537  0C18  01BB               	clrf	??___fldiv+1
  5538  0C19  083B               	movf	??___fldiv+1,w
  5539  0C1A  00BD               	movwf	??___fldiv+3
  5540  0C1B  084B               	movf	___fldiv@aexp,w
  5541  0C1C  023A               	subwf	??___fldiv,w
  5542  0C1D  00BC               	movwf	??___fldiv+2
  5543  0C1E  1C03               	skipc
  5544  0C1F  03BD               	decf	??___fldiv+3,f
  5545  0C20  083C               	movf	??___fldiv+2,w
  5546  0C21  3E7F               	addlw	127
  5547  0C22  00C4               	movwf	___fldiv@new_exp
  5548  0C23  083D               	movf	??___fldiv+3,w
  5549  0C24  1803               	skipnc
  5550  0C25  3E01               	addlw	1
  5551  0C26  3E00               	addlw	0
  5552  0C27  00C5               	movwf	___fldiv@new_exp+1
  5553  0C28                     l2293:
  5554  0C28  0839               	movf	___fldiv@b+3,w
  5555  0C29  00C2               	movwf	___fldiv@rem+3
  5556  0C2A  0838               	movf	___fldiv@b+2,w
  5557  0C2B  00C1               	movwf	___fldiv@rem+2
  5558  0C2C  0837               	movf	___fldiv@b+1,w
  5559  0C2D  00C0               	movwf	___fldiv@rem+1
  5560  0C2E  0836               	movf	___fldiv@b,w
  5561  0C2F  00BF               	movwf	___fldiv@rem
  5562  0C30                     l2295:
  5563  0C30  3000               	movlw	0
  5564  0C31  00B9               	movwf	___fldiv@b+3
  5565  0C32  3000               	movlw	0
  5566  0C33  00B8               	movwf	___fldiv@b+2
  5567  0C34  3000               	movlw	0
  5568  0C35  00B7               	movwf	___fldiv@b+1
  5569  0C36  3000               	movlw	0
  5570  0C37  00B6               	movwf	___fldiv@b
  5571  0C38                     l2297:
  5572  0C38  3000               	movlw	0
  5573  0C39  00C9               	movwf	___fldiv@grs+3
  5574  0C3A  3000               	movlw	0
  5575  0C3B  00C8               	movwf	___fldiv@grs+2
  5576  0C3C  3000               	movlw	0
  5577  0C3D  00C7               	movwf	___fldiv@grs+1
  5578  0C3E  3000               	movlw	0
  5579  0C3F  00C6               	movwf	___fldiv@grs
  5580  0C40                     l2299:
  5581  0C40  01CB               	clrf	___fldiv@aexp
  5582  0C41  2C8C               	goto	l2319
  5583  0C42                     l2301:
  5584  0C42  084B               	movf	___fldiv@aexp,w
  5585  0C43  1903               	btfsc	3,2
  5586  0C44  2C46               	goto	u2781
  5587  0C45  2C47               	goto	u2780
  5588  0C46                     u2781:
  5589  0C46  2C67               	goto	l2311
  5590  0C47                     u2780:
  5591  0C47                     l2303:
  5592  0C47  3001               	movlw	1
  5593  0C48  00BA               	movwf	??___fldiv
  5594  0C49                     u2795:
  5595  0C49  1003               	clrc
  5596  0C4A  0DBF               	rlf	___fldiv@rem,f
  5597  0C4B  0DC0               	rlf	___fldiv@rem+1,f
  5598  0C4C  0DC1               	rlf	___fldiv@rem+2,f
  5599  0C4D  0DC2               	rlf	___fldiv@rem+3,f
  5600  0C4E  0BBA               	decfsz	??___fldiv,f
  5601  0C4F  2C49               	goto	u2795
  5602  0C50  3001               	movlw	1
  5603  0C51  00BA               	movwf	??___fldiv
  5604  0C52                     u2805:
  5605  0C52  1003               	clrc
  5606  0C53  0DB6               	rlf	___fldiv@b,f
  5607  0C54  0DB7               	rlf	___fldiv@b+1,f
  5608  0C55  0DB8               	rlf	___fldiv@b+2,f
  5609  0C56  0DB9               	rlf	___fldiv@b+3,f
  5610  0C57  0BBA               	decfsz	??___fldiv,f
  5611  0C58  2C52               	goto	u2805
  5612  0C59                     l2305:
  5613  0C59  1FC9               	btfss	___fldiv@grs+3,7
  5614  0C5A  2C5C               	goto	u2811
  5615  0C5B  2C5D               	goto	u2810
  5616  0C5C                     u2811:
  5617  0C5C  2C5E               	goto	l2309
  5618  0C5D                     u2810:
  5619  0C5D                     l2307:
  5620  0C5D  1436               	bsf	___fldiv@b,0
  5621  0C5E                     l2309:
  5622  0C5E  3001               	movlw	1
  5623  0C5F  00BA               	movwf	??___fldiv
  5624  0C60                     u2825:
  5625  0C60  1003               	clrc
  5626  0C61  0DC6               	rlf	___fldiv@grs,f
  5627  0C62  0DC7               	rlf	___fldiv@grs+1,f
  5628  0C63  0DC8               	rlf	___fldiv@grs+2,f
  5629  0C64  0DC9               	rlf	___fldiv@grs+3,f
  5630  0C65  0BBA               	decfsz	??___fldiv,f
  5631  0C66  2C60               	goto	u2825
  5632  0C67                     l2311:
  5633  0C67  0835               	movf	___fldiv@a+3,w
  5634  0C68  0242               	subwf	___fldiv@rem+3,w
  5635  0C69  1D03               	skipz
  5636  0C6A  2C75               	goto	u2835
  5637  0C6B  0834               	movf	___fldiv@a+2,w
  5638  0C6C  0241               	subwf	___fldiv@rem+2,w
  5639  0C6D  1D03               	skipz
  5640  0C6E  2C75               	goto	u2835
  5641  0C6F  0833               	movf	___fldiv@a+1,w
  5642  0C70  0240               	subwf	___fldiv@rem+1,w
  5643  0C71  1D03               	skipz
  5644  0C72  2C75               	goto	u2835
  5645  0C73  0832               	movf	___fldiv@a,w
  5646  0C74  023F               	subwf	___fldiv@rem,w
  5647  0C75                     u2835:
  5648  0C75  1C03               	skipc
  5649  0C76  2C78               	goto	u2831
  5650  0C77  2C79               	goto	u2830
  5651  0C78                     u2831:
  5652  0C78  2C88               	goto	l2317
  5653  0C79                     u2830:
  5654  0C79                     l2313:
  5655  0C79  1749               	bsf	___fldiv@grs+3,6
  5656  0C7A                     l2315:
  5657  0C7A  0832               	movf	___fldiv@a,w
  5658  0C7B  02BF               	subwf	___fldiv@rem,f
  5659  0C7C  0833               	movf	___fldiv@a+1,w
  5660  0C7D  1C03               	skipc
  5661  0C7E  0F33               	incfsz	___fldiv@a+1,w
  5662  0C7F  02C0               	subwf	___fldiv@rem+1,f
  5663  0C80  0834               	movf	___fldiv@a+2,w
  5664  0C81  1C03               	skipc
  5665  0C82  0F34               	incfsz	___fldiv@a+2,w
  5666  0C83  02C1               	subwf	___fldiv@rem+2,f
  5667  0C84  0835               	movf	___fldiv@a+3,w
  5668  0C85  1C03               	skipc
  5669  0C86  0F35               	incfsz	___fldiv@a+3,w
  5670  0C87  02C2               	subwf	___fldiv@rem+3,f
  5671  0C88                     l2317:
  5672  0C88  3001               	movlw	1
  5673  0C89  00BA               	movwf	??___fldiv
  5674  0C8A  083A               	movf	??___fldiv,w
  5675  0C8B  07CB               	addwf	___fldiv@aexp,f
  5676  0C8C                     l2319:
  5677  0C8C  301A               	movlw	26
  5678  0C8D  024B               	subwf	___fldiv@aexp,w
  5679  0C8E  1C03               	skipc
  5680  0C8F  2C91               	goto	u2841
  5681  0C90  2C92               	goto	u2840
  5682  0C91                     u2841:
  5683  0C91  2C42               	goto	l2301
  5684  0C92                     u2840:
  5685  0C92                     l2321:
  5686  0C92  0842               	movf	___fldiv@rem+3,w
  5687  0C93  0441               	iorwf	___fldiv@rem+2,w
  5688  0C94  0440               	iorwf	___fldiv@rem+1,w
  5689  0C95  043F               	iorwf	___fldiv@rem,w
  5690  0C96  1903               	skipnz
  5691  0C97  2C99               	goto	u2851
  5692  0C98  2C9A               	goto	u2850
  5693  0C99                     u2851:
  5694  0C99  2CB9               	goto	l2335
  5695  0C9A                     u2850:
  5696  0C9A                     l2323:
  5697  0C9A  1446               	bsf	___fldiv@grs,0
  5698  0C9B  2CB9               	goto	l2335
  5699  0C9C                     l2325:
  5700  0C9C  3001               	movlw	1
  5701  0C9D  00BA               	movwf	??___fldiv
  5702  0C9E                     u2865:
  5703  0C9E  1003               	clrc
  5704  0C9F  0DB6               	rlf	___fldiv@b,f
  5705  0CA0  0DB7               	rlf	___fldiv@b+1,f
  5706  0CA1  0DB8               	rlf	___fldiv@b+2,f
  5707  0CA2  0DB9               	rlf	___fldiv@b+3,f
  5708  0CA3  0BBA               	decfsz	??___fldiv,f
  5709  0CA4  2C9E               	goto	u2865
  5710  0CA5                     l2327:
  5711  0CA5  1FC9               	btfss	___fldiv@grs+3,7
  5712  0CA6  2CA8               	goto	u2871
  5713  0CA7  2CA9               	goto	u2870
  5714  0CA8                     u2871:
  5715  0CA8  2CAA               	goto	l2331
  5716  0CA9                     u2870:
  5717  0CA9                     l2329:
  5718  0CA9  1436               	bsf	___fldiv@b,0
  5719  0CAA                     l2331:
  5720  0CAA  3001               	movlw	1
  5721  0CAB  00BA               	movwf	??___fldiv
  5722  0CAC                     u2885:
  5723  0CAC  1003               	clrc
  5724  0CAD  0DC6               	rlf	___fldiv@grs,f
  5725  0CAE  0DC7               	rlf	___fldiv@grs+1,f
  5726  0CAF  0DC8               	rlf	___fldiv@grs+2,f
  5727  0CB0  0DC9               	rlf	___fldiv@grs+3,f
  5728  0CB1  0BBA               	decfsz	??___fldiv,f
  5729  0CB2  2CAC               	goto	u2885
  5730  0CB3                     l2333:
  5731  0CB3  30FF               	movlw	255
  5732  0CB4  07C4               	addwf	___fldiv@new_exp,f
  5733  0CB5  1803               	skipnc
  5734  0CB6  0AC5               	incf	___fldiv@new_exp+1,f
  5735  0CB7  30FF               	movlw	255
  5736  0CB8  07C5               	addwf	___fldiv@new_exp+1,f
  5737  0CB9                     l2335:
  5738  0CB9  1FB8               	btfss	___fldiv@b+2,7
  5739  0CBA  2CBC               	goto	u2891
  5740  0CBB  2CBD               	goto	u2890
  5741  0CBC                     u2891:
  5742  0CBC  2C9C               	goto	l2325
  5743  0CBD                     u2890:
  5744  0CBD                     l2337:
  5745  0CBD  01CB               	clrf	___fldiv@aexp
  5746  0CBE                     l2339:
  5747  0CBE  1FC9               	btfss	___fldiv@grs+3,7
  5748  0CBF  2CC1               	goto	u2901
  5749  0CC0  2CC2               	goto	u2900
  5750  0CC1                     u2901:
  5751  0CC1  2CDE               	goto	l2347
  5752  0CC2                     u2900:
  5753  0CC2                     l2341:
  5754  0CC2  30FF               	movlw	255
  5755  0CC3  0546               	andwf	___fldiv@grs,w
  5756  0CC4  00BA               	movwf	??___fldiv
  5757  0CC5  30FF               	movlw	255
  5758  0CC6  0547               	andwf	___fldiv@grs+1,w
  5759  0CC7  00BB               	movwf	??___fldiv+1
  5760  0CC8  30FF               	movlw	255
  5761  0CC9  0548               	andwf	___fldiv@grs+2,w
  5762  0CCA  00BC               	movwf	??___fldiv+2
  5763  0CCB  307F               	movlw	127
  5764  0CCC  0549               	andwf	___fldiv@grs+3,w
  5765  0CCD  00BD               	movwf	??___fldiv+3
  5766  0CCE  083D               	movf	??___fldiv+3,w
  5767  0CCF  043C               	iorwf	??___fldiv+2,w
  5768  0CD0  043B               	iorwf	??___fldiv+1,w
  5769  0CD1  043A               	iorwf	??___fldiv,w
  5770  0CD2  1903               	skipnz
  5771  0CD3  2CD5               	goto	u2911
  5772  0CD4  2CD6               	goto	u2910
  5773  0CD5                     u2911:
  5774  0CD5  2CD9               	goto	l716
  5775  0CD6                     u2910:
  5776  0CD6                     l2343:
  5777  0CD6  01CB               	clrf	___fldiv@aexp
  5778  0CD7  0ACB               	incf	___fldiv@aexp,f
  5779  0CD8  2CDE               	goto	l2347
  5780  0CD9                     l716:
  5781  0CD9  1C36               	btfss	___fldiv@b,0
  5782  0CDA  2CDC               	goto	u2921
  5783  0CDB  2CDD               	goto	u2920
  5784  0CDC                     u2921:
  5785  0CDC  2CDE               	goto	l2347
  5786  0CDD                     u2920:
  5787  0CDD  2CD6               	goto	l2343
  5788  0CDE                     l2347:
  5789  0CDE  084B               	movf	___fldiv@aexp,w
  5790  0CDF  1903               	btfsc	3,2
  5791  0CE0  2CE2               	goto	u2931
  5792  0CE1  2CE3               	goto	u2930
  5793  0CE2                     u2931:
  5794  0CE2  2D14               	goto	l2357
  5795  0CE3                     u2930:
  5796  0CE3                     l2349:
  5797  0CE3  3001               	movlw	1
  5798  0CE4  07B6               	addwf	___fldiv@b,f
  5799  0CE5  3000               	movlw	0
  5800  0CE6  1803               	skipnc
  5801  0CE7  3001               	movlw	1
  5802  0CE8  07B7               	addwf	___fldiv@b+1,f
  5803  0CE9  3000               	movlw	0
  5804  0CEA  1803               	skipnc
  5805  0CEB  3001               	movlw	1
  5806  0CEC  07B8               	addwf	___fldiv@b+2,f
  5807  0CED  3000               	movlw	0
  5808  0CEE  1803               	skipnc
  5809  0CEF  3001               	movlw	1
  5810  0CF0  07B9               	addwf	___fldiv@b+3,f
  5811  0CF1                     l2351:
  5812  0CF1  1C39               	btfss	___fldiv@b+3,0
  5813  0CF2  2CF4               	goto	u2941
  5814  0CF3  2CF5               	goto	u2940
  5815  0CF4                     u2941:
  5816  0CF4  2D14               	goto	l2357
  5817  0CF5                     u2940:
  5818  0CF5                     l2353:
  5819  0CF5  0836               	movf	___fldiv@b,w
  5820  0CF6  00BA               	movwf	??___fldiv
  5821  0CF7  0837               	movf	___fldiv@b+1,w
  5822  0CF8  00BB               	movwf	??___fldiv+1
  5823  0CF9  0838               	movf	___fldiv@b+2,w
  5824  0CFA  00BC               	movwf	??___fldiv+2
  5825  0CFB  0839               	movf	___fldiv@b+3,w
  5826  0CFC  00BD               	movwf	??___fldiv+3
  5827  0CFD  3001               	movlw	1
  5828  0CFE  00BE               	movwf	??___fldiv+4
  5829  0CFF                     u2955:
  5830  0CFF  0D3D               	rlf	??___fldiv+3,w
  5831  0D00  0CBD               	rrf	??___fldiv+3,f
  5832  0D01  0CBC               	rrf	??___fldiv+2,f
  5833  0D02  0CBB               	rrf	??___fldiv+1,f
  5834  0D03  0CBA               	rrf	??___fldiv,f
  5835  0D04                     u2950:
  5836  0D04  0BBE               	decfsz	??___fldiv+4,f
  5837  0D05  2CFF               	goto	u2955
  5838  0D06  083D               	movf	??___fldiv+3,w
  5839  0D07  00B9               	movwf	___fldiv@b+3
  5840  0D08  083C               	movf	??___fldiv+2,w
  5841  0D09  00B8               	movwf	___fldiv@b+2
  5842  0D0A  083B               	movf	??___fldiv+1,w
  5843  0D0B  00B7               	movwf	___fldiv@b+1
  5844  0D0C  083A               	movf	??___fldiv,w
  5845  0D0D  00B6               	movwf	___fldiv@b
  5846  0D0E                     l2355:
  5847  0D0E  3001               	movlw	1
  5848  0D0F  07C4               	addwf	___fldiv@new_exp,f
  5849  0D10  1803               	skipnc
  5850  0D11  0AC5               	incf	___fldiv@new_exp+1,f
  5851  0D12  3000               	movlw	0
  5852  0D13  07C5               	addwf	___fldiv@new_exp+1,f
  5853  0D14                     l2357:
  5854  0D14  0845               	movf	___fldiv@new_exp+1,w
  5855  0D15  3A80               	xorlw	128
  5856  0D16  00FF               	movwf	btemp+1
  5857  0D17  3080               	movlw	128
  5858  0D18  027F               	subwf	btemp+1,w
  5859  0D19  1D03               	skipz
  5860  0D1A  2D1D               	goto	u2965
  5861  0D1B  30FF               	movlw	255
  5862  0D1C  0244               	subwf	___fldiv@new_exp,w
  5863  0D1D                     u2965:
  5864  0D1D  1C03               	skipc
  5865  0D1E  2D20               	goto	u2961
  5866  0D1F  2D21               	goto	u2960
  5867  0D20                     u2961:
  5868  0D20  2D2F               	goto	l2361
  5869  0D21                     u2960:
  5870  0D21                     l2359:
  5871  0D21  30FF               	movlw	255
  5872  0D22  1283               	bcf	3,5	;RP0=0, select bank0
  5873  0D23  1303               	bcf	3,6	;RP1=0, select bank0
  5874  0D24  00C4               	movwf	___fldiv@new_exp
  5875  0D25  3000               	movlw	0
  5876  0D26  00C5               	movwf	___fldiv@new_exp+1
  5877  0D27  3000               	movlw	0
  5878  0D28  00B9               	movwf	___fldiv@b+3
  5879  0D29  3000               	movlw	0
  5880  0D2A  00B8               	movwf	___fldiv@b+2
  5881  0D2B  3000               	movlw	0
  5882  0D2C  00B7               	movwf	___fldiv@b+1
  5883  0D2D  3000               	movlw	0
  5884  0D2E  00B6               	movwf	___fldiv@b
  5885  0D2F                     l2361:
  5886  0D2F  1283               	bcf	3,5	;RP0=0, select bank0
  5887  0D30  1303               	bcf	3,6	;RP1=0, select bank0
  5888  0D31  0845               	movf	___fldiv@new_exp+1,w
  5889  0D32  3A80               	xorlw	128
  5890  0D33  00FF               	movwf	btemp+1
  5891  0D34  3080               	movlw	128
  5892  0D35  027F               	subwf	btemp+1,w
  5893  0D36  1D03               	skipz
  5894  0D37  2D3A               	goto	u2975
  5895  0D38  3001               	movlw	1
  5896  0D39  0244               	subwf	___fldiv@new_exp,w
  5897  0D3A                     u2975:
  5898  0D3A  1803               	skipnc
  5899  0D3B  2D3D               	goto	u2971
  5900  0D3C  2D3E               	goto	u2970
  5901  0D3D                     u2971:
  5902  0D3D  2D4B               	goto	l722
  5903  0D3E                     u2970:
  5904  0D3E                     l2363:
  5905  0D3E  1283               	bcf	3,5	;RP0=0, select bank0
  5906  0D3F  1303               	bcf	3,6	;RP1=0, select bank0
  5907  0D40  01C4               	clrf	___fldiv@new_exp
  5908  0D41  01C5               	clrf	___fldiv@new_exp+1
  5909  0D42                     l2365:
  5910  0D42  3000               	movlw	0
  5911  0D43  00B9               	movwf	___fldiv@b+3
  5912  0D44  3000               	movlw	0
  5913  0D45  00B8               	movwf	___fldiv@b+2
  5914  0D46  3000               	movlw	0
  5915  0D47  00B7               	movwf	___fldiv@b+1
  5916  0D48  3000               	movlw	0
  5917  0D49  00B6               	movwf	___fldiv@b
  5918  0D4A                     l2367:
  5919  0D4A  01C3               	clrf	___fldiv@sign
  5920  0D4B                     l722:
  5921  0D4B  1283               	bcf	3,5	;RP0=0, select bank0
  5922  0D4C  1303               	bcf	3,6	;RP1=0, select bank0
  5923  0D4D  0844               	movf	___fldiv@new_exp,w
  5924  0D4E  00BA               	movwf	??___fldiv
  5925  0D4F  083A               	movf	??___fldiv,w
  5926  0D50  00CA               	movwf	___fldiv@bexp
  5927  0D51                     l2369:
  5928  0D51  1C4A               	btfss	___fldiv@bexp,0
  5929  0D52  2D54               	goto	u2981
  5930  0D53  2D55               	goto	u2980
  5931  0D54                     u2981:
  5932  0D54  2D57               	goto	l2373
  5933  0D55                     u2980:
  5934  0D55                     l2371:
  5935  0D55  17B8               	bsf	___fldiv@b+2,7
  5936  0D56  2D5B               	goto	l724
  5937  0D57                     l2373:
  5938  0D57  307F               	movlw	127
  5939  0D58  00BA               	movwf	??___fldiv
  5940  0D59  083A               	movf	??___fldiv,w
  5941  0D5A  05B8               	andwf	___fldiv@b+2,f
  5942  0D5B                     l724:
  5943  0D5B  084A               	movf	___fldiv@bexp,w
  5944  0D5C  00BA               	movwf	??___fldiv
  5945  0D5D  1003               	clrc
  5946  0D5E  0C3A               	rrf	??___fldiv,w
  5947  0D5F  00BB               	movwf	??___fldiv+1
  5948  0D60  083B               	movf	??___fldiv+1,w
  5949  0D61  00B9               	movwf	___fldiv@b+3
  5950  0D62  0843               	movf	___fldiv@sign,w
  5951  0D63  00BA               	movwf	??___fldiv
  5952  0D64  083A               	movf	??___fldiv,w
  5953  0D65  04B9               	iorwf	___fldiv@b+3,f
  5954  0D66  2BFF               	goto	l2281
  5955  0D67                     l702:
  5956  0D67  0008               	return
  5957  0D68                     __end_of___fldiv:
  5958                           
  5959                           	psect	text11
  5960  08C7                     __ptext11:	
  5961 ;; *************** function ___awdiv *****************
  5962 ;; Defined at:
  5963 ;;		line 5 in file "C:\Program Files\Microchip\xc8\v2.31\pic\sources\c90\common\awdiv.c"
  5964 ;; Parameters:    Size  Location     Type
  5965 ;;  divisor         2    0[COMMON] int 
  5966 ;;  dividend        2    2[COMMON] int 
  5967 ;; Auto vars:     Size  Location     Type
  5968 ;;  quotient        2    7[COMMON] int 
  5969 ;;  sign            1    6[COMMON] unsigned char 
  5970 ;;  counter         1    5[COMMON] unsigned char 
  5971 ;; Return value:  Size  Location     Type
  5972 ;;                  2    0[COMMON] int 
  5973 ;; Registers used:
  5974 ;;		wreg, status,2, status,0
  5975 ;; Tracked objects:
  5976 ;;		On entry : 0/0
  5977 ;;		On exit  : 0/0
  5978 ;;		Unchanged: 0/0
  5979 ;; Data sizes:     COMMON   BANK0   BANK1   BANK3   BANK2
  5980 ;;      Params:         4       0       0       0       0
  5981 ;;      Locals:         4       0       0       0       0
  5982 ;;      Temps:          1       0       0       0       0
  5983 ;;      Totals:         9       0       0       0       0
  5984 ;;Total ram usage:        9 bytes
  5985 ;; Hardware stack levels used:    1
  5986 ;; This function calls:
  5987 ;;		Nothing
  5988 ;; This function is called by:
  5989 ;;		_convert
  5990 ;; This function uses a non-reentrant model
  5991 ;;
  5992                           
  5993                           
  5994                           ;psect for function ___awdiv
  5995  08C7                     ___awdiv:
  5996  08C7                     l2131:	
  5997                           ;incstack = 0
  5998                           ; Regs used in ___awdiv: [wreg+status,2+status,0]
  5999                           
  6000  08C7  01F6               	clrf	___awdiv@sign
  6001  08C8                     l2133:
  6002  08C8  1FF1               	btfss	___awdiv@divisor+1,7
  6003  08C9  28CB               	goto	u2431
  6004  08CA  28CC               	goto	u2430
  6005  08CB                     u2431:
  6006  08CB  28D3               	goto	l2139
  6007  08CC                     u2430:
  6008  08CC                     l2135:
  6009  08CC  09F0               	comf	___awdiv@divisor,f
  6010  08CD  09F1               	comf	___awdiv@divisor+1,f
  6011  08CE  0AF0               	incf	___awdiv@divisor,f
  6012  08CF  1903               	skipnz
  6013  08D0  0AF1               	incf	___awdiv@divisor+1,f
  6014  08D1                     l2137:
  6015  08D1  01F6               	clrf	___awdiv@sign
  6016  08D2  0AF6               	incf	___awdiv@sign,f
  6017  08D3                     l2139:
  6018  08D3  1FF3               	btfss	___awdiv@dividend+1,7
  6019  08D4  28D6               	goto	u2441
  6020  08D5  28D7               	goto	u2440
  6021  08D6                     u2441:
  6022  08D6  28E0               	goto	l2145
  6023  08D7                     u2440:
  6024  08D7                     l2141:
  6025  08D7  09F2               	comf	___awdiv@dividend,f
  6026  08D8  09F3               	comf	___awdiv@dividend+1,f
  6027  08D9  0AF2               	incf	___awdiv@dividend,f
  6028  08DA  1903               	skipnz
  6029  08DB  0AF3               	incf	___awdiv@dividend+1,f
  6030  08DC                     l2143:
  6031  08DC  3001               	movlw	1
  6032  08DD  00F4               	movwf	??___awdiv
  6033  08DE  0874               	movf	??___awdiv,w
  6034  08DF  06F6               	xorwf	___awdiv@sign,f
  6035  08E0                     l2145:
  6036  08E0  01F7               	clrf	___awdiv@quotient
  6037  08E1  01F8               	clrf	___awdiv@quotient+1
  6038  08E2                     l2147:
  6039  08E2  0870               	movf	___awdiv@divisor,w
  6040  08E3  0471               	iorwf	___awdiv@divisor+1,w
  6041  08E4  1903               	btfsc	3,2
  6042  08E5  28E7               	goto	u2451
  6043  08E6  28E8               	goto	u2450
  6044  08E7                     u2451:
  6045  08E7  291F               	goto	l2167
  6046  08E8                     u2450:
  6047  08E8                     l2149:
  6048  08E8  01F5               	clrf	___awdiv@counter
  6049  08E9  0AF5               	incf	___awdiv@counter,f
  6050  08EA  28F6               	goto	l2155
  6051  08EB                     l2151:
  6052  08EB  3001               	movlw	1
  6053  08EC                     u2465:
  6054  08EC  1003               	clrc
  6055  08ED  0DF0               	rlf	___awdiv@divisor,f
  6056  08EE  0DF1               	rlf	___awdiv@divisor+1,f
  6057  08EF  3EFF               	addlw	-1
  6058  08F0  1D03               	skipz
  6059  08F1  28EC               	goto	u2465
  6060  08F2                     l2153:
  6061  08F2  3001               	movlw	1
  6062  08F3  00F4               	movwf	??___awdiv
  6063  08F4  0874               	movf	??___awdiv,w
  6064  08F5  07F5               	addwf	___awdiv@counter,f
  6065  08F6                     l2155:
  6066  08F6  1FF1               	btfss	___awdiv@divisor+1,7
  6067  08F7  28F9               	goto	u2471
  6068  08F8  28FA               	goto	u2470
  6069  08F9                     u2471:
  6070  08F9  28EB               	goto	l2151
  6071  08FA                     u2470:
  6072  08FA                     l2157:
  6073  08FA  3001               	movlw	1
  6074  08FB                     u2485:
  6075  08FB  1003               	clrc
  6076  08FC  0DF7               	rlf	___awdiv@quotient,f
  6077  08FD  0DF8               	rlf	___awdiv@quotient+1,f
  6078  08FE  3EFF               	addlw	-1
  6079  08FF  1D03               	skipz
  6080  0900  28FB               	goto	u2485
  6081  0901  0871               	movf	___awdiv@divisor+1,w
  6082  0902  0273               	subwf	___awdiv@dividend+1,w
  6083  0903  1D03               	skipz
  6084  0904  2907               	goto	u2495
  6085  0905  0870               	movf	___awdiv@divisor,w
  6086  0906  0272               	subwf	___awdiv@dividend,w
  6087  0907                     u2495:
  6088  0907  1C03               	skipc
  6089  0908  290A               	goto	u2491
  6090  0909  290B               	goto	u2490
  6091  090A                     u2491:
  6092  090A  2912               	goto	l2163
  6093  090B                     u2490:
  6094  090B                     l2159:
  6095  090B  0870               	movf	___awdiv@divisor,w
  6096  090C  02F2               	subwf	___awdiv@dividend,f
  6097  090D  0871               	movf	___awdiv@divisor+1,w
  6098  090E  1C03               	skipc
  6099  090F  03F3               	decf	___awdiv@dividend+1,f
  6100  0910  02F3               	subwf	___awdiv@dividend+1,f
  6101  0911                     l2161:
  6102  0911  1477               	bsf	___awdiv@quotient,0
  6103  0912                     l2163:
  6104  0912  3001               	movlw	1
  6105  0913                     u2505:
  6106  0913  1003               	clrc
  6107  0914  0CF1               	rrf	___awdiv@divisor+1,f
  6108  0915  0CF0               	rrf	___awdiv@divisor,f
  6109  0916  3EFF               	addlw	-1
  6110  0917  1D03               	skipz
  6111  0918  2913               	goto	u2505
  6112  0919                     l2165:
  6113  0919  3001               	movlw	1
  6114  091A  02F5               	subwf	___awdiv@counter,f
  6115  091B  1D03               	btfss	3,2
  6116  091C  291E               	goto	u2511
  6117  091D  291F               	goto	u2510
  6118  091E                     u2511:
  6119  091E  28FA               	goto	l2157
  6120  091F                     u2510:
  6121  091F                     l2167:
  6122  091F  0876               	movf	___awdiv@sign,w
  6123  0920  1903               	btfsc	3,2
  6124  0921  2923               	goto	u2521
  6125  0922  2924               	goto	u2520
  6126  0923                     u2521:
  6127  0923  2929               	goto	l2171
  6128  0924                     u2520:
  6129  0924                     l2169:
  6130  0924  09F7               	comf	___awdiv@quotient,f
  6131  0925  09F8               	comf	___awdiv@quotient+1,f
  6132  0926  0AF7               	incf	___awdiv@quotient,f
  6133  0927  1903               	skipnz
  6134  0928  0AF8               	incf	___awdiv@quotient+1,f
  6135  0929                     l2171:
  6136  0929  0878               	movf	___awdiv@quotient+1,w
  6137  092A  00F1               	movwf	?___awdiv+1
  6138  092B  0877               	movf	___awdiv@quotient,w
  6139  092C  00F0               	movwf	?___awdiv
  6140  092D                     l504:
  6141  092D  0008               	return
  6142  092E                     __end_of___awdiv:
  6143                           
  6144                           	psect	text12
  6145  1746                     __ptext12:	
  6146 ;; *************** function _config *****************
  6147 ;; Defined at:
  6148 ;;		line 104 in file "Slave_DHT11.c"
  6149 ;; Parameters:    Size  Location     Type
  6150 ;;		None
  6151 ;; Auto vars:     Size  Location     Type
  6152 ;;		None
  6153 ;; Return value:  Size  Location     Type
  6154 ;;                  1    wreg      void 
  6155 ;; Registers used:
  6156 ;;		wreg, status,2, status,0
  6157 ;; Tracked objects:
  6158 ;;		On entry : 0/0
  6159 ;;		On exit  : 0/0
  6160 ;;		Unchanged: 0/0
  6161 ;; Data sizes:     COMMON   BANK0   BANK1   BANK3   BANK2
  6162 ;;      Params:         0       0       0       0       0
  6163 ;;      Locals:         0       0       0       0       0
  6164 ;;      Temps:          0       0       0       0       0
  6165 ;;      Totals:         0       0       0       0       0
  6166 ;;Total ram usage:        0 bytes
  6167 ;; Hardware stack levels used:    1
  6168 ;; This function calls:
  6169 ;;		Nothing
  6170 ;; This function is called by:
  6171 ;;		_main
  6172 ;; This function uses a non-reentrant model
  6173 ;;
  6174                           
  6175                           
  6176                           ;psect for function _config
  6177  1746                     _config:
  6178  1746                     l2619:	
  6179                           ;incstack = 0
  6180                           ; Regs used in _config: [wreg+status,2+status,0]
  6181                           
  6182                           
  6183                           ;Slave_DHT11.c: 105:     ANSEL = 0X00;
  6184  1746  1683               	bsf	3,5	;RP0=1, select bank3
  6185  1747  1703               	bsf	3,6	;RP1=1, select bank3
  6186  1748  0188               	clrf	8	;volatile
  6187                           
  6188                           ;Slave_DHT11.c: 106:     ANSELH = 0X00;
  6189  1749  0189               	clrf	9	;volatile
  6190                           
  6191                           ;Slave_DHT11.c: 107:     TRISA = 0X00;
  6192  174A  1683               	bsf	3,5	;RP0=1, select bank1
  6193  174B  1303               	bcf	3,6	;RP1=0, select bank1
  6194  174C  0185               	clrf	5	;volatile
  6195                           
  6196                           ;Slave_DHT11.c: 108:     TRISB = 0X00;
  6197  174D  0186               	clrf	6	;volatile
  6198                           
  6199                           ;Slave_DHT11.c: 109:     TRISD = 0X00;
  6200  174E  0188               	clrf	8	;volatile
  6201                           
  6202                           ;Slave_DHT11.c: 110:     TRISE = 0x00;
  6203  174F  0189               	clrf	9	;volatile
  6204                           
  6205                           ;Slave_DHT11.c: 111:     PORTA = 0X00;
  6206  1750  1283               	bcf	3,5	;RP0=0, select bank0
  6207  1751  1303               	bcf	3,6	;RP1=0, select bank0
  6208  1752  0185               	clrf	5	;volatile
  6209                           
  6210                           ;Slave_DHT11.c: 112:     PORTB = 0X00;
  6211  1753  0186               	clrf	6	;volatile
  6212                           
  6213                           ;Slave_DHT11.c: 113:     PORTD = 0X00;
  6214  1754  0188               	clrf	8	;volatile
  6215                           
  6216                           ;Slave_DHT11.c: 114:     PORTE = 0x00;
  6217  1755  0189               	clrf	9	;volatile
  6218  1756                     l2621:
  6219                           
  6220                           ;Slave_DHT11.c: 118:     OSCCONbits.IRCF = 0b111;
  6221  1756  3070               	movlw	112
  6222  1757  1683               	bsf	3,5	;RP0=1, select bank1
  6223  1758  1303               	bcf	3,6	;RP1=0, select bank1
  6224  1759  048F               	iorwf	15,f	;volatile
  6225  175A                     l2623:
  6226                           
  6227                           ;Slave_DHT11.c: 119:     OSCCONbits.SCS = 0b1;
  6228  175A  140F               	bsf	15,0	;volatile
  6229  175B                     l2625:
  6230                           
  6231                           ;Slave_DHT11.c: 122:     T1CON = 0X10;
  6232  175B  3010               	movlw	16
  6233  175C  1283               	bcf	3,5	;RP0=0, select bank0
  6234  175D  1303               	bcf	3,6	;RP1=0, select bank0
  6235  175E  0090               	movwf	16	;volatile
  6236  175F                     l2627:
  6237                           
  6238                           ;Slave_DHT11.c: 123:     TMR1H = 0;
  6239  175F  018F               	clrf	15	;volatile
  6240  1760                     l2629:
  6241                           
  6242                           ;Slave_DHT11.c: 124:     TMR1L = 0;
  6243  1760  018E               	clrf	14	;volatile
  6244  1761                     l128:
  6245  1761  0008               	return
  6246  1762                     __end_of_config:
  6247                           
  6248                           	psect	text13
  6249  0840                     __ptext13:	
  6250 ;; *************** function _Lcd_Write_String *****************
  6251 ;; Defined at:
  6252 ;;		line 63 in file "LCD.c"
  6253 ;; Parameters:    Size  Location     Type
  6254 ;;  a               2    3[COMMON] PTR unsigned char 
  6255 ;;		 -> STR_3(15), STR_2(6), STR_1(5), temperatura(10), 
  6256 ;;		 -> humedad(10), 
  6257 ;; Auto vars:     Size  Location     Type
  6258 ;;  i               2    8[COMMON] int 
  6259 ;; Return value:  Size  Location     Type
  6260 ;;                  1    wreg      void 
  6261 ;; Registers used:
  6262 ;;		wreg, fsr0l, fsr0h, status,2, status,0, btemp+1, pclath, cstack
  6263 ;; Tracked objects:
  6264 ;;		On entry : 0/0
  6265 ;;		On exit  : 0/0
  6266 ;;		Unchanged: 0/0
  6267 ;; Data sizes:     COMMON   BANK0   BANK1   BANK3   BANK2
  6268 ;;      Params:         2       0       0       0       0
  6269 ;;      Locals:         2       0       0       0       0
  6270 ;;      Temps:          3       0       0       0       0
  6271 ;;      Totals:         7       0       0       0       0
  6272 ;;Total ram usage:        7 bytes
  6273 ;; Hardware stack levels used:    1
  6274 ;; Hardware stack levels required when called:    2
  6275 ;; This function calls:
  6276 ;;		_Lcd_Write_Char
  6277 ;; This function is called by:
  6278 ;;		_main
  6279 ;; This function uses a non-reentrant model
  6280 ;;
  6281                           
  6282                           
  6283                           ;psect for function _Lcd_Write_String
  6284  0840                     _Lcd_Write_String:
  6285  0840                     l2757:	
  6286                           ;incstack = 0
  6287                           ; Regs used in _Lcd_Write_String: [wreg-fsr0h+status,2+status,0+btemp+1+pclath+cstack]
  6288                           
  6289                           
  6290                           ;LCD.c: 64:     int i;;LCD.c: 65:     for (i = 0; a[i] != '\0'; i++)
  6291  0840  01F8               	clrf	Lcd_Write_String@i
  6292  0841  01F9               	clrf	Lcd_Write_String@i+1
  6293  0842  2865               	goto	l2763
  6294  0843                     l2759:
  6295                           
  6296                           ;LCD.c: 66:         Lcd_Write_Char(a[i]);
  6297  0843  0878               	movf	Lcd_Write_String@i,w
  6298  0844  0773               	addwf	Lcd_Write_String@a,w
  6299  0845  00F6               	movwf	??_Lcd_Write_String+1
  6300  0846  0874               	movf	Lcd_Write_String@a+1,w
  6301  0847  00F5               	movwf	??_Lcd_Write_String
  6302  0848  1803               	skipnc
  6303  0849  0AF5               	incf	??_Lcd_Write_String,f
  6304  084A  1FF8               	btfss	Lcd_Write_String@i,7
  6305  084B  284D               	goto	u3720
  6306  084C  03F5               	decf	??_Lcd_Write_String,f
  6307  084D                     u3720:
  6308  084D  0875               	movf	??_Lcd_Write_String,w
  6309  084E  00F7               	movwf	??_Lcd_Write_String+2
  6310  084F  0877               	movf	??_Lcd_Write_String+2,w
  6311  0850  1283               	bcf	3,5	;RP0=0, select bank0
  6312  0851  1303               	bcf	3,6	;RP1=0, select bank0
  6313  0852  00FF               	movwf	btemp+1
  6314  0853  0876               	movf	??_Lcd_Write_String+1,w
  6315  0854  0084               	movwf	4
  6316  0855  160A  118A  2000  120A  158A  	fcall	stringtab
  6317  085A  160A  118A  26FB  120A  158A  	fcall	_Lcd_Write_Char
  6318  085F                     l2761:
  6319  085F  3001               	movlw	1
  6320  0860  07F8               	addwf	Lcd_Write_String@i,f
  6321  0861  1803               	skipnc
  6322  0862  0AF9               	incf	Lcd_Write_String@i+1,f
  6323  0863  3000               	movlw	0
  6324  0864  07F9               	addwf	Lcd_Write_String@i+1,f
  6325  0865                     l2763:
  6326  0865  0878               	movf	Lcd_Write_String@i,w
  6327  0866  0773               	addwf	Lcd_Write_String@a,w
  6328  0867  00F6               	movwf	??_Lcd_Write_String+1
  6329  0868  0874               	movf	Lcd_Write_String@a+1,w
  6330  0869  00F5               	movwf	??_Lcd_Write_String
  6331  086A  1803               	skipnc
  6332  086B  0AF5               	incf	??_Lcd_Write_String,f
  6333  086C  1FF8               	btfss	Lcd_Write_String@i,7
  6334  086D  286F               	goto	u3730
  6335  086E  03F5               	decf	??_Lcd_Write_String,f
  6336  086F                     u3730:
  6337  086F  0875               	movf	??_Lcd_Write_String,w
  6338  0870  00F7               	movwf	??_Lcd_Write_String+2
  6339  0871  0877               	movf	??_Lcd_Write_String+2,w
  6340  0872  1283               	bcf	3,5	;RP0=0, select bank0
  6341  0873  1303               	bcf	3,6	;RP1=0, select bank0
  6342  0874  00FF               	movwf	btemp+1
  6343  0875  0876               	movf	??_Lcd_Write_String+1,w
  6344  0876  0084               	movwf	4
  6345  0877  160A  118A  2000  120A  158A  	fcall	stringtab
  6346  087C  3A00               	xorlw	0
  6347  087D  1D03               	skipz
  6348  087E  2880               	goto	u3741
  6349  087F  2881               	goto	u3740
  6350  0880                     u3741:
  6351  0880  2843               	goto	l2759
  6352  0881                     u3740:
  6353  0881                     l161:
  6354  0881  0008               	return
  6355  0882                     __end_of_Lcd_Write_String:
  6356                           
  6357                           	psect	text14
  6358  16FB                     __ptext14:	
  6359 ;; *************** function _Lcd_Write_Char *****************
  6360 ;; Defined at:
  6361 ;;		line 55 in file "LCD.c"
  6362 ;; Parameters:    Size  Location     Type
  6363 ;;  a               1    wreg     unsigned char 
  6364 ;; Auto vars:     Size  Location     Type
  6365 ;;  a               1    2[COMMON] unsigned char 
  6366 ;; Return value:  Size  Location     Type
  6367 ;;                  1    wreg      void 
  6368 ;; Registers used:
  6369 ;;		wreg, status,2, status,0, pclath, cstack
  6370 ;; Tracked objects:
  6371 ;;		On entry : 0/0
  6372 ;;		On exit  : 0/0
  6373 ;;		Unchanged: 0/0
  6374 ;; Data sizes:     COMMON   BANK0   BANK1   BANK3   BANK2
  6375 ;;      Params:         0       0       0       0       0
  6376 ;;      Locals:         1       0       0       0       0
  6377 ;;      Temps:          1       0       0       0       0
  6378 ;;      Totals:         2       0       0       0       0
  6379 ;;Total ram usage:        2 bytes
  6380 ;; Hardware stack levels used:    1
  6381 ;; Hardware stack levels required when called:    1
  6382 ;; This function calls:
  6383 ;;		_Lcd_Port
  6384 ;; This function is called by:
  6385 ;;		_Lcd_Write_String
  6386 ;; This function uses a non-reentrant model
  6387 ;;
  6388                           
  6389                           
  6390                           ;psect for function _Lcd_Write_Char
  6391  16FB                     _Lcd_Write_Char:
  6392                           
  6393                           ;incstack = 0
  6394                           ; Regs used in _Lcd_Write_Char: [wreg+status,2+status,0+pclath+cstack]
  6395                           ;Lcd_Write_Char@a stored from wreg
  6396  16FB  00F2               	movwf	Lcd_Write_Char@a
  6397  16FC                     l2107:
  6398                           
  6399                           ;LCD.c: 56:     PORTEbits.RE0 = 1;
  6400  16FC  1283               	bcf	3,5	;RP0=0, select bank0
  6401  16FD  1303               	bcf	3,6	;RP1=0, select bank0
  6402  16FE  1409               	bsf	9,0	;volatile
  6403  16FF                     l2109:
  6404                           
  6405                           ;LCD.c: 57:     Lcd_Port(a);
  6406  16FF  0872               	movf	Lcd_Write_Char@a,w
  6407  1700  160A  118A  26E8  160A  118A  	fcall	_Lcd_Port
  6408  1705                     l2111:
  6409                           
  6410                           ;LCD.c: 58:     PORTEbits.RE2 = 1;
  6411  1705  1283               	bcf	3,5	;RP0=0, select bank0
  6412  1706  1303               	bcf	3,6	;RP1=0, select bank0
  6413  1707  1509               	bsf	9,2	;volatile
  6414  1708                     l2113:
  6415                           
  6416                           ;LCD.c: 59:     _delay((unsigned long)((10)*(8000000/4000000.0)));
  6417  1708  3006               	movlw	6
  6418  1709  00F1               	movwf	??_Lcd_Write_Char
  6419  170A                     u3787:
  6420  170A  0BF1               	decfsz	??_Lcd_Write_Char,f
  6421  170B  2F0A               	goto	u3787
  6422  170C  0000               	nop
  6423  170D                     l2115:
  6424                           
  6425                           ;LCD.c: 60:     PORTEbits.RE2 = 0;
  6426  170D  1283               	bcf	3,5	;RP0=0, select bank0
  6427  170E  1303               	bcf	3,6	;RP1=0, select bank0
  6428  170F  1109               	bcf	9,2	;volatile
  6429  1710                     l155:
  6430  1710  0008               	return
  6431  1711                     __end_of_Lcd_Write_Char:
  6432                           
  6433                           	psect	text15
  6434  1762                     __ptext15:	
  6435 ;; *************** function _Lcd_Set_Cursor *****************
  6436 ;; Defined at:
  6437 ;;		line 30 in file "LCD.c"
  6438 ;; Parameters:    Size  Location     Type
  6439 ;;  a               1    wreg     unsigned char 
  6440 ;;  b               1    4[COMMON] unsigned char 
  6441 ;; Auto vars:     Size  Location     Type
  6442 ;;  a               1    6[COMMON] unsigned char 
  6443 ;;  temp            1    7[COMMON] unsigned char 
  6444 ;; Return value:  Size  Location     Type
  6445 ;;                  1    wreg      void 
  6446 ;; Registers used:
  6447 ;;		wreg, status,2, status,0, pclath, cstack
  6448 ;; Tracked objects:
  6449 ;;		On entry : 0/0
  6450 ;;		On exit  : 0/0
  6451 ;;		Unchanged: 0/0
  6452 ;; Data sizes:     COMMON   BANK0   BANK1   BANK3   BANK2
  6453 ;;      Params:         1       0       0       0       0
  6454 ;;      Locals:         2       0       0       0       0
  6455 ;;      Temps:          1       0       0       0       0
  6456 ;;      Totals:         4       0       0       0       0
  6457 ;;Total ram usage:        4 bytes
  6458 ;; Hardware stack levels used:    1
  6459 ;; Hardware stack levels required when called:    2
  6460 ;; This function calls:
  6461 ;;		_Lcd_Cmd
  6462 ;; This function is called by:
  6463 ;;		_main
  6464 ;; This function uses a non-reentrant model
  6465 ;;
  6466                           
  6467                           
  6468                           ;psect for function _Lcd_Set_Cursor
  6469  1762                     _Lcd_Set_Cursor:
  6470                           
  6471                           ;incstack = 0
  6472                           ; Regs used in _Lcd_Set_Cursor: [wreg+status,2+status,0+pclath+cstack]
  6473                           ;Lcd_Set_Cursor@a stored from wreg
  6474  1762  00F6               	movwf	Lcd_Set_Cursor@a
  6475  1763                     l2745:
  6476                           
  6477                           ;LCD.c: 31:     char temp;;LCD.c: 32:     if (a == 1) {
  6478  1763  0376               	decf	Lcd_Set_Cursor@a,w
  6479  1764  1D03               	btfss	3,2
  6480  1765  2F67               	goto	u3701
  6481  1766  2F68               	goto	u3700
  6482  1767                     u3701:
  6483  1767  2F74               	goto	l2751
  6484  1768                     u3700:
  6485  1768                     l2747:
  6486                           
  6487                           ;LCD.c: 33:         temp = 0x80 + b - 1;
  6488  1768  0874               	movf	Lcd_Set_Cursor@b,w
  6489  1769  3E7F               	addlw	127
  6490  176A  00F5               	movwf	??_Lcd_Set_Cursor
  6491  176B  0875               	movf	??_Lcd_Set_Cursor,w
  6492  176C  00F7               	movwf	Lcd_Set_Cursor@temp
  6493  176D                     l2749:
  6494                           
  6495                           ;LCD.c: 34:         Lcd_Cmd(temp);
  6496  176D  0877               	movf	Lcd_Set_Cursor@temp,w
  6497  176E  160A  118A  2711  160A  118A  	fcall	_Lcd_Cmd
  6498                           
  6499                           ;LCD.c: 35:     } else if (a == 2) {
  6500  1773  2F85               	goto	l149
  6501  1774                     l2751:
  6502  1774  3002               	movlw	2
  6503  1775  0676               	xorwf	Lcd_Set_Cursor@a,w
  6504  1776  1D03               	btfss	3,2
  6505  1777  2F79               	goto	u3711
  6506  1778  2F7A               	goto	u3710
  6507  1779                     u3711:
  6508  1779  2F85               	goto	l149
  6509  177A                     u3710:
  6510  177A                     l2753:
  6511                           
  6512                           ;LCD.c: 36:         temp = 0xC0 + b - 1;
  6513  177A  0874               	movf	Lcd_Set_Cursor@b,w
  6514  177B  3EBF               	addlw	191
  6515  177C  00F5               	movwf	??_Lcd_Set_Cursor
  6516  177D  0875               	movf	??_Lcd_Set_Cursor,w
  6517  177E  00F7               	movwf	Lcd_Set_Cursor@temp
  6518  177F                     l2755:
  6519                           
  6520                           ;LCD.c: 37:         Lcd_Cmd(temp);
  6521  177F  0877               	movf	Lcd_Set_Cursor@temp,w
  6522  1780  160A  118A  2711  160A  118A  	fcall	_Lcd_Cmd
  6523  1785                     l149:
  6524  1785  0008               	return
  6525  1786                     __end_of_Lcd_Set_Cursor:
  6526                           
  6527                           	psect	text16
  6528  0882                     __ptext16:	
  6529 ;; *************** function _Lcd_Init *****************
  6530 ;; Defined at:
  6531 ;;		line 41 in file "LCD.c"
  6532 ;; Parameters:    Size  Location     Type
  6533 ;;		None
  6534 ;; Auto vars:     Size  Location     Type
  6535 ;;		None
  6536 ;; Return value:  Size  Location     Type
  6537 ;;                  1    wreg      void 
  6538 ;; Registers used:
  6539 ;;		wreg, status,2, status,0, pclath, cstack
  6540 ;; Tracked objects:
  6541 ;;		On entry : 0/0
  6542 ;;		On exit  : 0/0
  6543 ;;		Unchanged: 0/0
  6544 ;; Data sizes:     COMMON   BANK0   BANK1   BANK3   BANK2
  6545 ;;      Params:         0       0       0       0       0
  6546 ;;      Locals:         0       0       0       0       0
  6547 ;;      Temps:          2       0       0       0       0
  6548 ;;      Totals:         2       0       0       0       0
  6549 ;;Total ram usage:        2 bytes
  6550 ;; Hardware stack levels used:    1
  6551 ;; Hardware stack levels required when called:    2
  6552 ;; This function calls:
  6553 ;;		_Lcd_Cmd
  6554 ;;		_Lcd_Port
  6555 ;; This function is called by:
  6556 ;;		_main
  6557 ;; This function uses a non-reentrant model
  6558 ;;
  6559                           
  6560                           
  6561                           ;psect for function _Lcd_Init
  6562  0882                     _Lcd_Init:
  6563  0882                     l2631:	
  6564                           ;incstack = 0
  6565                           ; Regs used in _Lcd_Init: [wreg+status,2+status,0+pclath+cstack]
  6566                           
  6567                           
  6568                           ;LCD.c: 42:     Lcd_Port(0x00);
  6569  0882  3000               	movlw	0
  6570  0883  160A  118A  26E8  120A  158A  	fcall	_Lcd_Port
  6571  0888                     l2633:
  6572                           
  6573                           ;LCD.c: 43:     _delay((unsigned long)((20)*(8000000/4000.0)));
  6574  0888  3034               	movlw	52
  6575  0889  00F5               	movwf	??_Lcd_Init+1
  6576  088A  30F1               	movlw	241
  6577  088B  00F4               	movwf	??_Lcd_Init
  6578  088C                     u3797:
  6579  088C  0BF4               	decfsz	??_Lcd_Init,f
  6580  088D  288C               	goto	u3797
  6581  088E  0BF5               	decfsz	??_Lcd_Init+1,f
  6582  088F  288C               	goto	u3797
  6583  0890  2891               	nop2
  6584  0891                     l2635:
  6585                           
  6586                           ;LCD.c: 44:     Lcd_Cmd(0x30);
  6587  0891  3030               	movlw	48
  6588  0892  160A  118A  2711  120A  158A  	fcall	_Lcd_Cmd
  6589                           
  6590                           ;LCD.c: 45:     _delay((unsigned long)((5)*(8000000/4000.0)));
  6591  0897  300D               	movlw	13
  6592  0898  00F5               	movwf	??_Lcd_Init+1
  6593  0899  30FB               	movlw	251
  6594  089A  00F4               	movwf	??_Lcd_Init
  6595  089B                     u3807:
  6596  089B  0BF4               	decfsz	??_Lcd_Init,f
  6597  089C  289B               	goto	u3807
  6598  089D  0BF5               	decfsz	??_Lcd_Init+1,f
  6599  089E  289B               	goto	u3807
  6600  089F  28A0               	nop2
  6601  08A0                     l2637:
  6602                           
  6603                           ;LCD.c: 46:     Lcd_Cmd(0x30);
  6604  08A0  3030               	movlw	48
  6605  08A1  160A  118A  2711  120A  158A  	fcall	_Lcd_Cmd
  6606  08A6                     l2639:
  6607                           
  6608                           ;LCD.c: 47:     _delay((unsigned long)((11)*(8000000/4000.0)));
  6609  08A6  301D               	movlw	29
  6610  08A7  00F5               	movwf	??_Lcd_Init+1
  6611  08A8  3091               	movlw	145
  6612  08A9  00F4               	movwf	??_Lcd_Init
  6613  08AA                     u3817:
  6614  08AA  0BF4               	decfsz	??_Lcd_Init,f
  6615  08AB  28AA               	goto	u3817
  6616  08AC  0BF5               	decfsz	??_Lcd_Init+1,f
  6617  08AD  28AA               	goto	u3817
  6618                           
  6619                           ;LCD.c: 48:     Lcd_Cmd(0x30);
  6620  08AE  3030               	movlw	48
  6621  08AF  160A  118A  2711  120A  158A  	fcall	_Lcd_Cmd
  6622                           
  6623                           ;LCD.c: 50:     Lcd_Cmd(0x38);
  6624  08B4  3038               	movlw	56
  6625  08B5  160A  118A  2711  120A  158A  	fcall	_Lcd_Cmd
  6626                           
  6627                           ;LCD.c: 51:     Lcd_Cmd(0x0C);
  6628  08BA  300C               	movlw	12
  6629  08BB  160A  118A  2711  120A  158A  	fcall	_Lcd_Cmd
  6630                           
  6631                           ;LCD.c: 52:     Lcd_Cmd(0x06);
  6632  08C0  3006               	movlw	6
  6633  08C1  160A  118A  2711  120A  158A  	fcall	_Lcd_Cmd
  6634  08C6                     l152:
  6635  08C6  0008               	return
  6636  08C7                     __end_of_Lcd_Init:
  6637                           
  6638                           	psect	text17
  6639  16EE                     __ptext17:	
  6640 ;; *************** function _Lcd_Clear *****************
  6641 ;; Defined at:
  6642 ;;		line 25 in file "LCD.c"
  6643 ;; Parameters:    Size  Location     Type
  6644 ;;		None
  6645 ;; Auto vars:     Size  Location     Type
  6646 ;;		None
  6647 ;; Return value:  Size  Location     Type
  6648 ;;                  1    wreg      void 
  6649 ;; Registers used:
  6650 ;;		wreg, status,2, status,0, pclath, cstack
  6651 ;; Tracked objects:
  6652 ;;		On entry : 0/0
  6653 ;;		On exit  : 0/0
  6654 ;;		Unchanged: 0/0
  6655 ;; Data sizes:     COMMON   BANK0   BANK1   BANK3   BANK2
  6656 ;;      Params:         0       0       0       0       0
  6657 ;;      Locals:         0       0       0       0       0
  6658 ;;      Temps:          0       0       0       0       0
  6659 ;;      Totals:         0       0       0       0       0
  6660 ;;Total ram usage:        0 bytes
  6661 ;; Hardware stack levels used:    1
  6662 ;; Hardware stack levels required when called:    2
  6663 ;; This function calls:
  6664 ;;		_Lcd_Cmd
  6665 ;; This function is called by:
  6666 ;;		_main
  6667 ;; This function uses a non-reentrant model
  6668 ;;
  6669                           
  6670                           
  6671                           ;psect for function _Lcd_Clear
  6672  16EE                     _Lcd_Clear:
  6673  16EE                     l2641:	
  6674                           ;incstack = 0
  6675                           ; Regs used in _Lcd_Clear: [wreg+status,2+status,0+pclath+cstack]
  6676                           
  6677                           
  6678                           ;LCD.c: 26:     Lcd_Cmd(0);
  6679  16EE  3000               	movlw	0
  6680  16EF  160A  118A  2711  160A  118A  	fcall	_Lcd_Cmd
  6681                           
  6682                           ;LCD.c: 27:     Lcd_Cmd(1);
  6683  16F4  3001               	movlw	1
  6684  16F5  160A  118A  2711  160A  118A  	fcall	_Lcd_Cmd
  6685  16FA                     l143:
  6686  16FA  0008               	return
  6687  16FB                     __end_of_Lcd_Clear:
  6688                           
  6689                           	psect	text18
  6690  1711                     __ptext18:	
  6691 ;; *************** function _Lcd_Cmd *****************
  6692 ;; Defined at:
  6693 ;;		line 17 in file "LCD.c"
  6694 ;; Parameters:    Size  Location     Type
  6695 ;;  a               1    wreg     unsigned char 
  6696 ;; Auto vars:     Size  Location     Type
  6697 ;;  a               1    3[COMMON] unsigned char 
  6698 ;; Return value:  Size  Location     Type
  6699 ;;                  1    wreg      void 
  6700 ;; Registers used:
  6701 ;;		wreg, status,2, status,0, pclath, cstack
  6702 ;; Tracked objects:
  6703 ;;		On entry : 0/0
  6704 ;;		On exit  : 0/0
  6705 ;;		Unchanged: 0/0
  6706 ;; Data sizes:     COMMON   BANK0   BANK1   BANK3   BANK2
  6707 ;;      Params:         0       0       0       0       0
  6708 ;;      Locals:         1       0       0       0       0
  6709 ;;      Temps:          2       0       0       0       0
  6710 ;;      Totals:         3       0       0       0       0
  6711 ;;Total ram usage:        3 bytes
  6712 ;; Hardware stack levels used:    1
  6713 ;; Hardware stack levels required when called:    1
  6714 ;; This function calls:
  6715 ;;		_Lcd_Port
  6716 ;; This function is called by:
  6717 ;;		_Lcd_Clear
  6718 ;;		_Lcd_Set_Cursor
  6719 ;;		_Lcd_Init
  6720 ;;		_Lcd_Shift_Right
  6721 ;;		_Lcd_Shift_Left
  6722 ;; This function uses a non-reentrant model
  6723 ;;
  6724                           
  6725                           
  6726                           ;psect for function _Lcd_Cmd
  6727  1711                     _Lcd_Cmd:
  6728                           
  6729                           ;incstack = 0
  6730                           ; Regs used in _Lcd_Cmd: [wreg+status,2+status,0+pclath+cstack]
  6731                           ;Lcd_Cmd@a stored from wreg
  6732  1711  00F3               	movwf	Lcd_Cmd@a
  6733  1712                     l2097:
  6734                           
  6735                           ;LCD.c: 18:     PORTEbits.RE0 = 0;
  6736  1712  1283               	bcf	3,5	;RP0=0, select bank0
  6737  1713  1303               	bcf	3,6	;RP1=0, select bank0
  6738  1714  1009               	bcf	9,0	;volatile
  6739  1715                     l2099:
  6740                           
  6741                           ;LCD.c: 19:     Lcd_Port(a);
  6742  1715  0873               	movf	Lcd_Cmd@a,w
  6743  1716  160A  118A  26E8  160A  118A  	fcall	_Lcd_Port
  6744  171B                     l2101:
  6745                           
  6746                           ;LCD.c: 20:     PORTEbits.RE2 = 1;
  6747  171B  1283               	bcf	3,5	;RP0=0, select bank0
  6748  171C  1303               	bcf	3,6	;RP1=0, select bank0
  6749  171D  1509               	bsf	9,2	;volatile
  6750  171E                     l2103:
  6751                           
  6752                           ;LCD.c: 21:     _delay((unsigned long)((4)*(8000000/4000.0)));
  6753  171E  300B               	movlw	11
  6754  171F  00F2               	movwf	??_Lcd_Cmd+1
  6755  1720  3062               	movlw	98
  6756  1721  00F1               	movwf	??_Lcd_Cmd
  6757  1722                     u3827:
  6758  1722  0BF1               	decfsz	??_Lcd_Cmd,f
  6759  1723  2F22               	goto	u3827
  6760  1724  0BF2               	decfsz	??_Lcd_Cmd+1,f
  6761  1725  2F22               	goto	u3827
  6762  1726  0000               	nop
  6763  1727                     l2105:
  6764                           
  6765                           ;LCD.c: 22:     PORTEbits.RE2 = 0;
  6766  1727  1283               	bcf	3,5	;RP0=0, select bank0
  6767  1728  1303               	bcf	3,6	;RP1=0, select bank0
  6768  1729  1109               	bcf	9,2	;volatile
  6769  172A                     l140:
  6770  172A  0008               	return
  6771  172B                     __end_of_Lcd_Cmd:
  6772                           
  6773                           	psect	text19
  6774  16E8                     __ptext19:	
  6775 ;; *************** function _Lcd_Port *****************
  6776 ;; Defined at:
  6777 ;;		line 13 in file "LCD.c"
  6778 ;; Parameters:    Size  Location     Type
  6779 ;;  a               1    wreg     unsigned char 
  6780 ;; Auto vars:     Size  Location     Type
  6781 ;;  a               1    0[COMMON] unsigned char 
  6782 ;; Return value:  Size  Location     Type
  6783 ;;                  1    wreg      void 
  6784 ;; Registers used:
  6785 ;;		wreg
  6786 ;; Tracked objects:
  6787 ;;		On entry : 0/0
  6788 ;;		On exit  : 0/0
  6789 ;;		Unchanged: 0/0
  6790 ;; Data sizes:     COMMON   BANK0   BANK1   BANK3   BANK2
  6791 ;;      Params:         0       0       0       0       0
  6792 ;;      Locals:         1       0       0       0       0
  6793 ;;      Temps:          0       0       0       0       0
  6794 ;;      Totals:         1       0       0       0       0
  6795 ;;Total ram usage:        1 bytes
  6796 ;; Hardware stack levels used:    1
  6797 ;; This function calls:
  6798 ;;		Nothing
  6799 ;; This function is called by:
  6800 ;;		_Lcd_Cmd
  6801 ;;		_Lcd_Init
  6802 ;;		_Lcd_Write_Char
  6803 ;; This function uses a non-reentrant model
  6804 ;;
  6805                           
  6806                           
  6807                           ;psect for function _Lcd_Port
  6808  16E8                     _Lcd_Port:
  6809                           
  6810                           ;incstack = 0
  6811                           ; Regs used in _Lcd_Port: [wreg]
  6812                           ;Lcd_Port@a stored from wreg
  6813  16E8  00F0               	movwf	Lcd_Port@a
  6814  16E9                     l1887:
  6815                           
  6816                           ;LCD.c: 14:     PORTB = a;
  6817  16E9  0870               	movf	Lcd_Port@a,w
  6818  16EA  1283               	bcf	3,5	;RP0=0, select bank0
  6819  16EB  1303               	bcf	3,6	;RP1=0, select bank0
  6820  16EC  0086               	movwf	6	;volatile
  6821  16ED                     l137:
  6822  16ED  0008               	return
  6823  16EE                     __end_of_Lcd_Port:
  6824                           
  6825                           	psect	text20
  6826  172B                     __ptext20:	
  6827 ;; *************** function _DHT11_start *****************
  6828 ;; Defined at:
  6829 ;;		line 25 in file "DHT11.c"
  6830 ;; Parameters:    Size  Location     Type
  6831 ;;		None
  6832 ;; Auto vars:     Size  Location     Type
  6833 ;;		None
  6834 ;; Return value:  Size  Location     Type
  6835 ;;                  1    wreg      void 
  6836 ;; Registers used:
  6837 ;;		wreg
  6838 ;; Tracked objects:
  6839 ;;		On entry : 0/0
  6840 ;;		On exit  : 0/0
  6841 ;;		Unchanged: 0/0
  6842 ;; Data sizes:     COMMON   BANK0   BANK1   BANK3   BANK2
  6843 ;;      Params:         0       0       0       0       0
  6844 ;;      Locals:         0       0       0       0       0
  6845 ;;      Temps:          2       0       0       0       0
  6846 ;;      Totals:         2       0       0       0       0
  6847 ;;Total ram usage:        2 bytes
  6848 ;; Hardware stack levels used:    1
  6849 ;; This function calls:
  6850 ;;		Nothing
  6851 ;; This function is called by:
  6852 ;;		_main
  6853 ;; This function uses a non-reentrant model
  6854 ;;
  6855                           
  6856                           
  6857                           ;psect for function _DHT11_start
  6858  172B                     _DHT11_start:
  6859  172B                     l2563:	
  6860                           ;incstack = 0
  6861                           ; Regs used in _DHT11_start: [wreg]
  6862                           
  6863                           
  6864                           ;DHT11.c: 27:    TRISAbits.TRISA0 = 0;
  6865  172B  1683               	bsf	3,5	;RP0=1, select bank1
  6866  172C  1303               	bcf	3,6	;RP1=0, select bank1
  6867  172D  1005               	bcf	5,0	;volatile
  6868                           
  6869                           ;DHT11.c: 28:    RA0 = 0;
  6870  172E  1283               	bcf	3,5	;RP0=0, select bank0
  6871  172F  1303               	bcf	3,6	;RP1=0, select bank0
  6872  1730  1005               	bcf	5,0	;volatile
  6873  1731                     l2565:
  6874                           
  6875                           ;DHT11.c: 29:    _delay((unsigned long)((25)*(8000000/4000.0)));
  6876  1731  3041               	movlw	65
  6877  1732  00F1               	movwf	??_DHT11_start+1
  6878  1733  30EE               	movlw	238
  6879  1734  00F0               	movwf	??_DHT11_start
  6880  1735                     u3837:
  6881  1735  0BF0               	decfsz	??_DHT11_start,f
  6882  1736  2F35               	goto	u3837
  6883  1737  0BF1               	decfsz	??_DHT11_start+1,f
  6884  1738  2F35               	goto	u3837
  6885  1739  0000               	nop
  6886  173A                     l2567:
  6887                           
  6888                           ;DHT11.c: 30:    RA0 = 1;
  6889  173A  1283               	bcf	3,5	;RP0=0, select bank0
  6890  173B  1303               	bcf	3,6	;RP1=0, select bank0
  6891  173C  1405               	bsf	5,0	;volatile
  6892                           
  6893                           ;DHT11.c: 31:    _delay((unsigned long)((25)*(8000000/4000000.0)));
  6894  173D  3010               	movlw	16
  6895  173E  00F0               	movwf	??_DHT11_start
  6896  173F                     u3847:
  6897  173F  0BF0               	decfsz	??_DHT11_start,f
  6898  1740  2F3F               	goto	u3847
  6899  1741  0000               	nop
  6900  1742                     l2569:
  6901                           
  6902                           ;DHT11.c: 32:    TRISAbits.TRISA0 = 1;
  6903  1742  1683               	bsf	3,5	;RP0=1, select bank1
  6904  1743  1303               	bcf	3,6	;RP1=0, select bank1
  6905  1744  1405               	bsf	5,0	;volatile
  6906  1745                     l17:
  6907  1745  0008               	return
  6908  1746                     __end_of_DHT11_start:
  6909                           
  6910                           	psect	text21
  6911  17D4                     __ptext21:	
  6912 ;; *************** function _DHT11_response *****************
  6913 ;; Defined at:
  6914 ;;		line 35 in file "DHT11.c"
  6915 ;; Parameters:    Size  Location     Type
  6916 ;;		None
  6917 ;; Auto vars:     Size  Location     Type
  6918 ;;		None
  6919 ;; Return value:  Size  Location     Type
  6920 ;;                  1    wreg      unsigned char 
  6921 ;; Registers used:
  6922 ;;		wreg, status,2
  6923 ;; Tracked objects:
  6924 ;;		On entry : 0/0
  6925 ;;		On exit  : 0/0
  6926 ;;		Unchanged: 0/0
  6927 ;; Data sizes:     COMMON   BANK0   BANK1   BANK3   BANK2
  6928 ;;      Params:         0       0       0       0       0
  6929 ;;      Locals:         0       0       0       0       0
  6930 ;;      Temps:          0       0       0       0       0
  6931 ;;      Totals:         0       0       0       0       0
  6932 ;;Total ram usage:        0 bytes
  6933 ;; Hardware stack levels used:    1
  6934 ;; This function calls:
  6935 ;;		Nothing
  6936 ;; This function is called by:
  6937 ;;		_main
  6938 ;; This function uses a non-reentrant model
  6939 ;;
  6940                           
  6941                           
  6942                           ;psect for function _DHT11_response
  6943  17D4                     _DHT11_response:
  6944  17D4                     l2571:	
  6945                           ;incstack = 0
  6946                           ; Regs used in _DHT11_response: [wreg+status,2]
  6947                           
  6948                           
  6949                           ;DHT11.c: 37:     TMR1H = 0;
  6950  17D4  1283               	bcf	3,5	;RP0=0, select bank0
  6951  17D5  1303               	bcf	3,6	;RP1=0, select bank0
  6952  17D6  018F               	clrf	15	;volatile
  6953                           
  6954                           ;DHT11.c: 38:     TMR1L = 0;
  6955  17D7  018E               	clrf	14	;volatile
  6956  17D8                     l2573:
  6957                           
  6958                           ;DHT11.c: 39:     T1CONbits.TMR1ON = 1;
  6959  17D8  1410               	bsf	16,0	;volatile
  6960  17D9                     l20:	
  6961                           ;DHT11.c: 41:     while(!RA0 && TMR1L < 100);
  6962                           
  6963  17D9  1805               	btfsc	5,0	;volatile
  6964  17DA  2FDC               	goto	u3501
  6965  17DB  2FDD               	goto	u3500
  6966  17DC                     u3501:
  6967  17DC  2FE3               	goto	l2577
  6968  17DD                     u3500:
  6969  17DD                     l2575:
  6970  17DD  3064               	movlw	100
  6971  17DE  020E               	subwf	14,w	;volatile
  6972  17DF  1C03               	skipc
  6973  17E0  2FE2               	goto	u3511
  6974  17E1  2FE3               	goto	u3510
  6975  17E2                     u3511:
  6976  17E2  2FD9               	goto	l20
  6977  17E3                     u3510:
  6978  17E3                     l2577:
  6979                           
  6980                           ;DHT11.c: 43:     if(TMR1L > 99)return 0;
  6981  17E3  3064               	movlw	100
  6982  17E4  020E               	subwf	14,w	;volatile
  6983  17E5  1C03               	skipc
  6984  17E6  2FE8               	goto	u3521
  6985  17E7  2FE9               	goto	u3520
  6986  17E8                     u3521:
  6987  17E8  2FEB               	goto	l2585
  6988  17E9                     u3520:
  6989  17E9                     l2579:
  6990  17E9  3000               	movlw	0
  6991  17EA  2FFF               	goto	l26
  6992  17EB                     l2585:
  6993                           
  6994                           ;DHT11.c: 46:     {;DHT11.c: 47:         TMR1H = 0;
  6995  17EB  018F               	clrf	15	;volatile
  6996                           
  6997                           ;DHT11.c: 48:         TMR1L = 0;
  6998  17EC  018E               	clrf	14	;volatile
  6999  17ED                     l28:	
  7000                           ;DHT11.c: 50:     while(RA0 && TMR1L < 100);
  7001                           
  7002  17ED  1C05               	btfss	5,0	;volatile
  7003  17EE  2FF0               	goto	u3531
  7004  17EF  2FF1               	goto	u3530
  7005  17F0                     u3531:
  7006  17F0  2FF7               	goto	l2589
  7007  17F1                     u3530:
  7008  17F1                     l2587:
  7009  17F1  3064               	movlw	100
  7010  17F2  020E               	subwf	14,w	;volatile
  7011  17F3  1C03               	skipc
  7012  17F4  2FF6               	goto	u3541
  7013  17F5  2FF7               	goto	u3540
  7014  17F6                     u3541:
  7015  17F6  2FED               	goto	l28
  7016  17F7                     u3540:
  7017  17F7                     l2589:
  7018                           
  7019                           ;DHT11.c: 52:     if(TMR1L > 99)return 0;
  7020  17F7  3064               	movlw	100
  7021  17F8  020E               	subwf	14,w	;volatile
  7022  17F9  1C03               	skipc
  7023  17FA  2FFC               	goto	u3551
  7024  17FB  2FFD               	goto	u3550
  7025  17FC                     u3551:
  7026  17FC  2FFE               	goto	l2597
  7027  17FD                     u3550:
  7028  17FD  2FE9               	goto	l2579
  7029  17FE                     l2597:
  7030  17FE  3001               	movlw	1
  7031  17FF                     l26:
  7032  17FF  0008               	return
  7033  1800                     __end_of_DHT11_response:
  7034                           
  7035                           	psect	text22
  7036  080B                     __ptext22:	
  7037 ;; *************** function _DHT11_ReadData *****************
  7038 ;; Defined at:
  7039 ;;		line 59 in file "DHT11.c"
  7040 ;; Parameters:    Size  Location     Type
  7041 ;;  datos           1    wreg     PTR unsigned char 
  7042 ;;		 -> CHECKSUM(1), dummyT1(1), Temp1(1), dummyHum1(1), 
  7043 ;;		 -> Hum1(1), 
  7044 ;; Auto vars:     Size  Location     Type
  7045 ;;  datos           1    3[COMMON] PTR unsigned char 
  7046 ;;		 -> CHECKSUM(1), dummyT1(1), Temp1(1), dummyHum1(1), 
  7047 ;;		 -> Hum1(1), 
  7048 ;;  i               1    2[COMMON] unsigned char 
  7049 ;; Return value:  Size  Location     Type
  7050 ;;                  1    wreg      void 
  7051 ;; Registers used:
  7052 ;;		wreg, fsr0l, fsr0h, status,2, status,0
  7053 ;; Tracked objects:
  7054 ;;		On entry : 0/0
  7055 ;;		On exit  : 0/0
  7056 ;;		Unchanged: 0/0
  7057 ;; Data sizes:     COMMON   BANK0   BANK1   BANK3   BANK2
  7058 ;;      Params:         0       0       0       0       0
  7059 ;;      Locals:         2       0       0       0       0
  7060 ;;      Temps:          2       0       0       0       0
  7061 ;;      Totals:         4       0       0       0       0
  7062 ;;Total ram usage:        4 bytes
  7063 ;; Hardware stack levels used:    1
  7064 ;; This function calls:
  7065 ;;		Nothing
  7066 ;; This function is called by:
  7067 ;;		_main
  7068 ;; This function uses a non-reentrant model
  7069 ;;
  7070                           
  7071                           
  7072                           ;psect for function _DHT11_ReadData
  7073  080B                     _DHT11_ReadData:
  7074                           
  7075                           ;incstack = 0
  7076                           ; Regs used in _DHT11_ReadData: [wreg-fsr0h+status,2+status,0]
  7077                           ;DHT11_ReadData@datos stored from wreg
  7078  080B  00F3               	movwf	DHT11_ReadData@datos
  7079  080C                     l2601:
  7080                           
  7081                           ;DHT11.c: 60:     uint8_t i;;DHT11.c: 61:     *datos = 0;
  7082  080C  0873               	movf	DHT11_ReadData@datos,w
  7083  080D  0084               	movwf	4
  7084  080E  1383               	bcf	3,7	;select IRP bank0
  7085  080F  0180               	clrf	0
  7086  0810                     l2603:
  7087                           
  7088                           ;DHT11.c: 62:     for(i=0; i<8; i++){
  7089  0810  01F2               	clrf	DHT11_ReadData@i
  7090  0811                     l39:
  7091  0811  1283               	bcf	3,5	;RP0=0, select bank0
  7092  0812  1303               	bcf	3,6	;RP1=0, select bank0
  7093  0813  1C05               	btfss	5,0	;volatile
  7094  0814  2816               	goto	u3561
  7095  0815  2817               	goto	u3560
  7096  0816                     u3561:
  7097  0816  2811               	goto	l39
  7098  0817                     u3560:
  7099  0817                     l2609:
  7100                           
  7101                           ;DHT11.c: 64:         TMR1H = 0;
  7102  0817  018F               	clrf	15	;volatile
  7103                           
  7104                           ;DHT11.c: 65:         TMR1L = 0;
  7105  0818  018E               	clrf	14	;volatile
  7106  0819                     l42:	
  7107                           ;DHT11.c: 66:         while(RA0);
  7108                           
  7109  0819  1805               	btfsc	5,0	;volatile
  7110  081A  281C               	goto	u3571
  7111  081B  281D               	goto	u3570
  7112  081C                     u3571:
  7113  081C  2819               	goto	l42
  7114  081D                     u3570:
  7115  081D                     l2611:
  7116                           
  7117                           ;DHT11.c: 67:         if(TMR1L > 50)*datos |= (1 << (7-i));
  7118  081D  3033               	movlw	51
  7119  081E  020E               	subwf	14,w	;volatile
  7120  081F  1C03               	skipc
  7121  0820  2822               	goto	u3581
  7122  0821  2823               	goto	u3580
  7123  0822                     u3581:
  7124  0822  2835               	goto	l2615
  7125  0823                     u3580:
  7126  0823                     l2613:
  7127  0823  3001               	movlw	1
  7128  0824  00F0               	movwf	??_DHT11_ReadData
  7129  0825  0872               	movf	DHT11_ReadData@i,w
  7130  0826  3C07               	sublw	7
  7131  0827  3E01               	addlw	1
  7132  0828  282B               	goto	u3594
  7133  0829                     u3595:
  7134  0829  1003               	clrc
  7135  082A  0DF0               	rlf	??_DHT11_ReadData,f
  7136  082B                     u3594:
  7137  082B  3EFF               	addlw	-1
  7138  082C  1D03               	skipz
  7139  082D  2829               	goto	u3595
  7140  082E  0870               	movf	??_DHT11_ReadData,w
  7141  082F  00F1               	movwf	??_DHT11_ReadData+1
  7142  0830  0873               	movf	DHT11_ReadData@datos,w
  7143  0831  0084               	movwf	4
  7144  0832  0871               	movf	??_DHT11_ReadData+1,w
  7145  0833  1383               	bcf	3,7	;select IRP bank0
  7146  0834  0480               	iorwf	0,f
  7147  0835                     l2615:
  7148                           
  7149                           ;DHT11.c: 70:     }
  7150  0835  3001               	movlw	1
  7151  0836  00F0               	movwf	??_DHT11_ReadData
  7152  0837  0870               	movf	??_DHT11_ReadData,w
  7153  0838  07F2               	addwf	DHT11_ReadData@i,f
  7154  0839                     l2617:
  7155  0839  3008               	movlw	8
  7156  083A  0272               	subwf	DHT11_ReadData@i,w
  7157  083B  1C03               	skipc
  7158  083C  283E               	goto	u3601
  7159  083D  283F               	goto	u3600
  7160  083E                     u3601:
  7161  083E  2811               	goto	l39
  7162  083F                     u3600:
  7163  083F                     l46:
  7164  083F  0008               	return
  7165  0840                     __end_of_DHT11_ReadData:
  7166  007E                     btemp	set	126	;btemp
  7167  007E                     wtemp0	set	126
  7168                           
  7169                           	psect	config
  7170                           
  7171                           ;Config register CONFIG1 @ 0x2007
  7172                           ;	Oscillator Selection bits
  7173                           ;	FOSC = INTRC_NOCLKOUT, INTOSCIO oscillator: I/O function on RA6/OSC2/CLKOUT pin, I/O f
      +                          unction on RA7/OSC1/CLKIN
  7174                           ;	Watchdog Timer Enable bit
  7175                           ;	WDTE = OFF, WDT disabled and can be enabled by SWDTEN bit of the WDTCON register
  7176                           ;	Power-up Timer Enable bit
  7177                           ;	PWRTE = ON, PWRT enabled
  7178                           ;	RE3/MCLR pin function select bit
  7179                           ;	MCLRE = OFF, RE3/MCLR pin function is digital input, MCLR internally tied to VDD
  7180                           ;	Code Protection bit
  7181                           ;	CP = OFF, Program memory code protection is disabled
  7182                           ;	Data Code Protection bit
  7183                           ;	CPD = OFF, Data memory code protection is disabled
  7184                           ;	Brown Out Reset Selection bits
  7185                           ;	BOREN = OFF, BOR disabled
  7186                           ;	Internal External Switchover bit
  7187                           ;	IESO = OFF, Internal/External Switchover mode is disabled
  7188                           ;	Fail-Safe Clock Monitor Enabled bit
  7189                           ;	FCMEN = OFF, Fail-Safe Clock Monitor is disabled
  7190                           ;	Low Voltage Programming Enable bit
  7191                           ;	LVP = OFF, RB3 pin has digital I/O, HV on MCLR must be used for programming
  7192                           ;	In-Circuit Debugger Mode bit
  7193                           ;	DEBUG = 0x1, unprogrammed default
  7194  2007                     	org	8199
  7195  2007  20C4               	dw	8388
  7196                           
  7197                           ;Config register CONFIG2 @ 0x2008
  7198                           ;	Brown-out Reset Selection bit
  7199                           ;	BOR4V = BOR40V, Brown-out Reset set to 4.0V
  7200                           ;	Flash Program Memory Self Write Enable bits
  7201                           ;	WRT = OFF, Write protection off
  7202  2008                     	org	8200
  7203  2008  3FFF               	dw	16383

Data Sizes:
    Strings     26
    Constant    0
    Data        0
    BSS         44
    Persistent  0
    Stack       0

Auto Spaces:
    Space          Size  Autos    Used
    COMMON           14     13      14
    BANK0            80     75      80
    BANK1            80     10      48
    BANK3            96      0       0
    BANK2            96      0       0

Pointer List with Targets:

    convert@data	PTR unsigned char  size(1) Largest target is 10
		 -> temperatura(BANK1[10]), humedad(BANK1[10]), 

    Lcd_Write_String@a	PTR unsigned char  size(2) Largest target is 15
		 -> STR_3(CODE[15]), STR_2(CODE[6]), STR_1(CODE[5]), temperatura(BANK1[10]), 
		 -> humedad(BANK1[10]), 

    DHT11_ReadData@datos	PTR unsigned char  size(1) Largest target is 1
		 -> CHECKSUM(BANK0[1]), dummyT1(BANK0[1]), Temp1(BANK0[1]), dummyHum1(BANK0[1]), 
		 -> Hum1(BANK0[1]), 


Critical Paths under _main in COMMON

    _convert->___wmul
    ___xxtofl->___wmul
    ___wmul->___fltol
    ___flsub->___wmul
    _Lcd_Write_String->_Lcd_Write_Char
    _Lcd_Write_Char->_Lcd_Port
    _Lcd_Set_Cursor->_Lcd_Cmd
    _Lcd_Init->_Lcd_Cmd
    _Lcd_Clear->_Lcd_Cmd
    _Lcd_Cmd->_Lcd_Port

Critical Paths under _main in BANK0

    _main->_convert
    _convert->___flmul
    ___xxtofl->___wmul
    ___flsub->___xxtofl
    ___flmul->___flsub
    ___fldiv->___xxtofl

Critical Paths under _main in BANK1

    None.

Critical Paths under _main in BANK3

    None.

Critical Paths under _main in BANK2

    None.

Call Graph Tables:

 ---------------------------------------------------------------------------------
 (Depth) Function   	        Calls       Base Space   Used Autos Params    Refs
 ---------------------------------------------------------------------------------
 (0) _main                                                10    10      0   13770
                                              0 BANK1     10    10      0
                     _DHT11_ReadData
                     _DHT11_response
                        _DHT11_start
                          _Lcd_Clear
                           _Lcd_Init
                     _Lcd_Set_Cursor
                   _Lcd_Write_String
                           ___xxtofl
                             _config
                            _convert
 ---------------------------------------------------------------------------------
 (1) _convert                                             23    17      6   11381
                                             52 BANK0     23    17      6
                            ___awdiv
                            ___fldiv
                             ___flge
                            ___flmul
                            ___flsub
                            ___fltol
                             ___wmul
                           ___xxtofl
 ---------------------------------------------------------------------------------
 (2) ___xxtofl                                            14    10      4     930
                                              4 BANK0     14    10      4
                            ___fltol (ARG)
                             ___wmul (ARG)
 ---------------------------------------------------------------------------------
 (2) ___wmul                                               6     2      4     852
                                             11 COMMON     2     2      0
                                              0 BANK0      4     0      4
                            ___fltol (ARG)
 ---------------------------------------------------------------------------------
 (2) ___fltol                                             11     7      4     761
                                              0 COMMON    11     7      4
 ---------------------------------------------------------------------------------
 (2) ___flsub                                              8     0      8    2637
                                             18 BANK0      8     0      8
                            ___fladd
                            ___fltol (ARG)
                             ___wmul (ARG)
                           ___xxtofl (ARG)
 ---------------------------------------------------------------------------------
 (3) ___fladd                                             20    12      8    2136
                                              0 COMMON    12     4      8
                                              0 BANK0      8     8      0
 ---------------------------------------------------------------------------------
 (2) ___flmul                                             26    18      8    2569
                                             26 BANK0     26    18      8
                          __Umul8_16
                            ___flsub (ARG)
                            ___fltol (ARG)
                           ___xxtofl (ARG)
 ---------------------------------------------------------------------------------
 (3) __Umul8_16                                            9     7      2     799
                                              0 COMMON     9     7      2
 ---------------------------------------------------------------------------------
 (2) ___flge                                              12     4      8     334
                                              0 COMMON    12     4      8
 ---------------------------------------------------------------------------------
 (2) ___fldiv                                             26    18      8    1425
                                             18 BANK0     26    18      8
                           ___xxtofl (ARG)
 ---------------------------------------------------------------------------------
 (2) ___awdiv                                              9     5      4     452
                                              0 COMMON     9     5      4
 ---------------------------------------------------------------------------------
 (1) _config                                               0     0      0       0
 ---------------------------------------------------------------------------------
 (1) _Lcd_Write_String                                     7     5      2     514
                                              3 COMMON     7     5      2
                     _Lcd_Write_Char
 ---------------------------------------------------------------------------------
 (2) _Lcd_Write_Char                                       2     2      0      44
                                              1 COMMON     2     2      0
                           _Lcd_Port
 ---------------------------------------------------------------------------------
 (1) _Lcd_Set_Cursor                                       4     3      1     558
                                              4 COMMON     4     3      1
                            _Lcd_Cmd
 ---------------------------------------------------------------------------------
 (1) _Lcd_Init                                             2     2      0      66
                                              4 COMMON     2     2      0
                            _Lcd_Cmd
                           _Lcd_Port
 ---------------------------------------------------------------------------------
 (1) _Lcd_Clear                                            0     0      0      44
                            _Lcd_Cmd
 ---------------------------------------------------------------------------------
 (2) _Lcd_Cmd                                              3     3      0      44
                                              1 COMMON     3     3      0
                           _Lcd_Port
 ---------------------------------------------------------------------------------
 (3) _Lcd_Port                                             1     1      0      22
                                              0 COMMON     1     1      0
 ---------------------------------------------------------------------------------
 (1) _DHT11_start                                          2     2      0       0
                                              0 COMMON     2     2      0
 ---------------------------------------------------------------------------------
 (1) _DHT11_response                                       0     0      0       0
 ---------------------------------------------------------------------------------
 (1) _DHT11_ReadData                                       4     4      0     277
                                              0 COMMON     4     4      0
 ---------------------------------------------------------------------------------
 Estimated maximum stack depth 3
 ---------------------------------------------------------------------------------

 Call Graph Graphs:

 _main (ROOT)
   _DHT11_ReadData
   _DHT11_response
   _DHT11_start
   _Lcd_Clear
     _Lcd_Cmd
       _Lcd_Port
   _Lcd_Init
     _Lcd_Cmd
       _Lcd_Port
     _Lcd_Port
   _Lcd_Set_Cursor
     _Lcd_Cmd
       _Lcd_Port
   _Lcd_Write_String
     _Lcd_Write_Char
       _Lcd_Port
   ___xxtofl
     ___fltol (ARG)
     ___wmul (ARG)
       ___fltol (ARG)
   _config
   _convert
     ___awdiv
     ___fldiv
       ___xxtofl (ARG)
         ___fltol (ARG)
         ___wmul (ARG)
           ___fltol (ARG)
     ___flge
     ___flmul
       __Umul8_16
       ___flsub (ARG)
         ___fladd
         ___fltol (ARG)
         ___wmul (ARG)
           ___fltol (ARG)
         ___xxtofl (ARG)
           ___fltol (ARG)
           ___wmul (ARG)
             ___fltol (ARG)
       ___fltol (ARG)
       ___xxtofl (ARG)
         ___fltol (ARG)
         ___wmul (ARG)
           ___fltol (ARG)
     ___flsub
       ___fladd
       ___fltol (ARG)
       ___wmul (ARG)
         ___fltol (ARG)
       ___xxtofl (ARG)
         ___fltol (ARG)
         ___wmul (ARG)
           ___fltol (ARG)
     ___fltol
     ___wmul
       ___fltol (ARG)
     ___xxtofl
       ___fltol (ARG)
       ___wmul (ARG)
         ___fltol (ARG)

 Address spaces:
Name               Size   Autos  Total    Cost      Usage
BITCOMMON            E      0       0       0        0.0%
EEDATA             100      0       0       0        0.0%
NULL                 0      0       0       0        0.0%
CODE                 0      0       0       0        0.0%
COMMON               E      D       E       1      100.0%
BITSFR0              0      0       0       1        0.0%
SFR0                 0      0       0       1        0.0%
BITSFR1              0      0       0       2        0.0%
SFR1                 0      0       0       2        0.0%
STACK                0      0       0       2        0.0%
ABS                  0      0      8E       3        0.0%
BITBANK0            50      0       0       4        0.0%
BITSFR3              0      0       0       4        0.0%
SFR3                 0      0       0       4        0.0%
BANK0               50     4B      50       5      100.0%
BITSFR2              0      0       0       5        0.0%
SFR2                 0      0       0       5        0.0%
BITBANK1            50      0       0       6        0.0%
BANK1               50      A      30       7       60.0%
BITBANK3            60      0       0       8        0.0%
BANK3               60      0       0       9        0.0%
BITBANK2            60      0       0      10        0.0%
BANK2               60      0       0      11        0.0%
DATA                 0      0      8E      12        0.0%


Microchip Technology PIC Macro Assembler V2.31 build 20201012212115 
Symbol Table                                                                                   Sun Sep 05 17:21:20 2021

             ___fldiv@aexp 004B               ___fldiv@bexp 004A                          pc 0002  
             ___fldiv@sign 0043                         l20 17D9                         l17 1745  
                       l42 0819                         l26 17FF                         l28 17ED  
                       l46 083F                         l39 0811               ___awdiv@sign 0076  
                       fsr 0004        ___wmul@multiplicand 0022        __Umul8_16@word_mpld 0076  
                      l140 172A                        l143 16FA                        l119 09DF  
                      l152 08C6                        l128 1761                        l137 16ED  
                      l161 0881                        l225 0489                        l155 1710  
                      l149 1785                        l351 17BB                        l504 092D  
                      l353 17D3                        l700 0BE7                        l525 094A  
                      l702 0D67                        l528 09B6                        l544 008C  
                      l529 09CF                        l537 00A1                        l722 0D4B  
                      l650 0E49                        l547 00A1                        l724 0D5B  
                      l716 0CD9                        l740 07EA                        l644 0DCB  
                      l752 07DE                        l648 0E74                        l761 17AC  
                      l665 0F45                        l657 0FFF                        l746 0756  
                      l690 0027                        l675 0F8D                        l669 0F6B  
                      l686 0FF1                        l678 0FCD                        l790 010B  
                      l759 179A                        l687 0FFF                        l784 00C6  
                      l786 015D                        l797 0127                        l798 0133  
                      _RA0 0028                        fsr0 0004                        indf 0000  
             ___flmul@aexp 004C               ___flmul@bexp 004D               ___flmul@sign 0047  
             ___flmul@temp 0052               ___flmul@prod 004E               ___fltol@exp1 007A  
                     l2001 0EB0                       l2003 0EB2                       l2011 0EC7  
                     l2101 171B                       l2013 0EDD                       l2021 0F37  
                     l2005 0EB6                       l2103 171E                       l2111 1705  
                     l2031 0F66                       l2023 0F4D                       l2015 0F1D  
                     l2007 0EB7                       l2105 1727                       l2113 1708  
                     l2041 0F79                       l2033 0F6A                       l2025 0F52  
                     l2017 0F23                       l2009 0EC2                       l2201 003C  
                     l2121 17B5                       l2115 170D                       l2107 16FC  
                     l2131 08C7                       l2051 0F8A                       l2035 0F6F  
                     l2043 0F7B                       l2019 0F28                       l2211 0060  
                     l2203 0051                       l2123 17C2                       l2109 16FF  
                     l2141 08D7                       l2133 08C8                       l2301 0C42  
                     l2061 0FA9                       l2037 0F72                       l2029 0F5B  
                     l2045 0F7F                       l2205 0052                       l2125 17C9  
                     l2117 17AD                       l2151 08EB                       l2143 08DC  
                     l2135 08CC                       l2303 0C47                       l2311 0C67  
                     l2071 0FE4                       l2063 0FC9                       l2055 0F92  
                     l2047 0F80                       l2039 0F74                       l2231 0004  
                     l2207 005A                       l2127 17CF                       l2119 17AF  
                     l2161 0911                       l2153 08F2                       l2145 08E0  
                     l2137 08D1                       l2321 0C92                       l2313 0C79  
                     l2305 0C59                       l2241 0B98                       l2401 04C3  
                     l2081 0FFE                       l2073 0FE5                       l2065 0FD2  
                     l2057 0F97                       l2049 0F84                       l2233 0008  
                     l2225 0081                       l2217 0068                       l2209 005C  
                     l2171 0929                       l2163 0912                       l2155 08F6  
                     l2147 08E2                       l2139 08D3                       l2331 0CAA  
                     l2323 0C9A                       l2315 0C7A                       l2307 0C5D  
                     l2251 0BAF                       l2243 0B9C                       l2091 17A3  
                     l2083 1787                       l2411 04DA                       l2403 04C7  
                     l2075 0FE9                       l2067 0FD7                       l2059 0FA5  
                     l2227 0091                       l2219 007A                       l2165 0919  
                     l2157 08FA                       l2149 08E8                       l2341 0CC2  
                     l2333 0CB3                       l2325 0C9C                       l2317 0C88  
                     l2309 0C5E                       l2261 0BC5                       l2253 0BB0  
                     l2245 0B9D                       l2237 0B8B                       l2181 0966  
                     l2093 17A8                       l2085 1789                       l2501 07A9  
                     l2413 04DC                       l2405 04C8                       l2077 0FEB  
                     l2069 0FDF                       l2229 0096                       l2159 090B  
                     l2167 091F                       l2351 0CF1                       l2343 0CD6  
                     l2327 0CA5                       l2335 0CB9                       l2319 0C8C  
                     l2271 0BDC                       l2263 0BC9                       l2247 0BA2  
                     l2255 0BB2                       l2239 0B92                       l2191 09CE  
                     l2183 096A                       l2175 092E                       l2087 1790  
                     l2511 07D6                       l2503 07B8                       l2431 054D  
                     l2423 04F7                       l2415 04E4                       l2407 04CD  
                     l2079 0FFA                       l2601 080C                       l2097 1712  
                     l2169 0924                       l2361 0D2F                       l2353 0CF5  
                     l2337 0CBD                       l2329 0CA9                       l2281 0BFF  
                     l2273 0BDD                       l2265 0BCA                       l2257 0BBA  
                     l2249 0BA7                       l2185 098E                       l2177 0942  
                     l2089 1794                       l2513 07D7                       l2505 07C2  
                     l2441 05CA                       l2433 0579                       l2425 0507  
                     l2417 04E9                       l2409 04D2                       l2521 00AA  
                     l2611 081D                       l2603 0810                       l2099 1715  
                     l2371 0D55                       l2363 0D3E                       l2355 0D0E  
                     l2347 0CDE                       l2339 0CBE                       l2291 0C16  
                     l2267 0BCF                       l2275 0BDF                       l2259 0BBF  
                     l2187 0992                       l2179 095E                       l2515 07E2  
                     l2507 07C4                       l2451 064A                       l2443 05E7  
                     l2435 0595                       l2427 0514                       l2419 04EE  
                     l2195 0028                       l2531 00D7                       l2523 00AE  
                     l2613 0823                       l2621 1756                       l2373 0D57  
                     l2365 0D42                       l2349 0CE3                       l2357 0D14  
                     l2293 0C28                       l2277 0BEF                       l2285 0C08  
                     l2269 0BD4                       l2189 09CC                       l2509 07D2  
                     l2461 0702                       l2453 0677                       l2445 05F7  
                     l2437 05B1                       l2429 0531                       l2381 0491  
                     l1901 0D84                       l2197 0033                       l2541 0102  
                     l2533 00DC                       l2525 00BE                       l2701 02E4  
                     l2615 0835                       l2631 0882                       l2623 175A  
                     l2367 0D4A                       l2359 0D21                       l2295 0C30  
                     l2287 0C0D                       l2279 0BFB                       l2471 0727  
                     l2463 070B                       l2455 0687                       l2447 0614  
                     l2439 05BA                       l2391 04A6                       l2383 0497  
                     l1911 0D9C                       l1903 0D8C                       l2551 0135  
                     l2543 0112                       l2535 00E9                       l2527 00CE  
                     l2519 00A5                       l2711 037E                       l2703 02F9  
                     l2617 0839                       l2609 0817                       l2641 16EE  
                     l2633 0888                       l2625 175B                       l2369 0D51  
                     l2297 0C38                       l2481 073F                       l2473 0730  
                     l2465 0719                       l2457 06B4                       l2449 062D  
                     l2393 04AE                       l2385 049B                       l1921 0DAE  
                     l1913 0DA2                       l1905 0D8D                       l2553 014B  
                     l2545 011D                       l2537 00F0                       l2721 039C  
                     l2713 038B                       l2705 02FF                       l2801 0B63  
                     l2571 17D4                       l2563 172B                       l2635 0891  
                     l2627 175F                       l2619 1746                       l2299 0C40  
                     l2491 076E                       l2483 0753                       l2467 0722  
                     l2475 0736                       l2459 06DA                       l2395 04B0  
                     l2387 049C                       l2379 048A                       l1923 0DB3  
                     l1931 0DC3                       l1915 0DA3                       l1907 0D8F  
                     l2555 0150                       l2547 0121                       l2539 00F4  
                     l2731 03CF                       l2723 03A1                       l2715 038B  
                     l2707 030D                       l2651 0178                       l2643 0161  
                     l2803 0B70                       l2573 17D8                       l2565 1731  
                     l2637 08A0                       l2629 1760                       l2493 0772  
                     l2477 073A                       l2469 0726                       l2397 04B8  
                     l2389 04A1                       l1941 0DE1                       l1933 0DD1  
                     l1925 0DB8                       l1917 0DA9                       l1909 0D97  
                     l2557 0154                       l2549 012B                       l2733 044F  
                     l2725 03A6                       l2741 0479                       l2717 0391  
                     l2709 0376                       l2661 01BD                       l2653 017C  
                     l2645 0174                       l2805 0B79                       l2575 17DD  
                     l2567 173A                       l2639 08A6                       l2751 1774  
                     l2495 078B                       l2487 075B                       l2479 073B  
                     l2399 04BD                       l1951 0DF5                       l1943 0DE5  
                     l1935 0DD5                       l1927 0DC0                       l1919 0DAD  
                     l2559 0155                       l2743 047F                       l2735 0469  
                     l2727 03BB                       l2719 0396                       l2671 01EC  
                     l2663 01C4                       l2655 017C                       l2647 0174  
                     l2585 17EB                       l2577 17E3                       l2569 1742  
                     l2753 177A                       l2745 1763                       l2761 085F  
                     l2489 0760                       l2497 0791                       l1961 0E09  
                     l1953 0DF9                       l1945 0DE9                       l1937 0DD9  
                     l1929 0DC1                       l2737 046F                       l2729 03C1  
                     l2681 021F                       l2673 01F1                       l2665 01D7  
                     l2657 0195                       l2649 0176                       l2587 17F1  
                     l2579 17E9                       l2755 177F                       l2747 1768  
                     l2763 0865                       l2499 079E                       l1971 0E2D  
                     l1963 0E0D                       l1955 0DFD                       l1947 0DED  
                     l1939 0DDD                       l1891 0D6F                       l2739 0475  
                     l2683 029F                       l2675 01F6                       l2691 02C9  
                     l2659 01B6                       l2667 01DD                       l2771 0A0C  
                     l2597 17FE                       l2589 17F7                       l2749 176D  
                     l2757 0840                       l1981 0E5F                       l1973 0E4D  
                     l1965 0E11                       l1957 0E01                       l1949 0DF1  
                     l1893 0D75                       l2693 02CF                       l2685 02B9  
                     l2677 020B                       l2669 01E6                       l2781 0AD4  
                     l2773 0A14                       l2765 09D0                       l1887 16E9  
                     l2759 0843                       l1983 0E6A                       l1975 0E58  
                     l1959 0E05                       l1967 0E15                       l1895 0D79  
                     l2695 02D9                       l2687 02BF                       l2679 0211  
                     l2791 0B33                       l2783 0AF4                       l2775 0A4A  
                     l2767 09E4                       l1993 0E86                       l1977 0E5A  
                     l1985 0E6E                       l1969 0E16                       l1897 0D7A  
                     l1889 0D68                       l2697 02DF                       l2689 02C5  
                     l2793 0B3C                       l2785 0B16                       l2777 0A5A  
                     l2769 09EE                       l1995 0E9D                       l1987 0E78  
                     l1979 0E5E                       l1899 0D7F                       l2699 02DF  
                     l2795 0B44                       l2787 0B1E                       l2779 0A97  
                     l1997 0EA1                       l1989 0E7D                       l2797 0B4D  
                     l2789 0B27                       l1999 0EA5                       l2799 0B59  
                     STR_1 1025                       STR_2 101F                       STR_3 1010  
                     u2000 0E36                       u2001 0E34                       u2010 0E37  
                     u2100 0EA5                       u2020 0E4D                       u2101 0EA4  
                     u2021 0E4C                       u2110 0EB6                       u2030 0E5E  
                     u2111 0EB5                       u2031 0E5D                       u3000 04A1  
                     u2200 0F6A                       u3001 04A0                       u2201 0F69  
                     u3010 04A6                       u2210 0F6F                       u2130 0EDD  
                     u2050 0E74                       u3011 04A5                       u2211 0F6E  
                     u2131 0EDC                       u2051 0E73                       u3020 04C7  
                     u2300 0FC9                       u2220 0F79                       u2060 0E78  
                     u3101 05A3                       u3021 04C6                       u2301 0FC8  
                     u2221 0F78                       u2141 0EF6                       u2133 0ED9  
                     u2125 0EBB                       u2061 0E77                       u2045 0E63  
                     u3102 05AA                       u3030 04CD                       u2310 0FD2  
                     u2230 0F7F                       u2150 0F0A                       u2142 0EF7  
                     u2070 0E7D                       u3103 05B1                       u3031 04CC  
                     u2311 0FD1                       u2231 0F7E                       u2151 0F0B  
                     u2143 0EFC                       u2071 0E7C                       u3200 06E8  
                     u3040 04D2                       u2320 0FD7                       u2240 0F84  
                     u2160 0F28                       u2152 0F10                       u2144 0EFD  
                     u3121 05D9                       u3041 04D1                       u2321 0FD6  
                     u2241 0F83                       u2161 0F27                       u2153 0F11  
                     u2145 0F02                       u2081 0E8F                       u3122 05E0  
                     u3050 04E9                       u2330 0FE4                       u2250 0F8A  
                     u2170 0F4D                       u2146 0F03                       u2090 0EA1  
                     u2082 0E96                       u3211 06F4                       u3131 0606  
                     u3123 05E7                       u3115 05B3                       u3051 04E8  
                     u2331 0FE3                       u2251 0F89                       u2171 0F4C  
                     u2091 0EA0                       u2083 0E9D                       u3300 0760  
                     u3212 06FB                       u3132 060D                       u3060 04EE  
                     u2340 0FE9                       u2260 0F91                       u2180 0F52  
                     u2420 17CF                       u3301 075F                       u3213 0702  
                     u3205 06E3                       u3133 0614                       u3061 04ED  
                     u2341 0FE8                       u2261 0F90                       u2181 0F51  
                     u2421 17CE                       u2405 17BC                       u2510 091F  
                     u2430 08CC                       u3310 0772                       u2350 0FFE  
                     u2270 0F97                       u2511 091E                       u2431 08CB  
                     u3311 0771                       u3151 063C                       u3071 053F  
                     u2351 0FFD                       u2271 0F96                       u2415 17C3  
                     u2520 0924                       u2440 08D7                       u2360 1794  
                     u3320 0781                       u3240 0726                       u3152 0643  
                     u3072 0546                       u2280 0FA9                       u2600 0033  
                     u3400 00EF                       u2521 0923                       u2505 0913  
                     u2441 08D6                       u2361 1793                       u3241 0725  
                     u3225 0704                       u3161 0669                       u3153 064A  
                     u3145 0616                       u3081 055B                       u3073 054D  
                     u2281 0FA8                       u2601 0032                       u3401 00EE  
                     u2450 08E8                       u2530 0942                       u3330 079E  
                     u3162 0670                       u3082 0562                       u2290 0FBA  
                     u2610 004A                       u2451 08E7                       u2531 0941  
                     u3331 079D                       u3235 071B                       u3171 0696  
                     u3163 0677                       u3091 0587                       u3083 0569  
                     u2195 0F5F                       u3500 17DD                       u2700 0B9C  
                     u2540 095E                       u2380 17A8                       u3340 07B8  
                     u3260 073A                       u3180 06C0                       u3172 069D  
                     u3092 058E                       u1900 0D79                       u2620 0060  
                     u3420 0111                       u3501 17DC                       u2701 0B9B  
                     u2541 095D                       u2381 17A7                       u3341 07B7  
                     u3325 077C                       u3261 0739                       u3173 06A4  
                     u3093 0595                       u1901 0D78                       u2621 005F  
                     u3421 0110                       u3510 17E3                       u2470 08FA  
                     u2710 0BA2                       u2550 096A                       u3350 07D6  
                     u3270 073F                       u1910 0D7F                       u2630 0067  
                     u2390 17B5                       u3511 17E2                       u2471 08F9  
                     u2711 0BA1                       u2551 0969                       u2375 179B  
                     u3351 07D5                       u3335 079A                       u3271 073E  
                     u3255 0729                       u3191 06CC                       u2295 0FB5  
                     u1911 0D7E                       u2631 0066                       u2615 0045  
                     u2391 17B4                       u3415 0103                       u3600 083F  
                     u3520 17E9                       u2720 0BA7                       u3280 0753  
                     u3192 06D3                       u1920 0D84                       u3440 0121  
                     u3360 00AA                       u3601 083E                       u3521 17E8  
                     u2465 08EC                       u2721 0BA6                       u2561 0979  
                     u3345 07B4                       u3281 0752                       u3193 06DA  
                     u3185 06BB                       u1921 0D83                       u3441 0120  
                     u3361 00A9                       u3530 17F1                       u2490 090B  
                     u2810 0C5D                       u2730 0BC9                       u2570 0992  
                     u2562 097A                       u3290 075A                       u1930 0DA2  
                     u2650 0079                       u3450 0127                       u3370 00AE  
                     u3610 0195                       u3531 17F0                       u2491 090A  
                     u2811 0C5C                       u2731 0BC8                       u2571 0991  
                     u2563 097F                       u3291 0759                       u1931 0DA1  
                     u2651 0078                       u3451 0126                       u3435 0116  
                     u3371 00AD                       u3611 0194                       u3540 17F7  
                     u3700 1768                       u2900 0CC2                       u2740 0BCF  
                     u2564 0980                       u1940 0DAD                       u2660 0080  
                     u3460 012B                       u3380 00CE                       u3620 01E5  
                     u3541 17F6                       u3701 1767                       u2485 08FB  
                     u2901 0CC1                       u2805 0C52                       u2741 0BCE  
                     u2581 09A1                       u2565 0985                       u1941 0DAC  
                     u2661 007F                       u2645 0069                       u3461 012A  
                     u3381 00CD                       u3621 01E4                       u3550 17FD  
                     u3710 177A                       u2910 0CD6                       u2830 0C79  
                     u2750 0BD4                       u2590 09CC                       u2582 09A2  
                     u2566 0986                       u1950 0DB3                       u3470 0140  
                     u3630 01EC                       u3551 17FC                       u3711 1779  
                     u2495 0907                       u2911 0CD5                       u2831 0C78  
                     u2751 0BD3                       u2591 09CB                       u2583 09A7  
                     u1951 0DB2                       u3631 01EB                       u3560 0817  
                     u3720 084D                       u2920 0CDD                       u2840 0C92  
                     u2760 0BEF                       u2584 09A8                       u1960 0DB8  
                     u2680 0091                       u3480 0150                       u3640 021F  
                     u3561 0816                       u2921 0CDC                       u2841 0C91  
                     u2825 0C60                       u2761 0BEE                       u2585 09AD  
                     u1961 0DB7                       u2681 0090                       u3481 014F  
                     u3641 021E                       u3570 081D                       u3730 086F  
                     u2930 0CE3                       u2850 0C9A                       u2770 0C0D  
                     u2586 09AE                       u1970 0DD1                       u2690 0096  
                     u3490 0154                       u3650 02CF                       u3571 081C  
                     u2931 0CE2                       u2851 0C99                       u2835 0C75  
                     u2771 0C0C                       u2595 09C8                       u1971 0DD0  
                     u2691 0095                       u2675 0083                       u3491 0153  
                     u3475 013B                       u3395 00E1                       u3651 02CE  
                     u3580 0823                       u3740 0881                       u2940 0CF5  
                     u2780 0C47                       u1980 0DD5                       u3660 030D  
                     u3581 0822                       u3741 0880                       u2941 0CF4  
                     u2781 0C46                       u1981 0DD4                       u3661 030C  
                     u3645 021B                       u2950 0D04                       u2870 0CA9  
                     u1990 0E2D                       u3670 039C                       u3750 09EE  
                     u3807 089B                       u2871 0CA8                       u1991 0E2C  
                     u3671 039B                       u3751 09ED                       u2960 0D21  
                     u3680 03CF                       u3760 0A4A                       u3817 08AA  
                     u2961 0D20                       u2865 0C9E                       u3681 03CE  
                     u3665 0309                       u3761 0A49                       u3594 082B  
                     u2970 0D3E                       u2890 0CBD                       u3690 047F  
                     u3595 0829                       u3827 1722                       u2971 0D3D  
                     u2955 0CFF                       u2891 0CBC                       u2795 0C49  
                     u1995 0E29                       u3691 047E                       u2980 0D55  
                     u3837 1735                       u2981 0D54                       u2965 0D1D  
                     u2885 0CAC                       u3685 03CB                       u3765 0A46  
                     u2990 049B                       u3847 173F                       u2975 0D3A  
                     u2991 049A                       u3777 0B81                       u3787 170A  
                     u3797 088C                       _Hum1 006D          ?_Lcd_Write_String 0073  
                     _bits 00A0                       _main 09D0                       btemp 007E  
                     start 0000         ??_Lcd_Write_String 0075            ___fldiv@new_exp 0044  
         ??_DHT11_ReadData 0070            __end_of_Lcd_Cmd 172B        DHT11_ReadData@datos 0073  
     __size_of_DHT11_start 001B              ___fltol@sign1 0079            __end_of___fladd 1000  
                    ?_main 0070            __end_of___fldiv 0D68            __end_of___awdiv 092E  
          __end_of___flmul 07EB            __end_of___flsub 0028            __end_of___fltol 00A2  
                    _ANSEL 0188            ___awdiv@divisor 0070                      _T1CON 0010  
          ___awdiv@counter 0075                      _TMR1H 000F                      _TMR1L 000E  
                    _PORTA 0005                      _PORTB 0006                      _PORTD 0008  
                    _PORTE 0009    __size_of_Lcd_Set_Cursor 0024                      _TRISA 0085  
                    _TRISB 0086                      _TRISD 0088                      _TRISE 0089  
                    _Temp1 006F                convert@data 0060                convert@temp 005C  
          __end_of_convert 048A                      _conv0 00AE                      _conv1 00AA  
                    pclath 000A                      status 0003                      wtemp0 007E  
         __end_of_Lcd_Init 08C7           __end_of_Lcd_Port 16EE            __initialization 07EB  
             __end_of_main 0B8B           ??_DHT11_response 0070                     ??_main 00C6  
       __size_of_Lcd_Clear 000D           ___awdiv@dividend 0072                     _ANSELH 0189  
                ??_Lcd_Cmd 0071    __size_of_Lcd_Write_Char 0016           __end_of___xxtofl 015E  
                   ___flge 092E               convert@place 0058                  ??___fladd 0020  
                   ___wmul 17AD                  ??___fldiv 003A                  ??___awdiv 0074  
                ??___flmul 0042                  ??___flsub 007D                  ??___fltol 0074  
                   _config 1746           ___awdiv@quotient 0077                  ??_convert 005A  
       __size_of__Umul8_16 0027            Lcd_Set_Cursor@a 0076            Lcd_Set_Cursor@b 0074  
               ___flge@ff1 0070                 ___flge@ff2 0074               ___xxtofl@arg 002E  
             ___xxtofl@exp 002D               ___xxtofl@val 0024    __end_of__initialization 07FC  
        __end_of_Lcd_Clear 16FB                 ___fltol@f1 0070             __pcstackCOMMON 0070  
           _Lcd_Set_Cursor 1762                  ?_Lcd_Init 0070                  ?_Lcd_Port 0070  
               __pbssBANK0 006B                 __pbssBANK1 00A0          __end_of__Umul8_16 17AD  
               __pmaintext 09D0                    ?___flge 0070                    ?___wmul 0020  
                  ?_config 0070  __size_of_Lcd_Write_String 0042     __end_of_Lcd_Set_Cursor 1786  
                ?___xxtofl 0024                 ??_Lcd_Init 0074                 ??_Lcd_Port 0070  
               __stringtab 1000             _Lcd_Write_Char 16FB                    _Lcd_Cmd 1711  
            ??_DHT11_start 0070              convert@digits 0067            __size_of___flge 00A2  
                  ___fladd 0D68                    ___fldiv 0B8B                    ___awdiv 08C7  
                  ___flmul 048A                    ___flsub 0004                    ___fltol 0028  
          __size_of___wmul 0027            __size_of_config 001C                  _ANSELbits 0188  
          ?_Lcd_Set_Cursor 0074                    __ptext1 015E                    __ptext2 00A2  
                  __ptext3 17AD                    __ptext4 0028                    __ptext5 0004  
                  __ptext6 0D68                    __ptext7 048A                    __ptext8 1786  
                  __ptext9 092E                    _convert 015E                  _T1CONbits 0010  
                  _dummyT1 006E                 ??___xxtofl 0028                    _humedad 00B2  
                  clrloop0 0804     __end_of_Lcd_Write_Char 1711       end_of_initialization 07FC  
                Lcd_Port@a 0070        __end_of_DHT11_start 1746                  _PORTEbits 0009  
  __size_of_DHT11_ReadData 0035                ___fladd@grs 007B              ___xxtofl@sign 002C  
                _TRISAbits 0085                ___fldiv@grs 0046                ___fldiv@rem 003F  
          ?_Lcd_Write_Char 0070          Lcd_Write_String@a 0073          Lcd_Write_String@i 0078  
              ___flmul@grs 0048                  _Lcd_Clear 16EE             __end_of___flge 09D0  
           __end_of___wmul 17D4           _Lcd_Write_String 0840             __end_of_config 1762  
      start_initialization 07EB    __size_of_DHT11_response 002C          __size_of_Lcd_Init 0045  
        __size_of_Lcd_Port 0006                _DHT11_start 172B                 ?_Lcd_Clear 0070  
                 ??___flge 0078                   ??___wmul 007B                  __Umul8_16 1786  
                 ??_config 0070            Lcd_Write_Char@a 0072                  ___fladd@a 0074  
                ___fladd@b 0070                  ___fldiv@a 0032                  ___fldiv@b 0036  
                ___flmul@a 003E                  ___flmul@b 003A                __pbssCOMMON 007D  
                ___flsub@a 0032                  ___flsub@b 0036                  ___latbits 0002  
            __pcstackBANK0 0020              __pcstackBANK1 00C6          __size_of___xxtofl 00BC  
                 ?_Lcd_Cmd 0070           ??_Lcd_Set_Cursor 0075                   ?___fladd 0070  
                 ?___fldiv 0032                   ?___awdiv 0070                   ?___flmul 003A  
                 ?___flsub 0032                   ?___fltol 0070                 ?__Umul8_16 0070  
           _DHT11_ReadData 080B                  __pstrings 1000                   ?_convert 0054  
                 _CHECKSUM 006B                  _dummyHum1 006C             ___wmul@product 007B  
                clear_ram0 0803                   _PIE1bits 008C                   Lcd_Cmd@a 0073  
                 _PIR1bits 000C                ??_Lcd_Clear 0074     __end_of_DHT11_ReadData 0840  
               _ADCON0bits 001F                __stringbase 100F                 _ADCON1bits 009F  
        ___wmul@multiplier 0020           ??_Lcd_Write_Char 0071                   _Lcd_Init 0882  
                 _Lcd_Port 16E8             _DHT11_response 17D4                  convert@mu 0069  
 __end_of_Lcd_Write_String 0882           __size_of_Lcd_Cmd 001A                ??__Umul8_16 0072  
          ?_DHT11_ReadData 0070           __size_of___fladd 0298           __size_of___fldiv 01DD  
         __size_of___awdiv 0067           __size_of___flmul 0361           __size_of___flsub 0024  
         __size_of___fltol 007A            DHT11_ReadData@i 0072         __end_of__stringtab 1010  
               _ANSELHbits 0189           __size_of_convert 032C                   ___xxtofl 00A2  
   __end_of_DHT11_response 1800                   __ptext10 0B8B                   __ptext11 08C7  
                 __ptext20 172B                   __ptext12 1746                   __ptext21 17D4  
                 __ptext13 0840                   __ptext22 080B                   __ptext14 16FB  
                 __ptext15 1762                   __ptext16 0882                   __ptext17 16EE  
                 __ptext18 1711                   __ptext19 16E8                   _contador 007D  
            __size_of_main 01BB               ?_DHT11_start 0070                   convert@a 0054  
                 convert@i 0065                   convert@j 005E                   convert@x 0061  
          ?_DHT11_response 0070                  stringcode 100A                 _OSCCONbits 008F  
       Lcd_Set_Cursor@temp 0077     __Umul8_16@multiplicand 0070                _temperatura 00BC  
                 stringdir 100A                   stringtab 1000              ___fladd@signs 0078  
             ___fladd@aexp 0079               ___fladd@bexp 007A       __Umul8_16@multiplier 0078  
        __Umul8_16@product 0074  
